 PhysXCommon_32

 Timestamp is 6446c891 (Mon Apr 24 20:21:05 2023)

 Preferred load address is 10000000

 Start         Length     Name                   Class
 0001:00000000 0000d410H .text$di                CODE
 0001:0000d410 001c0b50H .text$mn                CODE
 0001:001cdf60 00000c8dH .text$x                 CODE
 0002:00000000 00000164H .idata$5                DATA
 0002:00000164 00000008H .00cfg                  DATA
 0002:0000016c 00000004H .CRT$XCA                DATA
 0002:00000170 00000a2cH .CRT$XCU                DATA
 0002:00000b9c 00000004H .CRT$XCZ                DATA
 0002:00000ba0 00000004H .CRT$XIA                DATA
 0002:00000ba4 0000000cH .CRT$XIC                DATA
 0002:00000bb0 00000004H .CRT$XIZ                DATA
 0002:00000bb4 00000004H .CRT$XPA                DATA
 0002:00000bb8 00000008H .CRT$XPX                DATA
 0002:00000bc0 00000004H .CRT$XPXA               DATA
 0002:00000bc4 00000004H .CRT$XPZ                DATA
 0002:00000bc8 00000004H .CRT$XTA                DATA
 0002:00000bcc 00000004H .CRT$XTZ                DATA
 0002:00000bd0 00000000H .gfids$y                DATA
 0002:00000bd0 0002a9f0H .rdata                  DATA
 0002:0002b5c0 00000004H .rdata$CastGuardVftablesA DATA
 0002:0002b5c4 00000004H .rdata$CastGuardVftablesC DATA
 0002:0002b5c8 000002a0H .rdata$r                DATA
 0002:0002b868 0000019cH .rdata$sxdata           DATA
 0002:0002ba04 00000518H .rdata$voltmd           DATA
 0002:0002bf1c 00000458H .rdata$zzzdbg           DATA
 0002:0002c374 00000004H .rtc$IAA                DATA
 0002:0002c378 00000214H .rtc$IMZ                DATA
 0002:0002c58c 00000004H .rtc$IZZ                DATA
 0002:0002c590 00000004H .rtc$TAA                DATA
 0002:0002c594 00000214H .rtc$TMZ                DATA
 0002:0002c7a8 00000008H .rtc$TZZ                DATA
 0002:0002c7b0 0000187cH .xdata$x                DATA
 0002:0002e02c 00000020H .didat$2                DATA
 0002:0002e04c 00000020H .didat$3                DATA
 0002:0002e06c 00000060H .didat$4                DATA
 0002:0002e0cc 00000444H .didat$6                DATA
 0002:0002e510 00000060H .didat$7                DATA
 0002:0002e570 00009f5cH .edata                  DATA
 0002:000384cc 00000014H .idata$2                DATA
 0002:000384e0 00000014H .idata$3                DATA
 0002:000384f4 00000164H .idata$4                DATA
 0002:00038658 00000678H .idata$6                DATA
 0003:00000000 00000d70H .data                   DATA
 0003:00000d70 00000354H .data$r                 DATA
 0003:000010c4 000000b4H .data$rs                DATA
 0003:00001178 00000068H .didat$5                DATA
 0003:000011e0 000045ecH .bss                    DATA
 0004:00000000 000000a0H .rsrc$01                DATA
 0004:000000a0 000004b0H .rsrc$02                DATA

  Address         Publics by Value              Rva+Base       Lib:Object

 0000:00000000       ___arm64x_redirection_metadata_count 00000000     <absolute>
 0000:00000000       ___guard_fids_table        00000000     <absolute>
 0000:00000000       ___hybrid_code_map         00000000     <absolute>
 0000:00000000       ___guard_eh_cont_table     00000000     <absolute>
 0000:00000000       ___hybrid_auxiliary_iat    00000000     <absolute>
 0000:00000000       ___arm64x_extra_rfe_table  00000000     <absolute>
 0000:00000000       ___x64_code_ranges_to_entry_points 00000000     <absolute>
 0000:00000000       ___arm64x_redirection_metadata 00000000     <absolute>
 0000:00000000       ___hybrid_auxiliary_iat_copy 00000000     <absolute>
 0000:00000000       ___AbsoluteZero            00000000     <absolute>
 0000:00000000       ___enclave_config          00000000     <absolute>
 0000:00000000       ___guard_eh_cont_count     00000000     <absolute>
 0000:00000000       ___arm64x_native_entrypoint 00000000     <absolute>
 0000:00000000       ___guard_fids_count        00000000     <absolute>
 0000:00000000       ___x64_code_ranges_to_entry_points_count 00000000     <absolute>
 0000:00000000       ___arm64x_extra_rfe_table_size 00000000     <absolute>
 0000:00000000       ___guard_longjmp_count     00000000     <absolute>
 0000:00000000       ___guard_iat_count         00000000     <absolute>
 0000:00000000       ___guard_iat_table         00000000     <absolute>
 0000:00000000       ___hybrid_code_map_count   00000000     <absolute>
 0000:00000000       __except_list              00000000     <absolute>
 0000:00000000       ___guard_check_icall_a64n_fptr 00000000     <absolute>
 0000:00000000       ___guard_longjmp_table     00000000     <absolute>
 0000:00000000       ___dynamic_value_reloc_table 00000000     <absolute>
 0000:00000067       ___safe_se_handler_count   00000067     <absolute>
 0000:00000100       ___guard_flags             00000100     <absolute>
 0000:00000000       ___ImageBase               10000000     <linker-defined>
 0001:0000d410       ?PxCreateCollection@@YAPAVPxCollection@physx@@XZ 1000e410 f   CmCollection.obj
 0001:0000d460       ?add@Collection@Cm@physx@@UAEXAAVPxBase@3@_K@Z 1000e460 f   CmCollection.obj
 0001:0000d530       ?remove@Collection@Cm@physx@@UAEXAAVPxBase@3@@Z 1000e530 f   CmCollection.obj
 0001:0000d5e0       ?contains@Collection@Cm@physx@@UBE_NAAVPxBase@3@@Z 1000e5e0 f   CmCollection.obj
 0001:0000d620       ?addId@Collection@Cm@physx@@UAEXAAVPxBase@3@_K@Z 1000e620 f   CmCollection.obj
 0001:0000d780       ?removeId@Collection@Cm@physx@@UAEX_K@Z 1000e780 f   CmCollection.obj
 0001:0000d850       ?find@Collection@Cm@physx@@UBEPAVPxBase@3@_K@Z 1000e850 f   CmCollection.obj
 0001:0000d8c0       ?add@Collection@Cm@physx@@UAEXAAVPxCollection@3@@Z 1000e8c0 f   CmCollection.obj
 0001:0000da60       ?remove@Collection@Cm@physx@@UAEXAAVPxCollection@3@@Z 1000ea60 f   CmCollection.obj
 0001:0000db20       ?getNbObjects@Collection@Cm@physx@@UBEIXZ 1000eb20 f   CmCollection.obj
 0001:0000db40       ?getObject@Collection@Cm@physx@@UBEAAVPxBase@3@I@Z 1000eb40 f   CmCollection.obj
 0001:0000dbb0       ?getObjects@Collection@Cm@physx@@UBEIPAPAVPxBase@3@II@Z 1000ebb0 f   CmCollection.obj
 0001:0000dc90       ?getNbIds@Collection@Cm@physx@@UBEIXZ 1000ec90 f   CmCollection.obj
 0001:0000dcb0       ?getId@Collection@Cm@physx@@UBE_KABVPxBase@3@@Z 1000ecb0 f   CmCollection.obj
 0001:0000dd00       ?getIds@Collection@Cm@physx@@UBEIPA_KII@Z 1000ed00 f   CmCollection.obj
 0001:0000de10       ??$?2V?$ReflectionAllocator@VCollection@Cm@physx@@@shdfnd@physx@@@UserAllocated@shdfnd@physx@@SAPAXIV?$ReflectionAllocator@VCollection@Cm@physx@@@12@PBDH@Z 1000ee10 f i CmCollection.obj
 0001:0000de30       ??0?$CoalescedHashMap@PAVPxBase@physx@@_KU?$Hash@PAVPxBase@physx@@@shdfnd@2@VNonTrackingAllocator@42@@shdfnd@physx@@QAE@IM@Z 1000ee30 f i CmCollection.obj
 0001:0000de60       ??0?$CoalescedHashMap@_KPAVPxBase@physx@@U?$Hash@_K@shdfnd@2@VNonTrackingAllocator@42@@shdfnd@physx@@QAE@IM@Z 1000ee60 f i CmCollection.obj
 0001:0000de90       ??0?$CollectionHashMap@PAVPxBase@physx@@_KU?$Hash@PAVPxBase@physx@@@shdfnd@2@VNonTrackingAllocator@42@@Cm@physx@@QAE@IM@Z 1000ee90 f i CmCollection.obj
 0001:0000dec0       ??0?$CollectionHashMap@_KPAVPxBase@physx@@U?$Hash@_K@shdfnd@2@VNonTrackingAllocator@42@@Cm@physx@@QAE@IM@Z 1000eec0 f i CmCollection.obj
 0001:0000def0       ??0?$HashBase@V?$Pair@$$CB_KPAVPxBase@physx@@@shdfnd@physx@@_KU?$Hash@_K@23@UGetKey@?$HashMapBase@_KPAVPxBase@physx@@U?$Hash@_K@shdfnd@2@VNonTrackingAllocator@42@@internal@23@VNonTrackingAllocator@23@$00@internal@shdfnd@physx@@QAE@IM@Z 1000eef0 f i CmCollection.obj
 0001:0000df30       ??0?$HashBase@V?$Pair@QAVPxBase@physx@@_K@shdfnd@physx@@PAVPxBase@3@U?$Hash@PAVPxBase@physx@@@23@UGetKey@?$HashMapBase@PAVPxBase@physx@@_KU?$Hash@PAVPxBase@physx@@@shdfnd@2@VNonTrackingAllocator@42@@internal@23@VNonTrackingAllocator@23@$00@internal@shdfnd@physx@@QAE@IM@Z 1000ef30 f i CmCollection.obj
 0001:0000df70       ??0?$HashMapBase@PAVPxBase@physx@@_KU?$Hash@PAVPxBase@physx@@@shdfnd@2@VNonTrackingAllocator@42@@internal@shdfnd@physx@@QAE@IM@Z 1000ef70 f i CmCollection.obj
 0001:0000dfa0       ??0?$HashMapBase@_KPAVPxBase@physx@@U?$Hash@_K@shdfnd@2@VNonTrackingAllocator@42@@internal@shdfnd@physx@@QAE@IM@Z 1000efa0 f i CmCollection.obj
 0001:0000dfd0       ??0?$Pair@$$CB_KPAVPxBase@physx@@@shdfnd@physx@@QAE@ABV012@@Z 1000efd0 f i CmCollection.obj
 0001:0000e000       ??0?$Pair@$$CB_KPAVPxBase@physx@@@shdfnd@physx@@QAE@AB_KABQAVPxBase@2@@Z 1000f000 f i CmCollection.obj
 0001:0000e030       ??0?$Pair@QAVPxBase@physx@@_K@shdfnd@physx@@QAE@ABQAVPxBase@2@AB_K@Z 1000f030 f i CmCollection.obj
 0001:0000e060       ??0?$Pair@QAVPxBase@physx@@_K@shdfnd@physx@@QAE@ABV012@@Z 1000f060 f i CmCollection.obj
 0001:0000e090       ??0?$ReflectionAllocator@VCollection@Cm@physx@@@shdfnd@physx@@QAE@PBD@Z 1000f090 f i CmCollection.obj
 0001:0000e0a0       ??0Collection@Cm@physx@@QAE@XZ 1000f0a0 f i CmCollection.obj
 0001:0000e100       ??0Iter@?$HashBase@V?$Pair@$$CB_KPAVPxBase@physx@@@shdfnd@physx@@_KU?$Hash@_K@23@UGetKey@?$HashMapBase@_KPAVPxBase@physx@@U?$Hash@_K@shdfnd@2@VNonTrackingAllocator@42@@internal@23@VNonTrackingAllocator@23@$00@internal@shdfnd@physx@@QAE@AAV1234@@Z 1000f100 f i CmCollection.obj
 0001:0000e170       ??0NonTrackingAllocator@shdfnd@physx@@QAE@PBD@Z 1000f170 f i CmCollection.obj
 0001:0000e180       ??0PxCollection@physx@@IAE@XZ 1000f180 f i CmCollection.obj
 0001:0000e1a0       ??1?$CoalescedHashMap@PAVPxBase@physx@@_KU?$Hash@PAVPxBase@physx@@@shdfnd@2@VNonTrackingAllocator@42@@shdfnd@physx@@QAE@XZ 1000f1a0 f i CmCollection.obj
 0001:0000e1c0       ??1?$CoalescedHashMap@_KPAVPxBase@physx@@U?$Hash@_K@shdfnd@2@VNonTrackingAllocator@42@@shdfnd@physx@@QAE@XZ 1000f1c0 f i CmCollection.obj
 0001:0000e1e0       ??1?$CollectionHashMap@PAVPxBase@physx@@_KU?$Hash@PAVPxBase@physx@@@shdfnd@2@VNonTrackingAllocator@42@@Cm@physx@@QAE@XZ 1000f1e0 f i CmCollection.obj
 0001:0000e200       ??1?$CollectionHashMap@_KPAVPxBase@physx@@U?$Hash@_K@shdfnd@2@VNonTrackingAllocator@42@@Cm@physx@@QAE@XZ 1000f200 f i CmCollection.obj
 0001:0000e220       ??1?$HashBase@V?$Pair@$$CB_KPAVPxBase@physx@@@shdfnd@physx@@_KU?$Hash@_K@23@UGetKey@?$HashMapBase@_KPAVPxBase@physx@@U?$Hash@_K@shdfnd@2@VNonTrackingAllocator@42@@internal@23@VNonTrackingAllocator@23@$00@internal@shdfnd@physx@@QAE@XZ 1000f220 f i CmCollection.obj
 0001:0000e250       ??1?$HashBase@V?$Pair@QAVPxBase@physx@@_K@shdfnd@physx@@PAVPxBase@3@U?$Hash@PAVPxBase@physx@@@23@UGetKey@?$HashMapBase@PAVPxBase@physx@@_KU?$Hash@PAVPxBase@physx@@@shdfnd@2@VNonTrackingAllocator@42@@internal@23@VNonTrackingAllocator@23@$00@internal@shdfnd@physx@@QAE@XZ 1000f250 f i CmCollection.obj
 0001:0000e280       ??1?$HashMapBase@PAVPxBase@physx@@_KU?$Hash@PAVPxBase@physx@@@shdfnd@2@VNonTrackingAllocator@42@@internal@shdfnd@physx@@QAE@XZ 1000f280 f i CmCollection.obj
 0001:0000e2a0       ??1?$HashMapBase@_KPAVPxBase@physx@@U?$Hash@_K@shdfnd@2@VNonTrackingAllocator@42@@internal@shdfnd@physx@@QAE@XZ 1000f2a0 f i CmCollection.obj
 0001:0000e2c0       ??1Collection@Cm@physx@@UAE@XZ 1000f2c0 f i CmCollection.obj
 0001:0000e2f0       ??1PxCollection@physx@@MAE@XZ 1000f2f0 f i CmCollection.obj
 0001:0000e310       ??2@YAPAXIPAX@Z            1000f310 f i CmCollection.obj
 0001:0000e320       ??3UserAllocated@shdfnd@physx@@SAXPAX@Z 1000f320 f i CmCollection.obj
 0001:0000e340       ??A?$HashMapBase@PAVPxBase@physx@@_KU?$Hash@PAVPxBase@physx@@@shdfnd@2@VNonTrackingAllocator@42@@internal@shdfnd@physx@@QAEAA_KABQAVPxBase@3@@Z 1000f340 f i CmCollection.obj
 0001:0000e3a0       ??A?$HashMapBase@_KPAVPxBase@physx@@U?$Hash@_K@shdfnd@2@VNonTrackingAllocator@42@@internal@shdfnd@physx@@QAEAAPAVPxBase@3@AB_K@Z 1000f3a0 f i CmCollection.obj
 0001:0000e400       ??CIter@?$HashBase@V?$Pair@$$CB_KPAVPxBase@physx@@@shdfnd@physx@@_KU?$Hash@_K@23@UGetKey@?$HashMapBase@_KPAVPxBase@physx@@U?$Hash@_K@shdfnd@2@VNonTrackingAllocator@42@@internal@23@VNonTrackingAllocator@23@$00@internal@shdfnd@physx@@QAEPAV?$Pair@$$CB_KPAVPxBase@physx@@@34@XZ 1000f400 f i CmCollection.obj
 0001:0000e430       ??EIter@?$HashBase@V?$Pair@$$CB_KPAVPxBase@physx@@@shdfnd@physx@@_KU?$Hash@_K@23@UGetKey@?$HashMapBase@_KPAVPxBase@physx@@U?$Hash@_K@shdfnd@2@VNonTrackingAllocator@42@@internal@23@VNonTrackingAllocator@23@$00@internal@shdfnd@physx@@QAE?AV01234@H@Z 1000f430 f i CmCollection.obj
 0001:0000e490       ??R?$Hash@PAVPxBase@physx@@@shdfnd@physx@@QBEIABQAVPxBase@2@@Z 1000f490 f i CmCollection.obj
 0001:0000e4b0       ??R?$Hash@_K@shdfnd@physx@@QBEIAB_K@Z 1000f4b0 f i CmCollection.obj
 0001:0000e4d0       ??RGetKey@?$HashMapBase@PAVPxBase@physx@@_KU?$Hash@PAVPxBase@physx@@@shdfnd@2@VNonTrackingAllocator@42@@internal@shdfnd@physx@@QAEABQAVPxBase@4@ABV?$Pair@QAVPxBase@physx@@_K@34@@Z 1000f4d0 f i CmCollection.obj
 0001:0000e4e0       ??RGetKey@?$HashMapBase@_KPAVPxBase@physx@@U?$Hash@_K@shdfnd@2@VNonTrackingAllocator@42@@internal@shdfnd@physx@@QAEAB_KABV?$Pair@$$CB_KPAVPxBase@physx@@@34@@Z 1000f4e0 f i CmCollection.obj
 0001:0000e4f0       ??_GCollection@Cm@physx@@UAEPAXI@Z 1000f4f0 f i CmCollection.obj
 0001:0000e4f0       ??_ECollection@Cm@physx@@UAEPAXI@Z 1000f4f0 f i CmCollection.obj
 0001:0000e540       ??_GPxCollection@physx@@MAEPAXI@Z 1000f540 f i CmCollection.obj
 0001:0000e540       ??_EPxCollection@physx@@MAEPAXI@Z 1000f540 f i CmCollection.obj
 0001:0000e570       ?__empty_global_delete@@YAXPAX@Z 1000f570 f i CmCollection.obj
 0001:0000e580       ?__empty_global_delete@@YAXPAXI@Z 1000f580 f i CmCollection.obj
 0001:0000e590       ?advance@Iter@?$HashBase@V?$Pair@$$CB_KPAVPxBase@physx@@@shdfnd@physx@@_KU?$Hash@_K@23@UGetKey@?$HashMapBase@_KPAVPxBase@physx@@U?$Hash@_K@shdfnd@2@VNonTrackingAllocator@42@@internal@23@VNonTrackingAllocator@23@$00@internal@shdfnd@physx@@AAEXXZ 1000f590 f i CmCollection.obj
 0001:0000e5c0       ?allocate@?$ReflectionAllocator@VCollection@Cm@physx@@@shdfnd@physx@@QAEPAXIPBDH@Z 1000f5c0 f i CmCollection.obj
 0001:0000e610       ?allocate@NonTrackingAllocator@shdfnd@physx@@QAEPAXIPBDH@Z 1000f610 f i CmCollection.obj
 0001:0000e660       ?capacity@?$HashBase@V?$Pair@QAVPxBase@physx@@_K@shdfnd@physx@@PAVPxBase@3@U?$Hash@PAVPxBase@physx@@@23@UGetKey@?$HashMapBase@PAVPxBase@physx@@_KU?$Hash@PAVPxBase@physx@@@shdfnd@2@VNonTrackingAllocator@42@@internal@23@VNonTrackingAllocator@23@$00@internal@shdfnd@physx@@QBEIXZ 1000f660 f i CmCollection.obj
 0001:0000e680       ?capacity@?$HashMapBase@PAVPxBase@physx@@_KU?$Hash@PAVPxBase@physx@@@shdfnd@2@VNonTrackingAllocator@42@@internal@shdfnd@physx@@QBEIXZ 1000f680 f i CmCollection.obj
 0001:0000e6a0       ?check@Iter@?$HashBase@V?$Pair@$$CB_KPAVPxBase@physx@@@shdfnd@physx@@_KU?$Hash@_K@23@UGetKey@?$HashMapBase@_KPAVPxBase@physx@@U?$Hash@_K@shdfnd@2@VNonTrackingAllocator@42@@internal@23@VNonTrackingAllocator@23@$00@internal@shdfnd@physx@@QBEXXZ 1000f6a0 f i CmCollection.obj
 0001:0000e700       ?create@?$HashBase@V?$Pair@$$CB_KPAVPxBase@physx@@@shdfnd@physx@@_KU?$Hash@_K@23@UGetKey@?$HashMapBase@_KPAVPxBase@physx@@U?$Hash@_K@shdfnd@2@VNonTrackingAllocator@42@@internal@23@VNonTrackingAllocator@23@$00@internal@shdfnd@physx@@QAEPAV?$Pair@$$CB_KPAVPxBase@physx@@@34@AB_KAA_N@Z 1000f700 f i CmCollection.obj
 0001:0000e850       ?create@?$HashBase@V?$Pair@QAVPxBase@physx@@_K@shdfnd@physx@@PAVPxBase@3@U?$Hash@PAVPxBase@physx@@@23@UGetKey@?$HashMapBase@PAVPxBase@physx@@_KU?$Hash@PAVPxBase@physx@@@shdfnd@2@VNonTrackingAllocator@42@@internal@23@VNonTrackingAllocator@23@$00@internal@shdfnd@physx@@QAEPAV?$Pair@QAVPxBase@physx@@_K@34@ABQAVPxBase@4@AA_N@Z 1000f850 f i CmCollection.obj
 0001:0000e9a0       ?deallocate@NonTrackingAllocator@shdfnd@physx@@QAEXPAX@Z 1000f9a0 f i CmCollection.obj
 0001:0000e9d0       ?destroy@?$HashBase@V?$Pair@$$CB_KPAVPxBase@physx@@@shdfnd@physx@@_KU?$Hash@_K@23@UGetKey@?$HashMapBase@_KPAVPxBase@physx@@U?$Hash@_K@shdfnd@2@VNonTrackingAllocator@42@@internal@23@VNonTrackingAllocator@23@$00@internal@shdfnd@physx@@AAEXXZ 1000f9d0 f i CmCollection.obj
 0001:0000ea30       ?destroy@?$HashBase@V?$Pair@QAVPxBase@physx@@_K@shdfnd@physx@@PAVPxBase@3@U?$Hash@PAVPxBase@physx@@@23@UGetKey@?$HashMapBase@PAVPxBase@physx@@_KU?$Hash@PAVPxBase@physx@@@shdfnd@2@VNonTrackingAllocator@42@@internal@23@VNonTrackingAllocator@23@$00@internal@shdfnd@physx@@AAEXXZ 1000fa30 f i CmCollection.obj
 0001:0000ea90       ?done@Iter@?$HashBase@V?$Pair@$$CB_KPAVPxBase@physx@@@shdfnd@physx@@_KU?$Hash@_K@23@UGetKey@?$HashMapBase@_KPAVPxBase@physx@@U?$Hash@_K@shdfnd@2@VNonTrackingAllocator@42@@internal@23@VNonTrackingAllocator@23@$00@internal@shdfnd@physx@@QBE_NXZ 1000fa90 f i CmCollection.obj
 0001:0000ead0       ?equal@?$Hash@PAVPxBase@physx@@@shdfnd@physx@@QBE_NABQAVPxBase@3@0@Z 1000fad0 f i CmCollection.obj
 0001:0000eb00       ?equal@?$Hash@_K@shdfnd@physx@@QBE_NAB_K0@Z 1000fb00 f i CmCollection.obj
 0001:0000eb50       ?erase@?$HashBase@V?$Pair@$$CB_KPAVPxBase@physx@@@shdfnd@physx@@_KU?$Hash@_K@23@UGetKey@?$HashMapBase@_KPAVPxBase@physx@@U?$Hash@_K@shdfnd@2@VNonTrackingAllocator@42@@internal@23@VNonTrackingAllocator@23@$00@internal@shdfnd@physx@@QAE_NAB_K@Z 1000fb50 f i CmCollection.obj
 0001:0000ebf0       ?erase@?$HashBase@V?$Pair@QAVPxBase@physx@@_K@shdfnd@physx@@PAVPxBase@3@U?$Hash@PAVPxBase@physx@@@23@UGetKey@?$HashMapBase@PAVPxBase@physx@@_KU?$Hash@PAVPxBase@physx@@@shdfnd@2@VNonTrackingAllocator@42@@internal@23@VNonTrackingAllocator@23@$00@internal@shdfnd@physx@@QAE_NABQAVPxBase@4@@Z 1000fbf0 f i CmCollection.obj
 0001:0000ec90       ?erase@?$HashMapBase@PAVPxBase@physx@@_KU?$Hash@PAVPxBase@physx@@@shdfnd@2@VNonTrackingAllocator@42@@internal@shdfnd@physx@@QAE_NABQAVPxBase@4@@Z 1000fc90 f i CmCollection.obj
 0001:0000ecb0       ?erase@?$HashMapBase@_KPAVPxBase@physx@@U?$Hash@_K@shdfnd@2@VNonTrackingAllocator@42@@internal@shdfnd@physx@@QAE_NAB_K@Z 1000fcb0 f i CmCollection.obj
 0001:0000ecd0       ?eraseInternal@?$HashBase@V?$Pair@$$CB_KPAVPxBase@physx@@@shdfnd@physx@@_KU?$Hash@_K@23@UGetKey@?$HashMapBase@_KPAVPxBase@physx@@U?$Hash@_K@shdfnd@2@VNonTrackingAllocator@42@@internal@23@VNonTrackingAllocator@23@$00@internal@shdfnd@physx@@AAE_NPAI@Z 1000fcd0 f i CmCollection.obj
 0001:0000ed50       ?eraseInternal@?$HashBase@V?$Pair@QAVPxBase@physx@@_K@shdfnd@physx@@PAVPxBase@3@U?$Hash@PAVPxBase@physx@@@23@UGetKey@?$HashMapBase@PAVPxBase@physx@@_KU?$Hash@PAVPxBase@physx@@@shdfnd@2@VNonTrackingAllocator@42@@internal@23@VNonTrackingAllocator@23@$00@internal@shdfnd@physx@@AAE_NPAI@Z 1000fd50 f i CmCollection.obj
 0001:0000edd0       ?find@?$HashBase@V?$Pair@$$CB_KPAVPxBase@physx@@@shdfnd@physx@@_KU?$Hash@_K@23@UGetKey@?$HashMapBase@_KPAVPxBase@physx@@U?$Hash@_K@shdfnd@2@VNonTrackingAllocator@42@@internal@23@VNonTrackingAllocator@23@$00@internal@shdfnd@physx@@QBEPBV?$Pair@$$CB_KPAVPxBase@physx@@@34@AB_K@Z 1000fdd0 f i CmCollection.obj
 0001:0000ee70       ?find@?$HashBase@V?$Pair@QAVPxBase@physx@@_K@shdfnd@physx@@PAVPxBase@3@U?$Hash@PAVPxBase@physx@@@23@UGetKey@?$HashMapBase@PAVPxBase@physx@@_KU?$Hash@PAVPxBase@physx@@@shdfnd@2@VNonTrackingAllocator@42@@internal@23@VNonTrackingAllocator@23@$00@internal@shdfnd@physx@@QBEPBV?$Pair@QAVPxBase@physx@@_K@34@ABQAVPxBase@4@@Z 1000fe70 f i CmCollection.obj
 0001:0000ef10       ?find@?$HashMapBase@PAVPxBase@physx@@_KU?$Hash@PAVPxBase@physx@@@shdfnd@2@VNonTrackingAllocator@42@@internal@shdfnd@physx@@QBEPBV?$Pair@QAVPxBase@physx@@_K@34@ABQAVPxBase@4@@Z 1000ff10 f i CmCollection.obj
 0001:0000ef30       ?find@?$HashMapBase@_KPAVPxBase@physx@@U?$Hash@_K@shdfnd@2@VNonTrackingAllocator@42@@internal@shdfnd@physx@@QBEPBV?$Pair@$$CB_KPAVPxBase@physx@@@34@AB_K@Z 1000ff30 f i CmCollection.obj
 0001:0000ef50       ?freeListAdd@?$HashBase@V?$Pair@$$CB_KPAVPxBase@physx@@@shdfnd@physx@@_KU?$Hash@_K@23@UGetKey@?$HashMapBase@_KPAVPxBase@physx@@U?$Hash@_K@shdfnd@2@VNonTrackingAllocator@42@@internal@23@VNonTrackingAllocator@23@$00@internal@shdfnd@physx@@AAEXI@Z 1000ff50 f i CmCollection.obj
 0001:0000efe0       ?freeListAdd@?$HashBase@V?$Pair@$$CB_KPAVPxBase@physx@@@shdfnd@physx@@_KU?$Hash@_K@23@UGetKey@?$HashMapBase@_KPAVPxBase@physx@@U?$Hash@_K@shdfnd@2@VNonTrackingAllocator@42@@internal@23@VNonTrackingAllocator@23@$00@internal@shdfnd@physx@@AAEXII@Z 1000ffe0 f i CmCollection.obj
 0001:0000f0a0       ?freeListAdd@?$HashBase@V?$Pair@QAVPxBase@physx@@_K@shdfnd@physx@@PAVPxBase@3@U?$Hash@PAVPxBase@physx@@@23@UGetKey@?$HashMapBase@PAVPxBase@physx@@_KU?$Hash@PAVPxBase@physx@@@shdfnd@2@VNonTrackingAllocator@42@@internal@23@VNonTrackingAllocator@23@$00@internal@shdfnd@physx@@AAEXI@Z 100100a0 f i CmCollection.obj
 0001:0000f130       ?freeListAdd@?$HashBase@V?$Pair@QAVPxBase@physx@@_K@shdfnd@physx@@PAVPxBase@3@U?$Hash@PAVPxBase@physx@@@23@UGetKey@?$HashMapBase@PAVPxBase@physx@@_KU?$Hash@PAVPxBase@physx@@@shdfnd@2@VNonTrackingAllocator@42@@internal@23@VNonTrackingAllocator@23@$00@internal@shdfnd@physx@@AAEXII@Z 10010130 f i CmCollection.obj
 0001:0000f1f0       ?freeListEmpty@?$HashBase@V?$Pair@$$CB_KPAVPxBase@physx@@@shdfnd@physx@@_KU?$Hash@_K@23@UGetKey@?$HashMapBase@_KPAVPxBase@physx@@U?$Hash@_K@shdfnd@2@VNonTrackingAllocator@42@@internal@23@VNonTrackingAllocator@23@$00@internal@shdfnd@physx@@ABE_NXZ 100101f0 f i CmCollection.obj
 0001:0000f250       ?freeListEmpty@?$HashBase@V?$Pair@QAVPxBase@physx@@_K@shdfnd@physx@@PAVPxBase@3@U?$Hash@PAVPxBase@physx@@@23@UGetKey@?$HashMapBase@PAVPxBase@physx@@_KU?$Hash@PAVPxBase@physx@@@shdfnd@2@VNonTrackingAllocator@42@@internal@23@VNonTrackingAllocator@23@$00@internal@shdfnd@physx@@ABE_NXZ 10010250 f i CmCollection.obj
 0001:0000f2b0       ?freeListGetNext@?$HashBase@V?$Pair@$$CB_KPAVPxBase@physx@@@shdfnd@physx@@_KU?$Hash@_K@23@UGetKey@?$HashMapBase@_KPAVPxBase@physx@@U?$Hash@_K@shdfnd@2@VNonTrackingAllocator@42@@internal@23@VNonTrackingAllocator@23@$00@internal@shdfnd@physx@@AAEIXZ 100102b0 f i CmCollection.obj
 0001:0000f390       ?freeListGetNext@?$HashBase@V?$Pair@QAVPxBase@physx@@_K@shdfnd@physx@@PAVPxBase@3@U?$Hash@PAVPxBase@physx@@@23@UGetKey@?$HashMapBase@PAVPxBase@physx@@_KU?$Hash@PAVPxBase@physx@@@shdfnd@2@VNonTrackingAllocator@42@@internal@23@VNonTrackingAllocator@23@$00@internal@shdfnd@physx@@AAEIXZ 10010390 f i CmCollection.obj
 0001:0000f470       ?getEntries@?$CoalescedHashMap@PAVPxBase@physx@@_KU?$Hash@PAVPxBase@physx@@@shdfnd@2@VNonTrackingAllocator@42@@shdfnd@physx@@QBEPBV?$Pair@QAVPxBase@physx@@_K@23@XZ 10010470 f i CmCollection.obj
 0001:0000f490       ?getEntries@?$HashBase@V?$Pair@QAVPxBase@physx@@_K@shdfnd@physx@@PAVPxBase@3@U?$Hash@PAVPxBase@physx@@@23@UGetKey@?$HashMapBase@PAVPxBase@physx@@_KU?$Hash@PAVPxBase@physx@@@shdfnd@2@VNonTrackingAllocator@42@@internal@23@VNonTrackingAllocator@23@$00@internal@shdfnd@physx@@QBEPBV?$Pair@QAVPxBase@physx@@_K@34@XZ 10010490 f i CmCollection.obj
 0001:0000f4b0       ?getFoundation@shdfnd@physx@@YAAAVFoundation@12@XZ 100104b0 f i CmCollection.obj
 0001:0000f4c0       ?getIterator@?$HashMapBase@_KPAVPxBase@physx@@U?$Hash@_K@shdfnd@2@VNonTrackingAllocator@42@@internal@shdfnd@physx@@QAE?AVIter@?$HashBase@V?$Pair@$$CB_KPAVPxBase@physx@@@shdfnd@physx@@_KU?$Hash@_K@23@UGetKey@?$HashMapBase@_KPAVPxBase@physx@@U?$Hash@_K@shdfnd@2@VNonTrackingAllocator@42@@internal@23@VNonTrackingAllocator@23@$00@234@XZ 100104c0 f i CmCollection.obj
 0001:0000f4e0       ?getName@?$ReflectionAllocator@VCollection@Cm@physx@@@shdfnd@physx@@CAPBDXZ 100104e0 f i CmCollection.obj
 0001:0000f520       ?grow@?$HashBase@V?$Pair@$$CB_KPAVPxBase@physx@@@shdfnd@physx@@_KU?$Hash@_K@23@UGetKey@?$HashMapBase@_KPAVPxBase@physx@@U?$Hash@_K@shdfnd@2@VNonTrackingAllocator@42@@internal@23@VNonTrackingAllocator@23@$00@internal@shdfnd@physx@@AAEXXZ 10010520 f i CmCollection.obj
 0001:0000f5c0       ?grow@?$HashBase@V?$Pair@QAVPxBase@physx@@_K@shdfnd@physx@@PAVPxBase@3@U?$Hash@PAVPxBase@physx@@@23@UGetKey@?$HashMapBase@PAVPxBase@physx@@_KU?$Hash@PAVPxBase@physx@@@shdfnd@2@VNonTrackingAllocator@42@@internal@23@VNonTrackingAllocator@23@$00@internal@shdfnd@physx@@AAEXXZ 100105c0 f i CmCollection.obj
 0001:0000f660       ?hash@?$HashBase@V?$Pair@$$CB_KPAVPxBase@physx@@@shdfnd@physx@@_KU?$Hash@_K@23@UGetKey@?$HashMapBase@_KPAVPxBase@physx@@U?$Hash@_K@shdfnd@2@VNonTrackingAllocator@42@@internal@23@VNonTrackingAllocator@23@$00@internal@shdfnd@physx@@ABEIAB_K@Z 10010660 f i CmCollection.obj
 0001:0000f680       ?hash@?$HashBase@V?$Pair@$$CB_KPAVPxBase@physx@@@shdfnd@physx@@_KU?$Hash@_K@23@UGetKey@?$HashMapBase@_KPAVPxBase@physx@@U?$Hash@_K@shdfnd@2@VNonTrackingAllocator@42@@internal@23@VNonTrackingAllocator@23@$00@internal@shdfnd@physx@@ABEIAB_KI@Z 10010680 f i CmCollection.obj
 0001:0000f6b0       ?hash@?$HashBase@V?$Pair@QAVPxBase@physx@@_K@shdfnd@physx@@PAVPxBase@3@U?$Hash@PAVPxBase@physx@@@23@UGetKey@?$HashMapBase@PAVPxBase@physx@@_KU?$Hash@PAVPxBase@physx@@@shdfnd@2@VNonTrackingAllocator@42@@internal@23@VNonTrackingAllocator@23@$00@internal@shdfnd@physx@@ABEIABQAVPxBase@4@@Z 100106b0 f i CmCollection.obj
 0001:0000f6d0       ?hash@?$HashBase@V?$Pair@QAVPxBase@physx@@_K@shdfnd@physx@@PAVPxBase@3@U?$Hash@PAVPxBase@physx@@@23@UGetKey@?$HashMapBase@PAVPxBase@physx@@_KU?$Hash@PAVPxBase@physx@@@shdfnd@2@VNonTrackingAllocator@42@@internal@23@VNonTrackingAllocator@23@$00@internal@shdfnd@physx@@ABEIABQAVPxBase@4@I@Z 100106d0 f i CmCollection.obj
 0001:0000f700       ?hash@shdfnd@physx@@YAII@Z 10010700 f i CmCollection.obj
 0001:0000f760       ?hash@shdfnd@physx@@YAIPBX@Z 10010760 f i CmCollection.obj
 0001:0000f780       ?hash@shdfnd@physx@@YAI_K@Z 10010780 f i CmCollection.obj
 0001:0000f870       ?init@?$HashBase@V?$Pair@$$CB_KPAVPxBase@physx@@@shdfnd@physx@@_KU?$Hash@_K@23@UGetKey@?$HashMapBase@_KPAVPxBase@physx@@U?$Hash@_K@shdfnd@2@VNonTrackingAllocator@42@@internal@23@VNonTrackingAllocator@23@$00@internal@shdfnd@physx@@AAEXIM@Z 10010870 f i CmCollection.obj
 0001:0000f900       ?init@?$HashBase@V?$Pair@QAVPxBase@physx@@_K@shdfnd@physx@@PAVPxBase@3@U?$Hash@PAVPxBase@physx@@@23@UGetKey@?$HashMapBase@PAVPxBase@physx@@_KU?$Hash@PAVPxBase@physx@@@shdfnd@2@VNonTrackingAllocator@42@@internal@23@VNonTrackingAllocator@23@$00@internal@shdfnd@physx@@AAEXIM@Z 10010900 f i CmCollection.obj
 0001:0000f990       ?insert@?$HashMapBase@PAVPxBase@physx@@_KU?$Hash@PAVPxBase@physx@@@shdfnd@2@VNonTrackingAllocator@42@@internal@shdfnd@physx@@QAE_NQAVPxBase@4@_K@Z 10010990 f i CmCollection.obj
 0001:0000fa00       ?insert@?$HashMapBase@_KPAVPxBase@physx@@U?$Hash@_K@shdfnd@2@VNonTrackingAllocator@42@@internal@shdfnd@physx@@QAE_N_KQAVPxBase@4@@Z 10010a00 f i CmCollection.obj
 0001:0000fa70       ?isPowerOfTwo@shdfnd@physx@@YA_NI@Z 10010a70 f i CmCollection.obj
 0001:0000faa0       ?memCopy@intrinsics@physx@@YAPAXPAXPBXI@Z 10010aa0 f i CmCollection.obj
 0001:0000fac0       ?memSet@intrinsics@physx@@YAPAXPAXHI@Z 10010ac0 f i CmCollection.obj
 0001:0000fae0       ?name@type_info@@QBEPBDXZ  10010ae0 f i CmCollection.obj
 0001:0000fb00       ?nextPowerOfTwo@shdfnd@physx@@YAII@Z 10010b00 f i CmCollection.obj
 0001:0000fb50       ?release@Collection@Cm@physx@@UAEXXZ 10010b50 f i CmCollection.obj
 0001:0000fb90       ?replaceWithLast@?$HashBase@V?$Pair@$$CB_KPAVPxBase@physx@@@shdfnd@physx@@_KU?$Hash@_K@23@UGetKey@?$HashMapBase@_KPAVPxBase@physx@@U?$Hash@_K@shdfnd@2@VNonTrackingAllocator@42@@internal@23@VNonTrackingAllocator@23@$00@internal@shdfnd@physx@@AAEXI@Z 10010b90 f i CmCollection.obj
 0001:0000fc90       ?replaceWithLast@?$HashBase@V?$Pair@QAVPxBase@physx@@_K@shdfnd@physx@@PAVPxBase@3@U?$Hash@PAVPxBase@physx@@@23@UGetKey@?$HashMapBase@PAVPxBase@physx@@_KU?$Hash@PAVPxBase@physx@@@shdfnd@2@VNonTrackingAllocator@42@@internal@23@VNonTrackingAllocator@23@$00@internal@shdfnd@physx@@AAEXI@Z 10010c90 f i CmCollection.obj
 0001:0000fd90       ?reserve@?$HashBase@V?$Pair@$$CB_KPAVPxBase@physx@@@shdfnd@physx@@_KU?$Hash@_K@23@UGetKey@?$HashMapBase@_KPAVPxBase@physx@@U?$Hash@_K@shdfnd@2@VNonTrackingAllocator@42@@internal@23@VNonTrackingAllocator@23@$00@internal@shdfnd@physx@@QAEXI@Z 10010d90 f i CmCollection.obj
 0001:0000fdc0       ?reserve@?$HashBase@V?$Pair@QAVPxBase@physx@@_K@shdfnd@physx@@PAVPxBase@3@U?$Hash@PAVPxBase@physx@@@23@UGetKey@?$HashMapBase@PAVPxBase@physx@@_KU?$Hash@PAVPxBase@physx@@@shdfnd@2@VNonTrackingAllocator@42@@internal@23@VNonTrackingAllocator@23@$00@internal@shdfnd@physx@@QAEXI@Z 10010dc0 f i CmCollection.obj
 0001:0000fdf0       ?reserve@?$HashMapBase@PAVPxBase@physx@@_KU?$Hash@PAVPxBase@physx@@@shdfnd@2@VNonTrackingAllocator@42@@internal@shdfnd@physx@@QAEXI@Z 10010df0 f i CmCollection.obj
 0001:0000fe10       ?reserveInternal@?$HashBase@V?$Pair@$$CB_KPAVPxBase@physx@@@shdfnd@physx@@_KU?$Hash@_K@23@UGetKey@?$HashMapBase@_KPAVPxBase@physx@@U?$Hash@_K@shdfnd@2@VNonTrackingAllocator@42@@internal@23@VNonTrackingAllocator@23@$00@internal@shdfnd@physx@@AAEXI@Z 10010e10 f i CmCollection.obj
 0001:000101b0       ?reserveInternal@?$HashBase@V?$Pair@QAVPxBase@physx@@_K@shdfnd@physx@@PAVPxBase@3@U?$Hash@PAVPxBase@physx@@@23@UGetKey@?$HashMapBase@PAVPxBase@physx@@_KU?$Hash@PAVPxBase@physx@@@shdfnd@2@VNonTrackingAllocator@42@@internal@23@VNonTrackingAllocator@23@$00@internal@shdfnd@physx@@AAEXI@Z 100111b0 f i CmCollection.obj
 0001:00010550       ?size@?$HashBase@V?$Pair@$$CB_KPAVPxBase@physx@@@shdfnd@physx@@_KU?$Hash@_K@23@UGetKey@?$HashMapBase@_KPAVPxBase@physx@@U?$Hash@_K@shdfnd@2@VNonTrackingAllocator@42@@internal@23@VNonTrackingAllocator@23@$00@internal@shdfnd@physx@@QBEIXZ 10011550 f i CmCollection.obj
 0001:00010570       ?size@?$HashBase@V?$Pair@QAVPxBase@physx@@_K@shdfnd@physx@@PAVPxBase@3@U?$Hash@PAVPxBase@physx@@@23@UGetKey@?$HashMapBase@PAVPxBase@physx@@_KU?$Hash@PAVPxBase@physx@@@shdfnd@2@VNonTrackingAllocator@42@@internal@23@VNonTrackingAllocator@23@$00@internal@shdfnd@physx@@QBEIXZ 10011570 f i CmCollection.obj
 0001:00010590       ?size@?$HashMapBase@PAVPxBase@physx@@_KU?$Hash@PAVPxBase@physx@@@shdfnd@2@VNonTrackingAllocator@42@@internal@shdfnd@physx@@QBEIXZ 10011590 f i CmCollection.obj
 0001:000105b0       ?size@?$HashMapBase@_KPAVPxBase@physx@@U?$Hash@_K@shdfnd@2@VNonTrackingAllocator@42@@internal@shdfnd@physx@@QBEIXZ 100115b0 f i CmCollection.obj
 0001:000105d0       ?skip@Iter@?$HashBase@V?$Pair@$$CB_KPAVPxBase@physx@@@shdfnd@physx@@_KU?$Hash@_K@23@UGetKey@?$HashMapBase@_KPAVPxBase@physx@@U?$Hash@_K@shdfnd@2@VNonTrackingAllocator@42@@internal@23@VNonTrackingAllocator@23@$00@internal@shdfnd@physx@@AAEXXZ 100115d0 f i CmCollection.obj
 0001:00010630       ??0PtrTable@Cm@physx@@QAE@XZ 10011630 f   CmPtrTable.obj
 0001:00010660       ??1PtrTable@Cm@physx@@QAE@XZ 10011660 f   CmPtrTable.obj
 0001:00010730       ?add@PtrTable@Cm@physx@@QAEXPAXAAVPtrTableStorageManager@23@@Z 10011730 f   CmPtrTable.obj
 0001:00010a00       ?replaceWithLast@PtrTable@Cm@physx@@QAEXIAAVPtrTableStorageManager@23@@Z 10011a00 f   CmPtrTable.obj
 0001:00010cc0       ?clear@PtrTable@Cm@physx@@QAEXAAVPtrTableStorageManager@23@@Z 10011cc0 f   CmPtrTable.obj
 0001:00010d30       ?find@PtrTable@Cm@physx@@QBEIPBX@Z 10011d30 f   CmPtrTable.obj
 0001:00010d90       ?exportExtraData@PtrTable@Cm@physx@@QAEXAAVPxSerializationContext@3@@Z 10011d90 f   CmPtrTable.obj
 0001:00010de0       ?importExtraData@PtrTable@Cm@physx@@QAEXAAVPxDeserializationContext@3@@Z 10011de0 f   CmPtrTable.obj
 0001:00010e10       ?getBinaryMetaData@PtrTable@Cm@physx@@SAXAAVPxOutputStream@3@@Z 10011e10 f   CmPtrTable.obj
 0001:00011010       ?realloc@PtrTable@Cm@physx@@AAEXIIAAVPtrTableStorageManager@23@@Z 10012010 f   CmPtrTable.obj
 0001:00011140       ??$readExtraData@PAX$0BA@@PxDeserializationContext@physx@@QAEPAPAXI@Z 10012140 f i CmPtrTable.obj
 0001:00011170       ??$readExtraData@PAX@PxDeserializationContext@physx@@QAEPAPAXI@Z 10012170 f i CmPtrTable.obj
 0001:000111a0       ??0PtrTable@Cm@physx@@QAE@W4PxEMPTY@2@@Z 100121a0 f i CmPtrTable.obj
 0001:000111f0       ??4PtrTable@Cm@physx@@QAEAAU012@ABU012@@Z 100121f0 f i CmPtrTable.obj
 0001:00011210       ?PxMemCopy@physx@@YAPAXPAXPBXI@Z 10012210 f i CmPtrTable.obj
 0001:00011230       ?alignExtraData@PxDeserializationContext@physx@@QAEXI@Z 10012230 f i CmPtrTable.obj
 0001:00011270       ?getCount@PtrTable@Cm@physx@@QBEIXZ 10012270 f i CmPtrTable.obj
 0001:00011290       ?getPtrs@PtrTable@Cm@physx@@QAEPAPAXXZ 10012290 f i CmPtrTable.obj
 0001:000112c0       ?getPtrs@PtrTable@Cm@physx@@QBEPBQAXXZ 100122c0 f i CmPtrTable.obj
 0001:000112f0       ??0RadixSort@Cm@physx@@QAE@XZ 100122f0 f   CmRadixSort.obj
 0001:00011370       ??1RadixSort@Cm@physx@@UAE@XZ 10012370 f   CmRadixSort.obj
 0001:00011390       ?Sort@RadixSort@Cm@physx@@QAEAAV123@PBIIW4RadixHint@23@@Z 10012390 f   CmRadixSort.obj
 0001:00011ec0       ?Sort@RadixSort@Cm@physx@@QAEAAV123@PBMI@Z 10012ec0 f   CmRadixSort.obj
 0001:00012930       ?SetBuffers@RadixSort@Cm@physx@@QAE_NPAI00PAPAI@Z 10013930 f   CmRadixSort.obj
 0001:000129a0       ??_ERadixSort@Cm@physx@@UAEPAXI@Z 100139a0 f i CmRadixSort.obj
 0001:00012a20       ??_GRadixSort@Cm@physx@@UAEPAXI@Z 10013a20 f i CmRadixSort.obj
 0001:00012a50       ??_I@YGXPAXIIP6EX0@Z@Z     10013a50 f i CmRadixSort.obj
 0001:00012ab0       ?CheckPassValidity@@YAPBIIPBIIPBXAAE@Z 10013ab0 f i CmRadixSort.obj
 0001:00012af0       ?GetNbHits@RadixSort@Cm@physx@@QBEIXZ 10013af0 f i CmRadixSort.obj
 0001:00012b10       ?GetNbTotalCalls@RadixSort@Cm@physx@@QBEIXZ 10013b10 f i CmRadixSort.obj
 0001:00012b30       ?GetRanks@RadixSort@Cm@physx@@QBEPBIXZ 10013b30 f i CmRadixSort.obj
 0001:00012b50       ?GetRecyclable@RadixSort@Cm@physx@@QBEPAIXZ 10013b50 f i CmRadixSort.obj
 0001:00012b70       ?PxMemZero@physx@@YAPAXPAXI@Z 10013b70 f i CmRadixSort.obj
 0001:00012b90       ?invalidateRanks@RadixSort@Cm@physx@@QAEXXZ 10013b90 f i CmRadixSort.obj
 0001:00012bb0       ?memZero@intrinsics@physx@@YAPAXPAXI@Z 10013bb0 f i CmRadixSort.obj
 0001:00012bd0       ??0RadixSortBuffered@Cm@physx@@QAE@XZ 10013bd0 f   CmRadixSortBuffered.obj
 0001:00012bf0       ??1RadixSortBuffered@Cm@physx@@UAE@XZ 10013bf0 f   CmRadixSortBuffered.obj
 0001:00012c20       ?reset@RadixSortBuffered@Cm@physx@@QAEXXZ 10013c20 f   CmRadixSortBuffered.obj
 0001:00012ca0       ?Sort@RadixSortBuffered@Cm@physx@@QAEAAV123@PBIIW4RadixHint@23@@Z 10013ca0 f   CmRadixSortBuffered.obj
 0001:00012d10       ?Sort@RadixSortBuffered@Cm@physx@@QAEAAV123@PBMI@Z 10013d10 f   CmRadixSortBuffered.obj
 0001:00012d80       ?Resize@RadixSortBuffered@Cm@physx@@AAE_NI@Z 10013d80 f   CmRadixSortBuffered.obj
 0001:00012e50       ??_ERadixSortBuffered@Cm@physx@@UAEPAXI@Z 10013e50 f i CmRadixSortBuffered.obj
 0001:00012ed0       ??_GRadixSortBuffered@Cm@physx@@UAEPAXI@Z 10013ed0 f i CmRadixSortBuffered.obj
 0001:00012f00       ?CheckResize@RadixSortBuffered@Cm@physx@@AAEXI@Z 10013f00 f i CmRadixSortBuffered.obj
 0001:00012f60       ??6RenderOutput@Cm@physx@@QAEAAV012@W4Primitive@012@@Z 10013f60 f   CmRenderOutput.obj
 0001:00012f90       ??6RenderOutput@Cm@physx@@QAEAAV012@I@Z 10013f90 f   CmRenderOutput.obj
 0001:00012fb0       ??6RenderOutput@Cm@physx@@QAEAAV012@ABVPxMat44@2@@Z 10013fb0 f   CmRenderOutput.obj
 0001:00012fd0       ??6RenderOutput@Cm@physx@@QAEAAV012@ABVPxTransform@2@@Z 10013fd0 f   CmRenderOutput.obj
 0001:00013000       ??6RenderOutput@Cm@physx@@QAEAAV012@VPxVec3@2@@Z 10014000 f   CmRenderOutput.obj
 0001:00013220       ??6RenderOutput@Cm@physx@@QAEAAV012@ABUDebugText@12@@Z 10014220 f   CmRenderOutput.obj
 0001:00013380       ?outputCapsule@RenderOutput@Cm@physx@@QAEAAV123@MMABVPxMat44@3@@Z 10014380 f   CmRenderOutput.obj
 0001:00013980       ??0DebugText@Cm@physx@@QAA@ABVPxVec3@2@MPBDZZ 10014980 f   CmRenderOutput.obj
 0001:000139f0       ??6Cm@physx@@YAAAVRenderOutput@01@AAV201@ABUDebugBox@01@@Z 100149f0 f   CmRenderOutput.obj
 0001:00014130       ??6Cm@physx@@YAAAVRenderOutput@01@AAV201@ABUDebugArrow@01@@Z 10015130 f   CmRenderOutput.obj
 0001:00014340       ??6Cm@physx@@YAAAVRenderOutput@01@AAV201@ABUDebugBasis@01@@Z 10015340 f   CmRenderOutput.obj
 0001:000144b0       ??6Cm@physx@@YAAAVRenderOutput@01@AAV201@ABUDebugCircle@01@@Z 100154b0 f   CmRenderOutput.obj
 0001:000145e0       ??6Cm@physx@@YAAAVRenderOutput@01@AAV201@ABUDebugArc@01@@Z 100155e0 f   CmRenderOutput.obj
 0001:00014760       ??$PX_UNUSED@W4PxIDENTITY@physx@@@@YAXABW4PxIDENTITY@physx@@@Z 10015760 f i CmRenderOutput.obj
 0001:00014770       ??$PxMax@I@physx@@YAIII@Z  10015770 f i CmRenderOutput.obj
 0001:000147a0       ??$swap@VPxVec4@physx@@@shdfnd@physx@@YAXAAVPxVec4@1@0@Z 100157a0 f i CmRenderOutput.obj
 0001:000147d0       ??0DebugArc@Cm@physx@@QAE@IMMM@Z 100157d0 f i CmRenderOutput.obj
 0001:00014810       ??0DebugArrow@Cm@physx@@QAE@ABVPxVec3@2@0M@Z 10015810 f i CmRenderOutput.obj
 0001:00014850       ??0DebugCircle@Cm@physx@@QAE@IM@Z 10015850 f i CmRenderOutput.obj
 0001:00014880       ??0DebugText@Cm@physx@@QAE@$$QAU012@@Z 10015880 f i CmRenderOutput.obj
 0001:000148d0       ??0DebugText@Cm@physx@@QAE@ABU012@@Z 100158d0 f i CmRenderOutput.obj
 0001:00014920       ??0PxDebugLine@physx@@QAE@ABU01@@Z 10015920 f i CmRenderOutput.obj
 0001:00014970       ??0PxDebugLine@physx@@QAE@ABVPxVec3@1@0ABI@Z 10015970 f i CmRenderOutput.obj
 0001:000149c0       ??0PxDebugPoint@physx@@QAE@ABU01@@Z 100159c0 f i CmRenderOutput.obj
 0001:000149f0       ??0PxDebugPoint@physx@@QAE@ABVPxVec3@1@ABI@Z 100159f0 f i CmRenderOutput.obj
 0001:00014a20       ??0PxDebugText@physx@@QAE@ABU01@@Z 10015a20 f i CmRenderOutput.obj
 0001:00014a60       ??0PxDebugText@physx@@QAE@ABVPxVec3@1@ABMABIPBD@Z 10015a60 f i CmRenderOutput.obj
 0001:00014aa0       ??0PxDebugTriangle@physx@@QAE@ABU01@@Z 10015aa0 f i CmRenderOutput.obj
 0001:00014b10       ??0PxDebugTriangle@physx@@QAE@ABVPxVec3@1@00ABI@Z 10015b10 f i CmRenderOutput.obj
 0001:00014b70       ??0PxMat33@physx@@QAE@ABVPxQuat@1@@Z 10015b70 f i CmRenderOutput.obj
 0001:00014d70       ??0PxMat44@physx@@QAE@ABV01@@Z 10015d70 f i CmRenderOutput.obj
 0001:00014dd0       ??0PxMat44@physx@@QAE@ABVPxMat33@1@ABVPxVec3@1@@Z 10015dd0 f i CmRenderOutput.obj
 0001:00014e50       ??0PxMat44@physx@@QAE@ABVPxTransform@1@@Z 10015e50 f i CmRenderOutput.obj
 0001:00014eb0       ??0PxMat44@physx@@QAE@W4PxIDENTITY@1@@Z 10015eb0 f i CmRenderOutput.obj
 0001:00014fa0       ??0PxVec3@physx@@QAE@ABV01@@Z 10015fa0 f i CmRenderOutput.obj
 0001:00014fe0       ??0PxVec3@physx@@QAE@M@Z   10015fe0 f i CmRenderOutput.obj
 0001:00015020       ??0PxVec3@physx@@QAE@MMM@Z 10016020 f i CmRenderOutput.obj
 0001:00015060       ??0PxVec3@physx@@QAE@XZ    10016060 f i CmRenderOutput.obj
 0001:00015070       ??0PxVec4@physx@@QAE@ABV01@@Z 10016070 f i CmRenderOutput.obj
 0001:000150b0       ??0PxVec4@physx@@QAE@ABVPxVec3@1@M@Z 100160b0 f i CmRenderOutput.obj
 0001:000150f0       ??0PxVec4@physx@@QAE@MMMM@Z 100160f0 f i CmRenderOutput.obj
 0001:00015140       ??0PxVec4@physx@@QAE@XZ    10016140 f i CmRenderOutput.obj
 0001:00015150       ??0RenderOutput@Cm@physx@@QAE@AAVRenderBuffer@12@@Z 10016150 f i CmRenderOutput.obj
 0001:000151c0       ??0RenderOutput@Cm@physx@@QAE@ABV012@@Z 100161c0 f i CmRenderOutput.obj
 0001:00015240       ??4DebugText@Cm@physx@@QAEAAU012@$$QAU012@@Z 10016240 f i CmRenderOutput.obj
 0001:000152b0       ??4DebugText@Cm@physx@@QAEAAU012@ABU012@@Z 100162b0 f i CmRenderOutput.obj
 0001:00015320       ??4PxMat44@physx@@QAEAAV01@ABV01@@Z 10016320 f i CmRenderOutput.obj
 0001:00015380       ??4PxVec3@physx@@QAEAAV01@ABV01@@Z 10016380 f i CmRenderOutput.obj
 0001:000153c0       ??4PxVec4@physx@@QAEAAV01@ABV01@@Z 100163c0 f i CmRenderOutput.obj
 0001:00015400       ??A?$Array@UPxDebugText@physx@@VNamedAllocator@shdfnd@2@@shdfnd@physx@@QAEAAUPxDebugText@2@I@Z 10016400 f i CmRenderOutput.obj
 0001:00015460       ??DPxVec3@physx@@QBE?AV01@M@Z 10016460 f i CmRenderOutput.obj
 0001:000154b0       ??DPxVec4@physx@@QBE?AV01@M@Z 100164b0 f i CmRenderOutput.obj
 0001:00015520       ??GPxVec3@physx@@QBE?AV01@ABV01@@Z 10016520 f i CmRenderOutput.obj
 0001:00015580       ??GPxVec4@physx@@QBE?AV01@XZ 10016580 f i CmRenderOutput.obj
 0001:000155f0       ??HPxVec3@physx@@QBE?AV01@ABV01@@Z 100165f0 f i CmRenderOutput.obj
 0001:00015650       ??HPxVec4@physx@@QBE?AV01@ABV01@@Z 10016650 f i CmRenderOutput.obj
 0001:000156c0       ??XPxVec3@physx@@QAEAAV01@M@Z 100166c0 f i CmRenderOutput.obj
 0001:00015710       ??YPxVec4@physx@@QAEAAV01@ABV01@@Z 10016710 f i CmRenderOutput.obj
 0001:00015780       ??_0PxVec3@physx@@QAEAAV01@M@Z 10016780 f i CmRenderOutput.obj
 0001:000157e0       ?PxAbs@physx@@YAMM@Z       100167e0 f i CmRenderOutput.obj
 0001:00015800       ?PxCos@physx@@YAMM@Z       10016800 f i CmRenderOutput.obj
 0001:00015820       ?PxSin@physx@@YAMM@Z       10016820 f i CmRenderOutput.obj
 0001:00015840       ?PxSqrt@physx@@YAMM@Z      10016840 f i CmRenderOutput.obj
 0001:00015860       ?abs@intrinsics@physx@@YAMM@Z 10016860 f i CmRenderOutput.obj
 0001:00015880       ?allocate@?$Array@DVNamedAllocator@shdfnd@physx@@@shdfnd@physx@@IAEPADI@Z 10016880 f i CmRenderOutput.obj
 0001:000158f0       ?allocate@?$Array@UPxDebugLine@physx@@VNamedAllocator@shdfnd@2@@shdfnd@physx@@IAEPAUPxDebugLine@3@I@Z 100168f0 f i CmRenderOutput.obj
 0001:00015960       ?allocate@?$Array@UPxDebugPoint@physx@@VNamedAllocator@shdfnd@2@@shdfnd@physx@@IAEPAUPxDebugPoint@3@I@Z 10016960 f i CmRenderOutput.obj
 0001:000159d0       ?allocate@?$Array@UPxDebugText@physx@@VNamedAllocator@shdfnd@2@@shdfnd@physx@@IAEPAUPxDebugText@3@I@Z 100169d0 f i CmRenderOutput.obj
 0001:00015a40       ?allocate@?$Array@UPxDebugTriangle@physx@@VNamedAllocator@shdfnd@2@@shdfnd@physx@@IAEPAUPxDebugTriangle@3@I@Z 10016a40 f i CmRenderOutput.obj
 0001:00015ab0       ?begin@?$Array@DVNamedAllocator@shdfnd@physx@@@shdfnd@physx@@QAEPADXZ 10016ab0 f i CmRenderOutput.obj
 0001:00015ac0       ?capacity@?$Array@DVNamedAllocator@shdfnd@physx@@@shdfnd@physx@@QBEIXZ 10016ac0 f i CmRenderOutput.obj
 0001:00015ae0       ?capacity@?$Array@UPxDebugLine@physx@@VNamedAllocator@shdfnd@2@@shdfnd@physx@@QBEIXZ 10016ae0 f i CmRenderOutput.obj
 0001:00015b00       ?capacity@?$Array@UPxDebugPoint@physx@@VNamedAllocator@shdfnd@2@@shdfnd@physx@@QBEIXZ 10016b00 f i CmRenderOutput.obj
 0001:00015b20       ?capacity@?$Array@UPxDebugText@physx@@VNamedAllocator@shdfnd@2@@shdfnd@physx@@QBEIXZ 10016b20 f i CmRenderOutput.obj
 0001:00015b40       ?capacity@?$Array@UPxDebugTriangle@physx@@VNamedAllocator@shdfnd@2@@shdfnd@physx@@QBEIXZ 10016b40 f i CmRenderOutput.obj
 0001:00015b60       ?capacityIncrement@?$Array@DVNamedAllocator@shdfnd@physx@@@shdfnd@physx@@IBEIXZ 10016b60 f i CmRenderOutput.obj
 0001:00015ba0       ?capacityIncrement@?$Array@UPxDebugLine@physx@@VNamedAllocator@shdfnd@2@@shdfnd@physx@@IBEIXZ 10016ba0 f i CmRenderOutput.obj
 0001:00015be0       ?capacityIncrement@?$Array@UPxDebugPoint@physx@@VNamedAllocator@shdfnd@2@@shdfnd@physx@@IBEIXZ 10016be0 f i CmRenderOutput.obj
 0001:00015c20       ?capacityIncrement@?$Array@UPxDebugText@physx@@VNamedAllocator@shdfnd@2@@shdfnd@physx@@IBEIXZ 10016c20 f i CmRenderOutput.obj
 0001:00015c60       ?capacityIncrement@?$Array@UPxDebugTriangle@physx@@VNamedAllocator@shdfnd@2@@shdfnd@physx@@IBEIXZ 10016c60 f i CmRenderOutput.obj
 0001:00015ca0       ?copy@?$Array@DVNamedAllocator@shdfnd@physx@@@shdfnd@physx@@KAXPAD0PBD@Z 10016ca0 f i CmRenderOutput.obj
 0001:00015cf0       ?copy@?$Array@UPxDebugLine@physx@@VNamedAllocator@shdfnd@2@@shdfnd@physx@@KAXPAUPxDebugLine@3@0PBU43@@Z 10016cf0 f i CmRenderOutput.obj
 0001:00015d40       ?copy@?$Array@UPxDebugPoint@physx@@VNamedAllocator@shdfnd@2@@shdfnd@physx@@KAXPAUPxDebugPoint@3@0PBU43@@Z 10016d40 f i CmRenderOutput.obj
 0001:00015d90       ?copy@?$Array@UPxDebugText@physx@@VNamedAllocator@shdfnd@2@@shdfnd@physx@@KAXPAUPxDebugText@3@0PBU43@@Z 10016d90 f i CmRenderOutput.obj
 0001:00015de0       ?copy@?$Array@UPxDebugTriangle@physx@@VNamedAllocator@shdfnd@2@@shdfnd@physx@@KAXPAUPxDebugTriangle@3@0PBU43@@Z 10016de0 f i CmRenderOutput.obj
 0001:00015e30       ?cos@intrinsics@physx@@YAMM@Z 10016e30 f i CmRenderOutput.obj
 0001:00015e50       ?cross@PxVec3@physx@@QBE?AV12@ABV12@@Z 10016e50 f i CmRenderOutput.obj
 0001:00015ef0       ?deallocate@?$Array@DVNamedAllocator@shdfnd@physx@@@shdfnd@physx@@IAEXPAX@Z 10016ef0 f i CmRenderOutput.obj
 0001:00015f10       ?deallocate@?$Array@UPxDebugLine@physx@@VNamedAllocator@shdfnd@2@@shdfnd@physx@@IAEXPAX@Z 10016f10 f i CmRenderOutput.obj
 0001:00015f30       ?deallocate@?$Array@UPxDebugPoint@physx@@VNamedAllocator@shdfnd@2@@shdfnd@physx@@IAEXPAX@Z 10016f30 f i CmRenderOutput.obj
 0001:00015f50       ?deallocate@?$Array@UPxDebugText@physx@@VNamedAllocator@shdfnd@2@@shdfnd@physx@@IAEXPAX@Z 10016f50 f i CmRenderOutput.obj
 0001:00015f70       ?deallocate@?$Array@UPxDebugTriangle@physx@@VNamedAllocator@shdfnd@2@@shdfnd@physx@@IAEXPAX@Z 10016f70 f i CmRenderOutput.obj
 0001:00015f90       ?destroy@?$Array@DVNamedAllocator@shdfnd@physx@@@shdfnd@physx@@KAXPAD0@Z 10016f90 f i CmRenderOutput.obj
 0001:00015fb0       ?destroy@?$Array@UPxDebugLine@physx@@VNamedAllocator@shdfnd@2@@shdfnd@physx@@KAXPAUPxDebugLine@3@0@Z 10016fb0 f i CmRenderOutput.obj
 0001:00015fd0       ?destroy@?$Array@UPxDebugPoint@physx@@VNamedAllocator@shdfnd@2@@shdfnd@physx@@KAXPAUPxDebugPoint@3@0@Z 10016fd0 f i CmRenderOutput.obj
 0001:00015ff0       ?destroy@?$Array@UPxDebugText@physx@@VNamedAllocator@shdfnd@2@@shdfnd@physx@@KAXPAUPxDebugText@3@0@Z 10016ff0 f i CmRenderOutput.obj
 0001:00016010       ?destroy@?$Array@UPxDebugTriangle@physx@@VNamedAllocator@shdfnd@2@@shdfnd@physx@@KAXPAUPxDebugTriangle@3@0@Z 10017010 f i CmRenderOutput.obj
 0001:00016030       ?end@?$Array@DVNamedAllocator@shdfnd@physx@@@shdfnd@physx@@QAEPADXZ 10017030 f i CmRenderOutput.obj
 0001:00016050       ?end@?$Array@UPxDebugLine@physx@@VNamedAllocator@shdfnd@2@@shdfnd@physx@@QAEPAUPxDebugLine@3@XZ 10017050 f i CmRenderOutput.obj
 0001:00016070       ?forceSize_Unsafe@?$Array@UPxDebugLine@physx@@VNamedAllocator@shdfnd@2@@shdfnd@physx@@QAEXI@Z 10017070 f i CmRenderOutput.obj
 0001:000160d0       ?getXYZ@PxVec4@physx@@QBE?AVPxVec3@2@XZ 100170d0 f i CmRenderOutput.obj
 0001:00016120       ?grow@?$Array@DVNamedAllocator@shdfnd@physx@@@shdfnd@physx@@IAEXI@Z 10017120 f i CmRenderOutput.obj
 0001:00016180       ?grow@?$Array@UPxDebugLine@physx@@VNamedAllocator@shdfnd@2@@shdfnd@physx@@IAEXI@Z 10017180 f i CmRenderOutput.obj
 0001:000161e0       ?growAndPushBack@?$Array@DVNamedAllocator@shdfnd@physx@@@shdfnd@physx@@IAEAADABD@Z 100171e0 f i CmRenderOutput.obj
 0001:00016300       ?growAndPushBack@?$Array@UPxDebugLine@physx@@VNamedAllocator@shdfnd@2@@shdfnd@physx@@IAEAAUPxDebugLine@3@ABU43@@Z 10017300 f i CmRenderOutput.obj
 0001:00016430       ?growAndPushBack@?$Array@UPxDebugPoint@physx@@VNamedAllocator@shdfnd@2@@shdfnd@physx@@IAEAAUPxDebugPoint@3@ABU43@@Z 10017430 f i CmRenderOutput.obj
 0001:00016560       ?growAndPushBack@?$Array@UPxDebugText@physx@@VNamedAllocator@shdfnd@2@@shdfnd@physx@@IAEAAUPxDebugText@3@ABU43@@Z 10017560 f i CmRenderOutput.obj
 0001:00016680       ?growAndPushBack@?$Array@UPxDebugTriangle@physx@@VNamedAllocator@shdfnd@2@@shdfnd@physx@@IAEAAUPxDebugTriangle@3@ABU43@@Z 10017680 f i CmRenderOutput.obj
 0001:000167a0       ?isInUserMemory@?$Array@DVNamedAllocator@shdfnd@physx@@@shdfnd@physx@@QBEIXZ 100177a0 f i CmRenderOutput.obj
 0001:000167c0       ?isInUserMemory@?$Array@UPxDebugLine@physx@@VNamedAllocator@shdfnd@2@@shdfnd@physx@@QBEIXZ 100177c0 f i CmRenderOutput.obj
 0001:000167e0       ?isInUserMemory@?$Array@UPxDebugPoint@physx@@VNamedAllocator@shdfnd@2@@shdfnd@physx@@QBEIXZ 100177e0 f i CmRenderOutput.obj
 0001:00016800       ?isInUserMemory@?$Array@UPxDebugText@physx@@VNamedAllocator@shdfnd@2@@shdfnd@physx@@QBEIXZ 10017800 f i CmRenderOutput.obj
 0001:00016820       ?isInUserMemory@?$Array@UPxDebugTriangle@physx@@VNamedAllocator@shdfnd@2@@shdfnd@physx@@QBEIXZ 10017820 f i CmRenderOutput.obj
 0001:00016840       ?magnitude@PxVec3@physx@@QBEMXZ 10017840 f i CmRenderOutput.obj
 0001:00016860       ?magnitudeSquared@PxVec3@physx@@QBEMXZ 10017860 f i CmRenderOutput.obj
 0001:000168b0       ?normalToTangents@shdfnd@physx@@YAXABVPxVec3@2@AAV32@1@Z 100178b0 f i CmRenderOutput.obj
 0001:00016990       ?normalize@PxVec3@physx@@QAEMXZ 10017990 f i CmRenderOutput.obj
 0001:000169d0       ?outputSegment@RenderOutput@Cm@physx@@QAEXABVPxVec3@3@0@Z 100179d0 f i CmRenderOutput.obj
 0001:00016a20       ?pushBack@?$Array@DVNamedAllocator@shdfnd@physx@@@shdfnd@physx@@QAEAADABD@Z 10017a20 f i CmRenderOutput.obj
 0001:00016a90       ?pushBack@?$Array@UPxDebugLine@physx@@VNamedAllocator@shdfnd@2@@shdfnd@physx@@QAEAAUPxDebugLine@3@ABU43@@Z 10017a90 f i CmRenderOutput.obj
 0001:00016b10       ?pushBack@?$Array@UPxDebugPoint@physx@@VNamedAllocator@shdfnd@2@@shdfnd@physx@@QAEAAUPxDebugPoint@3@ABU43@@Z 10017b10 f i CmRenderOutput.obj
 0001:00016b90       ?pushBack@?$Array@UPxDebugText@physx@@VNamedAllocator@shdfnd@2@@shdfnd@physx@@QAEAAUPxDebugText@3@ABU43@@Z 10017b90 f i CmRenderOutput.obj
 0001:00016c10       ?pushBack@?$Array@UPxDebugTriangle@physx@@VNamedAllocator@shdfnd@2@@shdfnd@physx@@QAEAAUPxDebugTriangle@3@ABU43@@Z 10017c10 f i CmRenderOutput.obj
 0001:00016c90       ?recreate@?$Array@DVNamedAllocator@shdfnd@physx@@@shdfnd@physx@@IAEXI@Z 10017c90 f i CmRenderOutput.obj
 0001:00016d60       ?recreate@?$Array@UPxDebugLine@physx@@VNamedAllocator@shdfnd@2@@shdfnd@physx@@IAEXI@Z 10017d60 f i CmRenderOutput.obj
 0001:00016e30       ?reserve@?$Array@DVNamedAllocator@shdfnd@physx@@@shdfnd@physx@@QAEXI@Z 10017e30 f i CmRenderOutput.obj
 0001:00016e60       ?reserve@?$Array@UPxDebugLine@physx@@VNamedAllocator@shdfnd@2@@shdfnd@physx@@QAEXI@Z 10017e60 f i CmRenderOutput.obj
 0001:00016e90       ?reserveSegments@RenderOutput@Cm@physx@@QAEPAUPxDebugLine@3@I@Z 10017e90 f i CmRenderOutput.obj
 0001:00016ec0       ?rotate@PxMat44@physx@@QBE?BVPxVec3@2@ABV32@@Z 10017ec0 f i CmRenderOutput.obj
 0001:00016f10       ?rotate@PxMat44@physx@@QBE?BVPxVec4@2@ABV32@@Z 10017f10 f i CmRenderOutput.obj
 0001:00016f90       ?sin@intrinsics@physx@@YAMM@Z 10017f90 f i CmRenderOutput.obj
 0001:00016fb0       ?size@?$Array@DVNamedAllocator@shdfnd@physx@@@shdfnd@physx@@QBEIXZ 10017fb0 f i CmRenderOutput.obj
 0001:00016fd0       ?size@?$Array@UPxDebugLine@physx@@VNamedAllocator@shdfnd@2@@shdfnd@physx@@QBEIXZ 10017fd0 f i CmRenderOutput.obj
 0001:00016ff0       ?size@?$Array@UPxDebugText@physx@@VNamedAllocator@shdfnd@2@@shdfnd@physx@@QBEIXZ 10017ff0 f i CmRenderOutput.obj
 0001:00017010       ?sqrt@intrinsics@physx@@YAMM@Z 10018010 f i CmRenderOutput.obj
 0001:00017030       ?transform@PxMat44@physx@@QBE?BVPxVec3@2@ABV32@@Z 10018030 f i CmRenderOutput.obj
 0001:00017080       ?transform@PxMat44@physx@@QBE?BVPxVec4@2@ABV32@@Z 10018080 f i CmRenderOutput.obj
 0001:00017130       _cosf                      10018130 f i CmRenderOutput.obj
 0001:00017160       _fabsf                     10018160 f i CmRenderOutput.obj
 0001:00017190       _sinf                      10018190 f i CmRenderOutput.obj
 0001:000171c0       _sqrtf                     100181c0 f i CmRenderOutput.obj
 0001:000172d0       ?visualizeJointFrames@Cm@physx@@YAXAAVRenderOutput@12@MABVPxTransform@2@1@Z 100182d0 f   CmVisualization.obj
 0001:000173c0       ?visualizeLinearLimit@Cm@physx@@YAXAAVRenderOutput@12@MABVPxTransform@2@1M_N@Z 100183c0 f   CmVisualization.obj
 0001:00017520       ?visualizeAngularLimit@Cm@physx@@YAXAAVRenderOutput@12@MABVPxTransform@2@MM_N@Z 10018520 f   CmVisualization.obj
 0001:00017710       ?visualizeLimitCone@Cm@physx@@YAXAAVRenderOutput@12@MABVPxTransform@2@MM_N@Z 10018710 f   CmVisualization.obj
 0001:00017980       ?visualizeDoubleCone@Cm@physx@@YAXAAVRenderOutput@12@MABVPxTransform@2@M_N@Z 10018980 f   CmVisualization.obj
 0001:00017da0       ??$PX_UNUSED@W4PxZERO@physx@@@@YAXABW4PxZERO@physx@@@Z 10018da0 f i CmVisualization.obj
 0001:00017db0       ??0DebugArrow@Cm@physx@@QAE@ABVPxVec3@2@0@Z 10018db0 f i CmVisualization.obj
 0001:00017e10       ??0DebugBasis@Cm@physx@@QAE@ABVPxVec3@2@III@Z 10018e10 f i CmVisualization.obj
 0001:00017e50       ??0PxQuat@physx@@QAE@ABV01@@Z 10018e50 f i CmVisualization.obj
 0001:00017e90       ??0PxQuat@physx@@QAE@MABVPxVec3@1@@Z 10018e90 f i CmVisualization.obj
 0001:00017f70       ??0PxQuat@physx@@QAE@MMMM@Z 10018f70 f i CmVisualization.obj
 0001:00017fc0       ??0PxQuat@physx@@QAE@W4PxIDENTITY@1@@Z 10018fc0 f i CmVisualization.obj
 0001:00018010       ??0PxTransform@physx@@QAE@ABVPxVec3@1@ABVPxQuat@1@@Z 10019010 f i CmVisualization.obj
 0001:00018060       ??0PxTransform@physx@@QAE@W4PxIDENTITY@1@@Z 10019060 f i CmVisualization.obj
 0001:000180a0       ??0PxVec3@physx@@QAE@W4PxZERO@1@@Z 100190a0 f i CmVisualization.obj
 0001:000180e0       ??DPxQuat@physx@@QBE?AV01@ABV01@@Z 100190e0 f i CmVisualization.obj
 0001:00018240       ??DPxQuat@physx@@QBE?AV01@M@Z 10019240 f i CmVisualization.obj
 0001:000182b0       ?PxIsFinite@physx@@YA_NM@Z 100192b0 f i CmVisualization.obj
 0001:000182d0       ?PxTan@physx@@YAMM@Z       100192d0 f i CmVisualization.obj
 0001:000182f0       ?getBasisVector0@PxQuat@physx@@QBE?AVPxVec3@2@XZ 100192f0 f i CmVisualization.obj
 0001:000183b0       ?isFinite@PxQuat@physx@@QBE_NXZ 100193b0 f i CmVisualization.obj
 0001:00018450       ?isFinite@intrinsics@physx@@YA_NM@Z 10019450 f i CmVisualization.obj
 0001:00018490       ?isSane@PxQuat@physx@@QBE_NXZ 10019490 f i CmVisualization.obj
 0001:00018510       ?magnitude@PxQuat@physx@@QBEMXZ 10019510 f i CmVisualization.obj
 0001:00018530       ?magnitudeSquared@PxQuat@physx@@QBEMXZ 10019530 f i CmVisualization.obj
 0001:00018590       ?rotate@PxQuat@physx@@QBE?BVPxVec3@2@ABV32@@Z 10019590 f i CmVisualization.obj
 0001:00018720       _tanf                      10019720 f i CmVisualization.obj
 0001:00018750       ??0CmModuleUpdateLoader@Cm@physx@@QAE@PBD@Z 10019750 f   CmWindowsModuleUpdateLoader.obj
 0001:000187a0       ??1CmModuleUpdateLoader@Cm@physx@@QAE@XZ 100197a0 f   CmWindowsModuleUpdateLoader.obj
 0001:000187d0       ?LoadModule@CmModuleUpdateLoader@Cm@physx@@QAEPAUHINSTANCE__@@PBD0@Z 100197d0 f   CmWindowsModuleUpdateLoader.obj
 0001:00018820       ??4CmModuleUpdateLoader@Cm@physx@@QAEAAV012@ABV012@@Z 10019820 f i CmWindowsModuleUpdateLoader.obj
 0001:00018840       ?loadLibrary@Cm@physx@@YGPAUHINSTANCE__@@PBD@Z 10019840 f i CmWindowsModuleUpdateLoader.obj
 0001:00018860       _PxSetPhysXCommonDelayLoadHook 10019860 f   CmWindowsDelayLoadHook.obj
 0001:00018870       ?commonDelayHook@@YGP6GHXZIPAUDelayLoadInfo@@@Z 10019870 f   CmWindowsDelayLoadHook.obj
 0001:000188d0       ?physXCommonDliNotePreLoadLibrary@Cm@physx@@YGP6GHXZPBDPBVPxDelayLoadHook@2@@Z 100198d0 f i CmWindowsDelayLoadHook.obj
 0001:00018940       ?computeBounds@Gu@physx@@YAXAAVPxBounds3@2@ABVPxGeometry@2@ABVPxTransform@2@MPIBVCenterExtentsPadded@12@M@Z 10019940 f   GuBounds.obj
 0001:00019480       ?computeBoundsWithCCDThreshold@Gu@physx@@YAMAAVVec3p@12@0ABVPxGeometry@2@ABVPxTransform@2@PIBVCenterExtentsPadded@12@@Z 1001a480 f   GuBounds.obj
 0001:00019700       ??0ShapeData@Gu@physx@@QAE@ABVPxGeometry@2@ABVPxTransform@2@M@Z 1001a700 f   GuBounds.obj
 0001:0001aa80       ??$PxMin@M@physx@@YAMMM@Z  1001ba80 f i GuBounds.obj
 0001:0001aab0       ??0?$PxFlags@W4Enum@PxBaseFlag@physx@@G@physx@@QAE@ABV01@@Z 1001bab0 f i GuBounds.obj
 0001:0001aad0       ??0?$PxFlags@W4Enum@PxConvexMeshGeometryFlag@physx@@E@physx@@QAE@ABV01@@Z 1001bad0 f i GuBounds.obj
 0001:0001aaf0       ??0?$PxFlags@W4Enum@PxHeightFieldFlag@physx@@G@physx@@QAE@ABV01@@Z 1001baf0 f i GuBounds.obj
 0001:0001ab10       ??0?$PxFlags@W4Enum@PxHeightFieldFlag@physx@@G@physx@@QAE@W4PxEMPTY@1@@Z 1001bb10 f i GuBounds.obj
 0001:0001ab20       ??0?$PxFlags@W4Enum@PxHeightFieldFlag@physx@@G@physx@@QAE@XZ 1001bb20 f i GuBounds.obj
 0001:0001ab40       ??0Box@Gu@physx@@QAE@ABV012@@Z 1001bb40 f i GuBounds.obj
 0001:0001ab80       ??0Box@Gu@physx@@QAE@ABVPxVec3@2@0ABVPxMat33@2@@Z 1001bb80 f i GuBounds.obj
 0001:0001abc0       ??0Box@Gu@physx@@QAE@XZ    1001bbc0 f i GuBounds.obj
 0001:0001abf0       ??0CenterExtents@Gu@physx@@QAE@ABV012@@Z 1001bbf0 f i GuBounds.obj
 0001:0001ac20       ??0CenterExtents@Gu@physx@@QAE@XZ 1001bc20 f i GuBounds.obj
 0001:0001ac50       ??0HeightFieldData@Gu@physx@@QAE@$$QAU012@@Z 1001bc50 f i GuBounds.obj
 0001:0001ace0       ??0HeightFieldData@Gu@physx@@QAE@ABU012@@Z 1001bce0 f i GuBounds.obj
 0001:0001ad70       ??0HeightFieldData@Gu@physx@@QAE@W4PxEMPTY@2@@Z 1001bd70 f i GuBounds.obj
 0001:0001ada0       ??0HeightFieldData@Gu@physx@@QAE@XZ 1001bda0 f i GuBounds.obj
 0001:0001add0       ??0PxBounds3@physx@@QAE@XZ 1001bdd0 f i GuBounds.obj
 0001:0001ae00       ??0PxMat33@physx@@QAE@ABV01@@Z 1001be00 f i GuBounds.obj
 0001:0001ae40       ??0PxMat33@physx@@QAE@ABVPxVec3@1@00@Z 1001be40 f i GuBounds.obj
 0001:0001ae80       ??0PxMat33@physx@@QAE@W4PxIDENTITY@1@@Z 1001be80 f i GuBounds.obj
 0001:0001af20       ??0PxMat33@physx@@QAE@XZ   1001bf20 f i GuBounds.obj
 0001:0001af50       ??0PxMat33Padded@Gu@physx@@QAE@ABVPxQuat@2@@Z 1001bf50 f i GuBounds.obj
 0001:0001aff0       ??0PxMeshScale@physx@@QAE@ABVPxVec3@1@ABVPxQuat@1@@Z 1001bff0 f i GuBounds.obj
 0001:0001b080       ??0PxPlane@physx@@QAE@ABVPxVec3@1@0@Z 1001c080 f i GuBounds.obj
 0001:0001b0d0       ??0PxQuat@physx@@QAE@ABVPxMat33@1@@Z 1001c0d0 f i GuBounds.obj
 0001:0001b420       ??0PxQuat@physx@@QAE@XZ    1001c420 f i GuBounds.obj
 0001:0001b430       ??0Sphere@Gu@physx@@QAE@ABVPxVec3@2@M@Z 1001c430 f i GuBounds.obj
 0001:0001b460       ??0Vec3p@Gu@physx@@QAE@ABVPxVec3@2@@Z 1001c460 f i GuBounds.obj
 0001:0001b480       ??0Vec3p@Gu@physx@@QAE@XZ  1001c480 f i GuBounds.obj
 0001:0001b4a0       ??1Box@Gu@physx@@QAE@XZ    1001c4a0 f i GuBounds.obj
 0001:0001b4b0       ??1CenterExtents@Gu@physx@@QAE@XZ 1001c4b0 f i GuBounds.obj
 0001:0001b4c0       ??1HeightFieldData@Gu@physx@@QAE@XZ 1001c4c0 f i GuBounds.obj
 0001:0001b4e0       ??1PxBase@physx@@MAE@XZ    1001c4e0 f i GuBounds.obj
 0001:0001b500       ??1PxConvexMesh@physx@@MAE@XZ 1001c500 f i GuBounds.obj
 0001:0001b520       ??1PxHeightField@physx@@MAE@XZ 1001c520 f i GuBounds.obj
 0001:0001b540       ??1PxMat33Padded@Gu@physx@@QAE@XZ 1001c540 f i GuBounds.obj
 0001:0001b550       ??1Sphere@Gu@physx@@QAE@XZ 1001c550 f i GuBounds.obj
 0001:0001b560       ??1Vec3p@Gu@physx@@QAE@XZ  1001c560 f i GuBounds.obj
 0001:0001b570       ??4?$PxFlags@W4Enum@PxHeightFieldFlag@physx@@G@physx@@QAEAAV01@ABV01@@Z 1001c570 f i GuBounds.obj
 0001:0001b590       ??4Box@Gu@physx@@QAEABV012@ABV012@@Z 1001c590 f i GuBounds.obj
 0001:0001b5d0       ??4CenterExtents@Gu@physx@@QAEAAV012@ABV012@@Z 1001c5d0 f i GuBounds.obj
 0001:0001b600       ??4HeightFieldData@Gu@physx@@QAEAAU012@$$QAU012@@Z 1001c600 f i GuBounds.obj
 0001:0001b690       ??4HeightFieldData@Gu@physx@@QAEAAU012@ABU012@@Z 1001c690 f i GuBounds.obj
 0001:0001b720       ??4PxMat33@physx@@QAEAAV01@ABV01@@Z 1001c720 f i GuBounds.obj
 0001:0001b760       ??4PxMat33Padded@Gu@physx@@QAEXABVPxMat33@2@@Z 1001c760 f i GuBounds.obj
 0001:0001b7a0       ??4PxQuat@physx@@QAEAAV01@ABV01@@Z 1001c7a0 f i GuBounds.obj
 0001:0001b7e0       ??4Sphere@Gu@physx@@QAEAAV012@ABV012@@Z 1001c7e0 f i GuBounds.obj
 0001:0001b810       ??4Vec3p@Gu@physx@@QAEAAV012@ABV012@@Z 1001c810 f i GuBounds.obj
 0001:0001b840       ??APxMat33@physx@@QBEABVPxVec3@1@I@Z 1001c840 f i GuBounds.obj
 0001:0001b860       ??APxVec3@physx@@QAEAAMI@Z 1001c860 f i GuBounds.obj
 0001:0001b890       ??APxVec3@physx@@QBEABMI@Z 1001c890 f i GuBounds.obj
 0001:0001b8c0       ??B?$PxBitAndDataT@E$0IA@@physx@@QBEEXZ 1001c8c0 f i GuBounds.obj
 0001:0001b8e0       ??B?$PxBitAndDataT@G$0IAAA@@physx@@QBEGXZ 1001c8e0 f i GuBounds.obj
 0001:0001b900       ??B?$PxFlags@W4Enum@PxBaseFlag@physx@@G@physx@@QBE_NXZ 1001c900 f i GuBounds.obj
 0001:0001b930       ??B?$PxFlags@W4Enum@PxConvexMeshGeometryFlag@physx@@E@physx@@QBE_NXZ 1001c930 f i GuBounds.obj
 0001:0001b960       ??DPxMat33@physx@@QBE?BV01@ABV01@@Z 1001c960 f i GuBounds.obj
 0001:0001b9c0       ??DPxMat33@physx@@QBE?BVPxVec3@1@ABV21@@Z 1001c9c0 f i GuBounds.obj
 0001:0001b9e0       ??I?$PxFlags@W4Enum@PxBaseFlag@physx@@G@physx@@QBE?AV01@W4Enum@PxBaseFlag@1@@Z 1001c9e0 f i GuBounds.obj
 0001:0001ba20       ??I?$PxFlags@W4Enum@PxConvexMeshGeometryFlag@physx@@E@physx@@QBE?AV01@W4Enum@PxConvexMeshGeometryFlag@1@@Z 1001ca20 f i GuBounds.obj
 0001:0001ba60       ??_EPxConvexMesh@physx@@MAEPAXI@Z 1001ca60 f i GuBounds.obj
 0001:0001bae0       ??_EPxHeightField@physx@@MAEPAXI@Z 1001cae0 f i GuBounds.obj
 0001:0001bb60       ??_GPxBase@physx@@MAEPAXI@Z 1001cb60 f i GuBounds.obj
 0001:0001bb60       ??_EPxBase@physx@@MAEPAXI@Z 1001cb60 f i GuBounds.obj
 0001:0001bb90       ??_H@YGXPAXIIP6EPAX0@Z@Z   1001cb90 f i GuBounds.obj
 0001:0001bbe0       ?FLoad@aos@shdfnd@physx@@YA?AT__m128@@M@Z 1001cbe0 f i GuBounds.obj
 0001:0001bc20       ?QuatGetMat33V@aos@shdfnd@physx@@YAXABT__m128@@AAT4@11@Z 1001cc20 f i GuBounds.obj
 0001:0001be20       ?V3Load@aos@shdfnd@physx@@YA?AT__m128@@M@Z 1001ce20 f i GuBounds.obj
 0001:0001be70       ?V3LoadU@aos@shdfnd@physx@@YA?AT__m128@@PBM@Z 1001ce70 f i GuBounds.obj
 0001:0001bee0       ?V4Abs@aos@shdfnd@physx@@YA?AT__m128@@T4@@Z 1001cee0 f i GuBounds.obj
 0001:0001bf30       ?V4Add@aos@shdfnd@physx@@YA?AT__m128@@T4@0@Z 1001cf30 f i GuBounds.obj
 0001:0001bf70       ?V4ClearW@aos@shdfnd@physx@@YA?AT__m128@@T4@@Z 1001cf70 f i GuBounds.obj
 0001:0001bfb0       ?V4GetW@aos@shdfnd@physx@@YA?AT__m128@@T4@@Z 1001cfb0 f i GuBounds.obj
 0001:0001bff0       ?V4GetX@aos@shdfnd@physx@@YA?AT__m128@@T4@@Z 1001cff0 f i GuBounds.obj
 0001:0001c030       ?V4GetY@aos@shdfnd@physx@@YA?AT__m128@@T4@@Z 1001d030 f i GuBounds.obj
 0001:0001c070       ?V4GetZ@aos@shdfnd@physx@@YA?AT__m128@@T4@@Z 1001d070 f i GuBounds.obj
 0001:0001c0b0       ?V4Load@aos@shdfnd@physx@@YA?AT__m128@@M@Z 1001d0b0 f i GuBounds.obj
 0001:0001c0f0       ?V4LoadU@aos@shdfnd@physx@@YA?AT__m128@@QBM@Z 1001d0f0 f i GuBounds.obj
 0001:0001c120       ?V4Max@aos@shdfnd@physx@@YA?AT__m128@@T4@0@Z 1001d120 f i GuBounds.obj
 0001:0001c160       ?V4Min@aos@shdfnd@physx@@YA?AT__m128@@T4@0@Z 1001d160 f i GuBounds.obj
 0001:0001c1a0       ?V4Mul@aos@shdfnd@physx@@YA?AT__m128@@T4@0@Z 1001d1a0 f i GuBounds.obj
 0001:0001c1e0       ?V4MulAdd@aos@shdfnd@physx@@YA?AT__m128@@T4@00@Z 1001d1e0 f i GuBounds.obj
 0001:0001c240       ?V4Neg@aos@shdfnd@physx@@YA?AT__m128@@T4@@Z 1001d240 f i GuBounds.obj
 0001:0001c280       ?V4Scale@aos@shdfnd@physx@@YA?AT__m128@@T4@0@Z 1001d280 f i GuBounds.obj
 0001:0001c2c0       ?V4StoreA@aos@shdfnd@physx@@YAXT__m128@@PAM@Z 1001d2c0 f i GuBounds.obj
 0001:0001c340       ?V4StoreU@aos@shdfnd@physx@@YAXT__m128@@PAM@Z 1001d340 f i GuBounds.obj
 0001:0001c370       ?V4Sub@aos@shdfnd@physx@@YA?AT__m128@@T4@0@Z 1001d370 f i GuBounds.obj
 0001:0001c3b0       ?Vec3V_From_Vec4V@aos@shdfnd@physx@@YA?AT__m128@@T4@@Z 1001d3b0 f i GuBounds.obj
 0001:0001c3f0       ?Vec4V_From_Vec3V@aos@shdfnd@physx@@YA?AT__m128@@T4@@Z 1001d3f0 f i GuBounds.obj
 0001:0001c420       ?abs@PxVec3@physx@@QBE?AV12@XZ 1001d420 f i GuBounds.obj
 0001:0001c480       ?basisExtent@Cm@physx@@YA?AVPxVec3@2@ABV32@000@Z 1001d480 f i GuBounds.obj
 0001:0001c630       ?buildFrom@physx@@YAXAAVBox@Gu@1@ABVPxQuat@1@@Z 1001d630 f i GuBounds.obj
 0001:0001c6e0       ?computeAABBExtent@Box@Gu@physx@@QBE?AVPxVec3@3@XZ 1001d6e0 f i GuBounds.obj
 0001:0001c910       ?computeBoxPoints@Box@Gu@physx@@QBEXPIAVPxVec3@3@@Z 1001d910 f i GuBounds.obj
 0001:0001c950       ?dot@PxVec3@physx@@QBEMABV12@@Z 1001d950 f i GuBounds.obj
 0001:0001c9a0       ?fsel@intrinsics@physx@@YAMMMM@Z 1001d9a0 f i GuBounds.obj
 0001:0001c9d0       ?getCapsule@Gu@physx@@YAXAAVCapsule@12@ABVPxCapsuleGeometry@2@ABVPxTransform@2@@Z 1001d9d0 f i GuBounds.obj
 0001:0001ca00       ?getCapsuleHalfHeightVector@Gu@physx@@YA?AVPxVec3@2@ABVPxTransform@2@ABVPxCapsuleGeometry@2@@Z 1001da00 f i GuBounds.obj
 0001:0001ca40       ?getCapsuleSegment@Gu@physx@@YAXABVPxTransform@2@ABVPxCapsuleGeometry@2@AAVSegment@12@@Z 1001da40 f i GuBounds.obj
 0001:0001caa0       ?getCenter@PxBounds3@physx@@QBE?AVPxVec3@2@XZ 1001daa0 f i GuBounds.obj
 0001:0001cb10       ?getConcreteTypeName@PxConvexMesh@physx@@UBEPBDXZ 1001db10 f i GuBounds.obj
 0001:0001cb20       ?getConcreteTypeName@PxHeightField@physx@@UBEPBDXZ 1001db20 f i GuBounds.obj
 0001:0001cb30       ?getConvexEdgeThreshold@HeightField@Gu@physx@@UBEMXZ 1001db30 f i GuBounds.obj
 0001:0001cb50       ?getData@HeightField@Gu@physx@@QBEABUHeightFieldData@23@XZ 1001db50 f i GuBounds.obj
 0001:0001cb70       ?getDimensions@PxBounds3@physx@@QBE?AVPxVec3@2@XZ 1001db70 f i GuBounds.obj
 0001:0001cbc0       ?getExtents@PxBounds3@physx@@QBE?AVPxVec3@2@XZ 1001dbc0 f i GuBounds.obj
 0001:0001cc20       ?getFlags@HeightField@Gu@physx@@UBE?AV?$PxFlags@W4Enum@PxHeightFieldFlag@physx@@G@3@XZ 1001dc20 f i GuBounds.obj
 0001:0001cc40       ?getFormat@HeightField@Gu@physx@@UBE?AW4Enum@PxHeightFieldFormat@3@XZ 1001dc40 f i GuBounds.obj
 0001:0001cc60       ?getHeight@HeightField@Gu@physx@@QBEMI@Z 1001dc60 f i GuBounds.obj
 0001:0001cc90       ?getHeight@HeightField@Gu@physx@@UBEMMM@Z 1001dc90 f i GuBounds.obj
 0001:0001ccc0       ?getHeightInternal2@HeightField@Gu@physx@@QBEMIMM@Z 1001dcc0 f i GuBounds.obj
 0001:0001ce90       ?getHeightInternal@HeightField@Gu@physx@@QBEMMM@Z 1001de90 f i GuBounds.obj
 0001:0001cef0       ?getHull@ConvexMesh@Gu@physx@@QBEABUConvexHullData@23@XZ 1001def0 f i GuBounds.obj
 0001:0001cf10       ?getHullVertices@ConvexHullData@Gu@physx@@QBEPBVPxVec3@3@XZ 1001df10 f i GuBounds.obj
 0001:0001cf40       ?getIndexBuffer@ConvexMesh@Gu@physx@@UBEPBEXZ 1001df40 f i GuBounds.obj
 0001:0001cf60       ?getMaterialIndex0@HeightField@Gu@physx@@QBEGI@Z 1001df60 f i GuBounds.obj
 0001:0001cf90       ?getMaterialIndex1@HeightField@Gu@physx@@QBEGI@Z 1001df90 f i GuBounds.obj
 0001:0001cfc0       ?getNbColumns@HeightField@Gu@physx@@UBEIXZ 1001dfc0 f i GuBounds.obj
 0001:0001cfe0       ?getNbColumnsFast@HeightField@Gu@physx@@QBEIXZ 1001dfe0 f i GuBounds.obj
 0001:0001d000       ?getNbPolygons@ConvexMesh@Gu@physx@@UBEIXZ 1001e000 f i GuBounds.obj
 0001:0001d020       ?getNbRows@HeightField@Gu@physx@@UBEIXZ 1001e020 f i GuBounds.obj
 0001:0001d040       ?getNbVertices@ConvexMesh@Gu@physx@@UBEIXZ 1001e040 f i GuBounds.obj
 0001:0001d060       ?getPaddedBounds@ConvexHullData@Gu@physx@@QBEABVCenterExtentsPadded@23@XZ 1001e060 f i GuBounds.obj
 0001:0001d070       ?getPaddedBounds@HeightFieldData@Gu@physx@@QBEABVCenterExtentsPadded@23@XZ 1001e070 f i GuBounds.obj
 0001:0001d080       ?getPaddedBounds@TriangleMesh@Gu@physx@@QBEABVCenterExtentsPadded@23@XZ 1001e080 f i GuBounds.obj
 0001:0001d0a0       ?getSample@HeightField@Gu@physx@@QBEABUPxHeightFieldSample@3@I@Z 1001e0a0 f i GuBounds.obj
 0001:0001d110       ?getSample@HeightField@Gu@physx@@UBEABUPxHeightFieldSample@3@II@Z 1001e110 f i GuBounds.obj
 0001:0001d140       ?getSampleStride@HeightField@Gu@physx@@UBEIXZ 1001e140 f i GuBounds.obj
 0001:0001d150       ?getTimestamp@HeightField@Gu@physx@@UBEIXZ 1001e150 f i GuBounds.obj
 0001:0001d170       ?getTransform@Box@Gu@physx@@QBE?AVPxTransform@3@XZ 1001e170 f i GuBounds.obj
 0001:0001d1a0       ?getTranspose@PxMat33@physx@@QBE?BV12@XZ 1001e1a0 f i GuBounds.obj
 0001:0001d260       ?getTriangleMaterial@HeightField@Gu@physx@@QBEGI@Z 1001e260 f i GuBounds.obj
 0001:0001d2b0       ?getTriangleMaterialIndex@HeightField@Gu@physx@@UBEGI@Z 1001e2b0 f i GuBounds.obj
 0001:0001d2d0       ?getTriangleNormal@HeightField@Gu@physx@@UBE?AVPxVec3@3@I@Z 1001e2d0 f i GuBounds.obj
 0001:0001d2f0       ?getTriangleNormalInternal@HeightField@Gu@physx@@QBE?AVPxVec3@3@I@Z 1001e2f0 f i GuBounds.obj
 0001:0001d4e0       ?getTriangleVertexIndices@HeightField@Gu@physx@@QBEXIAAI00@Z 1001e4e0 f i GuBounds.obj
 0001:0001d5d0       ?getType@PxGeometry@physx@@QBE?AW4Enum@PxGeometryType@2@XZ 1001e5d0 f i GuBounds.obj
 0001:0001d5e0       ?getVertexData8@ConvexHullData@Gu@physx@@QBEPBEXZ 1001e5e0 f i GuBounds.obj
 0001:0001d670       ?getVertices@ConvexMesh@Gu@physx@@UBEPBVPxVec3@3@XZ 1001e670 f i GuBounds.obj
 0001:0001d690       ?isAligned16@aos@shdfnd@physx@@YA_NPAX@Z 1001e690 f i GuBounds.obj
 0001:0001d6c0       ?isBitSet@?$PxBitAndDataT@E$0IA@@physx@@QBEEXZ 1001e6c0 f i GuBounds.obj
 0001:0001d6e0       ?isBitSet@?$PxBitAndDataT@G$0IAAA@@physx@@QBEGXZ 1001e6e0 f i GuBounds.obj
 0001:0001d700       ?isFinite@PxBounds3@physx@@QBE_NXZ 1001e700 f i GuBounds.obj
 0001:0001d750       ?isFinite@PxVec3@physx@@QBE_NXZ 1001e750 f i GuBounds.obj
 0001:0001d7d0       ?isFirstTriangle@HeightField@Gu@physx@@QBE_NI@Z 1001e7d0 f i GuBounds.obj
 0001:0001d800       ?isIdentity@PxMeshScale@physx@@QBE_NXZ 1001e800 f i GuBounds.obj
 0001:0001d860       ?isKindOf@PxBase@physx@@MBE_NPBD@Z 1001e860 f i GuBounds.obj
 0001:0001d8a0       ?isKindOf@PxConvexMesh@physx@@MBE_NPBD@Z 1001e8a0 f i GuBounds.obj
 0001:0001d8f0       ?isKindOf@PxHeightField@physx@@MBE_NPBD@Z 1001e8f0 f i GuBounds.obj
 0001:0001d940       ?isReleasable@PxBase@physx@@UBE_NXZ 1001e940 f i GuBounds.obj
 0001:0001d970       ?isUnit@PxQuat@physx@@QBE_NXZ 1001e970 f i GuBounds.obj
 0001:0001d9f0       ?isValid@Box@Gu@physx@@QBE_NXZ 1001e9f0 f i GuBounds.obj
 0001:0001da30       ?isValid@PxBounds3@physx@@QBE_NXZ 1001ea30 f i GuBounds.obj
 0001:0001db20       ?isValidVertex@HeightField@Gu@physx@@QBE_NI@Z 1001eb20 f i GuBounds.obj
 0001:0001db60       ?isZerothVertexShared@HeightField@Gu@physx@@QBE_NI@Z 1001eb60 f i GuBounds.obj
 0001:0001dba0       ?preExportDataReset@ConvexMesh@Gu@physx@@QAEXXZ 1001eba0 f i GuBounds.obj
 0001:0001dbc0       ?preExportDataReset@HeightField@Gu@physx@@QAEXXZ 1001ebc0 f i GuBounds.obj
 0001:0001dbe0       ?preExportDataReset@RefCountable@Cm@physx@@QAEXXZ 1001ebe0 f i GuBounds.obj
 0001:0001dc00       ?prefetchLine@shdfnd@physx@@YAXPBXI@Z 1001ec00 f i GuBounds.obj
 0001:0001dc20       ?rotate@Box@Gu@physx@@QBE?AVPxVec3@3@ABV43@@Z 1001ec20 f i GuBounds.obj
 0001:0001dc40       ?rotateInv@Box@Gu@physx@@QBE?AVPxVec3@3@ABV43@@Z 1001ec40 f i GuBounds.obj
 0001:0001dc60       ?selectMin@intrinsics@physx@@YAMMM@Z 1001ec60 f i GuBounds.obj
 0001:0001dc90       ?setAxes@Box@Gu@physx@@QAEXABVPxVec3@3@00@Z 1001ec90 f i GuBounds.obj
 0001:0001dcd0       ?setEmpty@Box@Gu@physx@@QAEXXZ 1001ecd0 f i GuBounds.obj
 0001:0001dd50       ?tessFlag@PxHeightFieldSample@physx@@QBEEXZ 1001ed50 f i GuBounds.obj
 0001:0001dd90       ?toMat33@PxMeshScale@physx@@QBE?AVPxMat33@2@XZ 1001ed90 f i GuBounds.obj
 0001:0001de30       ?transform@Box@Gu@physx@@QBE?AVPxVec3@3@ABV43@@Z 1001ee30 f i GuBounds.obj
 0001:0001de70       ?transform@PxMat33@physx@@QBE?BVPxVec3@2@ABV32@@Z 1001ee70 f i GuBounds.obj
 0001:0001def0       ?transformTranspose@PxMat33@physx@@QBE?BVPxVec3@2@ABV32@@Z 1001eef0 f i GuBounds.obj
 0001:0001df40       ?computeOBBPoints@Gu@physx@@YAXPIAVPxVec3@2@ABV32@1111@Z 1001ef40 f   GuBox.obj
 0001:0001e140       ?create@Box@Gu@physx@@QAEXABVCapsule@23@@Z 1001f140 f   GuBox.obj
 0001:0001e220       ?getBoxEdges@Gu@physx@@YAPBEXZ 1001f220 f   GuBox.obj
 0001:0001e230       ??KPxVec3@physx@@QBE?AV01@M@Z 1001f230 f i GuBox.obj
 0001:0001e2a0       ??YPxVec3@physx@@QAEAAV01@ABV01@@Z 1001f2a0 f i GuBox.obj
 0001:0001e300       ??ZPxVec3@physx@@QAEAAV01@ABV01@@Z 1001f300 f i GuBox.obj
 0001:0001e360       ?computeBasis@shdfnd@physx@@YAXABVPxVec3@2@AAV32@1@Z 1001f360 f i GuBox.obj
 0001:0001e4c0       ?computeCenter@Segment@Gu@physx@@QBE?AVPxVec3@3@XZ 1001f4c0 f i GuBox.obj
 0001:0001e500       ?computeBoxAroundCapsule@Gu@physx@@YAXABVCapsule@12@AAVBox@12@@Z 1001f500 f   GuCapsule.obj
 0001:0001e5f0       ?computeBasis@shdfnd@physx@@YAXABVPxVec3@2@0AAV32@11@Z 1001f5f0 f i GuCapsule.obj
 0001:0001e690       ?sweepBoxTriangles_Precise@Gu@physx@@YA_NIPBVPxTriangle@2@_NABVPxBoxGeometry@2@ABVPxTransform@2@ABVPxVec3@2@MAAUPxSweepHit@2@PBIMV?$PxFlags@W4Enum@PxHitFlag@physx@@G@2@@Z 1001f690 f   GuCCTSweepTests.obj
 0001:0001e720       ?sweepCapsule_BoxGeom_Precise@@YA_NABVPxGeometry@physx@@ABVPxTransform@2@ABVPxCapsuleGeometry@2@1ABVCapsule@Gu@2@ABVPxVec3@2@MAAUPxSweepHit@2@V?$PxFlags@W4Enum@PxHitFlag@physx@@G@2@M@Z 1001f720 f   GuCCTSweepTests.obj
 0001:0001eb20       ?sweepBox_SphereGeom_Precise@@YA_NABVPxGeometry@physx@@ABVPxTransform@2@ABVPxBoxGeometry@2@1ABVBox@Gu@2@ABVPxVec3@2@MAAUPxSweepHit@2@V?$PxFlags@W4Enum@PxHitFlag@physx@@G@2@M@Z 1001fb20 f   GuCCTSweepTests.obj
 0001:0001ed50       ?sweepBox_CapsuleGeom_Precise@@YA_NABVPxGeometry@physx@@ABVPxTransform@2@ABVPxBoxGeometry@2@1ABVBox@Gu@2@ABVPxVec3@2@MAAUPxSweepHit@2@V?$PxFlags@W4Enum@PxHitFlag@physx@@G@2@M@Z 1001fd50 f   GuCCTSweepTests.obj
 0001:0001efe0       ?sweepBox_BoxGeom_Precise@@YA_NABVPxGeometry@physx@@ABVPxTransform@2@ABVPxBoxGeometry@2@1ABVBox@Gu@2@ABVPxVec3@2@MAAUPxSweepHit@2@V?$PxFlags@W4Enum@PxHitFlag@physx@@G@2@M@Z 1001ffe0 f   GuCCTSweepTests.obj
 0001:0001f8b0       ?sweepBox_HeightFieldGeom_Precise@@YA_NABVPxGeometry@physx@@ABVPxTransform@2@ABVPxBoxGeometry@2@1ABVBox@Gu@2@ABVPxVec3@2@MAAUPxSweepHit@2@V?$PxFlags@W4Enum@PxHitFlag@physx@@G@2@M@Z 100208b0 f   GuCCTSweepTests.obj
 0001:0001fc30       ??$PX_UNUSED@I@@YAXABI@Z   10020c30 f i GuCCTSweepTests.obj
 0001:0001fc40       ??$PX_UNUSED@M@@YAXABM@Z   10020c40 f i GuCCTSweepTests.obj
 0001:0001fc50       ??$PX_UNUSED@VPxBoxGeometry@physx@@@@YAXABVPxBoxGeometry@physx@@@Z 10020c50 f i GuCCTSweepTests.obj
 0001:0001fc60       ??$PX_UNUSED@VPxCapsuleGeometry@physx@@@@YAXABVPxCapsuleGeometry@physx@@@Z 10020c60 f i GuCCTSweepTests.obj
 0001:0001fc70       ??$PX_UNUSED@VPxTransform@physx@@@@YAXABVPxTransform@physx@@@Z 10020c70 f i GuCCTSweepTests.obj
 0001:0001fc80       ??$PX_UNUSED@VPxVec3@physx@@@@YAXABVPxVec3@physx@@@Z 10020c80 f i GuCCTSweepTests.obj
 0001:0001fc90       ??0?$EntityReport@I@Gu@physx@@QAE@XZ 10020c90 f i GuCCTSweepTests.obj
 0001:0001fcb0       ??0?$PxFlags@W4Enum@PxHitFlag@physx@@G@physx@@QAE@ABV01@@Z 10020cb0 f i GuCCTSweepTests.obj
 0001:0001fcd0       ??0?$PxFlags@W4Enum@PxHitFlag@physx@@G@physx@@QAE@G@Z 10020cd0 f i GuCCTSweepTests.obj
 0001:0001fcf0       ??0?$PxFlags@W4Enum@PxHitFlag@physx@@G@physx@@QAE@W4Enum@PxHitFlag@1@@Z 10020cf0 f i GuCCTSweepTests.obj
 0001:0001fd10       ??0?$PxFlags@W4Enum@PxHitFlag@physx@@G@physx@@QAE@XZ 10020d10 f i GuCCTSweepTests.obj
 0001:0001fd30       ??0?$PxFlags@W4Enum@PxMeshGeometryFlag@physx@@E@physx@@QAE@ABV01@@Z 10020d30 f i GuCCTSweepTests.obj
 0001:0001fd50       ??0Capsule@Gu@physx@@QAE@ABV012@@Z 10020d50 f i GuCCTSweepTests.obj
 0001:0001fd80       ??0Capsule@Gu@physx@@QAE@XZ 10020d80 f i GuCCTSweepTests.obj
 0001:0001fda0       ??0HeightFieldTraceUtil@Gu@physx@@QAE@ABVPxHeightFieldGeometry@2@@Z 10020da0 f i GuCCTSweepTests.obj
 0001:0001fdc0       ??0HeightFieldUtil@Gu@physx@@QAE@ABVPxHeightFieldGeometry@2@@Z 10020dc0 f i GuCCTSweepTests.obj
 0001:0001ff50       ??0Matrix34@Cm@physx@@QAE@ABVPxMat33@2@ABVPxVec3@2@@Z 10020f50 f i GuCCTSweepTests.obj
 0001:0001ff80       ??0Matrix34@Cm@physx@@QAE@XZ 10020f80 f i GuCCTSweepTests.obj
 0001:0001ffb0       ??0PxActorShape@physx@@QAE@XZ 10020fb0 f i GuCCTSweepTests.obj
 0001:0001ffe0       ??0PxBounds3@physx@@QAE@ABVPxVec3@1@0@Z 10020fe0 f i GuCCTSweepTests.obj
 0001:00020010       ??0PxLocationHit@physx@@QAE@XZ 10021010 f i GuCCTSweepTests.obj
 0001:00020070       ??0PxQueryHit@physx@@QAE@XZ 10021070 f i GuCCTSweepTests.obj
 0001:00020090       ??0PxSweepHit@physx@@QAE@XZ 10021090 f i GuCCTSweepTests.obj
 0001:000200b0       ??0PxTriangle@physx@@QAE@ABVPxVec3@1@00@Z 100210b0 f i GuCCTSweepTests.obj
 0001:00020110       ??0PxTriangle@physx@@QAE@XZ 10021110 f i GuCCTSweepTests.obj
 0001:00020130       ??0Segment@Gu@physx@@QAE@ABV012@@Z 10021130 f i GuCCTSweepTests.obj
 0001:00020160       ??0Segment@Gu@physx@@QAE@XZ 10021160 f i GuCCTSweepTests.obj
 0001:00020190       ??1?$EntityReport@I@Gu@physx@@UAE@XZ 10021190 f i GuCCTSweepTests.obj
 0001:000201b0       ??1Capsule@Gu@physx@@QAE@XZ 100211b0 f i GuCCTSweepTests.obj
 0001:000201d0       ??1PxTriangle@physx@@QAE@XZ 100211d0 f i GuCCTSweepTests.obj
 0001:000201e0       ??1Segment@Gu@physx@@QAE@XZ 100211e0 f i GuCCTSweepTests.obj
 0001:000201f0       ??4?$PxFlags@W4Enum@PxHitFlag@physx@@G@physx@@QAEAAV01@ABV01@@Z 100211f0 f i GuCCTSweepTests.obj
 0001:00020210       ??4?$PxFlags@W4Enum@PxHitFlag@physx@@G@physx@@QAEAAV01@W4Enum@PxHitFlag@1@@Z 10021210 f i GuCCTSweepTests.obj
 0001:00020230       ??4HeightFieldTraceUtil@Gu@physx@@QAEAAV012@$$QAV012@@Z 10021230 f i GuCCTSweepTests.obj
 0001:00020270       ??4HeightFieldTraceUtil@Gu@physx@@QAEAAV012@ABV012@@Z 10021270 f i GuCCTSweepTests.obj
 0001:000202b0       ??4HeightFieldUtil@Gu@physx@@QAEAAV012@$$QAV012@@Z 100212b0 f i GuCCTSweepTests.obj
 0001:00020300       ??4HeightFieldUtil@Gu@physx@@QAEAAV012@ABV012@@Z 10021300 f i GuCCTSweepTests.obj
 0001:00020340       ??4Matrix34@Cm@physx@@QAEABV012@ABV012@@Z 10021340 f i GuCCTSweepTests.obj
 0001:00020370       ??4PxLocationHit@physx@@QAEAAU01@ABU01@@Z 10021370 f i GuCCTSweepTests.obj
 0001:000203e0       ??4PxSweepHit@physx@@QAEAAU01@ABU01@@Z 100213e0 f i GuCCTSweepTests.obj
 0001:00020410       ??8PxVec3@physx@@QBE_NABV01@@Z 10021410 f i GuCCTSweepTests.obj
 0001:00020470       ??B?$PxFlags@W4Enum@PxHeightFieldFlag@physx@@G@physx@@QBE_NXZ 10021470 f i GuCCTSweepTests.obj
 0001:000204a0       ??B?$PxFlags@W4Enum@PxHitFlag@physx@@G@physx@@QBEIXZ 100214a0 f i GuCCTSweepTests.obj
 0001:000204c0       ??B?$PxFlags@W4Enum@PxHitFlag@physx@@G@physx@@QBE_NXZ 100214c0 f i GuCCTSweepTests.obj
 0001:000204f0       ??B?$PxFlags@W4Enum@PxMeshGeometryFlag@physx@@E@physx@@QBE_NXZ 100214f0 f i GuCCTSweepTests.obj
 0001:00020520       ??GPxVec3@physx@@QBE?AV01@XZ 10021520 f i GuCCTSweepTests.obj
 0001:00020580       ??I?$PxFlags@W4Enum@PxHeightFieldFlag@physx@@G@physx@@QBE?AV01@W4Enum@PxHeightFieldFlag@1@@Z 10021580 f i GuCCTSweepTests.obj
 0001:000205c0       ??I?$PxFlags@W4Enum@PxHitFlag@physx@@G@physx@@QBE?AV01@ABV01@@Z 100215c0 f i GuCCTSweepTests.obj
 0001:00020600       ??I?$PxFlags@W4Enum@PxHitFlag@physx@@G@physx@@QBE?AV01@W4Enum@PxHitFlag@1@@Z 10021600 f i GuCCTSweepTests.obj
 0001:00020640       ??I?$PxFlags@W4Enum@PxMeshGeometryFlag@physx@@E@physx@@QBE?AV01@W4Enum@PxMeshGeometryFlag@1@@Z 10021640 f i GuCCTSweepTests.obj
 0001:00020680       ??Uphysx@@YA?AV?$PxFlags@W4Enum@PxHitFlag@physx@@G@0@W4Enum@PxHitFlag@0@0@Z 10021680 f i GuCCTSweepTests.obj
 0001:000206b0       ??_5?$PxFlags@W4Enum@PxHitFlag@physx@@G@physx@@QAEAAV01@W4Enum@PxHitFlag@1@@Z 100216b0 f i GuCCTSweepTests.obj
 0001:000206e0       ??_G?$EntityReport@I@Gu@physx@@UAEPAXI@Z 100216e0 f i GuCCTSweepTests.obj
 0001:000206e0       ??_E?$EntityReport@I@Gu@physx@@UAEPAXI@Z 100216e0 f i GuCCTSweepTests.obj
 0001:00020710       ?PxCeil@physx@@YAMM@Z      10021710 f i GuCCTSweepTests.obj
 0001:00020730       ?PxFloor@physx@@YAMM@Z     10021730 f i GuCCTSweepTests.obj
 0001:00020750       ?PxRecipSqrt@physx@@YAMM@Z 10021750 f i GuCCTSweepTests.obj
 0001:00020770       ?basisExtent@PxBounds3@physx@@SA?AV12@ABVPxVec3@2@ABVPxMat33@2@0@Z 10021770 f i GuCCTSweepTests.obj
 0001:00020950       ?buildFrom@physx@@YAXAAVBox@Gu@1@ABVPxVec3@1@1ABVPxQuat@1@@Z 10021950 f i GuCCTSweepTests.obj
 0001:00020990       ?buildMatrixFromBox@physx@@YAXAAVMatrix34@Cm@1@ABVBox@Gu@1@@Z 10021990 f i GuCCTSweepTests.obj
 0001:000209c0       ?ceilUp@HeightFieldTraceUtil@Gu@physx@@SAMM@Z 100219c0 f i GuCCTSweepTests.obj
 0001:00020a10       ?computePointNormal@HeightFieldUtil@Gu@physx@@QBE?AVPxVec3@3@IABV43@ABVPxTransform@3@MMMMAAM@Z 10021a10 f i GuCCTSweepTests.obj
 0001:00020ae0       ?computeWorldToBoxMatrix@physx@@YAXAAVMatrix34@Cm@1@ABVBox@Gu@1@@Z 10021ae0 f i GuCCTSweepTests.obj
 0001:00020b20       ?cullTriangle@Gu@physx@@YA_NPIBVPxVec3@2@ABV32@MMM@Z 10021b20 f i GuCCTSweepTests.obj
 0001:00020c20       ?denormalizedNormal@PxTriangle@physx@@QBEXAAVPxVec3@2@@Z 10021c20 f i GuCCTSweepTests.obj
 0001:00020c90       ?distanceSegmentBoxSquared@Gu@physx@@YAMABVSegment@12@ABVBox@12@PAMPAVPxVec3@2@@Z 10021c90 f i GuCCTSweepTests.obj
 0001:00020cd0       ?floorDown@HeightFieldTraceUtil@Gu@physx@@SAMM@Z 10021cd0 f i GuCCTSweepTests.obj
 0001:00020d20       ?getFeatureIndex@HeightFieldUtil@Gu@physx@@SAII@Z 10021d20 f i GuCCTSweepTests.obj
 0001:00020d30       ?getFeatureType@HeightFieldUtil@Gu@physx@@SA?AW4Feature@123@I@Z 10021d30 f i GuCCTSweepTests.obj
 0001:00020d40       ?getHeightAtShapePoint@HeightFieldUtil@Gu@physx@@QBEMMM@Z 10021d40 f i GuCCTSweepTests.obj
 0001:00020da0       ?getHeightField@HeightFieldUtil@Gu@physx@@QBEABVHeightField@23@XZ 10021da0 f i GuCCTSweepTests.obj
 0001:00020dc0       ?getHeightFieldGeometry@HeightFieldUtil@Gu@physx@@QBEABVPxHeightFieldGeometry@3@XZ 10021dc0 f i GuCCTSweepTests.obj
 0001:00020de0       ?getInverseRT@Matrix34@Cm@physx@@QBE?AV123@XZ 10021de0 f i GuCCTSweepTests.obj
 0001:00020e30       ?getNbRowsFast@HeightField@Gu@physx@@QBEIXZ 10021e30 f i GuCCTSweepTests.obj
 0001:00020e50       ?getNormalAtShapePoint@HeightFieldUtil@Gu@physx@@QBE?AVPxVec3@3@MM@Z 10021e50 f i GuCCTSweepTests.obj
 0001:00020ec0       ?getNormal_2@HeightField@Gu@physx@@QBE?AVPxVec3@3@IMMMMM@Z 10021ec0 f i GuCCTSweepTests.obj
 0001:00021100       ?getNormal_@HeightField@Gu@physx@@QBE?AVPxVec3@3@MMMMM@Z 10022100 f i GuCCTSweepTests.obj
 0001:00021190       ?getNormalized@PxVec3@physx@@QBE?AV12@XZ 10022190 f i GuCCTSweepTests.obj
 0001:00021220       ?getOneOverColumnScale@HeightFieldUtil@Gu@physx@@QBEMXZ 10022220 f i GuCCTSweepTests.obj
 0001:00021240       ?getOneOverHeightScale@HeightFieldUtil@Gu@physx@@QBEMXZ 10022240 f i GuCCTSweepTests.obj
 0001:00021260       ?getOneOverRowScale@HeightFieldUtil@Gu@physx@@QBEMXZ 10022260 f i GuCCTSweepTests.obj
 0001:00021270       ?getTriangleIndex@physx@@YAIII@Z 10022270 f i GuCCTSweepTests.obj
 0001:000212a0       ?getVertexNormal@HeightFieldUtil@Gu@physx@@QBE?AVPxVec3@3@I@Z 100222a0 f i GuCCTSweepTests.obj
 0001:00021300       ?hf2shapen@HeightFieldUtil@Gu@physx@@QBE?AVPxVec3@3@ABV43@@Z 10022300 f i GuCCTSweepTests.obj
 0001:00021360       ?hf2shapep@HeightFieldUtil@Gu@physx@@QBE?AVPxVec3@3@ABV43@@Z 10022360 f i GuCCTSweepTests.obj
 0001:000213d0       ?hf2worldn@HeightFieldUtil@Gu@physx@@QBE?AVPxVec3@3@ABVPxTransform@3@ABV43@@Z 100223d0 f i GuCCTSweepTests.obj
 0001:00021410       ?hf2worldp@HeightFieldUtil@Gu@physx@@QBE?AVPxVec3@3@ABVPxTransform@3@ABV43@@Z 10022410 f i GuCCTSweepTests.obj
 0001:00021450       ?isCollisionVertex@HeightField@Gu@physx@@QBE_NIIIG@Z 10022450 f i GuCCTSweepTests.obj
 0001:00021490       ?isCollisionVertex@HeightFieldUtil@Gu@physx@@QBE_NIII@Z 10022490 f i GuCCTSweepTests.obj
 0001:000214c0       ?isFinite@PxTransform@physx@@QBE_NXZ 100224c0 f i GuCCTSweepTests.obj
 0001:00021510       ?isQueryVertex@HeightFieldUtil@Gu@physx@@QBE_NIII@Z 10022510 f i GuCCTSweepTests.obj
 0001:000215e0       ?isShapePointOnHeightField@HeightFieldUtil@Gu@physx@@QBE_NMM@Z 100225e0 f i GuCCTSweepTests.obj
 0001:00021680       ?makeFeatureCode@HeightFieldUtil@Gu@physx@@SAIIW4Feature@123@@Z 10022680 f i GuCCTSweepTests.obj
 0001:00021690       ?poseExtent@PxBounds3@physx@@SA?AV12@ABVPxTransform@2@ABVPxVec3@2@@Z 10022690 f i GuCCTSweepTests.obj
 0001:000216d0       ?recipSqrt@intrinsics@physx@@YAMM@Z 100226d0 f i GuCCTSweepTests.obj
 0001:00021710       ?rotate@Matrix34@Cm@physx@@QBE?AVPxVec3@3@ABV43@@Z 10022710 f i GuCCTSweepTests.obj
 0001:00021730       ?rotate@PxTransform@physx@@QBE?AVPxVec3@2@ABV32@@Z 10022730 f i GuCCTSweepTests.obj
 0001:00021780       ?setInitialOverlapResults@Gu@physx@@YA_NAAUPxSweepHit@2@ABVPxVec3@2@I@Z 10022780 f i GuCCTSweepTests.obj
 0001:000217e0       ?shape2hfp@HeightFieldUtil@Gu@physx@@QBE?AVPxVec3@3@ABV43@@Z 100227e0 f i GuCCTSweepTests.obj
 0001:00021840       ?shouldFlipNormal@Gu@physx@@YA_NABVPxVec3@2@_N100@Z 10022840 f i GuCCTSweepTests.obj
 0001:000218f0       ?transform@Matrix34@Cm@physx@@QBE?AVPxVec3@3@ABV43@@Z 100228f0 f i GuCCTSweepTests.obj
 0001:00021930       ?transform@PxTransform@physx@@QBE?AVPxVec3@2@ABV32@@Z 10022930 f i GuCCTSweepTests.obj
 0001:00021990       _ceilf                     10022990 f i GuCCTSweepTests.obj
 0001:000219c0       _floorf                    100229c0 f i GuCCTSweepTests.obj
 0001:00021a40       ?sweep@PxGeometryQuery@physx@@SA_NABVPxVec3@2@MABVPxGeometry@2@ABVPxTransform@2@12AAUPxSweepHit@2@V?$PxFlags@W4Enum@PxHitFlag@physx@@G@2@M@Z 10022a40 f   GuGeometryQuery.obj
 0001:00022080       ?overlap@PxGeometryQuery@physx@@SA_NABVPxGeometry@2@ABVPxTransform@2@01@Z 10023080 f   GuGeometryQuery.obj
 0001:000220c0       ?raycast@PxGeometryQuery@physx@@SAIABVPxVec3@2@0ABVPxGeometry@2@ABVPxTransform@2@MV?$PxFlags@W4Enum@PxHitFlag@physx@@G@2@IPIAUPxRaycastHit@2@@Z 100230c0 f   GuGeometryQuery.obj
 0001:00022390       ?computePenetration@PxGeometryQuery@physx@@SA_NAAVPxVec3@2@AAMABVPxGeometry@2@ABVPxTransform@2@23@Z 10023390 f   GuGeometryQuery.obj
 0001:000225b0       ?pointDistance@PxGeometryQuery@physx@@SAMABVPxVec3@2@ABVPxGeometry@2@ABVPxTransform@2@PAV32@@Z 100235b0 f   GuGeometryQuery.obj
 0001:000229f0       ?getWorldBounds@PxGeometryQuery@physx@@SA?AVPxBounds3@2@ABVPxGeometry@2@ABVPxTransform@2@M@Z 100239f0 f   GuGeometryQuery.obj
 0001:00022af0       ?isValid@PxGeometryQuery@physx@@SA_NABVPxGeometry@2@@Z 10023af0 f   GuGeometryQuery.obj
 0001:00022c30       ??$PxMax@M@physx@@YAMMM@Z  10023c30 f i GuGeometryQuery.obj
 0001:00022c60       ??0Capsule@Gu@physx@@QAE@ABVPxVec3@2@0M@Z 10023c60 f i GuGeometryQuery.obj
 0001:00022c90       ??0PxBounds3@physx@@QAE@$$QAV01@@Z 10023c90 f i GuGeometryQuery.obj
 0001:00022cc0       ??0PxCapsuleGeometry@physx@@QAE@MM@Z 10023cc0 f i GuGeometryQuery.obj
 0001:00022d00       ??0PxGeometry@physx@@IAE@W4Enum@PxGeometryType@1@@Z 10023d00 f i GuGeometryQuery.obj
 0001:00022d20       ??0SIMDGuard@shdfnd@physx@@QAE@XZ 10023d20 f i GuGeometryQuery.obj
 0001:00022d50       ??0Segment@Gu@physx@@QAE@ABVPxVec3@2@0@Z 10023d50 f i GuGeometryQuery.obj
 0001:00022d80       ??1SIMDGuard@shdfnd@physx@@QAE@XZ 10023d80 f i GuGeometryQuery.obj
 0001:00022da0       ?distancePointBoxSquared@Gu@physx@@YAMABVPxVec3@2@ABVBox@12@PAV32@@Z 10023da0 f i GuGeometryQuery.obj
 0001:00022dd0       ?distancePointSegmentSquared@Gu@physx@@YAMABVPxVec3@2@00PAM@Z 10023dd0 f i GuGeometryQuery.obj
 0001:00022e00       ?distancePointSegmentSquared@Gu@physx@@YAMABVSegment@12@ABVPxVec3@2@PAM@Z 10023e00 f i GuGeometryQuery.obj
 0001:00022e20       ?distancePointSegmentSquaredInternal@Gu@physx@@YAMABVPxVec3@2@00PAM@Z 10023e20 f i GuGeometryQuery.obj
 0001:00022ee0       ?empty@PxBounds3@physx@@SA?AV12@XZ 10023ee0 f i GuGeometryQuery.obj
 0001:00022f30       ?getPointAt@Segment@Gu@physx@@QBE?AVPxVec3@3@M@Z 10023f30 f i GuGeometryQuery.obj
 0001:00022f80       ?isValid@PxBoxGeometry@physx@@QBE_NXZ 10023f80 f i GuGeometryQuery.obj
 0001:00022fe0       ?isValid@PxCapsuleGeometry@physx@@QBE_NXZ 10023fe0 f i GuGeometryQuery.obj
 0001:00023060       ?isValid@PxConvexMeshGeometry@physx@@QBE_NXZ 10024060 f i GuGeometryQuery.obj
 0001:000230d0       ?isValid@PxSphereGeometry@physx@@QBE_NXZ 100240d0 f i GuGeometryQuery.obj
 0001:00023120       ?isValid@PxTransform@physx@@QBE_NXZ 10024120 f i GuGeometryQuery.obj
 0001:00023170       ?isValidForConvexMesh@PxMeshScale@physx@@QBE_NXZ 10024170 f i GuGeometryQuery.obj
 0001:000231d0       ?maxElement@PxVec3@physx@@QBEMXZ 100241d0 f i GuGeometryQuery.obj
 0001:00023220       ?minElement@PxVec3@physx@@QBEMXZ 10024220 f i GuGeometryQuery.obj
 0001:00023270       ?overlap@Gu@physx@@YA_NABVPxGeometry@2@ABVPxTransform@2@01PIAY06Q6A_N0101PAUTriggerCache@12@@Z@Z 10024270 f i GuGeometryQuery.obj
 0001:00023400       ?selectMax@intrinsics@physx@@YAMMM@Z 10024400 f i GuGeometryQuery.obj
 0001:00023430       ?set@GeometryUnion@Gu@physx@@QAEXABVPxGeometry@3@@Z 10024430 f   GuGeometryUnion.obj
 0001:000236f0       ??$PX_UNUSED@VGeometryUnion@Gu@physx@@@@YAXABVGeometryUnion@Gu@physx@@@Z 100246f0 f i GuGeometryUnion.obj
 0001:00023700       ??$checkType@UPxConvexMeshGeometryLL@physx@@@physx@@YAXABVGeometryUnion@Gu@0@@Z 10024700 f i GuGeometryUnion.obj
 0001:00023760       ??$checkType@UPxHeightFieldGeometryLL@physx@@@physx@@YAXABVGeometryUnion@Gu@0@@Z 10024760 f i GuGeometryUnion.obj
 0001:000237c0       ??$checkType@UPxTriangleMeshGeometryLL@physx@@@physx@@YAXABVGeometryUnion@Gu@0@@Z 100247c0 f i GuGeometryUnion.obj
 0001:00023820       ??$get@UPxConvexMeshGeometryLL@physx@@@GeometryUnion@Gu@physx@@QAEAAUPxConvexMeshGeometryLL@2@XZ 10024820 f i GuGeometryUnion.obj
 0001:00023840       ??$get@UPxHeightFieldGeometryLL@physx@@@GeometryUnion@Gu@physx@@QAEAAUPxHeightFieldGeometryLL@2@XZ 10024840 f i GuGeometryUnion.obj
 0001:00023860       ??$get@UPxTriangleMeshGeometryLL@physx@@@GeometryUnion@Gu@physx@@QAEAAUPxTriangleMeshGeometryLL@2@XZ 10024860 f i GuGeometryUnion.obj
 0001:00023880       ??0GeometryUnion@Gu@physx@@QAE@ABVPxGeometry@2@@Z 10024880 f i GuGeometryUnion.obj
 0001:000238a0       ??0GeometryUnion@Gu@physx@@QAE@W4PxEMPTY@2@@Z 100248a0 f i GuGeometryUnion.obj
 0001:000238b0       ??0GeometryUnion@Gu@physx@@QAE@XZ 100248b0 f i GuGeometryUnion.obj
 0001:000238d0       ??0InvalidGeometry@Gu@physx@@QAE@XZ 100248d0 f i GuGeometryUnion.obj
 0001:000238f0       ??0MaterialIndicesStruct@physx@@QAE@W4PxEMPTY@1@@Z 100248f0 f i GuGeometryUnion.obj
 0001:00023900       ??0MaterialIndicesStruct@physx@@QAE@XZ 10024900 f i GuGeometryUnion.obj
 0001:00023930       ??1MaterialIndicesStruct@physx@@QAE@XZ 10024930 f i GuGeometryUnion.obj
 0001:00023940       ??4?$PxFlags@W4Enum@PxConvexMeshGeometryFlag@physx@@E@physx@@QAEAAV01@ABV01@@Z 10024940 f i GuGeometryUnion.obj
 0001:00023960       ??4?$PxFlags@W4Enum@PxMeshGeometryFlag@physx@@E@physx@@QAEAAV01@ABV01@@Z 10024960 f i GuGeometryUnion.obj
 0001:00023980       ??4GeometryUnion@Gu@physx@@QAEAAV012@$$QAV012@@Z 10024980 f i GuGeometryUnion.obj
 0001:000239b0       ??4GeometryUnion@Gu@physx@@QAEAAV012@ABV012@@Z 100249b0 f i GuGeometryUnion.obj
 0001:000239e0       ??4MaterialIndicesStruct@physx@@QAEAAU01@ABU01@@Z 100249e0 f i GuGeometryUnion.obj
 0001:00023a00       ??4PxBoxGeometry@physx@@QAEAAV01@ABV01@@Z 10024a00 f i GuGeometryUnion.obj
 0001:00023a30       ??4PxConvexMeshGeometry@physx@@QAEAAV01@ABV01@@Z 10024a30 f i GuGeometryUnion.obj
 0001:00023aa0       ??4PxHeightFieldGeometry@physx@@QAEAAV01@ABV01@@Z 10024aa0 f i GuGeometryUnion.obj
 0001:00023b20       ??4PxMeshScale@physx@@QAEAAV01@ABV01@@Z 10024b20 f i GuGeometryUnion.obj
 0001:00023b50       ??4PxTriangleMeshGeometry@physx@@QAEAAV01@ABV01@@Z 10024b50 f i GuGeometryUnion.obj
 0001:00023bc0       ?allocate@MaterialIndicesStruct@physx@@QAEXG@Z 10024bc0 f i GuGeometryUnion.obj
 0001:00023c10       ?deallocate@MaterialIndicesStruct@physx@@QAEXXZ 10024c10 f i GuGeometryUnion.obj
 0001:00023c40       ?getGeometry@GeometryUnion@Gu@physx@@QBEABVPxGeometry@3@XZ 10024c40 f i GuGeometryUnion.obj
 0001:00023c50       ?getHull@ConvexMesh@Gu@physx@@QAEAAUConvexHullData@23@XZ 10024c50 f i GuGeometryUnion.obj
 0001:00023c70       ?getMaterials@TriangleMesh@Gu@physx@@QBEPBGXZ 10024c70 f i GuGeometryUnion.obj
 0001:00023c90       ?getType@GeometryUnion@Gu@physx@@QBE?AW4Enum@PxGeometryType@3@XZ 10024c90 f i GuGeometryUnion.obj
 0001:00023d00       ?computeBoxPoints@Gu@physx@@YAXABVPxBounds3@2@PIAVPxVec3@2@@Z 10024d00 f   GuInternal.obj
 0001:00023f60       ?computeBoundsAroundVertices@Gu@physx@@YAXAAVPxBounds3@2@IPIBVPxVec3@2@@Z 10024f60 f   GuInternal.obj
 0001:000240c0       ?getPlane@Gu@physx@@YA?AVPxPlane@2@ABVPxTransform@2@@Z 100250c0 f   GuInternal.obj
 0001:00024110       ?computeSweptBox@Gu@physx@@YAXAAVBox@12@ABVPxVec3@2@1ABVPxMat33@2@1M@Z 10025110 f   GuInternal.obj
 0001:000244a0       ??$swap@I@shdfnd@physx@@YAXAAI0@Z 100254a0 f i GuInternal.obj
 0001:000244d0       ??0PxPlane@physx@@QAE@ABVPxVec3@1@M@Z 100254d0 f i GuInternal.obj
 0001:00024500       ??APxMat33@physx@@QAEAAVPxVec3@1@I@Z 10025500 f i GuInternal.obj
 0001:00024520       ?setEmpty@PxBounds3@physx@@QAEXXZ 10025520 f i GuInternal.obj
 0001:00024570       ??0GuMeshFactory@physx@@QAE@XZ 10025570 f   GuMeshFactory.obj
 0001:00024640       ??1GuMeshFactory@physx@@MAE@XZ 10025640 f   GuMeshFactory.obj
 0001:000246a0       ?release@GuMeshFactory@physx@@QAEXXZ 100256a0 f   GuMeshFactory.obj
 0001:00024720       ?addTriangleMesh@GuMeshFactory@physx@@QAEXPAVTriangleMesh@Gu@2@_N@Z 10025720 f   GuMeshFactory.obj
 0001:00024760       ?createTriangleMesh@GuMeshFactory@physx@@QAEPAVPxTriangleMesh@2@AAVPxInputStream@2@@Z 10025760 f   GuMeshFactory.obj
 0001:000247c0       ?createTriangleMesh@GuMeshFactory@physx@@QAEPAVPxTriangleMesh@2@PAX@Z 100257c0 f   GuMeshFactory.obj
 0001:000247e0       ?removeTriangleMesh@GuMeshFactory@physx@@QAE_NAAVPxTriangleMesh@2@@Z 100257e0 f   GuMeshFactory.obj
 0001:00024830       ?getNbTriangleMeshes@GuMeshFactory@physx@@QBEIXZ 10025830 f   GuMeshFactory.obj
 0001:00024870       ?getTriangleMeshes@GuMeshFactory@physx@@QBEIPAPAVPxTriangleMesh@2@II@Z 10025870 f   GuMeshFactory.obj
 0001:000248d0       ?addConvexMesh@GuMeshFactory@physx@@QAEXPAVConvexMesh@Gu@2@_N@Z 100258d0 f   GuMeshFactory.obj
 0001:00024910       ?createConvexMesh@GuMeshFactory@physx@@QAEPAVPxConvexMesh@2@AAVPxInputStream@2@@Z 10025910 f   GuMeshFactory.obj
 0001:000249d0       ?createConvexMesh@GuMeshFactory@physx@@QAEPAVPxConvexMesh@2@PAX@Z 100259d0 f   GuMeshFactory.obj
 0001:000249f0       ?removeConvexMesh@GuMeshFactory@physx@@QAE_NAAVPxConvexMesh@2@@Z 100259f0 f   GuMeshFactory.obj
 0001:00024a40       ?getNbConvexMeshes@GuMeshFactory@physx@@QBEIXZ 10025a40 f   GuMeshFactory.obj
 0001:00024a80       ?getConvexMeshes@GuMeshFactory@physx@@QBEIPAPAVPxConvexMesh@2@II@Z 10025a80 f   GuMeshFactory.obj
 0001:00024ae0       ?addHeightField@GuMeshFactory@physx@@QAEXPAVHeightField@Gu@2@_N@Z 10025ae0 f   GuMeshFactory.obj
 0001:00024b20       ?createHeightField@GuMeshFactory@physx@@QAEPAVPxHeightField@2@PAX@Z 10025b20 f   GuMeshFactory.obj
 0001:00024bb0       ?createHeightField@GuMeshFactory@physx@@QAEPAVPxHeightField@2@AAVPxInputStream@2@@Z 10025bb0 f   GuMeshFactory.obj
 0001:00024c60       ?removeHeightField@GuMeshFactory@physx@@QAE_NAAVPxHeightField@2@@Z 10025c60 f   GuMeshFactory.obj
 0001:00024cb0       ?getNbHeightFields@GuMeshFactory@physx@@QBEIXZ 10025cb0 f   GuMeshFactory.obj
 0001:00024cf0       ?getHeightFields@GuMeshFactory@physx@@QBEIPAPAVPxHeightField@2@II@Z 10025cf0 f   GuMeshFactory.obj
 0001:00024d50       ?addBVHStructure@GuMeshFactory@physx@@QAEXPAVBVHStructure@Gu@2@_N@Z 10025d50 f   GuMeshFactory.obj
 0001:00024da0       ?createBVHStructure@GuMeshFactory@physx@@QAEPAVPxBVHStructure@2@AAVPxInputStream@2@@Z 10025da0 f   GuMeshFactory.obj
 0001:00024e50       ?createBVHStructure@GuMeshFactory@physx@@QAEPAVPxBVHStructure@2@PAX@Z 10025e50 f   GuMeshFactory.obj
 0001:00024e70       ?removeBVHStructure@GuMeshFactory@physx@@QAE_NAAVPxBVHStructure@2@@Z 10025e70 f   GuMeshFactory.obj
 0001:00024ec0       ?getNbBVHStructures@GuMeshFactory@physx@@QBEIXZ 10025ec0 f   GuMeshFactory.obj
 0001:00024f00       ?getBVHStructures@GuMeshFactory@physx@@QBEIPAPAVPxBVHStructure@2@II@Z 10025f00 f   GuMeshFactory.obj
 0001:00024f60       ?addFactoryListener@GuMeshFactory@physx@@QAEXAAVGuMeshFactoryListener@2@@Z 10025f60 f   GuMeshFactory.obj
 0001:00024fa0       ?removeFactoryListener@GuMeshFactory@physx@@QAEXAAVGuMeshFactoryListener@2@@Z 10025fa0 f   GuMeshFactory.obj
 0001:00025030       ?notifyFactoryListener@GuMeshFactory@physx@@QAEXPBVPxBase@2@G@Z 10026030 f   GuMeshFactory.obj
 0001:000250a0       ?createTriangleMesh@GuMeshFactory@physx@@IAEPAVPxTriangleMesh@2@AAVTriangleMeshData@Gu@2@@Z 100260a0 f   GuMeshFactory.obj
 0001:000251c0       ?createConvexMesh@GuMeshFactory@physx@@IAEPAVPxConvexMesh@2@AAUConvexHullInitData@Gu@2@@Z 100261c0 f   GuMeshFactory.obj
 0001:00025260       ?createBVHStructure@GuMeshFactory@physx@@IAEPAVPxBVHStructure@2@AAUBVHStructureData@Gu@2@@Z 10026260 f   GuMeshFactory.obj
 0001:000265b0       ??$?2V?$ReflectionAllocator@VBV32Tree@Gu@physx@@@shdfnd@physx@@@UserAllocated@shdfnd@physx@@SAPAXIV?$ReflectionAllocator@VBV32Tree@Gu@physx@@@12@PBDH@Z 100275b0 f i GuMeshFactory.obj
 0001:000265d0       ??$?2V?$ReflectionAllocator@VBV4TriangleData@Gu@physx@@@shdfnd@physx@@@UserAllocated@shdfnd@physx@@SAPAXIV?$ReflectionAllocator@VBV4TriangleData@Gu@physx@@@12@PBDH@Z 100275d0 f i GuMeshFactory.obj
 0001:000265f0       ??$?2V?$ReflectionAllocator@VRTreeTriangleData@Gu@physx@@@shdfnd@physx@@@UserAllocated@shdfnd@physx@@SAPAXIV?$ReflectionAllocator@VRTreeTriangleData@Gu@physx@@@12@PBDH@Z 100275f0 f i GuMeshFactory.obj
 0001:00026610       ??$?_UE@@YAPAXIV?$ReflectionAllocator@E@shdfnd@physx@@PBDH@Z 10027610 f i GuMeshFactory.obj
 0001:00026630       ??$?_UG@@YAPAXIV?$ReflectionAllocator@G@shdfnd@physx@@PBDH@Z 10027630 f i GuMeshFactory.obj
 0001:00026650       ??$?_UI@@YAPAXIV?$ReflectionAllocator@I@shdfnd@physx@@PBDH@Z 10027650 f i GuMeshFactory.obj
 0001:00026670       ??$PxMax@H@physx@@YAHHH@Z  10027670 f i GuMeshFactory.obj
 0001:000266a0       ??$PxMin@I@physx@@YAIII@Z  100276a0 f i GuMeshFactory.obj
 0001:000266d0       ??$getArrayOfPointers@VPxBVHStructure@physx@@VBVHStructure@Gu@2@@Cm@physx@@YAIPIAPAVPxBVHStructure@1@IIPIBQAVBVHStructure@Gu@1@I@Z 100276d0 f i GuMeshFactory.obj
 0001:00026740       ??$getArrayOfPointers@VPxConvexMesh@physx@@VConvexMesh@Gu@2@@Cm@physx@@YAIPIAPAVPxConvexMesh@1@IIPIBQAVConvexMesh@Gu@1@I@Z 10027740 f i GuMeshFactory.obj
 0001:000267b0       ??$getArrayOfPointers@VPxHeightField@physx@@VHeightField@Gu@2@@Cm@physx@@YAIPIAPAVPxHeightField@1@IIPIBQAVHeightField@Gu@1@I@Z 100277b0 f i GuMeshFactory.obj
 0001:00026820       ??$getArrayOfPointers@VPxTriangleMesh@physx@@VTriangleMesh@Gu@2@@Cm@physx@@YAIPIAPAVPxTriangleMesh@1@IIPIBQAVTriangleMesh@Gu@1@I@Z 10027820 f i GuMeshFactory.obj
 0001:00026890       ??0?$AlignedAllocator@$0IA@VNonTrackingAllocator@shdfnd@physx@@@shdfnd@physx@@QAE@ABVNonTrackingAllocator@12@@Z 10027890 f i GuMeshFactory.obj
 0001:000268a0       ??0?$Array@PAVGuMeshFactoryListener@physx@@VNamedAllocator@shdfnd@2@@shdfnd@physx@@QAE@ABVNamedAllocator@12@@Z 100278a0 f i GuMeshFactory.obj
 0001:000268e0       ??0?$CoalescedHashSet@PAVBVHStructure@Gu@physx@@U?$Hash@PAVBVHStructure@Gu@physx@@@shdfnd@3@VNonTrackingAllocator@53@@shdfnd@physx@@QAE@ABVNonTrackingAllocator@12@@Z 100278e0 f i GuMeshFactory.obj
 0001:00026910       ??0?$CoalescedHashSet@PAVConvexMesh@Gu@physx@@U?$Hash@PAVConvexMesh@Gu@physx@@@shdfnd@3@VNonTrackingAllocator@53@@shdfnd@physx@@QAE@ABVNonTrackingAllocator@12@@Z 10027910 f i GuMeshFactory.obj
 0001:00026940       ??0?$CoalescedHashSet@PAVHeightField@Gu@physx@@U?$Hash@PAVHeightField@Gu@physx@@@shdfnd@3@VNonTrackingAllocator@53@@shdfnd@physx@@QAE@ABVNonTrackingAllocator@12@@Z 10027940 f i GuMeshFactory.obj
 0001:00026970       ??0?$CoalescedHashSet@PAVTriangleMesh@Gu@physx@@U?$Hash@PAVTriangleMesh@Gu@physx@@@shdfnd@3@VNonTrackingAllocator@53@@shdfnd@physx@@QAE@ABVNonTrackingAllocator@12@@Z 10027970 f i GuMeshFactory.obj
 0001:000269a0       ??0?$HashBase@PAVBVHStructure@Gu@physx@@PAV123@U?$Hash@PAVBVHStructure@Gu@physx@@@shdfnd@3@UGetKey@?$HashSetBase@PAVBVHStructure@Gu@physx@@U?$Hash@PAVBVHStructure@Gu@physx@@@shdfnd@3@VNonTrackingAllocator@53@$00@internal@53@VNonTrackingAllocator@53@$00@internal@shdfnd@physx@@QAE@IMABVNonTrackingAllocator@23@@Z 100279a0 f i GuMeshFactory.obj
 0001:000269d0       ??0?$HashBase@PAVConvexMesh@Gu@physx@@PAV123@U?$Hash@PAVConvexMesh@Gu@physx@@@shdfnd@3@UGetKey@?$HashSetBase@PAVConvexMesh@Gu@physx@@U?$Hash@PAVConvexMesh@Gu@physx@@@shdfnd@3@VNonTrackingAllocator@53@$00@internal@53@VNonTrackingAllocator@53@$00@internal@shdfnd@physx@@QAE@IMABVNonTrackingAllocator@23@@Z 100279d0 f i GuMeshFactory.obj
 0001:00026a00       ??0?$HashBase@PAVHeightField@Gu@physx@@PAV123@U?$Hash@PAVHeightField@Gu@physx@@@shdfnd@3@UGetKey@?$HashSetBase@PAVHeightField@Gu@physx@@U?$Hash@PAVHeightField@Gu@physx@@@shdfnd@3@VNonTrackingAllocator@53@$00@internal@53@VNonTrackingAllocator@53@$00@internal@shdfnd@physx@@QAE@IMABVNonTrackingAllocator@23@@Z 10027a00 f i GuMeshFactory.obj
 0001:00026a30       ??0?$HashBase@PAVTriangleMesh@Gu@physx@@PAV123@U?$Hash@PAVTriangleMesh@Gu@physx@@@shdfnd@3@UGetKey@?$HashSetBase@PAVTriangleMesh@Gu@physx@@U?$Hash@PAVTriangleMesh@Gu@physx@@@shdfnd@3@VNonTrackingAllocator@53@$00@internal@53@VNonTrackingAllocator@53@$00@internal@shdfnd@physx@@QAE@IMABVNonTrackingAllocator@23@@Z 10027a30 f i GuMeshFactory.obj
 0001:00026a60       ??0?$HashSetBase@PAVBVHStructure@Gu@physx@@U?$Hash@PAVBVHStructure@Gu@physx@@@shdfnd@3@VNonTrackingAllocator@53@$00@internal@shdfnd@physx@@QAE@IMABVNonTrackingAllocator@23@@Z 10027a60 f i GuMeshFactory.obj
 0001:00026a90       ??0?$HashSetBase@PAVConvexMesh@Gu@physx@@U?$Hash@PAVConvexMesh@Gu@physx@@@shdfnd@3@VNonTrackingAllocator@53@$00@internal@shdfnd@physx@@QAE@IMABVNonTrackingAllocator@23@@Z 10027a90 f i GuMeshFactory.obj
 0001:00026ac0       ??0?$HashSetBase@PAVHeightField@Gu@physx@@U?$Hash@PAVHeightField@Gu@physx@@@shdfnd@3@VNonTrackingAllocator@53@$00@internal@shdfnd@physx@@QAE@IMABVNonTrackingAllocator@23@@Z 10027ac0 f i GuMeshFactory.obj
 0001:00026af0       ??0?$HashSetBase@PAVTriangleMesh@Gu@physx@@U?$Hash@PAVTriangleMesh@Gu@physx@@@shdfnd@3@VNonTrackingAllocator@53@$00@internal@shdfnd@physx@@QAE@IMABVNonTrackingAllocator@23@@Z 10027af0 f i GuMeshFactory.obj
 0001:00026b20       ??0?$MutexT@V?$ReflectionAllocator@VMutexImpl@shdfnd@physx@@@shdfnd@physx@@@shdfnd@physx@@QAE@ABV?$ReflectionAllocator@VMutexImpl@shdfnd@physx@@@12@@Z 10027b20 f i GuMeshFactory.obj
 0001:00026b80       ??0?$ReflectionAllocator@E@shdfnd@physx@@QAE@PBD@Z 10027b80 f i GuMeshFactory.obj
 0001:00026b90       ??0?$ReflectionAllocator@G@shdfnd@physx@@QAE@PBD@Z 10027b90 f i GuMeshFactory.obj
 0001:00026ba0       ??0?$ReflectionAllocator@I@shdfnd@physx@@QAE@PBD@Z 10027ba0 f i GuMeshFactory.obj
 0001:00026bb0       ??0?$ReflectionAllocator@VBV32Tree@Gu@physx@@@shdfnd@physx@@QAE@PBD@Z 10027bb0 f i GuMeshFactory.obj
 0001:00026bc0       ??0?$ReflectionAllocator@VBV4TriangleData@Gu@physx@@@shdfnd@physx@@QAE@PBD@Z 10027bc0 f i GuMeshFactory.obj
 0001:00026bd0       ??0?$ReflectionAllocator@VBV4TriangleMesh@Gu@physx@@@shdfnd@physx@@QAE@PBD@Z 10027bd0 f i GuMeshFactory.obj
 0001:00026be0       ??0?$ReflectionAllocator@VBVHStructure@Gu@physx@@@shdfnd@physx@@QAE@PBD@Z 10027be0 f i GuMeshFactory.obj
 0001:00026bf0       ??0?$ReflectionAllocator@VConvexMesh@Gu@physx@@@shdfnd@physx@@QAE@PBD@Z 10027bf0 f i GuMeshFactory.obj
 0001:00026c00       ??0?$ReflectionAllocator@VHeightField@Gu@physx@@@shdfnd@physx@@QAE@PBD@Z 10027c00 f i GuMeshFactory.obj
 0001:00026c10       ??0?$ReflectionAllocator@VMutexImpl@shdfnd@physx@@@shdfnd@physx@@QAE@ABV012@@Z 10027c10 f i GuMeshFactory.obj
 0001:00026c20       ??0?$ReflectionAllocator@VMutexImpl@shdfnd@physx@@@shdfnd@physx@@QAE@PBD@Z 10027c20 f i GuMeshFactory.obj
 0001:00026c30       ??0?$ReflectionAllocator@VRTreeTriangleData@Gu@physx@@@shdfnd@physx@@QAE@PBD@Z 10027c30 f i GuMeshFactory.obj
 0001:00026c40       ??0?$ReflectionAllocator@VRTreeTriangleMesh@Gu@physx@@@shdfnd@physx@@QAE@PBD@Z 10027c40 f i GuMeshFactory.obj
 0001:00026c50       ??0BV4TriangleData@Gu@physx@@QAE@XZ 10027c50 f i GuMeshFactory.obj
 0001:00026c90       ??0MeshDataBase@Gu@physx@@QAE@XZ 10027c90 f i GuMeshFactory.obj
 0001:00026d10       ??0RTree@Gu@physx@@QAE@XZ  10027d10 f i GuMeshFactory.obj
 0001:00026d80       ??0RTreeTriangleData@Gu@physx@@QAE@XZ 10027d80 f i GuMeshFactory.obj
 0001:00026dc0       ??0ScopedLock@?$MutexT@V?$ReflectionAllocator@VMutexImpl@shdfnd@physx@@@shdfnd@physx@@@shdfnd@physx@@QAE@AAV123@@Z 10027dc0 f i GuMeshFactory.obj
 0001:00026df0       ??0TriangleMeshData@Gu@physx@@QAE@XZ 10027df0 f i GuMeshFactory.obj
 0001:00026e50       ??1?$Array@PAVGuMeshFactoryListener@physx@@VNamedAllocator@shdfnd@2@@shdfnd@physx@@QAE@XZ 10027e50 f i GuMeshFactory.obj
 0001:00026eb0       ??1?$CoalescedHashSet@PAVBVHStructure@Gu@physx@@U?$Hash@PAVBVHStructure@Gu@physx@@@shdfnd@3@VNonTrackingAllocator@53@@shdfnd@physx@@QAE@XZ 10027eb0 f i GuMeshFactory.obj
 0001:00026ed0       ??1?$CoalescedHashSet@PAVConvexMesh@Gu@physx@@U?$Hash@PAVConvexMesh@Gu@physx@@@shdfnd@3@VNonTrackingAllocator@53@@shdfnd@physx@@QAE@XZ 10027ed0 f i GuMeshFactory.obj
 0001:00026ef0       ??1?$CoalescedHashSet@PAVHeightField@Gu@physx@@U?$Hash@PAVHeightField@Gu@physx@@@shdfnd@3@VNonTrackingAllocator@53@@shdfnd@physx@@QAE@XZ 10027ef0 f i GuMeshFactory.obj
 0001:00026f10       ??1?$CoalescedHashSet@PAVTriangleMesh@Gu@physx@@U?$Hash@PAVTriangleMesh@Gu@physx@@@shdfnd@3@VNonTrackingAllocator@53@@shdfnd@physx@@QAE@XZ 10027f10 f i GuMeshFactory.obj
 0001:00026f30       ??1?$HashBase@PAVBVHStructure@Gu@physx@@PAV123@U?$Hash@PAVBVHStructure@Gu@physx@@@shdfnd@3@UGetKey@?$HashSetBase@PAVBVHStructure@Gu@physx@@U?$Hash@PAVBVHStructure@Gu@physx@@@shdfnd@3@VNonTrackingAllocator@53@$00@internal@53@VNonTrackingAllocator@53@$00@internal@shdfnd@physx@@QAE@XZ 10027f30 f i GuMeshFactory.obj
 0001:00026f60       ??1?$HashBase@PAVConvexMesh@Gu@physx@@PAV123@U?$Hash@PAVConvexMesh@Gu@physx@@@shdfnd@3@UGetKey@?$HashSetBase@PAVConvexMesh@Gu@physx@@U?$Hash@PAVConvexMesh@Gu@physx@@@shdfnd@3@VNonTrackingAllocator@53@$00@internal@53@VNonTrackingAllocator@53@$00@internal@shdfnd@physx@@QAE@XZ 10027f60 f i GuMeshFactory.obj
 0001:00026f90       ??1?$HashBase@PAVHeightField@Gu@physx@@PAV123@U?$Hash@PAVHeightField@Gu@physx@@@shdfnd@3@UGetKey@?$HashSetBase@PAVHeightField@Gu@physx@@U?$Hash@PAVHeightField@Gu@physx@@@shdfnd@3@VNonTrackingAllocator@53@$00@internal@53@VNonTrackingAllocator@53@$00@internal@shdfnd@physx@@QAE@XZ 10027f90 f i GuMeshFactory.obj
 0001:00026fc0       ??1?$HashBase@PAVTriangleMesh@Gu@physx@@PAV123@U?$Hash@PAVTriangleMesh@Gu@physx@@@shdfnd@3@UGetKey@?$HashSetBase@PAVTriangleMesh@Gu@physx@@U?$Hash@PAVTriangleMesh@Gu@physx@@@shdfnd@3@VNonTrackingAllocator@53@$00@internal@53@VNonTrackingAllocator@53@$00@internal@shdfnd@physx@@QAE@XZ 10027fc0 f i GuMeshFactory.obj
 0001:00026ff0       ??1?$HashSetBase@PAVBVHStructure@Gu@physx@@U?$Hash@PAVBVHStructure@Gu@physx@@@shdfnd@3@VNonTrackingAllocator@53@$00@internal@shdfnd@physx@@QAE@XZ 10027ff0 f i GuMeshFactory.obj
 0001:00027010       ??1?$HashSetBase@PAVConvexMesh@Gu@physx@@U?$Hash@PAVConvexMesh@Gu@physx@@@shdfnd@3@VNonTrackingAllocator@53@$00@internal@shdfnd@physx@@QAE@XZ 10028010 f i GuMeshFactory.obj
 0001:00027030       ??1?$HashSetBase@PAVHeightField@Gu@physx@@U?$Hash@PAVHeightField@Gu@physx@@@shdfnd@3@VNonTrackingAllocator@53@$00@internal@shdfnd@physx@@QAE@XZ 10028030 f i GuMeshFactory.obj
 0001:00027050       ??1?$HashSetBase@PAVTriangleMesh@Gu@physx@@U?$Hash@PAVTriangleMesh@Gu@physx@@@shdfnd@3@VNonTrackingAllocator@53@$00@internal@shdfnd@physx@@QAE@XZ 10028050 f i GuMeshFactory.obj
 0001:00027070       ??1?$MutexT@V?$ReflectionAllocator@VMutexImpl@shdfnd@physx@@@shdfnd@physx@@@shdfnd@physx@@QAE@XZ 10028070 f i GuMeshFactory.obj
 0001:000270a0       ??1BV4TriangleData@Gu@physx@@UAE@XZ 100280a0 f i GuMeshFactory.obj
 0001:000270e0       ??1MeshDataBase@Gu@physx@@UAE@XZ 100280e0 f i GuMeshFactory.obj
 0001:000271f0       ??1RTree@Gu@physx@@QAE@XZ  100281f0 f i GuMeshFactory.obj
 0001:00027210       ??1RTreeTriangleData@Gu@physx@@UAE@XZ 10028210 f i GuMeshFactory.obj
 0001:00027240       ??1ScopedLock@?$MutexT@V?$ReflectionAllocator@VMutexImpl@shdfnd@physx@@@shdfnd@physx@@@shdfnd@physx@@QAE@XZ 10028240 f i GuMeshFactory.obj
 0001:00027260       ??1TriangleMeshData@Gu@physx@@UAE@XZ 10028260 f i GuMeshFactory.obj
 0001:00027340       ??2UserAllocated@shdfnd@physx@@SAPAXIPAX@Z 10028340 f i GuMeshFactory.obj
 0001:00027350       ??A?$Array@PAVGuMeshFactoryListener@physx@@VNamedAllocator@shdfnd@2@@shdfnd@physx@@QAEAAPAVGuMeshFactoryListener@2@I@Z 10028350 f i GuMeshFactory.obj
 0001:000273b0       ??R?$Hash@PAVBVHStructure@Gu@physx@@@shdfnd@physx@@QBEIABQAVBVHStructure@Gu@2@@Z 100283b0 f i GuMeshFactory.obj
 0001:000273d0       ??R?$Hash@PAVConvexMesh@Gu@physx@@@shdfnd@physx@@QBEIABQAVConvexMesh@Gu@2@@Z 100283d0 f i GuMeshFactory.obj
 0001:000273f0       ??R?$Hash@PAVHeightField@Gu@physx@@@shdfnd@physx@@QBEIABQAVHeightField@Gu@2@@Z 100283f0 f i GuMeshFactory.obj
 0001:00027410       ??R?$Hash@PAVTriangleMesh@Gu@physx@@@shdfnd@physx@@QBEIABQAVTriangleMesh@Gu@2@@Z 10028410 f i GuMeshFactory.obj
 0001:00027430       ??RGetKey@?$HashSetBase@PAVBVHStructure@Gu@physx@@U?$Hash@PAVBVHStructure@Gu@physx@@@shdfnd@3@VNonTrackingAllocator@53@$00@internal@shdfnd@physx@@QAEABQAVBVHStructure@Gu@4@ABQAV564@@Z 10028430 f i GuMeshFactory.obj
 0001:00027440       ??RGetKey@?$HashSetBase@PAVConvexMesh@Gu@physx@@U?$Hash@PAVConvexMesh@Gu@physx@@@shdfnd@3@VNonTrackingAllocator@53@$00@internal@shdfnd@physx@@QAEABQAVConvexMesh@Gu@4@ABQAV564@@Z 10028440 f i GuMeshFactory.obj
 0001:00027450       ??RGetKey@?$HashSetBase@PAVHeightField@Gu@physx@@U?$Hash@PAVHeightField@Gu@physx@@@shdfnd@3@VNonTrackingAllocator@53@$00@internal@shdfnd@physx@@QAEABQAVHeightField@Gu@4@ABQAV564@@Z 10028450 f i GuMeshFactory.obj
 0001:00027460       ??RGetKey@?$HashSetBase@PAVTriangleMesh@Gu@physx@@U?$Hash@PAVTriangleMesh@Gu@physx@@@shdfnd@3@VNonTrackingAllocator@53@$00@internal@shdfnd@physx@@QAEABQAVTriangleMesh@Gu@4@ABQAV564@@Z 10028460 f i GuMeshFactory.obj
 0001:00027470       ??_EGuMeshFactory@physx@@MAEPAXI@Z 10028470 f i GuMeshFactory.obj
 0001:00027530       ??_GBV32Tree@Gu@physx@@QAEPAXI@Z 10028530 f i GuMeshFactory.obj
 0001:00027580       ??_EBV4TriangleData@Gu@physx@@UAEPAXI@Z 10028580 f i GuMeshFactory.obj
 0001:00027580       ??_GBV4TriangleData@Gu@physx@@UAEPAXI@Z 10028580 f i GuMeshFactory.obj
 0001:000275d0       ??_GGuMeshFactory@physx@@MAEPAXI@Z 100285d0 f i GuMeshFactory.obj
 0001:00027620       ??_GMeshDataBase@Gu@physx@@UAEPAXI@Z 10028620 f i GuMeshFactory.obj
 0001:00027620       ??_EMeshDataBase@Gu@physx@@UAEPAXI@Z 10028620 f i GuMeshFactory.obj
 0001:00027670       ??_GMutexImpl@shdfnd@physx@@QAEPAXI@Z 10028670 f i GuMeshFactory.obj
 0001:000276a0       ??_GRTreeTriangleData@Gu@physx@@UAEPAXI@Z 100286a0 f i GuMeshFactory.obj
 0001:000276a0       ??_ERTreeTriangleData@Gu@physx@@UAEPAXI@Z 100286a0 f i GuMeshFactory.obj
 0001:000276f0       ??_GTriangleMeshData@Gu@physx@@UAEPAXI@Z 100286f0 f i GuMeshFactory.obj
 0001:000276f0       ??_ETriangleMeshData@Gu@physx@@UAEPAXI@Z 100286f0 f i GuMeshFactory.obj
 0001:00027740       ??_VUserAllocated@shdfnd@physx@@SAXPAX@Z 10028740 f i GuMeshFactory.obj
 0001:00027760       ?__global_array_delete@@YAXPAX@Z 10028760 f i GuMeshFactory.obj
 0001:00027780       ?__global_array_delete@@YAXPAXI@Z 10028780 f i GuMeshFactory.obj
 0001:000277a0       ?__global_delete@@YAXPAX@Z 100287a0 f i GuMeshFactory.obj
 0001:000277c0       ?__global_delete@@YAXPAXI@Z 100287c0 f i GuMeshFactory.obj
 0001:000277e0       ?allocate@?$Array@PAVGuMeshFactoryListener@physx@@VNamedAllocator@shdfnd@2@@shdfnd@physx@@IAEPAPAVGuMeshFactoryListener@3@I@Z 100287e0 f i GuMeshFactory.obj
 0001:00027850       ?allocate@?$ReflectionAllocator@E@shdfnd@physx@@QAEPAXIPBDH@Z 10028850 f i GuMeshFactory.obj
 0001:000278a0       ?allocate@?$ReflectionAllocator@G@shdfnd@physx@@QAEPAXIPBDH@Z 100288a0 f i GuMeshFactory.obj
 0001:000278f0       ?allocate@?$ReflectionAllocator@I@shdfnd@physx@@QAEPAXIPBDH@Z 100288f0 f i GuMeshFactory.obj
 0001:00027940       ?allocate@?$ReflectionAllocator@VBV32Tree@Gu@physx@@@shdfnd@physx@@QAEPAXIPBDH@Z 10028940 f i GuMeshFactory.obj
 0001:00027990       ?allocate@?$ReflectionAllocator@VBV4TriangleData@Gu@physx@@@shdfnd@physx@@QAEPAXIPBDH@Z 10028990 f i GuMeshFactory.obj
 0001:000279e0       ?allocate@?$ReflectionAllocator@VBV4TriangleMesh@Gu@physx@@@shdfnd@physx@@QAEPAXIPBDH@Z 100289e0 f i GuMeshFactory.obj
 0001:00027a30       ?allocate@?$ReflectionAllocator@VBVHStructure@Gu@physx@@@shdfnd@physx@@QAEPAXIPBDH@Z 10028a30 f i GuMeshFactory.obj
 0001:00027a80       ?allocate@?$ReflectionAllocator@VConvexMesh@Gu@physx@@@shdfnd@physx@@QAEPAXIPBDH@Z 10028a80 f i GuMeshFactory.obj
 0001:00027ad0       ?allocate@?$ReflectionAllocator@VHeightField@Gu@physx@@@shdfnd@physx@@QAEPAXIPBDH@Z 10028ad0 f i GuMeshFactory.obj
 0001:00027b20       ?allocate@?$ReflectionAllocator@VMutexImpl@shdfnd@physx@@@shdfnd@physx@@QAEPAXIPBDH@Z 10028b20 f i GuMeshFactory.obj
 0001:00027b70       ?allocate@?$ReflectionAllocator@VRTreeTriangleData@Gu@physx@@@shdfnd@physx@@QAEPAXIPBDH@Z 10028b70 f i GuMeshFactory.obj
 0001:00027bc0       ?allocate@?$ReflectionAllocator@VRTreeTriangleMesh@Gu@physx@@@shdfnd@physx@@QAEPAXIPBDH@Z 10028bc0 f i GuMeshFactory.obj
 0001:00027c10       ?allocateAdjacencies@TriangleMeshData@Gu@physx@@QAEPAIXZ 10028c10 f i GuMeshFactory.obj
 0001:00027d00       ?allocateExtraTrigData@TriangleMeshData@Gu@physx@@QAEPAEXZ 10028d00 f i GuMeshFactory.obj
 0001:00027dd0       ?allocateFaceRemap@TriangleMeshData@Gu@physx@@QAEPAIXZ 10028dd0 f i GuMeshFactory.obj
 0001:00027eb0       ?allocateMaterials@TriangleMeshData@Gu@physx@@QAEPAGXZ 10028eb0 f i GuMeshFactory.obj
 0001:00027fb0       ?allocateTriangles@TriangleMeshData@Gu@physx@@QAEPAXI_NI@Z 10028fb0 f i GuMeshFactory.obj
 0001:00028140       ?allocateVertices@MeshDataBase@Gu@physx@@QAEPAVPxVec3@3@I@Z 10029140 f i GuMeshFactory.obj
 0001:000281e0       ?capacity@?$Array@PAVGuMeshFactoryListener@physx@@VNamedAllocator@shdfnd@2@@shdfnd@physx@@QBEIXZ 100291e0 f i GuMeshFactory.obj
 0001:00028200       ?capacityIncrement@?$Array@PAVGuMeshFactoryListener@physx@@VNamedAllocator@shdfnd@2@@shdfnd@physx@@IBEIXZ 10029200 f i GuMeshFactory.obj
 0001:00028240       ?copy@?$Array@PAVGuMeshFactoryListener@physx@@VNamedAllocator@shdfnd@2@@shdfnd@physx@@KAXPAPAVGuMeshFactoryListener@3@0PBQAV43@@Z 10029240 f i GuMeshFactory.obj
 0001:00028290       ?create@?$HashBase@PAVBVHStructure@Gu@physx@@PAV123@U?$Hash@PAVBVHStructure@Gu@physx@@@shdfnd@3@UGetKey@?$HashSetBase@PAVBVHStructure@Gu@physx@@U?$Hash@PAVBVHStructure@Gu@physx@@@shdfnd@3@VNonTrackingAllocator@53@$00@internal@53@VNonTrackingAllocator@53@$00@internal@shdfnd@physx@@QAEPAPAVBVHStructure@Gu@4@ABQAV564@AA_N@Z 10029290 f i GuMeshFactory.obj
 0001:000283e0       ?create@?$HashBase@PAVConvexMesh@Gu@physx@@PAV123@U?$Hash@PAVConvexMesh@Gu@physx@@@shdfnd@3@UGetKey@?$HashSetBase@PAVConvexMesh@Gu@physx@@U?$Hash@PAVConvexMesh@Gu@physx@@@shdfnd@3@VNonTrackingAllocator@53@$00@internal@53@VNonTrackingAllocator@53@$00@internal@shdfnd@physx@@QAEPAPAVConvexMesh@Gu@4@ABQAV564@AA_N@Z 100293e0 f i GuMeshFactory.obj
 0001:00028530       ?create@?$HashBase@PAVHeightField@Gu@physx@@PAV123@U?$Hash@PAVHeightField@Gu@physx@@@shdfnd@3@UGetKey@?$HashSetBase@PAVHeightField@Gu@physx@@U?$Hash@PAVHeightField@Gu@physx@@@shdfnd@3@VNonTrackingAllocator@53@$00@internal@53@VNonTrackingAllocator@53@$00@internal@shdfnd@physx@@QAEPAPAVHeightField@Gu@4@ABQAV564@AA_N@Z 10029530 f i GuMeshFactory.obj
 0001:00028680       ?create@?$HashBase@PAVTriangleMesh@Gu@physx@@PAV123@U?$Hash@PAVTriangleMesh@Gu@physx@@@shdfnd@3@UGetKey@?$HashSetBase@PAVTriangleMesh@Gu@physx@@U?$Hash@PAVTriangleMesh@Gu@physx@@@shdfnd@3@VNonTrackingAllocator@53@$00@internal@53@VNonTrackingAllocator@53@$00@internal@shdfnd@physx@@QAEPAPAVTriangleMesh@Gu@4@ABQAV564@AA_N@Z 10029680 f i GuMeshFactory.obj
 0001:000287d0       ?deallocate@?$AlignedAllocator@$0IA@VNonTrackingAllocator@shdfnd@physx@@@shdfnd@physx@@QAEXPAX@Z 100297d0 f i GuMeshFactory.obj
 0001:00028810       ?deallocate@?$Array@PAVGuMeshFactoryListener@physx@@VNamedAllocator@shdfnd@2@@shdfnd@physx@@IAEXPAX@Z 10029810 f i GuMeshFactory.obj
 0001:00028830       ?deallocate@?$ReflectionAllocator@VMutexImpl@shdfnd@physx@@@shdfnd@physx@@QAEXPAX@Z 10029830 f i GuMeshFactory.obj
 0001:00028860       ?decRefCount@RefCountable@Cm@physx@@QAEXXZ 10029860 f i GuMeshFactory.obj
 0001:000288d0       ?destroy@?$Array@PAVGuMeshFactoryListener@physx@@VNamedAllocator@shdfnd@2@@shdfnd@physx@@KAXPAPAVGuMeshFactoryListener@3@0@Z 100298d0 f i GuMeshFactory.obj
 0001:000288f0       ?destroy@?$HashBase@PAVBVHStructure@Gu@physx@@PAV123@U?$Hash@PAVBVHStructure@Gu@physx@@@shdfnd@3@UGetKey@?$HashSetBase@PAVBVHStructure@Gu@physx@@U?$Hash@PAVBVHStructure@Gu@physx@@@shdfnd@3@VNonTrackingAllocator@53@$00@internal@53@VNonTrackingAllocator@53@$00@internal@shdfnd@physx@@AAEXXZ 100298f0 f i GuMeshFactory.obj
 0001:00028950       ?destroy@?$HashBase@PAVConvexMesh@Gu@physx@@PAV123@U?$Hash@PAVConvexMesh@Gu@physx@@@shdfnd@3@UGetKey@?$HashSetBase@PAVConvexMesh@Gu@physx@@U?$Hash@PAVConvexMesh@Gu@physx@@@shdfnd@3@VNonTrackingAllocator@53@$00@internal@53@VNonTrackingAllocator@53@$00@internal@shdfnd@physx@@AAEXXZ 10029950 f i GuMeshFactory.obj
 0001:000289b0       ?destroy@?$HashBase@PAVHeightField@Gu@physx@@PAV123@U?$Hash@PAVHeightField@Gu@physx@@@shdfnd@3@UGetKey@?$HashSetBase@PAVHeightField@Gu@physx@@U?$Hash@PAVHeightField@Gu@physx@@@shdfnd@3@VNonTrackingAllocator@53@$00@internal@53@VNonTrackingAllocator@53@$00@internal@shdfnd@physx@@AAEXXZ 100299b0 f i GuMeshFactory.obj
 0001:00028a10       ?destroy@?$HashBase@PAVTriangleMesh@Gu@physx@@PAV123@U?$Hash@PAVTriangleMesh@Gu@physx@@@shdfnd@3@UGetKey@?$HashSetBase@PAVTriangleMesh@Gu@physx@@U?$Hash@PAVTriangleMesh@Gu@physx@@@shdfnd@3@VNonTrackingAllocator@53@$00@internal@53@VNonTrackingAllocator@53@$00@internal@shdfnd@physx@@AAEXXZ 10029a10 f i GuMeshFactory.obj
 0001:00028a70       ?equal@?$Hash@PAVBVHStructure@Gu@physx@@@shdfnd@physx@@QBE_NABQAVBVHStructure@Gu@3@0@Z 10029a70 f i GuMeshFactory.obj
 0001:00028aa0       ?equal@?$Hash@PAVConvexMesh@Gu@physx@@@shdfnd@physx@@QBE_NABQAVConvexMesh@Gu@3@0@Z 10029aa0 f i GuMeshFactory.obj
 0001:00028ad0       ?equal@?$Hash@PAVHeightField@Gu@physx@@@shdfnd@physx@@QBE_NABQAVHeightField@Gu@3@0@Z 10029ad0 f i GuMeshFactory.obj
 0001:00028b00       ?equal@?$Hash@PAVTriangleMesh@Gu@physx@@@shdfnd@physx@@QBE_NABQAVTriangleMesh@Gu@3@0@Z 10029b00 f i GuMeshFactory.obj
 0001:00028b30       ?erase@?$HashBase@PAVBVHStructure@Gu@physx@@PAV123@U?$Hash@PAVBVHStructure@Gu@physx@@@shdfnd@3@UGetKey@?$HashSetBase@PAVBVHStructure@Gu@physx@@U?$Hash@PAVBVHStructure@Gu@physx@@@shdfnd@3@VNonTrackingAllocator@53@$00@internal@53@VNonTrackingAllocator@53@$00@internal@shdfnd@physx@@QAE_NABQAVBVHStructure@Gu@4@@Z 10029b30 f i GuMeshFactory.obj
 0001:00028bd0       ?erase@?$HashBase@PAVConvexMesh@Gu@physx@@PAV123@U?$Hash@PAVConvexMesh@Gu@physx@@@shdfnd@3@UGetKey@?$HashSetBase@PAVConvexMesh@Gu@physx@@U?$Hash@PAVConvexMesh@Gu@physx@@@shdfnd@3@VNonTrackingAllocator@53@$00@internal@53@VNonTrackingAllocator@53@$00@internal@shdfnd@physx@@QAE_NABQAVConvexMesh@Gu@4@@Z 10029bd0 f i GuMeshFactory.obj
 0001:00028c70       ?erase@?$HashBase@PAVHeightField@Gu@physx@@PAV123@U?$Hash@PAVHeightField@Gu@physx@@@shdfnd@3@UGetKey@?$HashSetBase@PAVHeightField@Gu@physx@@U?$Hash@PAVHeightField@Gu@physx@@@shdfnd@3@VNonTrackingAllocator@53@$00@internal@53@VNonTrackingAllocator@53@$00@internal@shdfnd@physx@@QAE_NABQAVHeightField@Gu@4@@Z 10029c70 f i GuMeshFactory.obj
 0001:00028d10       ?erase@?$HashBase@PAVTriangleMesh@Gu@physx@@PAV123@U?$Hash@PAVTriangleMesh@Gu@physx@@@shdfnd@3@UGetKey@?$HashSetBase@PAVTriangleMesh@Gu@physx@@U?$Hash@PAVTriangleMesh@Gu@physx@@@shdfnd@3@VNonTrackingAllocator@53@$00@internal@53@VNonTrackingAllocator@53@$00@internal@shdfnd@physx@@QAE_NABQAVTriangleMesh@Gu@4@@Z 10029d10 f i GuMeshFactory.obj
 0001:00028db0       ?erase@?$HashSetBase@PAVBVHStructure@Gu@physx@@U?$Hash@PAVBVHStructure@Gu@physx@@@shdfnd@3@VNonTrackingAllocator@53@$00@internal@shdfnd@physx@@QAE_NABQAVBVHStructure@Gu@4@@Z 10029db0 f i GuMeshFactory.obj
 0001:00028dd0       ?erase@?$HashSetBase@PAVConvexMesh@Gu@physx@@U?$Hash@PAVConvexMesh@Gu@physx@@@shdfnd@3@VNonTrackingAllocator@53@$00@internal@shdfnd@physx@@QAE_NABQAVConvexMesh@Gu@4@@Z 10029dd0 f i GuMeshFactory.obj
 0001:00028df0       ?erase@?$HashSetBase@PAVHeightField@Gu@physx@@U?$Hash@PAVHeightField@Gu@physx@@@shdfnd@3@VNonTrackingAllocator@53@$00@internal@shdfnd@physx@@QAE_NABQAVHeightField@Gu@4@@Z 10029df0 f i GuMeshFactory.obj
 0001:00028e10       ?erase@?$HashSetBase@PAVTriangleMesh@Gu@physx@@U?$Hash@PAVTriangleMesh@Gu@physx@@@shdfnd@3@VNonTrackingAllocator@53@$00@internal@shdfnd@physx@@QAE_NABQAVTriangleMesh@Gu@4@@Z 10029e10 f i GuMeshFactory.obj
 0001:00028e30       ?eraseInternal@?$HashBase@PAVBVHStructure@Gu@physx@@PAV123@U?$Hash@PAVBVHStructure@Gu@physx@@@shdfnd@3@UGetKey@?$HashSetBase@PAVBVHStructure@Gu@physx@@U?$Hash@PAVBVHStructure@Gu@physx@@@shdfnd@3@VNonTrackingAllocator@53@$00@internal@53@VNonTrackingAllocator@53@$00@internal@shdfnd@physx@@AAE_NPAI@Z 10029e30 f i GuMeshFactory.obj
 0001:00028eb0       ?eraseInternal@?$HashBase@PAVConvexMesh@Gu@physx@@PAV123@U?$Hash@PAVConvexMesh@Gu@physx@@@shdfnd@3@UGetKey@?$HashSetBase@PAVConvexMesh@Gu@physx@@U?$Hash@PAVConvexMesh@Gu@physx@@@shdfnd@3@VNonTrackingAllocator@53@$00@internal@53@VNonTrackingAllocator@53@$00@internal@shdfnd@physx@@AAE_NPAI@Z 10029eb0 f i GuMeshFactory.obj
 0001:00028f30       ?eraseInternal@?$HashBase@PAVHeightField@Gu@physx@@PAV123@U?$Hash@PAVHeightField@Gu@physx@@@shdfnd@3@UGetKey@?$HashSetBase@PAVHeightField@Gu@physx@@U?$Hash@PAVHeightField@Gu@physx@@@shdfnd@3@VNonTrackingAllocator@53@$00@internal@53@VNonTrackingAllocator@53@$00@internal@shdfnd@physx@@AAE_NPAI@Z 10029f30 f i GuMeshFactory.obj
 0001:00028fb0       ?eraseInternal@?$HashBase@PAVTriangleMesh@Gu@physx@@PAV123@U?$Hash@PAVTriangleMesh@Gu@physx@@@shdfnd@3@UGetKey@?$HashSetBase@PAVTriangleMesh@Gu@physx@@U?$Hash@PAVTriangleMesh@Gu@physx@@@shdfnd@3@VNonTrackingAllocator@53@$00@internal@53@VNonTrackingAllocator@53@$00@internal@shdfnd@physx@@AAE_NPAI@Z 10029fb0 f i GuMeshFactory.obj
 0001:00029030       ?flip@physx@@YAXAAG@Z      1002a030 f i GuMeshFactory.obj
 0001:00029080       ?flip@physx@@YAXAAI@Z      1002a080 f i GuMeshFactory.obj
 0001:00029110       ?flip@physx@@YAXAAM@Z      1002a110 f i GuMeshFactory.obj
 0001:000291a0       ?freeListAdd@?$HashBase@PAVBVHStructure@Gu@physx@@PAV123@U?$Hash@PAVBVHStructure@Gu@physx@@@shdfnd@3@UGetKey@?$HashSetBase@PAVBVHStructure@Gu@physx@@U?$Hash@PAVBVHStructure@Gu@physx@@@shdfnd@3@VNonTrackingAllocator@53@$00@internal@53@VNonTrackingAllocator@53@$00@internal@shdfnd@physx@@AAEXI@Z 1002a1a0 f i GuMeshFactory.obj
 0001:00029230       ?freeListAdd@?$HashBase@PAVBVHStructure@Gu@physx@@PAV123@U?$Hash@PAVBVHStructure@Gu@physx@@@shdfnd@3@UGetKey@?$HashSetBase@PAVBVHStructure@Gu@physx@@U?$Hash@PAVBVHStructure@Gu@physx@@@shdfnd@3@VNonTrackingAllocator@53@$00@internal@53@VNonTrackingAllocator@53@$00@internal@shdfnd@physx@@AAEXII@Z 1002a230 f i GuMeshFactory.obj
 0001:000292f0       ?freeListAdd@?$HashBase@PAVConvexMesh@Gu@physx@@PAV123@U?$Hash@PAVConvexMesh@Gu@physx@@@shdfnd@3@UGetKey@?$HashSetBase@PAVConvexMesh@Gu@physx@@U?$Hash@PAVConvexMesh@Gu@physx@@@shdfnd@3@VNonTrackingAllocator@53@$00@internal@53@VNonTrackingAllocator@53@$00@internal@shdfnd@physx@@AAEXI@Z 1002a2f0 f i GuMeshFactory.obj
 0001:00029380       ?freeListAdd@?$HashBase@PAVConvexMesh@Gu@physx@@PAV123@U?$Hash@PAVConvexMesh@Gu@physx@@@shdfnd@3@UGetKey@?$HashSetBase@PAVConvexMesh@Gu@physx@@U?$Hash@PAVConvexMesh@Gu@physx@@@shdfnd@3@VNonTrackingAllocator@53@$00@internal@53@VNonTrackingAllocator@53@$00@internal@shdfnd@physx@@AAEXII@Z 1002a380 f i GuMeshFactory.obj
 0001:00029440       ?freeListAdd@?$HashBase@PAVHeightField@Gu@physx@@PAV123@U?$Hash@PAVHeightField@Gu@physx@@@shdfnd@3@UGetKey@?$HashSetBase@PAVHeightField@Gu@physx@@U?$Hash@PAVHeightField@Gu@physx@@@shdfnd@3@VNonTrackingAllocator@53@$00@internal@53@VNonTrackingAllocator@53@$00@internal@shdfnd@physx@@AAEXI@Z 1002a440 f i GuMeshFactory.obj
 0001:000294d0       ?freeListAdd@?$HashBase@PAVHeightField@Gu@physx@@PAV123@U?$Hash@PAVHeightField@Gu@physx@@@shdfnd@3@UGetKey@?$HashSetBase@PAVHeightField@Gu@physx@@U?$Hash@PAVHeightField@Gu@physx@@@shdfnd@3@VNonTrackingAllocator@53@$00@internal@53@VNonTrackingAllocator@53@$00@internal@shdfnd@physx@@AAEXII@Z 1002a4d0 f i GuMeshFactory.obj
 0001:00029590       ?freeListAdd@?$HashBase@PAVTriangleMesh@Gu@physx@@PAV123@U?$Hash@PAVTriangleMesh@Gu@physx@@@shdfnd@3@UGetKey@?$HashSetBase@PAVTriangleMesh@Gu@physx@@U?$Hash@PAVTriangleMesh@Gu@physx@@@shdfnd@3@VNonTrackingAllocator@53@$00@internal@53@VNonTrackingAllocator@53@$00@internal@shdfnd@physx@@AAEXI@Z 1002a590 f i GuMeshFactory.obj
 0001:00029620       ?freeListAdd@?$HashBase@PAVTriangleMesh@Gu@physx@@PAV123@U?$Hash@PAVTriangleMesh@Gu@physx@@@shdfnd@3@UGetKey@?$HashSetBase@PAVTriangleMesh@Gu@physx@@U?$Hash@PAVTriangleMesh@Gu@physx@@@shdfnd@3@VNonTrackingAllocator@53@$00@internal@53@VNonTrackingAllocator@53@$00@internal@shdfnd@physx@@AAEXII@Z 1002a620 f i GuMeshFactory.obj
 0001:000296e0       ?freeListEmpty@?$HashBase@PAVBVHStructure@Gu@physx@@PAV123@U?$Hash@PAVBVHStructure@Gu@physx@@@shdfnd@3@UGetKey@?$HashSetBase@PAVBVHStructure@Gu@physx@@U?$Hash@PAVBVHStructure@Gu@physx@@@shdfnd@3@VNonTrackingAllocator@53@$00@internal@53@VNonTrackingAllocator@53@$00@internal@shdfnd@physx@@ABE_NXZ 1002a6e0 f i GuMeshFactory.obj
 0001:00029740       ?freeListEmpty@?$HashBase@PAVConvexMesh@Gu@physx@@PAV123@U?$Hash@PAVConvexMesh@Gu@physx@@@shdfnd@3@UGetKey@?$HashSetBase@PAVConvexMesh@Gu@physx@@U?$Hash@PAVConvexMesh@Gu@physx@@@shdfnd@3@VNonTrackingAllocator@53@$00@internal@53@VNonTrackingAllocator@53@$00@internal@shdfnd@physx@@ABE_NXZ 1002a740 f i GuMeshFactory.obj
 0001:000297a0       ?freeListEmpty@?$HashBase@PAVHeightField@Gu@physx@@PAV123@U?$Hash@PAVHeightField@Gu@physx@@@shdfnd@3@UGetKey@?$HashSetBase@PAVHeightField@Gu@physx@@U?$Hash@PAVHeightField@Gu@physx@@@shdfnd@3@VNonTrackingAllocator@53@$00@internal@53@VNonTrackingAllocator@53@$00@internal@shdfnd@physx@@ABE_NXZ 1002a7a0 f i GuMeshFactory.obj
 0001:00029800       ?freeListEmpty@?$HashBase@PAVTriangleMesh@Gu@physx@@PAV123@U?$Hash@PAVTriangleMesh@Gu@physx@@@shdfnd@3@UGetKey@?$HashSetBase@PAVTriangleMesh@Gu@physx@@U?$Hash@PAVTriangleMesh@Gu@physx@@@shdfnd@3@VNonTrackingAllocator@53@$00@internal@53@VNonTrackingAllocator@53@$00@internal@shdfnd@physx@@ABE_NXZ 1002a800 f i GuMeshFactory.obj
 0001:00029860       ?freeListGetNext@?$HashBase@PAVBVHStructure@Gu@physx@@PAV123@U?$Hash@PAVBVHStructure@Gu@physx@@@shdfnd@3@UGetKey@?$HashSetBase@PAVBVHStructure@Gu@physx@@U?$Hash@PAVBVHStructure@Gu@physx@@@shdfnd@3@VNonTrackingAllocator@53@$00@internal@53@VNonTrackingAllocator@53@$00@internal@shdfnd@physx@@AAEIXZ 1002a860 f i GuMeshFactory.obj
 0001:00029940       ?freeListGetNext@?$HashBase@PAVConvexMesh@Gu@physx@@PAV123@U?$Hash@PAVConvexMesh@Gu@physx@@@shdfnd@3@UGetKey@?$HashSetBase@PAVConvexMesh@Gu@physx@@U?$Hash@PAVConvexMesh@Gu@physx@@@shdfnd@3@VNonTrackingAllocator@53@$00@internal@53@VNonTrackingAllocator@53@$00@internal@shdfnd@physx@@AAEIXZ 1002a940 f i GuMeshFactory.obj
 0001:00029a20       ?freeListGetNext@?$HashBase@PAVHeightField@Gu@physx@@PAV123@U?$Hash@PAVHeightField@Gu@physx@@@shdfnd@3@UGetKey@?$HashSetBase@PAVHeightField@Gu@physx@@U?$Hash@PAVHeightField@Gu@physx@@@shdfnd@3@VNonTrackingAllocator@53@$00@internal@53@VNonTrackingAllocator@53@$00@internal@shdfnd@physx@@AAEIXZ 1002aa20 f i GuMeshFactory.obj
 0001:00029b00       ?freeListGetNext@?$HashBase@PAVTriangleMesh@Gu@physx@@PAV123@U?$Hash@PAVTriangleMesh@Gu@physx@@@shdfnd@3@UGetKey@?$HashSetBase@PAVTriangleMesh@Gu@physx@@U?$Hash@PAVTriangleMesh@Gu@physx@@@shdfnd@3@VNonTrackingAllocator@53@$00@internal@53@VNonTrackingAllocator@53@$00@internal@shdfnd@physx@@AAEIXZ 1002ab00 f i GuMeshFactory.obj
 0001:00029be0       ?getEntries@?$CoalescedHashSet@PAVBVHStructure@Gu@physx@@U?$Hash@PAVBVHStructure@Gu@physx@@@shdfnd@3@VNonTrackingAllocator@53@@shdfnd@physx@@QBEPBQAVBVHStructure@Gu@3@XZ 1002abe0 f i GuMeshFactory.obj
 0001:00029c00       ?getEntries@?$CoalescedHashSet@PAVConvexMesh@Gu@physx@@U?$Hash@PAVConvexMesh@Gu@physx@@@shdfnd@3@VNonTrackingAllocator@53@@shdfnd@physx@@QBEPBQAVConvexMesh@Gu@3@XZ 1002ac00 f i GuMeshFactory.obj
 0001:00029c20       ?getEntries@?$CoalescedHashSet@PAVHeightField@Gu@physx@@U?$Hash@PAVHeightField@Gu@physx@@@shdfnd@3@VNonTrackingAllocator@53@@shdfnd@physx@@QBEPBQAVHeightField@Gu@3@XZ 1002ac20 f i GuMeshFactory.obj
 0001:00029c40       ?getEntries@?$CoalescedHashSet@PAVTriangleMesh@Gu@physx@@U?$Hash@PAVTriangleMesh@Gu@physx@@@shdfnd@3@VNonTrackingAllocator@53@@shdfnd@physx@@QBEPBQAVTriangleMesh@Gu@3@XZ 1002ac40 f i GuMeshFactory.obj
 0001:00029c60       ?getEntries@?$HashBase@PAVBVHStructure@Gu@physx@@PAV123@U?$Hash@PAVBVHStructure@Gu@physx@@@shdfnd@3@UGetKey@?$HashSetBase@PAVBVHStructure@Gu@physx@@U?$Hash@PAVBVHStructure@Gu@physx@@@shdfnd@3@VNonTrackingAllocator@53@$00@internal@53@VNonTrackingAllocator@53@$00@internal@shdfnd@physx@@QBEPBQAVBVHStructure@Gu@4@XZ 1002ac60 f i GuMeshFactory.obj
 0001:00029c80       ?getEntries@?$HashBase@PAVConvexMesh@Gu@physx@@PAV123@U?$Hash@PAVConvexMesh@Gu@physx@@@shdfnd@3@UGetKey@?$HashSetBase@PAVConvexMesh@Gu@physx@@U?$Hash@PAVConvexMesh@Gu@physx@@@shdfnd@3@VNonTrackingAllocator@53@$00@internal@53@VNonTrackingAllocator@53@$00@internal@shdfnd@physx@@QBEPBQAVConvexMesh@Gu@4@XZ 1002ac80 f i GuMeshFactory.obj
 0001:00029ca0       ?getEntries@?$HashBase@PAVHeightField@Gu@physx@@PAV123@U?$Hash@PAVHeightField@Gu@physx@@@shdfnd@3@UGetKey@?$HashSetBase@PAVHeightField@Gu@physx@@U?$Hash@PAVHeightField@Gu@physx@@@shdfnd@3@VNonTrackingAllocator@53@$00@internal@53@VNonTrackingAllocator@53@$00@internal@shdfnd@physx@@QBEPBQAVHeightField@Gu@4@XZ 1002aca0 f i GuMeshFactory.obj
 0001:00029cc0       ?getEntries@?$HashBase@PAVTriangleMesh@Gu@physx@@PAV123@U?$Hash@PAVTriangleMesh@Gu@physx@@@shdfnd@3@UGetKey@?$HashSetBase@PAVTriangleMesh@Gu@physx@@U?$Hash@PAVTriangleMesh@Gu@physx@@@shdfnd@3@VNonTrackingAllocator@53@$00@internal@53@VNonTrackingAllocator@53@$00@internal@shdfnd@physx@@QBEPBQAVTriangleMesh@Gu@4@XZ 1002acc0 f i GuMeshFactory.obj
 0001:00029ce0       ?getName@?$ReflectionAllocator@E@shdfnd@physx@@CAPBDXZ 1002ace0 f i GuMeshFactory.obj
 0001:00029d20       ?getName@?$ReflectionAllocator@G@shdfnd@physx@@CAPBDXZ 1002ad20 f i GuMeshFactory.obj
 0001:00029d60       ?getName@?$ReflectionAllocator@I@shdfnd@physx@@CAPBDXZ 1002ad60 f i GuMeshFactory.obj
 0001:00029da0       ?getName@?$ReflectionAllocator@VBV32Tree@Gu@physx@@@shdfnd@physx@@CAPBDXZ 1002ada0 f i GuMeshFactory.obj
 0001:00029de0       ?getName@?$ReflectionAllocator@VBV4TriangleData@Gu@physx@@@shdfnd@physx@@CAPBDXZ 1002ade0 f i GuMeshFactory.obj
 0001:00029e20       ?getName@?$ReflectionAllocator@VBV4TriangleMesh@Gu@physx@@@shdfnd@physx@@CAPBDXZ 1002ae20 f i GuMeshFactory.obj
 0001:00029e60       ?getName@?$ReflectionAllocator@VBVHStructure@Gu@physx@@@shdfnd@physx@@CAPBDXZ 1002ae60 f i GuMeshFactory.obj
 0001:00029ea0       ?getName@?$ReflectionAllocator@VConvexMesh@Gu@physx@@@shdfnd@physx@@CAPBDXZ 1002aea0 f i GuMeshFactory.obj
 0001:00029ee0       ?getName@?$ReflectionAllocator@VHeightField@Gu@physx@@@shdfnd@physx@@CAPBDXZ 1002aee0 f i GuMeshFactory.obj
 0001:00029f20       ?getName@?$ReflectionAllocator@VMutexImpl@shdfnd@physx@@@shdfnd@physx@@CAPBDXZ 1002af20 f i GuMeshFactory.obj
 0001:00029f60       ?getName@?$ReflectionAllocator@VRTreeTriangleData@Gu@physx@@@shdfnd@physx@@CAPBDXZ 1002af60 f i GuMeshFactory.obj
 0001:00029fa0       ?getName@?$ReflectionAllocator@VRTreeTriangleMesh@Gu@physx@@@shdfnd@physx@@CAPBDXZ 1002afa0 f i GuMeshFactory.obj
 0001:00029fe0       ?getRefCount@RefCountable@Cm@physx@@QBEIXZ 1002afe0 f i GuMeshFactory.obj
 0001:0002a000       ?grow@?$HashBase@PAVBVHStructure@Gu@physx@@PAV123@U?$Hash@PAVBVHStructure@Gu@physx@@@shdfnd@3@UGetKey@?$HashSetBase@PAVBVHStructure@Gu@physx@@U?$Hash@PAVBVHStructure@Gu@physx@@@shdfnd@3@VNonTrackingAllocator@53@$00@internal@53@VNonTrackingAllocator@53@$00@internal@shdfnd@physx@@AAEXXZ 1002b000 f i GuMeshFactory.obj
 0001:0002a0a0       ?grow@?$HashBase@PAVConvexMesh@Gu@physx@@PAV123@U?$Hash@PAVConvexMesh@Gu@physx@@@shdfnd@3@UGetKey@?$HashSetBase@PAVConvexMesh@Gu@physx@@U?$Hash@PAVConvexMesh@Gu@physx@@@shdfnd@3@VNonTrackingAllocator@53@$00@internal@53@VNonTrackingAllocator@53@$00@internal@shdfnd@physx@@AAEXXZ 1002b0a0 f i GuMeshFactory.obj
 0001:0002a140       ?grow@?$HashBase@PAVHeightField@Gu@physx@@PAV123@U?$Hash@PAVHeightField@Gu@physx@@@shdfnd@3@UGetKey@?$HashSetBase@PAVHeightField@Gu@physx@@U?$Hash@PAVHeightField@Gu@physx@@@shdfnd@3@VNonTrackingAllocator@53@$00@internal@53@VNonTrackingAllocator@53@$00@internal@shdfnd@physx@@AAEXXZ 1002b140 f i GuMeshFactory.obj
 0001:0002a1e0       ?grow@?$HashBase@PAVTriangleMesh@Gu@physx@@PAV123@U?$Hash@PAVTriangleMesh@Gu@physx@@@shdfnd@3@UGetKey@?$HashSetBase@PAVTriangleMesh@Gu@physx@@U?$Hash@PAVTriangleMesh@Gu@physx@@@shdfnd@3@VNonTrackingAllocator@53@$00@internal@53@VNonTrackingAllocator@53@$00@internal@shdfnd@physx@@AAEXXZ 1002b1e0 f i GuMeshFactory.obj
 0001:0002a280       ?growAndPushBack@?$Array@PAVGuMeshFactoryListener@physx@@VNamedAllocator@shdfnd@2@@shdfnd@physx@@IAEAAPAVGuMeshFactoryListener@3@ABQAV43@@Z 1002b280 f i GuMeshFactory.obj
 0001:0002a3b0       ?has16BitIndices@MeshDataBase@Gu@physx@@QBE_NXZ 1002b3b0 f i GuMeshFactory.obj
 0001:0002a3e0       ?hash@?$HashBase@PAVBVHStructure@Gu@physx@@PAV123@U?$Hash@PAVBVHStructure@Gu@physx@@@shdfnd@3@UGetKey@?$HashSetBase@PAVBVHStructure@Gu@physx@@U?$Hash@PAVBVHStructure@Gu@physx@@@shdfnd@3@VNonTrackingAllocator@53@$00@internal@53@VNonTrackingAllocator@53@$00@internal@shdfnd@physx@@ABEIABQAVBVHStructure@Gu@4@@Z 1002b3e0 f i GuMeshFactory.obj
 0001:0002a400       ?hash@?$HashBase@PAVBVHStructure@Gu@physx@@PAV123@U?$Hash@PAVBVHStructure@Gu@physx@@@shdfnd@3@UGetKey@?$HashSetBase@PAVBVHStructure@Gu@physx@@U?$Hash@PAVBVHStructure@Gu@physx@@@shdfnd@3@VNonTrackingAllocator@53@$00@internal@53@VNonTrackingAllocator@53@$00@internal@shdfnd@physx@@ABEIABQAVBVHStructure@Gu@4@I@Z 1002b400 f i GuMeshFactory.obj
 0001:0002a430       ?hash@?$HashBase@PAVConvexMesh@Gu@physx@@PAV123@U?$Hash@PAVConvexMesh@Gu@physx@@@shdfnd@3@UGetKey@?$HashSetBase@PAVConvexMesh@Gu@physx@@U?$Hash@PAVConvexMesh@Gu@physx@@@shdfnd@3@VNonTrackingAllocator@53@$00@internal@53@VNonTrackingAllocator@53@$00@internal@shdfnd@physx@@ABEIABQAVConvexMesh@Gu@4@@Z 1002b430 f i GuMeshFactory.obj
 0001:0002a450       ?hash@?$HashBase@PAVConvexMesh@Gu@physx@@PAV123@U?$Hash@PAVConvexMesh@Gu@physx@@@shdfnd@3@UGetKey@?$HashSetBase@PAVConvexMesh@Gu@physx@@U?$Hash@PAVConvexMesh@Gu@physx@@@shdfnd@3@VNonTrackingAllocator@53@$00@internal@53@VNonTrackingAllocator@53@$00@internal@shdfnd@physx@@ABEIABQAVConvexMesh@Gu@4@I@Z 1002b450 f i GuMeshFactory.obj
 0001:0002a480       ?hash@?$HashBase@PAVHeightField@Gu@physx@@PAV123@U?$Hash@PAVHeightField@Gu@physx@@@shdfnd@3@UGetKey@?$HashSetBase@PAVHeightField@Gu@physx@@U?$Hash@PAVHeightField@Gu@physx@@@shdfnd@3@VNonTrackingAllocator@53@$00@internal@53@VNonTrackingAllocator@53@$00@internal@shdfnd@physx@@ABEIABQAVHeightField@Gu@4@@Z 1002b480 f i GuMeshFactory.obj
 0001:0002a4a0       ?hash@?$HashBase@PAVHeightField@Gu@physx@@PAV123@U?$Hash@PAVHeightField@Gu@physx@@@shdfnd@3@UGetKey@?$HashSetBase@PAVHeightField@Gu@physx@@U?$Hash@PAVHeightField@Gu@physx@@@shdfnd@3@VNonTrackingAllocator@53@$00@internal@53@VNonTrackingAllocator@53@$00@internal@shdfnd@physx@@ABEIABQAVHeightField@Gu@4@I@Z 1002b4a0 f i GuMeshFactory.obj
 0001:0002a4d0       ?hash@?$HashBase@PAVTriangleMesh@Gu@physx@@PAV123@U?$Hash@PAVTriangleMesh@Gu@physx@@@shdfnd@3@UGetKey@?$HashSetBase@PAVTriangleMesh@Gu@physx@@U?$Hash@PAVTriangleMesh@Gu@physx@@@shdfnd@3@VNonTrackingAllocator@53@$00@internal@53@VNonTrackingAllocator@53@$00@internal@shdfnd@physx@@ABEIABQAVTriangleMesh@Gu@4@@Z 1002b4d0 f i GuMeshFactory.obj
 0001:0002a4f0       ?hash@?$HashBase@PAVTriangleMesh@Gu@physx@@PAV123@U?$Hash@PAVTriangleMesh@Gu@physx@@@shdfnd@3@UGetKey@?$HashSetBase@PAVTriangleMesh@Gu@physx@@U?$Hash@PAVTriangleMesh@Gu@physx@@@shdfnd@3@VNonTrackingAllocator@53@$00@internal@53@VNonTrackingAllocator@53@$00@internal@shdfnd@physx@@ABEIABQAVTriangleMesh@Gu@4@I@Z 1002b4f0 f i GuMeshFactory.obj
 0001:0002a520       ?init@?$HashBase@PAVBVHStructure@Gu@physx@@PAV123@U?$Hash@PAVBVHStructure@Gu@physx@@@shdfnd@3@UGetKey@?$HashSetBase@PAVBVHStructure@Gu@physx@@U?$Hash@PAVBVHStructure@Gu@physx@@@shdfnd@3@VNonTrackingAllocator@53@$00@internal@53@VNonTrackingAllocator@53@$00@internal@shdfnd@physx@@AAEXIM@Z 1002b520 f i GuMeshFactory.obj
 0001:0002a5b0       ?init@?$HashBase@PAVConvexMesh@Gu@physx@@PAV123@U?$Hash@PAVConvexMesh@Gu@physx@@@shdfnd@3@UGetKey@?$HashSetBase@PAVConvexMesh@Gu@physx@@U?$Hash@PAVConvexMesh@Gu@physx@@@shdfnd@3@VNonTrackingAllocator@53@$00@internal@53@VNonTrackingAllocator@53@$00@internal@shdfnd@physx@@AAEXIM@Z 1002b5b0 f i GuMeshFactory.obj
 0001:0002a640       ?init@?$HashBase@PAVHeightField@Gu@physx@@PAV123@U?$Hash@PAVHeightField@Gu@physx@@@shdfnd@3@UGetKey@?$HashSetBase@PAVHeightField@Gu@physx@@U?$Hash@PAVHeightField@Gu@physx@@@shdfnd@3@VNonTrackingAllocator@53@$00@internal@53@VNonTrackingAllocator@53@$00@internal@shdfnd@physx@@AAEXIM@Z 1002b640 f i GuMeshFactory.obj
 0001:0002a6d0       ?init@?$HashBase@PAVTriangleMesh@Gu@physx@@PAV123@U?$Hash@PAVTriangleMesh@Gu@physx@@@shdfnd@3@UGetKey@?$HashSetBase@PAVTriangleMesh@Gu@physx@@U?$Hash@PAVTriangleMesh@Gu@physx@@@shdfnd@3@VNonTrackingAllocator@53@$00@internal@53@VNonTrackingAllocator@53@$00@internal@shdfnd@physx@@AAEXIM@Z 1002b6d0 f i GuMeshFactory.obj
 0001:0002a760       ?insert@?$HashSetBase@PAVBVHStructure@Gu@physx@@U?$Hash@PAVBVHStructure@Gu@physx@@@shdfnd@3@VNonTrackingAllocator@53@$00@internal@shdfnd@physx@@QAE_NABQAVBVHStructure@Gu@4@@Z 1002b760 f i GuMeshFactory.obj
 0001:0002a7c0       ?insert@?$HashSetBase@PAVConvexMesh@Gu@physx@@U?$Hash@PAVConvexMesh@Gu@physx@@@shdfnd@3@VNonTrackingAllocator@53@$00@internal@shdfnd@physx@@QAE_NABQAVConvexMesh@Gu@4@@Z 1002b7c0 f i GuMeshFactory.obj
 0001:0002a820       ?insert@?$HashSetBase@PAVHeightField@Gu@physx@@U?$Hash@PAVHeightField@Gu@physx@@@shdfnd@3@VNonTrackingAllocator@53@$00@internal@shdfnd@physx@@QAE_NABQAVHeightField@Gu@4@@Z 1002b820 f i GuMeshFactory.obj
 0001:0002a880       ?insert@?$HashSetBase@PAVTriangleMesh@Gu@physx@@U?$Hash@PAVTriangleMesh@Gu@physx@@@shdfnd@3@VNonTrackingAllocator@53@$00@internal@shdfnd@physx@@QAE_NABQAVTriangleMesh@Gu@4@@Z 1002b880 f i GuMeshFactory.obj
 0001:0002a8e0       ?isInUserMemory@?$Array@PAVGuMeshFactoryListener@physx@@VNamedAllocator@shdfnd@2@@shdfnd@physx@@QBEIXZ 1002b8e0 f i GuMeshFactory.obj
 0001:0002a900       ?lock@?$MutexT@V?$ReflectionAllocator@VMutexImpl@shdfnd@physx@@@shdfnd@physx@@@shdfnd@physx@@QBEXXZ 1002b900 f i GuMeshFactory.obj
 0001:0002a920       ?markSerializedMem@Cm@physx@@YAXPAXI@Z 1002b920 f i GuMeshFactory.obj
 0001:0002a950       ?pushBack@?$Array@PAVGuMeshFactoryListener@physx@@VNamedAllocator@shdfnd@2@@shdfnd@physx@@QAEAAPAVGuMeshFactoryListener@3@ABQAV43@@Z 1002b950 f i GuMeshFactory.obj
 0001:0002a9d0       ?release@RTree@Gu@physx@@QAEXXZ 1002b9d0 f i GuMeshFactory.obj
 0001:0002aa20       ?replaceWithLast@?$Array@PAVGuMeshFactoryListener@physx@@VNamedAllocator@shdfnd@2@@shdfnd@physx@@QAEXI@Z 1002ba20 f i GuMeshFactory.obj
 0001:0002aaa0       ?replaceWithLast@?$HashBase@PAVBVHStructure@Gu@physx@@PAV123@U?$Hash@PAVBVHStructure@Gu@physx@@@shdfnd@3@UGetKey@?$HashSetBase@PAVBVHStructure@Gu@physx@@U?$Hash@PAVBVHStructure@Gu@physx@@@shdfnd@3@VNonTrackingAllocator@53@$00@internal@53@VNonTrackingAllocator@53@$00@internal@shdfnd@physx@@AAEXI@Z 1002baa0 f i GuMeshFactory.obj
 0001:0002aba0       ?replaceWithLast@?$HashBase@PAVConvexMesh@Gu@physx@@PAV123@U?$Hash@PAVConvexMesh@Gu@physx@@@shdfnd@3@UGetKey@?$HashSetBase@PAVConvexMesh@Gu@physx@@U?$Hash@PAVConvexMesh@Gu@physx@@@shdfnd@3@VNonTrackingAllocator@53@$00@internal@53@VNonTrackingAllocator@53@$00@internal@shdfnd@physx@@AAEXI@Z 1002bba0 f i GuMeshFactory.obj
 0001:0002aca0       ?replaceWithLast@?$HashBase@PAVHeightField@Gu@physx@@PAV123@U?$Hash@PAVHeightField@Gu@physx@@@shdfnd@3@UGetKey@?$HashSetBase@PAVHeightField@Gu@physx@@U?$Hash@PAVHeightField@Gu@physx@@@shdfnd@3@VNonTrackingAllocator@53@$00@internal@53@VNonTrackingAllocator@53@$00@internal@shdfnd@physx@@AAEXI@Z 1002bca0 f i GuMeshFactory.obj
 0001:0002ada0       ?replaceWithLast@?$HashBase@PAVTriangleMesh@Gu@physx@@PAV123@U?$Hash@PAVTriangleMesh@Gu@physx@@@shdfnd@3@UGetKey@?$HashSetBase@PAVTriangleMesh@Gu@physx@@U?$Hash@PAVTriangleMesh@Gu@physx@@@shdfnd@3@VNonTrackingAllocator@53@$00@internal@53@VNonTrackingAllocator@53@$00@internal@shdfnd@physx@@AAEXI@Z 1002bda0 f i GuMeshFactory.obj
 0001:0002aea0       ?reserve@?$HashBase@PAVBVHStructure@Gu@physx@@PAV123@U?$Hash@PAVBVHStructure@Gu@physx@@@shdfnd@3@UGetKey@?$HashSetBase@PAVBVHStructure@Gu@physx@@U?$Hash@PAVBVHStructure@Gu@physx@@@shdfnd@3@VNonTrackingAllocator@53@$00@internal@53@VNonTrackingAllocator@53@$00@internal@shdfnd@physx@@QAEXI@Z 1002bea0 f i GuMeshFactory.obj
 0001:0002aed0       ?reserve@?$HashBase@PAVConvexMesh@Gu@physx@@PAV123@U?$Hash@PAVConvexMesh@Gu@physx@@@shdfnd@3@UGetKey@?$HashSetBase@PAVConvexMesh@Gu@physx@@U?$Hash@PAVConvexMesh@Gu@physx@@@shdfnd@3@VNonTrackingAllocator@53@$00@internal@53@VNonTrackingAllocator@53@$00@internal@shdfnd@physx@@QAEXI@Z 1002bed0 f i GuMeshFactory.obj
 0001:0002af00       ?reserve@?$HashBase@PAVHeightField@Gu@physx@@PAV123@U?$Hash@PAVHeightField@Gu@physx@@@shdfnd@3@UGetKey@?$HashSetBase@PAVHeightField@Gu@physx@@U?$Hash@PAVHeightField@Gu@physx@@@shdfnd@3@VNonTrackingAllocator@53@$00@internal@53@VNonTrackingAllocator@53@$00@internal@shdfnd@physx@@QAEXI@Z 1002bf00 f i GuMeshFactory.obj
 0001:0002af30       ?reserve@?$HashBase@PAVTriangleMesh@Gu@physx@@PAV123@U?$Hash@PAVTriangleMesh@Gu@physx@@@shdfnd@3@UGetKey@?$HashSetBase@PAVTriangleMesh@Gu@physx@@U?$Hash@PAVTriangleMesh@Gu@physx@@@shdfnd@3@VNonTrackingAllocator@53@$00@internal@53@VNonTrackingAllocator@53@$00@internal@shdfnd@physx@@QAEXI@Z 1002bf30 f i GuMeshFactory.obj
 0001:0002af60       ?reserveInternal@?$HashBase@PAVBVHStructure@Gu@physx@@PAV123@U?$Hash@PAVBVHStructure@Gu@physx@@@shdfnd@3@UGetKey@?$HashSetBase@PAVBVHStructure@Gu@physx@@U?$Hash@PAVBVHStructure@Gu@physx@@@shdfnd@3@VNonTrackingAllocator@53@$00@internal@53@VNonTrackingAllocator@53@$00@internal@shdfnd@physx@@AAEXI@Z 1002bf60 f i GuMeshFactory.obj
 0001:0002b2f0       ?reserveInternal@?$HashBase@PAVConvexMesh@Gu@physx@@PAV123@U?$Hash@PAVConvexMesh@Gu@physx@@@shdfnd@3@UGetKey@?$HashSetBase@PAVConvexMesh@Gu@physx@@U?$Hash@PAVConvexMesh@Gu@physx@@@shdfnd@3@VNonTrackingAllocator@53@$00@internal@53@VNonTrackingAllocator@53@$00@internal@shdfnd@physx@@AAEXI@Z 1002c2f0 f i GuMeshFactory.obj
 0001:0002b680       ?reserveInternal@?$HashBase@PAVHeightField@Gu@physx@@PAV123@U?$Hash@PAVHeightField@Gu@physx@@@shdfnd@3@UGetKey@?$HashSetBase@PAVHeightField@Gu@physx@@U?$Hash@PAVHeightField@Gu@physx@@@shdfnd@3@VNonTrackingAllocator@53@$00@internal@53@VNonTrackingAllocator@53@$00@internal@shdfnd@physx@@AAEXI@Z 1002c680 f i GuMeshFactory.obj
 0001:0002ba10       ?reserveInternal@?$HashBase@PAVTriangleMesh@Gu@physx@@PAV123@U?$Hash@PAVTriangleMesh@Gu@physx@@@shdfnd@3@UGetKey@?$HashSetBase@PAVTriangleMesh@Gu@physx@@U?$Hash@PAVTriangleMesh@Gu@physx@@@shdfnd@3@VNonTrackingAllocator@53@$00@internal@53@VNonTrackingAllocator@53@$00@internal@shdfnd@physx@@AAEXI@Z 1002ca10 f i GuMeshFactory.obj
 0001:0002bda0       ?setMeshFactory@ConvexMesh@Gu@physx@@QAEXPAVGuMeshFactory@3@@Z 1002cda0 f i GuMeshFactory.obj
 0001:0002bdc0       ?setNbTriangles@SourceMesh@Gu@physx@@QAEXI@Z 1002cdc0 f i GuMeshFactory.obj
 0001:0002bde0       ?setNbVertices@SourceMeshBase@Gu@physx@@QAEXI@Z 1002cde0 f i GuMeshFactory.obj
 0001:0002be00       ?setPointers@SourceMesh@Gu@physx@@QAEXPAVIndTri32@23@PAVIndTri16@23@PBVPxVec3@3@@Z 1002ce00 f i GuMeshFactory.obj
 0001:0002be30       ?size@?$Array@PAVGuMeshFactoryListener@physx@@VNamedAllocator@shdfnd@2@@shdfnd@physx@@QBEIXZ 1002ce30 f i GuMeshFactory.obj
 0001:0002be50       ?size@?$HashBase@PAVBVHStructure@Gu@physx@@PAV123@U?$Hash@PAVBVHStructure@Gu@physx@@@shdfnd@3@UGetKey@?$HashSetBase@PAVBVHStructure@Gu@physx@@U?$Hash@PAVBVHStructure@Gu@physx@@@shdfnd@3@VNonTrackingAllocator@53@$00@internal@53@VNonTrackingAllocator@53@$00@internal@shdfnd@physx@@QBEIXZ 1002ce50 f i GuMeshFactory.obj
 0001:0002be70       ?size@?$HashBase@PAVConvexMesh@Gu@physx@@PAV123@U?$Hash@PAVConvexMesh@Gu@physx@@@shdfnd@3@UGetKey@?$HashSetBase@PAVConvexMesh@Gu@physx@@U?$Hash@PAVConvexMesh@Gu@physx@@@shdfnd@3@VNonTrackingAllocator@53@$00@internal@53@VNonTrackingAllocator@53@$00@internal@shdfnd@physx@@QBEIXZ 1002ce70 f i GuMeshFactory.obj
 0001:0002be90       ?size@?$HashBase@PAVHeightField@Gu@physx@@PAV123@U?$Hash@PAVHeightField@Gu@physx@@@shdfnd@3@UGetKey@?$HashSetBase@PAVHeightField@Gu@physx@@U?$Hash@PAVHeightField@Gu@physx@@@shdfnd@3@VNonTrackingAllocator@53@$00@internal@53@VNonTrackingAllocator@53@$00@internal@shdfnd@physx@@QBEIXZ 1002ce90 f i GuMeshFactory.obj
 0001:0002beb0       ?size@?$HashBase@PAVTriangleMesh@Gu@physx@@PAV123@U?$Hash@PAVTriangleMesh@Gu@physx@@@shdfnd@3@UGetKey@?$HashSetBase@PAVTriangleMesh@Gu@physx@@U?$Hash@PAVTriangleMesh@Gu@physx@@@shdfnd@3@VNonTrackingAllocator@53@$00@internal@53@VNonTrackingAllocator@53@$00@internal@shdfnd@physx@@QBEIXZ 1002ceb0 f i GuMeshFactory.obj
 0001:0002bed0       ?size@?$HashSetBase@PAVBVHStructure@Gu@physx@@U?$Hash@PAVBVHStructure@Gu@physx@@@shdfnd@3@VNonTrackingAllocator@53@$00@internal@shdfnd@physx@@QBEIXZ 1002ced0 f i GuMeshFactory.obj
 0001:0002bef0       ?size@?$HashSetBase@PAVConvexMesh@Gu@physx@@U?$Hash@PAVConvexMesh@Gu@physx@@@shdfnd@3@VNonTrackingAllocator@53@$00@internal@shdfnd@physx@@QBEIXZ 1002cef0 f i GuMeshFactory.obj
 0001:0002bf10       ?size@?$HashSetBase@PAVHeightField@Gu@physx@@U?$Hash@PAVHeightField@Gu@physx@@@shdfnd@3@VNonTrackingAllocator@53@$00@internal@shdfnd@physx@@QBEIXZ 1002cf10 f i GuMeshFactory.obj
 0001:0002bf30       ?size@?$HashSetBase@PAVTriangleMesh@Gu@physx@@U?$Hash@PAVTriangleMesh@Gu@physx@@@shdfnd@3@VNonTrackingAllocator@53@$00@internal@shdfnd@physx@@QBEIXZ 1002cf30 f i GuMeshFactory.obj
 0001:0002bf50       ?to16@shdfnd@physx@@YAGI@Z 1002cf50 f i GuMeshFactory.obj
 0001:0002bfa0       ?unlock@?$MutexT@V?$ReflectionAllocator@VMutexImpl@shdfnd@physx@@@shdfnd@physx@@@shdfnd@physx@@QBEXXZ 1002cfa0 f i GuMeshFactory.obj
 0001:0002bfc0       ?getBinaryMetaData@HeightField@Gu@physx@@SAXAAVPxOutputStream@3@@Z 1002cfc0 f   GuMetaData.obj
 0001:0002c490       ?getBinaryMetaData@BigConvexData@physx@@SAXAAVPxOutputStream@2@@Z 1002d490 f   GuMetaData.obj
 0001:0002c810       ?getBinaryMetaData@ConvexMesh@Gu@physx@@SAXAAVPxOutputStream@3@@Z 1002d810 f   GuMetaData.obj
 0001:0002cfc0       ?getBinaryMetaData@RTree@Gu@physx@@SAXAAVPxOutputStream@3@@Z 1002dfc0 f   GuMetaData.obj
 0001:0002d490       ?getBinaryMetaData@SourceMesh@Gu@physx@@SAXAAVPxOutputStream@3@@Z 1002e490 f   GuMetaData.obj
 0001:0002d700       ?getBinaryMetaData@BV4Tree@Gu@physx@@SAXAAVPxOutputStream@3@@Z 1002e700 f   GuMetaData.obj
 0001:0002dc40       ?getBinaryMetaData@TriangleMesh@Gu@physx@@SAXAAVPxOutputStream@3@@Z 1002ec40 f   GuMetaData.obj
 0001:0002e8e0       ?getBinaryMetaData@BV4TriangleMesh@Gu@physx@@SAXAAVPxOutputStream@3@@Z 1002f8e0 f   GuMetaData.obj
 0001:0002ea50       ?getBinaryMetaData@RTreeTriangleMesh@Gu@physx@@SAXAAVPxOutputStream@3@@Z 1002fa50 f   GuMetaData.obj
 0001:0002eb60       ?getBinaryMetaData@MaterialIndicesStruct@physx@@SAXAAVPxOutputStream@2@@Z 1002fb60 f   GuMetaData.obj
 0001:0002ed00       ?getBinaryMetaData@GeometryUnion@Gu@physx@@SAXAAVPxOutputStream@3@@Z 1002fd00 f   GuMetaData.obj
 0001:000318b0       ??0BigConvexData@physx@@QAE@W4PxEMPTY@1@@Z 100328b0 f i GuMetaData.obj
 0001:000318c0       ??4BigConvexData@physx@@QAEAAV01@ABV01@@Z 100328c0 f i GuMetaData.obj
 0001:000318f0       ?GetAdjacentVerts@BigConvexData@physx@@QBEPBEXZ 100328f0 f i GuMetaData.obj
 0001:00031910       ?GetNbNeighbors@BigConvexData@physx@@QBEGI@Z 10032910 f i GuMetaData.obj
 0001:00031930       ?GetNbSamples@BigConvexData@physx@@QBEIXZ 10032930 f i GuMetaData.obj
 0001:00031950       ?GetNbVerts@BigConvexData@physx@@QBEIXZ 10032950 f i GuMetaData.obj
 0001:00031970       ?GetNeighbors@BigConvexData@physx@@QBEPBEI@Z 10032970 f i GuMetaData.obj
 0001:000319a0       ?GetOffset@BigConvexData@physx@@QBEGI@Z 100329a0 f i GuMetaData.obj
 0001:000319c0       ?GetSubdiv@BigConvexData@physx@@QBEIXZ 100329c0 f i GuMetaData.obj
 0001:000319e0       ?GetValencies@BigConvexData@physx@@QBEPBUValency@Gu@2@XZ 100329e0 f i GuMetaData.obj
 0001:00031a00       ?GetValency@BigConvexData@physx@@QBEGI@Z 10032a00 f i GuMetaData.obj
 0001:00032ce0       ?pointConvexDistance@@YA_NAAVPxVec3@physx@@0AAMABV12@PBVConvexMesh@Gu@2@ABVPxMeshScale@2@ABVPxTransform@2@@Z 10033ce0 f   GuMTD.obj
 0001:000361d0       ??$PX_UNUSED@PAVMeshPersistentContact@Gu@physx@@@@YAXABQAVMeshPersistentContact@Gu@physx@@@Z 100371d0 f i GuMTD.obj
 0001:000361e0       ??$PX_UNUSED@VPxGeometry@physx@@@@YAXABVPxGeometry@physx@@@Z 100371e0 f i GuMTD.obj
 0001:000361f0       ??$getConvex@VCapsuleV@Gu@physx@@@GjkConvexBase@Gu@physx@@QBEABVCapsuleV@12@XZ 100371f0 f i GuMTD.obj
 0001:00036210       ??$getConvex@VConvexHullV@Gu@physx@@@GjkConvexBase@Gu@physx@@QBEABVConvexHullV@12@XZ 10037210 f i GuMTD.obj
 0001:00036230       ??$gjk@U?$LocalConvex@VCapsuleV@Gu@physx@@@Gu@physx@@U?$LocalConvex@VConvexHullV@Gu@physx@@@23@@Gu@physx@@YA?AW4GjkStatus@01@ABU?$LocalConvex@VCapsuleV@Gu@physx@@@01@ABU?$LocalConvex@VConvexHullV@Gu@physx@@@01@ABT__m128@@2AAT5@333@Z 10037230 f i GuMTD.obj
 0001:00036bf0       ??$swap@M@shdfnd@physx@@YAXAAM0@Z 10037bf0 f i GuMTD.obj
 0001:00036c20       ??0?$LocalConvex@VCapsuleV@Gu@physx@@@Gu@physx@@QAE@ABVCapsuleV@12@@Z 10037c20 f i GuMTD.obj
 0001:00036c50       ??0?$LocalConvex@VConvexHullV@Gu@physx@@@Gu@physx@@QAE@ABVConvexHullV@12@@Z 10037c50 f i GuMTD.obj
 0001:00036c80       ??0?$SupportLocalImpl@VBoxV@Gu@physx@@@Gu@physx@@QAE@ABVBoxV@12@ABVPsTransformV@aos@shdfnd@2@ABUMat33V@562@2_N@Z 10037c80 f i GuMTD.obj
 0001:00036cc0       ??0?$SupportLocalImpl@VConvexHullNoScaleV@Gu@physx@@@Gu@physx@@QAE@ABVConvexHullNoScaleV@12@ABVPsTransformV@aos@shdfnd@2@ABUMat33V@562@2_N@Z 10037cc0 f i GuMTD.obj
 0001:00036d00       ??0?$SupportLocalImpl@VConvexHullV@Gu@physx@@@Gu@physx@@QAE@ABVConvexHullV@12@ABVPsTransformV@aos@shdfnd@2@ABUMat33V@562@2_N@Z 10037d00 f i GuMTD.obj
 0001:00036d40       ??0BoxV@Gu@physx@@QAE@ABT__m128@@0@Z 10037d40 f i GuMTD.obj
 0001:00036db0       ??0Cache@Gu@physx@@QAE@XZ  10037db0 f i GuMTD.obj
 0001:00036dd0       ??0CapsuleV@Gu@physx@@QAE@ABT__m128@@00@Z 10037dd0 f i GuMTD.obj
 0001:00036ea0       ??0CapsuleV@Gu@physx@@QAE@ABT__m128@@0@Z 10037ea0 f i GuMTD.obj
 0001:00036f40       ??0ContactBuffer@Gu@physx@@QAE@XZ 10037f40 f i GuMTD.obj
 0001:00036f60       ??0ContactPoint@Gu@physx@@QAE@XZ 10037f60 f i GuMTD.obj
 0001:00036f90       ??0ConvexHullV@Gu@physx@@QAE@PBUConvexHullData@12@ABT__m128@@11_N@Z 10037f90 f i GuMTD.obj
 0001:00037060       ??0ConvexV@Gu@physx@@QAE@W4Type@ConvexType@12@@Z 10038060 f i GuMTD.obj
 0001:000370d0       ??0ConvexV@Gu@physx@@QAE@W4Type@ConvexType@12@ABT__m128@@@Z 100380d0 f i GuMTD.obj
 0001:00037120       ??0GjkConvex@Gu@physx@@QAE@ABVConvexV@12@@Z 10038120 f i GuMTD.obj
 0001:00037150       ??0GjkConvexBase@Gu@physx@@QAE@ABVConvexV@12@@Z 10038150 f i GuMTD.obj
 0001:00037180       ??0HullPolygonData@Gu@physx@@QAE@ABU012@@Z 10038180 f i GuMTD.obj
 0001:000371d0       ??0Mat33V@aos@shdfnd@physx@@QAE@ABT__m128@@00@Z 100381d0 f i GuMTD.obj
 0001:00037210       ??0Mat33V@aos@shdfnd@physx@@QAE@XZ 10038210 f i GuMTD.obj
 0001:00037220       ??0MeshPersistentContact@Gu@physx@@QAE@XZ 10038220 f i GuMTD.obj
 0001:00037240       ??0MultiplePersistentContactManifold@Gu@physx@@QAE@XZ 10038240 f i GuMTD.obj
 0001:000372c0       ??0NarrowPhaseParams@Gu@physx@@QAE@MMM@Z 100382c0 f i GuMTD.obj
 0001:00037300       ??0PersistentContact@Gu@physx@@QAE@XZ 10038300 f i GuMTD.obj
 0001:00037310       ??0PolygonalBox@Gu@physx@@QAE@ABV012@@Z 10038310 f i GuMTD.obj
 0001:00037370       ??0PolygonalData@Gu@physx@@QAE@XZ 10038370 f i GuMTD.obj
 0001:00037390       ??0PsMatTransformV@aos@shdfnd@physx@@QAE@ABVPsTransformV@123@@Z 10038390 f i GuMTD.obj
 0001:000373e0       ??0PsTransformV@aos@shdfnd@physx@@QAE@ABT__m128@@0@Z 100383e0 f i GuMTD.obj
 0001:00037450       ??0PsTransformV@aos@shdfnd@physx@@QAE@ABVPxTransform@3@@Z 10038450 f i GuMTD.obj
 0001:000374f0       ??0PxBoxGeometry@physx@@QAE@VPxVec3@1@@Z 100384f0 f i GuMTD.obj
 0001:00037520       ??0PxCache@physx@@QAE@XZ   10038520 f i GuMTD.obj
 0001:00037550       ??0PxPlane@physx@@QAE@ABV01@@Z 10038550 f i GuMTD.obj
 0001:00037580       ??0PxSphereGeometry@physx@@QAE@M@Z 10038580 f i GuMTD.obj
 0001:000375b0       ??0PxTransform@physx@@QAE@ABVPxVec3@1@@Z 100385b0 f i GuMTD.obj
 0001:000375e0       ??0SeparatingAxes@Gu@physx@@QAE@$$QAV012@@Z 100385e0 f i GuMTD.obj
 0001:00037620       ??0SeparatingAxes@Gu@physx@@QAE@ABV012@@Z 10038620 f i GuMTD.obj
 0001:00037660       ??0SeparatingAxes@Gu@physx@@QAE@XZ 10038660 f i GuMTD.obj
 0001:00037690       ??0SinglePersistentContactManifold@Gu@physx@@QAE@XZ 10038690 f i GuMTD.obj
 0001:000376c0       ??0SupportLocal@Gu@physx@@QAE@ABVPsTransformV@aos@shdfnd@2@ABUMat33V@452@1_N@Z 100386c0 f i GuMTD.obj
 0001:00037700       ??1?$LocalConvex@VCapsuleV@Gu@physx@@@Gu@physx@@UAE@XZ 10038700 f i GuMTD.obj
 0001:00037720       ??1?$LocalConvex@VConvexHullV@Gu@physx@@@Gu@physx@@UAE@XZ 10038720 f i GuMTD.obj
 0001:00037740       ??1?$SupportLocalImpl@VBoxV@Gu@physx@@@Gu@physx@@UAE@XZ 10038740 f i GuMTD.obj
 0001:00037760       ??1?$SupportLocalImpl@VConvexHullNoScaleV@Gu@physx@@@Gu@physx@@UAE@XZ 10038760 f i GuMTD.obj
 0001:00037780       ??1?$SupportLocalImpl@VConvexHullV@Gu@physx@@@Gu@physx@@UAE@XZ 10038780 f i GuMTD.obj
 0001:000377a0       ??1BoxV@Gu@physx@@QAE@XZ   100387a0 f i GuMTD.obj
 0001:000377c0       ??1CapsuleV@Gu@physx@@QAE@XZ 100387c0 f i GuMTD.obj
 0001:000377e0       ??1ConvexHullV@Gu@physx@@QAE@XZ 100387e0 f i GuMTD.obj
 0001:00037800       ??1ConvexV@Gu@physx@@IAE@XZ 10038800 f i GuMTD.obj
 0001:00037810       ??1GjkConvex@Gu@physx@@UAE@XZ 10038810 f i GuMTD.obj
 0001:00037830       ??1GjkConvexBase@Gu@physx@@UAE@XZ 10038830 f i GuMTD.obj
 0001:00037850       ??1SupportLocal@Gu@physx@@UAE@XZ 10038850 f i GuMTD.obj
 0001:00037870       ??4MultiplePersistentContactManifold@Gu@physx@@QAEAAV012@$$QAV012@@Z 10038870 f i GuMTD.obj
 0001:00037950       ??4MultiplePersistentContactManifold@Gu@physx@@QAEAAV012@ABV012@@Z 10038950 f i GuMTD.obj
 0001:00037980       ??4SeparatingAxes@Gu@physx@@QAEAAV012@$$QAV012@@Z 10038980 f i GuMTD.obj
 0001:000379e0       ??4SeparatingAxes@Gu@physx@@QAEAAV012@ABV012@@Z 100389e0 f i GuMTD.obj
 0001:00037a40       ??_E?$LocalConvex@VCapsuleV@Gu@physx@@@Gu@physx@@UAEPAXI@Z 10038a40 f i GuMTD.obj
 0001:00037a40       ??_G?$LocalConvex@VCapsuleV@Gu@physx@@@Gu@physx@@UAEPAXI@Z 10038a40 f i GuMTD.obj
 0001:00037a70       ??_E?$LocalConvex@VConvexHullV@Gu@physx@@@Gu@physx@@UAEPAXI@Z 10038a70 f i GuMTD.obj
 0001:00037a70       ??_G?$LocalConvex@VConvexHullV@Gu@physx@@@Gu@physx@@UAEPAXI@Z 10038a70 f i GuMTD.obj
 0001:00037aa0       ??_E?$SupportLocalImpl@VBoxV@Gu@physx@@@Gu@physx@@UAEPAXI@Z 10038aa0 f i GuMTD.obj
 0001:00037aa0       ??_G?$SupportLocalImpl@VBoxV@Gu@physx@@@Gu@physx@@UAEPAXI@Z 10038aa0 f i GuMTD.obj
 0001:00037ad0       ??_E?$SupportLocalImpl@VConvexHullNoScaleV@Gu@physx@@@Gu@physx@@UAEPAXI@Z 10038ad0 f i GuMTD.obj
 0001:00037ad0       ??_G?$SupportLocalImpl@VConvexHullNoScaleV@Gu@physx@@@Gu@physx@@UAEPAXI@Z 10038ad0 f i GuMTD.obj
 0001:00037b00       ??_G?$SupportLocalImpl@VConvexHullV@Gu@physx@@@Gu@physx@@UAEPAXI@Z 10038b00 f i GuMTD.obj
 0001:00037b00       ??_E?$SupportLocalImpl@VConvexHullV@Gu@physx@@@Gu@physx@@UAEPAXI@Z 10038b00 f i GuMTD.obj
 0001:00037b30       ??_EGjkConvex@Gu@physx@@UAEPAXI@Z 10038b30 f i GuMTD.obj
 0001:00037b30       ??_GGjkConvex@Gu@physx@@UAEPAXI@Z 10038b30 f i GuMTD.obj
 0001:00037b60       ??_EGjkConvexBase@Gu@physx@@UAEPAXI@Z 10038b60 f i GuMTD.obj
 0001:00037b60       ??_GGjkConvexBase@Gu@physx@@UAEPAXI@Z 10038b60 f i GuMTD.obj
 0001:00037b90       ??_ESupportLocal@Gu@physx@@UAEPAXI@Z 10038b90 f i GuMTD.obj
 0001:00037b90       ??_GSupportLocal@Gu@physx@@UAEPAXI@Z 10038b90 f i GuMTD.obj
 0001:00037bc0       ??__G@YGXPAX0IIP6EPAX00@Z@Z 10038bc0 f i GuMTD.obj
 0001:00037c20       ?BAllEqTTTT@aos@shdfnd@physx@@YAIT__m128@@@Z 10038c20 f i GuMTD.obj
 0001:00037c70       ?BAllTrue3_R@internalWindowsSimd@aos@shdfnd@physx@@YAIT__m128@@@Z 10038c70 f i GuMTD.obj
 0001:00037cc0       ?BAllTrue4_R@internalWindowsSimd@aos@shdfnd@physx@@YAIT__m128@@@Z 10038cc0 f i GuMTD.obj
 0001:00037d10       ?BAnd@aos@shdfnd@physx@@YA?AT__m128@@T4@0@Z 10038d10 f i GuMTD.obj
 0001:00037d50       ?BFFFF@aos@shdfnd@physx@@YA?AT__m128@@XZ 10038d50 f i GuMTD.obj
 0001:00037d80       ?BLoad@aos@shdfnd@physx@@YA?AT__m128@@_N@Z 10038d80 f i GuMTD.obj
 0001:00037dc0       ?BOr@aos@shdfnd@physx@@YA?AT__m128@@T4@0@Z 10038dc0 f i GuMTD.obj
 0001:00037e00       ?BTTTF@aos@shdfnd@physx@@YA?AT__m128@@XZ 10038e00 f i GuMTD.obj
 0001:00037e40       ?BTTTT@aos@shdfnd@physx@@YA?AT__m128@@XZ 10038e40 f i GuMTD.obj
 0001:00037e80       ?CalculateBoxMargin@Gu@physx@@YAXABT__m128@@AAM11MM@Z 10038e80 f i GuMTD.obj
 0001:00037f00       ?CalculateConvexMargin@Gu@physx@@YAXPBUConvexHullData@12@AAM11ABT__m128@@@Z 10038f00 f i GuMTD.obj
 0001:00037fb0       ?ComputeCubemapNearestOffset@physx@@YAIABVPxVec3@1@I@Z 10038fb0 f i GuMTD.obj
 0001:00038090       ?ConstructSkewMatrix@Gu@physx@@YAXABT__m128@@0AAUMat33V@aos@shdfnd@2@1AAT3@_N@Z 10039090 f i GuMTD.obj
 0001:000383c0       ?CubemapLookup@physx@@YA?AW4CubeIndex@1@ABVPxVec3@1@AAM1@Z 100393c0 f i GuMTD.obj
 0001:00038510       ?FAbs@aos@shdfnd@physx@@YA?AT__m128@@T4@@Z 10039510 f i GuMTD.obj
 0001:000385a0       ?FAdd@aos@shdfnd@physx@@YA?AT__m128@@T4@0@Z 100395a0 f i GuMTD.obj
 0001:00038670       ?FAllEq@aos@shdfnd@physx@@YAIT__m128@@0@Z 10039670 f i GuMTD.obj
 0001:00038740       ?FAllGrtr@aos@shdfnd@physx@@YAIT__m128@@0@Z 10039740 f i GuMTD.obj
 0001:00038800       ?FAllGrtrOrEq@aos@shdfnd@physx@@YAIT__m128@@0@Z 10039800 f i GuMTD.obj
 0001:000388c0       ?FClamp@aos@shdfnd@physx@@YA?AT__m128@@T4@00@Z 100398c0 f i GuMTD.obj
 0001:000389a0       ?FDiv@aos@shdfnd@physx@@YA?AT__m128@@T4@0@Z 100399a0 f i GuMTD.obj
 0001:00038a70       ?FEps@aos@shdfnd@physx@@YA?AT__m128@@XZ 10039a70 f i GuMTD.obj
 0001:00038ab0       ?FIsGrtr@aos@shdfnd@physx@@YA?AT__m128@@T4@0@Z 10039ab0 f i GuMTD.obj
 0001:00038b80       ?FIsGrtrOrEq@aos@shdfnd@physx@@YA?AT__m128@@T4@0@Z 10039b80 f i GuMTD.obj
 0001:00038c50       ?FMax@aos@shdfnd@physx@@YA?AT__m128@@T4@0@Z 10039c50 f i GuMTD.obj
 0001:00038d20       ?FMax@aos@shdfnd@physx@@YA?AT__m128@@XZ 10039d20 f i GuMTD.obj
 0001:00038d60       ?FMin@aos@shdfnd@physx@@YA?AT__m128@@T4@0@Z 10039d60 f i GuMTD.obj
 0001:00038e30       ?FMul@aos@shdfnd@physx@@YA?AT__m128@@T4@0@Z 10039e30 f i GuMTD.obj
 0001:00038f00       ?FNeg@aos@shdfnd@physx@@YA?AT__m128@@T4@@Z 10039f00 f i GuMTD.obj
 0001:00038f80       ?FOne@aos@shdfnd@physx@@YA?AT__m128@@XZ 10039f80 f i GuMTD.obj
 0001:00038fc0       ?FRecip@aos@shdfnd@physx@@YA?AT__m128@@T4@@Z 10039fc0 f i GuMTD.obj
 0001:00039050       ?FScaleAdd@aos@shdfnd@physx@@YA?AT__m128@@T4@00@Z 1003a050 f i GuMTD.obj
 0001:00039180       ?FSel@aos@shdfnd@physx@@YA?AT__m128@@T4@00@Z 1003a180 f i GuMTD.obj
 0001:000392d0       ?FStore@aos@shdfnd@physx@@YAXT__m128@@PIAM@Z 1003a2d0 f i GuMTD.obj
 0001:00039350       ?FSub@aos@shdfnd@physx@@YA?AT__m128@@T4@0@Z 1003a350 f i GuMTD.obj
 0001:00039420       ?FZero@aos@shdfnd@physx@@YA?AT__m128@@XZ 1003a420 f i GuMTD.obj
 0001:00039450       ?GJKCPairDoSimplex@Gu@physx@@YA?AT__m128@@PIAT3@00ABT3@AAI@Z 1003a450 f i GuMTD.obj
 0001:00039550       ?I4Load@aos@shdfnd@physx@@YA?AT__m128@@H@Z 1003a550 f i GuMTD.obj
 0001:00039590       ?Invalidate@PsTransformV@aos@shdfnd@physx@@QAEXXZ 1003a590 f i GuMTD.obj
 0001:000395f0       ?M33Diagonal@aos@shdfnd@physx@@YA?AUMat33V@123@ABT__m128@@@Z 1003a5f0 f i GuMTD.obj
 0001:000396a0       ?M33Identity@aos@shdfnd@physx@@YA?AUMat33V@123@XZ 1003a6a0 f i GuMTD.obj
 0001:00039700       ?M33MulM33@aos@shdfnd@physx@@YA?AUMat33V@123@ABU4123@0@Z 1003a700 f i GuMTD.obj
 0001:00039780       ?M33MulV3@aos@shdfnd@physx@@YA?AT__m128@@ABUMat33V@123@T4@@Z 1003a780 f i GuMTD.obj
 0001:000398a0       ?M33Trnsps@aos@shdfnd@physx@@YA?AUMat33V@123@ABU4123@@Z 1003a8a0 f i GuMTD.obj
 0001:00039910       ?M33TrnspsMulV3@aos@shdfnd@physx@@YA?AT__m128@@ABUMat33V@123@T4@@Z 1003a910 f i GuMTD.obj
 0001:000399d0       ?PxI32_From_VecI32V@aos@shdfnd@physx@@YAXABT__m128@@PAH@Z 1003a9d0 f i GuMTD.obj
 0001:000399f0       ?QuatConjugate@aos@shdfnd@physx@@YA?AT__m128@@T4@@Z 1003a9f0 f i GuMTD.obj
 0001:00039a50       ?QuatDot@aos@shdfnd@physx@@YA?AT__m128@@T4@0@Z 1003aa50 f i GuMTD.obj
 0001:00039a90       ?QuatIdentity@aos@shdfnd@physx@@YA?AT__m128@@XZ 1003aa90 f i GuMTD.obj
 0001:00039ae0       ?QuatLength@aos@shdfnd@physx@@YA?AT__m128@@T4@@Z 1003aae0 f i GuMTD.obj
 0001:00039b20       ?QuatMul@aos@shdfnd@physx@@YA?AT__m128@@T4@0@Z 1003ab20 f i GuMTD.obj
 0001:00039ce0       ?QuatRotate@aos@shdfnd@physx@@YA?AT__m128@@T4@0@Z 1003ace0 f i GuMTD.obj
 0001:00039e60       ?QuatVLoadU@aos@shdfnd@physx@@YA?AT__m128@@PBM@Z 1003ae60 f i GuMTD.obj
 0001:00039ea0       ?QuatVLoadXYZW@aos@shdfnd@physx@@YA?AT__m128@@MMMM@Z 1003aea0 f i GuMTD.obj
 0001:00039ee0       ?V3Abs@aos@shdfnd@physx@@YA?AT__m128@@T4@@Z 1003aee0 f i GuMTD.obj
 0001:00039f70       ?V3Add@aos@shdfnd@physx@@YA?AT__m128@@T4@0@Z 1003af70 f i GuMTD.obj
 0001:0003a040       ?V3AllEq@aos@shdfnd@physx@@YAIT__m128@@0@Z 1003b040 f i GuMTD.obj
 0001:0003a110       ?V3Cross@aos@shdfnd@physx@@YA?AT__m128@@ABUVecCrossV@123@0@Z 1003b110 f i GuMTD.obj
 0001:0003a170       ?V3Cross@aos@shdfnd@physx@@YA?AT__m128@@T4@0@Z 1003b170 f i GuMTD.obj
 0001:0003a2d0       ?V3Dot@aos@shdfnd@physx@@YA?AT__m128@@T4@0@Z 1003b2d0 f i GuMTD.obj
 0001:0003a400       ?V3ExtractMin@aos@shdfnd@physx@@YA?AT__m128@@T4@@Z 1003b400 f i GuMTD.obj
 0001:0003a4e0       ?V3GetX@aos@shdfnd@physx@@YA?AT__m128@@T4@@Z 1003b4e0 f i GuMTD.obj
 0001:0003a560       ?V3GetY@aos@shdfnd@physx@@YA?AT__m128@@T4@@Z 1003b560 f i GuMTD.obj
 0001:0003a5e0       ?V3GetZ@aos@shdfnd@physx@@YA?AT__m128@@T4@@Z 1003b5e0 f i GuMTD.obj
 0001:0003a660       ?V3IsGrtr@aos@shdfnd@physx@@YA?AT__m128@@T4@0@Z 1003b660 f i GuMTD.obj
 0001:0003a730       ?V3Length@aos@shdfnd@physx@@YA?AT__m128@@T4@@Z 1003b730 f i GuMTD.obj
 0001:0003a7c0       ?V3LoadU@aos@shdfnd@physx@@YA?AT__m128@@ABVPxVec3@3@@Z 1003b7c0 f i GuMTD.obj
 0001:0003a810       ?V3LoadU_SafeReadW@aos@shdfnd@physx@@YA?AT__m128@@ABVPxVec3@3@@Z 1003b810 f i GuMTD.obj
 0001:0003a860       ?V3Max@aos@shdfnd@physx@@YA?AT__m128@@T4@0@Z 1003b860 f i GuMTD.obj
 0001:0003a930       ?V3Mul@aos@shdfnd@physx@@YA?AT__m128@@T4@0@Z 1003b930 f i GuMTD.obj
 0001:0003aa00       ?V3Neg@aos@shdfnd@physx@@YA?AT__m128@@T4@@Z 1003ba00 f i GuMTD.obj
 0001:0003aa80       ?V3NegScaleSub@aos@shdfnd@physx@@YA?AT__m128@@T4@00@Z 1003ba80 f i GuMTD.obj
 0001:0003abb0       ?V3Normalize@aos@shdfnd@physx@@YA?AT__m128@@T4@@Z 1003bbb0 f i GuMTD.obj
 0001:0003ac50       ?V3One@aos@shdfnd@physx@@YA?AT__m128@@XZ 1003bc50 f i GuMTD.obj
 0001:0003ac90       ?V3PrepareCross@aos@shdfnd@physx@@YA?AUVecCrossV@123@T__m128@@@Z 1003bc90 f i GuMTD.obj
 0001:0003ad40       ?V3Recip@aos@shdfnd@physx@@YA?AT__m128@@T4@@Z 1003bd40 f i GuMTD.obj
 0001:0003ae10       ?V3Scale@aos@shdfnd@physx@@YA?AT__m128@@T4@0@Z 1003be10 f i GuMTD.obj
 0001:0003aee0       ?V3ScaleAdd@aos@shdfnd@physx@@YA?AT__m128@@T4@00@Z 1003bee0 f i GuMTD.obj
 0001:0003b010       ?V3ScaleInv@aos@shdfnd@physx@@YA?AT__m128@@T4@0@Z 1003c010 f i GuMTD.obj
 0001:0003b0e0       ?V3Sel@aos@shdfnd@physx@@YA?AT__m128@@T4@00@Z 1003c0e0 f i GuMTD.obj
 0001:0003b1b0       ?V3Splat@aos@shdfnd@physx@@YA?AT__m128@@T4@@Z 1003c1b0 f i GuMTD.obj
 0001:0003b260       ?V3StoreU@aos@shdfnd@physx@@YAXT__m128@@AAVPxVec3@3@@Z 1003c260 f i GuMTD.obj
 0001:0003b2e0       ?V3Sub@aos@shdfnd@physx@@YA?AT__m128@@T4@0@Z 1003c2e0 f i GuMTD.obj
 0001:0003b3b0       ?V3Transpose@aos@shdfnd@physx@@YAXAAT__m128@@00@Z 1003c3b0 f i GuMTD.obj
 0001:0003b590       ?V3UnitX@aos@shdfnd@physx@@YA?AT__m128@@XZ 1003c590 f i GuMTD.obj
 0001:0003b5f0       ?V3UnitY@aos@shdfnd@physx@@YA?AT__m128@@XZ 1003c5f0 f i GuMTD.obj
 0001:0003b650       ?V3UnitZ@aos@shdfnd@physx@@YA?AT__m128@@XZ 1003c650 f i GuMTD.obj
 0001:0003b6b0       ?V3Zero@aos@shdfnd@physx@@YA?AT__m128@@XZ 1003c6b0 f i GuMTD.obj
 0001:0003b6e0       ?V4Dot@aos@shdfnd@physx@@YA?AT__m128@@T4@0@Z 1003c6e0 f i GuMTD.obj
 0001:0003b7b0       ?V4ExtractMax@aos@shdfnd@physx@@YA?AT__m128@@T4@@Z 1003c7b0 f i GuMTD.obj
 0001:0003b850       ?V4IsEq@aos@shdfnd@physx@@YA?AT__m128@@T4@0@Z 1003c850 f i GuMTD.obj
 0001:0003b890       ?V4Length@aos@shdfnd@physx@@YA?AT__m128@@T4@@Z 1003c890 f i GuMTD.obj
 0001:0003b8e0       ?V4LoadXYZW@aos@shdfnd@physx@@YA?AT__m128@@ABM000@Z 1003c8e0 f i GuMTD.obj
 0001:0003b930       ?V4ReadW@aos@shdfnd@physx@@YAMABT__m128@@@Z 1003c930 f i GuMTD.obj
 0001:0003b940       ?V4ReadX@aos@shdfnd@physx@@YAMABT__m128@@@Z 1003c940 f i GuMTD.obj
 0001:0003b950       ?V4ReadY@aos@shdfnd@physx@@YAMABT__m128@@@Z 1003c950 f i GuMTD.obj
 0001:0003b960       ?V4ReadZ@aos@shdfnd@physx@@YAMABT__m128@@@Z 1003c960 f i GuMTD.obj
 0001:0003b970       ?V4Sel@aos@shdfnd@physx@@YA?AT__m128@@T4@00@Z 1003c970 f i GuMTD.obj
 0001:0003b9d0       ?V4SetW@aos@shdfnd@physx@@YA?AT__m128@@T4@0@Z 1003c9d0 f i GuMTD.obj
 0001:0003ba60       ?V4Zero@aos@shdfnd@physx@@YA?AT__m128@@XZ 1003ca60 f i GuMTD.obj
 0001:0003ba90       ?VecI32V_And@aos@shdfnd@physx@@YA?AT__m128@@ABT4@0@Z 1003ca90 f i GuMTD.obj
 0001:0003bad0       ?VecI32V_From_BoolV@aos@shdfnd@physx@@YA?AT__m128@@ABT4@@Z 1003cad0 f i GuMTD.obj
 0001:0003bae0       ?VecI32V_IsEq@aos@shdfnd@physx@@YA?AT__m128@@ABT4@0@Z 1003cae0 f i GuMTD.obj
 0001:0003bb40       ?VecI32V_One@aos@shdfnd@physx@@YA?AT__m128@@XZ 1003cb40 f i GuMTD.obj
 0001:0003bb80       ?allElementsEqualBoolV@_VecMathTests@aos@shdfnd@physx@@YA_NT__m128@@0@Z 1003cb80 f i GuMTD.obj
 0001:0003bbe0       ?bruteForceSearch@ConvexHullV@Gu@physx@@QBEIABT__m128@@@Z 1003cbe0 f i GuMTD.obj
 0001:0003bc90       ?bruteForceSearchMinMax@ConvexHullNoScaleV@Gu@physx@@QBEXABT__m128@@AAT4@1@Z 1003cc90 f i GuMTD.obj
 0001:0003bde0       ?bruteForceSearchMinMax@ConvexHullV@Gu@physx@@QBEXABT__m128@@AAT4@1@Z 1003cde0 f i GuMTD.obj
 0001:0003bf10       ?clearManifold@MultiplePersistentContactManifold@Gu@physx@@QAEXXZ 1003cf10 f i GuMTD.obj
 0001:0003bf70       ?clearManifold@SinglePersistentContactManifold@Gu@physx@@QAEXXZ 1003cf70 f i GuMTD.obj
 0001:0003bf90       ?closestPtPointSegment@Gu@physx@@YA?AT__m128@@PIAT3@AAI@Z 1003cf90 f i GuMTD.obj
 0001:0003c140       ?closestPtPointTriangle@Gu@physx@@YA?AT__m128@@PIAT3@PAT3@1AAI@Z 1003d140 f i GuMTD.obj
 0001:0003c400       ?closestPtPointTriangleBaryCentric@Gu@physx@@YA?AT__m128@@ABT3@00PIAIAAIAAT3@@Z 1003d400 f i GuMTD.obj
 0001:0003d120       ?computeDirection@Segment@Gu@physx@@QBE?AVPxVec3@3@XZ 1003e120 f i GuMTD.obj
 0001:0003d150       ?distance@PxPlane@physx@@QBEMABVPxVec3@2@@Z 1003e150 f i GuMTD.obj
 0001:0003d190       ?distanceSegmentSegmentSquared@Gu@physx@@YAMABVSegment@12@0PAM1@Z 1003e190 f i GuMTD.obj
 0001:0003d1d0       ?doSupport@?$SupportLocalImpl@VBoxV@Gu@physx@@@Gu@physx@@UBE?AT__m128@@ABT4@@Z 1003e1d0 f i GuMTD.obj
 0001:0003d200       ?doSupport@?$SupportLocalImpl@VBoxV@Gu@physx@@@Gu@physx@@UBEXABT__m128@@AAT4@1@Z 1003e200 f i GuMTD.obj
 0001:0003d230       ?doSupport@?$SupportLocalImpl@VConvexHullNoScaleV@Gu@physx@@@Gu@physx@@UBE?AT__m128@@ABT4@@Z 1003e230 f i GuMTD.obj
 0001:0003d260       ?doSupport@?$SupportLocalImpl@VConvexHullNoScaleV@Gu@physx@@@Gu@physx@@UBEXABT__m128@@AAT4@1@Z 1003e260 f i GuMTD.obj
 0001:0003d290       ?doSupport@?$SupportLocalImpl@VConvexHullV@Gu@physx@@@Gu@physx@@UBE?AT__m128@@ABT4@@Z 1003e290 f i GuMTD.obj
 0001:0003d2c0       ?doSupport@?$SupportLocalImpl@VConvexHullV@Gu@physx@@@Gu@physx@@UBEXABT__m128@@AAT4@1@Z 1003e2c0 f i GuMTD.obj
 0001:0003d2f0       ?doVirtualGetSweepMargin@GjkConvex@Gu@physx@@ABE?AT__m128@@XZ 1003e2f0 f i GuMTD.obj
 0001:0003d320       ?doVirtualSupport@GjkConvex@Gu@physx@@ABE?AT__m128@@ABT4@@Z 1003e320 f i GuMTD.obj
 0001:0003d350       ?doVirtualSupport@GjkConvex@Gu@physx@@ABE?AT__m128@@ABT4@AAH@Z 1003e350 f i GuMTD.obj
 0001:0003d380       ?doVirtualSupportPoint@GjkConvex@Gu@physx@@ABE?AT__m128@@H@Z 1003e380 f i GuMTD.obj
 0001:0003d3b0       ?getAxes@SeparatingAxes@Gu@physx@@QBEPBVPxVec3@3@XZ 1003e3b0 f i GuMTD.obj
 0001:0003d3d0       ?getCenter@?$LocalConvex@VCapsuleV@Gu@physx@@@Gu@physx@@UBE?AT__m128@@XZ 1003e3d0 f i GuMTD.obj
 0001:0003d400       ?getCenter@?$LocalConvex@VConvexHullV@Gu@physx@@@Gu@physx@@UBE?AT__m128@@XZ 1003e400 f i GuMTD.obj
 0001:0003d430       ?getCenter@ConvexV@Gu@physx@@QBE?AT__m128@@XZ 1003e430 f i GuMTD.obj
 0001:0003d450       ?getClosestPoint@Gu@physx@@YAXPIBT__m128@@00ABT3@AAT3@2I@Z 1003e450 f i GuMTD.obj
 0001:0003d7a0       ?getConjugate@PxQuat@physx@@QBE?AV12@XZ 1003e7a0 f i GuMTD.obj
 0001:0003d810       ?getEmptyManifold@MultiplePersistentContactManifold@Gu@physx@@QAEPAVSinglePersistentContactManifold@23@XZ 1003e810 f i GuMTD.obj
 0001:0003d850       ?getIndex@CapsuleV@Gu@physx@@QBEXT__m128@@AAH@Z 1003e850 f i GuMTD.obj
 0001:0003d8d0       ?getManifold@MultiplePersistentContactManifold@Gu@physx@@QAEPAVSinglePersistentContactManifold@23@I@Z 1003e8d0 f i GuMTD.obj
 0001:0003d940       ?getMargin@ConvexV@Gu@physx@@QBE?AT__m128@@XZ 1003e940 f i GuMTD.obj
 0001:0003d990       ?getMargin@GjkConvexBase@Gu@physx@@QBE?AT__m128@@XZ 1003e990 f i GuMTD.obj
 0001:0003d9b0       ?getMinMargin@ConvexV@Gu@physx@@QBE?AT__m128@@XZ 1003e9b0 f i GuMTD.obj
 0001:0003da00       ?getMinMargin@GjkConvexBase@Gu@physx@@QBE?AT__m128@@XZ 1003ea00 f i GuMTD.obj
 0001:0003da20       ?getNbPolygonsFast@ConvexMesh@Gu@physx@@QBEIXZ 1003ea20 f i GuMTD.obj
 0001:0003da40       ?getNbVerts@ConvexMesh@Gu@physx@@QBEIXZ 1003ea40 f i GuMTD.obj
 0001:0003da60       ?getNumAxes@SeparatingAxes@Gu@physx@@QBEIXZ 1003ea60 f i GuMTD.obj
 0001:0003da70       ?getPolygons@ConvexMesh@Gu@physx@@QBEPBUHullPolygonData@23@XZ 1003ea70 f i GuMTD.obj
 0001:0003da90       ?getSweepMargin@?$LocalConvex@VCapsuleV@Gu@physx@@@Gu@physx@@UBE?AT__m128@@XZ 1003ea90 f i GuMTD.obj
 0001:0003dac0       ?getSweepMargin@?$LocalConvex@VConvexHullV@Gu@physx@@@Gu@physx@@UBE?AT__m128@@XZ 1003eac0 f i GuMTD.obj
 0001:0003daf0       ?getSweepMargin@CapsuleV@Gu@physx@@QBE?AT__m128@@XZ 1003eaf0 f i GuMTD.obj
 0001:0003db30       ?getSweepMargin@ConvexV@Gu@physx@@QBE?AT__m128@@XZ 1003eb30 f i GuMTD.obj
 0001:0003db80       ?getSweepMargin@GjkConvex@Gu@physx@@UBE?AT__m128@@XZ 1003eb80 f i GuMTD.obj
 0001:0003dba0       ?getVerts@ConvexMesh@Gu@physx@@QBEPBVPxVec3@3@XZ 1003eba0 f i GuMTD.obj
 0001:0003dbc0       ?hillClimbing@ConvexHullV@Gu@physx@@QBEIABT__m128@@@Z 1003ebc0 f i GuMTD.obj
 0001:0003ddf0       ?initialize@MultiplePersistentContactManifold@Gu@physx@@QAEXXZ 1003edf0 f i GuMTD.obj
 0001:0003de60       ?initialize@SinglePersistentContactManifold@Gu@physx@@QAEXXZ 1003ee60 f i GuMTD.obj
 0001:0003de80       ?invalidate@MultiplePersistentContactManifold@Gu@physx@@QAEIABVPsTransformV@aos@shdfnd@3@ABT__m128@@1@Z 1003ee80 f i GuMTD.obj
 0001:0003df80       ?invalidate@MultiplePersistentContactManifold@Gu@physx@@QAEIABVPsTransformV@aos@shdfnd@3@ABT__m128@@@Z 1003ef80 f i GuMTD.obj
 0001:0003dfe0       ?isAlmostZero@shdfnd@physx@@YA_NABVPxVec3@2@@Z 1003efe0 f i GuMTD.obj
 0001:0003e070       ?isEmpty@SinglePersistentContactManifold@Gu@physx@@QAE_NXZ 1003f070 f i GuMTD.obj
 0001:0003e0a0       ?isFinite@PsTransformV@aos@shdfnd@physx@@QBE_NXZ 1003f0a0 f i GuMTD.obj
 0001:0003e0d0       ?isFiniteQuatV@aos@shdfnd@physx@@YA_NT__m128@@@Z 1003f0d0 f i GuMTD.obj
 0001:0003e100       ?isFiniteVec3V@aos@shdfnd@physx@@YA_NT__m128@@@Z 1003f100 f i GuMTD.obj
 0001:0003e1b0       ?isFiniteVec4V@aos@shdfnd@physx@@YA_NT__m128@@@Z 1003f1b0 f i GuMTD.obj
 0001:0003e290       ?isMarginEqRadius@ConvexV@Gu@physx@@QBE?AT__m128@@XZ 1003f290 f i GuMTD.obj
 0001:0003e2e0       ?isMarginEqRadius@GjkConvexBase@Gu@physx@@QBE?AT__m128@@XZ 1003f2e0 f i GuMTD.obj
 0001:0003e300       ?isSane@PsTransformV@aos@shdfnd@physx@@QBE_NXZ 1003f300 f i GuMTD.obj
 0001:0003e330       ?isSane@PxTransform@physx@@QBE_NXZ 1003f330 f i GuMTD.obj
 0001:0003e370       ?isSaneQuatV@aos@shdfnd@physx@@YA_NT__m128@@@Z 1003f370 f i GuMTD.obj
 0001:0003e450       ?isValidFloatV@aos@shdfnd@physx@@YA_NT__m128@@@Z 1003f450 f i GuMTD.obj
 0001:0003e5d0       ?isValidVec3V@aos@shdfnd@physx@@YA_NT__m128@@@Z 1003f5d0 f i GuMTD.obj
 0001:0003e640       ?length@Segment@Gu@physx@@QBEMXZ 1003f640 f i GuMTD.obj
 0001:0003e670       ?m128_F2I@internalWindowsSimd@aos@shdfnd@physx@@YA?AT__m128i@@T__m128@@@Z 1003f670 f i GuMTD.obj
 0001:0003e6a0       ?m128_I2F@internalWindowsSimd@aos@shdfnd@physx@@YA?AT__m128@@T__m128i@@@Z 1003f6a0 f i GuMTD.obj
 0001:0003e6d0       ?maxTransformPositionDelta@MultiplePersistentContactManifold@Gu@physx@@QAE?AT__m128@@ABT4@@Z 1003f6d0 f i GuMTD.obj
 0001:0003e750       ?maxTransformQuatDelta@MultiplePersistentContactManifold@Gu@physx@@QAE?AT__m128@@ABT4@@Z 1003f750 f i GuMTD.obj
 0001:0003e7d0       ?maximum@PxVec3@physx@@QBE?AV12@ABV12@@Z 1003f7d0 f i GuMTD.obj
 0001:0003e860       ?minimum@PxVec3@physx@@QBE?AV12@ABV12@@Z 1003f860 f i GuMTD.obj
 0001:0003e8f0       ?populateVerts@?$SupportLocalImpl@VBoxV@Gu@physx@@@Gu@physx@@UBEXPBEIPBVPxVec3@3@PAT__m128@@@Z 1003f8f0 f i GuMTD.obj
 0001:0003e920       ?populateVerts@?$SupportLocalImpl@VConvexHullNoScaleV@Gu@physx@@@Gu@physx@@UBEXPBEIPBVPxVec3@3@PAT__m128@@@Z 1003f920 f i GuMTD.obj
 0001:0003e950       ?populateVerts@?$SupportLocalImpl@VConvexHullV@Gu@physx@@@Gu@physx@@UBEXPBEIPBVPxVec3@3@PAT__m128@@@Z 1003f950 f i GuMTD.obj
 0001:0003e980       ?populateVerts@BoxV@Gu@physx@@QBEXPBEIPBVPxVec3@3@PAT__m128@@@Z 1003f980 f i GuMTD.obj
 0001:0003e9f0       ?populateVerts@ConvexHullNoScaleV@Gu@physx@@QBEXPBEIPBVPxVec3@3@PAT__m128@@@Z 1003f9f0 f i GuMTD.obj
 0001:0003ea60       ?populateVerts@ConvexHullV@Gu@physx@@QBEXPBEIPBVPxVec3@3@PAT__m128@@@Z 1003fa60 f i GuMTD.obj
 0001:0003eaf0       ?reduceManifoldContactsInDifferentPatches@MultiplePersistentContactManifold@Gu@physx@@QAEIPAPAUPCMContactPatch@23@IPAVMeshPersistentContact@23@IABT__m128@@@Z 1003faf0 f i GuMTD.obj
 0001:0003ec70       ?refineContactPatchConnective@MultiplePersistentContactManifold@Gu@physx@@QAEXPAPAUPCMContactPatch@23@IPAVMeshPersistentContact@23@ABT__m128@@@Z 1003fc70 f i GuMTD.obj
 0001:0003eda0       ?refreshManifold@MultiplePersistentContactManifold@Gu@physx@@QAEXABVPsMatTransformV@aos@shdfnd@3@ABT__m128@@1@Z 1003fda0 f i GuMTD.obj
 0001:0003ef70       ?reset@ContactBuffer@Gu@physx@@QAEXXZ 1003ff70 f i GuMTD.obj
 0001:0003ef90       ?reset@SeparatingAxes@Gu@physx@@QAEXXZ 1003ff90 f i GuMTD.obj
 0001:0003efb0       ?rotate@PsMatTransformV@aos@shdfnd@physx@@QBE?AT__m128@@ABT5@@Z 1003ffb0 f i GuMTD.obj
 0001:0003f000       ?rotateInv@PxQuat@physx@@QBE?BVPxVec3@2@ABV32@@Z 10040000 f i GuMTD.obj
 0001:0003f190       ?rotateInv@PxTransform@physx@@QBE?AVPxVec3@2@ABV32@@Z 10040190 f i GuMTD.obj
 0001:0003f1e0       ?setRelativeTransform@MultiplePersistentContactManifold@Gu@physx@@QAEXABVPsTransformV@aos@shdfnd@3@@Z 100401e0 f i GuMTD.obj
 0001:0003f200       ?support@?$LocalConvex@VCapsuleV@Gu@physx@@@Gu@physx@@UBE?AT__m128@@ABT4@@Z 10040200 f i GuMTD.obj
 0001:0003f230       ?support@?$LocalConvex@VCapsuleV@Gu@physx@@@Gu@physx@@UBE?AT__m128@@ABT4@AAH@Z 10040230 f i GuMTD.obj
 0001:0003f260       ?support@?$LocalConvex@VConvexHullV@Gu@physx@@@Gu@physx@@UBE?AT__m128@@ABT4@@Z 10040260 f i GuMTD.obj
 0001:0003f290       ?support@?$LocalConvex@VConvexHullV@Gu@physx@@@Gu@physx@@UBE?AT__m128@@ABT4@AAH@Z 10040290 f i GuMTD.obj
 0001:0003f2c0       ?support@GjkConvex@Gu@physx@@UBE?AT__m128@@ABT4@@Z 100402c0 f i GuMTD.obj
 0001:0003f2e0       ?support@GjkConvex@Gu@physx@@UBE?AT__m128@@ABT4@AAH@Z 100402e0 f i GuMTD.obj
 0001:0003f310       ?supportLocal@BoxV@Gu@physx@@QBE?AT__m128@@ABT4@@Z 10040310 f i GuMTD.obj
 0001:0003f390       ?supportLocal@BoxV@Gu@physx@@QBEXABT__m128@@AAT4@1@Z 10040390 f i GuMTD.obj
 0001:0003f440       ?supportLocal@CapsuleV@Gu@physx@@QBE?AT__m128@@ABT4@@Z 10040440 f i GuMTD.obj
 0001:0003f4e0       ?supportLocal@CapsuleV@Gu@physx@@QBE?AT__m128@@ABT4@AAH@Z 100404e0 f i GuMTD.obj
 0001:0003f5a0       ?supportLocal@ConvexHullNoScaleV@Gu@physx@@QBE?AT__m128@@ABT4@@Z 100405a0 f i GuMTD.obj
 0001:0003f600       ?supportLocal@ConvexHullNoScaleV@Gu@physx@@QBEXABT__m128@@AAT4@1@Z 10040600 f i GuMTD.obj
 0001:0003f630       ?supportLocal@ConvexHullV@Gu@physx@@QBE?AT__m128@@ABT4@@Z 10040630 f i GuMTD.obj
 0001:0003f6d0       ?supportLocal@ConvexHullV@Gu@physx@@QBE?AT__m128@@ABT4@AAH@Z 100406d0 f i GuMTD.obj
 0001:0003f770       ?supportLocal@ConvexHullV@Gu@physx@@QBEXABT__m128@@AAT4@1@Z 10040770 f i GuMTD.obj
 0001:0003f7a0       ?supportPoint@?$LocalConvex@VCapsuleV@Gu@physx@@@Gu@physx@@UBE?AT__m128@@H@Z 100407a0 f i GuMTD.obj
 0001:0003f7d0       ?supportPoint@?$LocalConvex@VConvexHullV@Gu@physx@@@Gu@physx@@UBE?AT__m128@@H@Z 100407d0 f i GuMTD.obj
 0001:0003f800       ?supportPoint@CapsuleV@Gu@physx@@QBE?AT__m128@@H@Z 10040800 f i GuMTD.obj
 0001:0003f830       ?supportPoint@ConvexHullV@Gu@physx@@QBE?AT__m128@@H@Z 10040830 f i GuMTD.obj
 0001:0003f8a0       ?supportPoint@GjkConvex@Gu@physx@@UBE?AT__m128@@H@Z 100408a0 f i GuMTD.obj
 0001:0003f8c0       ?supportVertexIndex@ConvexHullV@Gu@physx@@QBEIABT__m128@@@Z 100408c0 f i GuMTD.obj
 0001:0003f900       ?supportVertexMinMax@ConvexHullNoScaleV@Gu@physx@@QBEXABT__m128@@AAT4@1@Z 10040900 f i GuMTD.obj
 0001:0003fa00       ?supportVertexMinMax@ConvexHullV@Gu@physx@@QBEXABT__m128@@AAT4@1@Z 10040a00 f i GuMTD.obj
 0001:0003fb60       ?toBuffer@MultiplePersistentContactManifold@Gu@physx@@QAEXPIAE@Z 10040b60 f i GuMTD.obj
 0001:0003fda0       ?transformInv@PsTransformV@aos@shdfnd@physx@@QBE?AV1234@ABV1234@@Z 10040da0 f i GuMTD.obj
 0001:0003fed0       ?transformInv@PxTransform@physx@@QBE?AV12@ABV12@@Z 10040ed0 f i GuMTD.obj
 0001:0003ff80       ?transformInv@PxTransform@physx@@QBE?AVPxVec3@2@ABV32@@Z 10040f80 f i GuMTD.obj
 0001:00040030       ?getOverlapFuncTable@Gu@physx@@YAPAY06Q6A_NABVPxGeometry@2@ABVPxTransform@2@01PAUTriggerCache@12@@ZXZ 10041030 f   GuOverlapTests.obj
 0001:00040040       ?registerHeightFields@Gu@physx@@YAXXZ 10041040 f   GuOverlapTests.obj
 0001:00041ee0       ??$PX_UNUSED@PAUTriggerCache@Gu@physx@@@@YAXABQAUTriggerCache@Gu@physx@@@Z 10042ee0 f i GuOverlapTests.obj
 0001:00041ef0       ??$getConvex@VBoxV@Gu@physx@@@GjkConvexBase@Gu@physx@@QBEABVBoxV@12@XZ 10042ef0 f i GuOverlapTests.obj
 0001:00041f10       ??$gjk@U?$RelativeConvex@VBoxV@Gu@physx@@@Gu@physx@@U?$LocalConvex@VConvexHullV@Gu@physx@@@23@@Gu@physx@@YA?AW4GjkStatus@01@ABU?$RelativeConvex@VBoxV@Gu@physx@@@01@ABU?$LocalConvex@VConvexHullV@Gu@physx@@@01@ABT__m128@@2AAT5@333@Z 10042f10 f i GuOverlapTests.obj
 0001:000428d0       ??$gjk@U?$RelativeConvex@VConvexHullV@Gu@physx@@@Gu@physx@@U?$LocalConvex@VConvexHullV@Gu@physx@@@23@@Gu@physx@@YA?AW4GjkStatus@01@ABU?$RelativeConvex@VConvexHullV@Gu@physx@@@01@ABU?$LocalConvex@VConvexHullV@Gu@physx@@@01@ABT__m128@@2AAT5@333@Z 100438d0 f i GuOverlapTests.obj
 0001:00043290       ??0?$RelativeConvex@VBoxV@Gu@physx@@@Gu@physx@@QAE@ABVBoxV@12@ABVPsMatTransformV@aos@shdfnd@2@@Z 10044290 f i GuOverlapTests.obj
 0001:000432f0       ??0?$RelativeConvex@VConvexHullV@Gu@physx@@@Gu@physx@@QAE@ABVConvexHullV@12@ABVPsMatTransformV@aos@shdfnd@2@@Z 100442f0 f i GuOverlapTests.obj
 0001:00043350       ??0Matrix34@Cm@physx@@QAE@ABVPxTransform@2@@Z 10044350 f i GuOverlapTests.obj
 0001:00043380       ??1?$RelativeConvex@VBoxV@Gu@physx@@@Gu@physx@@UAE@XZ 10044380 f i GuOverlapTests.obj
 0001:000433a0       ??1?$RelativeConvex@VConvexHullV@Gu@physx@@@Gu@physx@@UAE@XZ 100443a0 f i GuOverlapTests.obj
 0001:000433c0       ??_E?$RelativeConvex@VBoxV@Gu@physx@@@Gu@physx@@UAEPAXI@Z 100443c0 f i GuOverlapTests.obj
 0001:000433c0       ??_G?$RelativeConvex@VBoxV@Gu@physx@@@Gu@physx@@UAEPAXI@Z 100443c0 f i GuOverlapTests.obj
 0001:000433f0       ??_E?$RelativeConvex@VConvexHullV@Gu@physx@@@Gu@physx@@UAEPAXI@Z 100443f0 f i GuOverlapTests.obj
 0001:000433f0       ??_G?$RelativeConvex@VConvexHullV@Gu@physx@@@Gu@physx@@UAEPAXI@Z 100443f0 f i GuOverlapTests.obj
 0001:00043420       ?BGetBitMask@aos@shdfnd@physx@@YAIT__m128@@@Z 10044420 f i GuOverlapTests.obj
 0001:00043450       ?getCenter@?$RelativeConvex@VBoxV@Gu@physx@@@Gu@physx@@UBE?AT__m128@@XZ 10044450 f i GuOverlapTests.obj
 0001:000434a0       ?getCenter@?$RelativeConvex@VConvexHullV@Gu@physx@@@Gu@physx@@UBE?AT__m128@@XZ 100444a0 f i GuOverlapTests.obj
 0001:000434f0       ?getIndex@BoxV@Gu@physx@@QBEXT__m128@@AAH@Z 100444f0 f i GuOverlapTests.obj
 0001:00043530       ?getInverse@PxTransform@physx@@QBE?AV12@XZ 10044530 f i GuOverlapTests.obj
 0001:000435a0       ?getSamples2@BigConvexRawData@Gu@physx@@QBEPBEXZ 100445a0 f i GuOverlapTests.obj
 0001:000435c0       ?getSweepMargin@?$RelativeConvex@VBoxV@Gu@physx@@@Gu@physx@@UBE?AT__m128@@XZ 100445c0 f i GuOverlapTests.obj
 0001:000435f0       ?getSweepMargin@?$RelativeConvex@VConvexHullV@Gu@physx@@@Gu@physx@@UBE?AT__m128@@XZ 100445f0 f i GuOverlapTests.obj
 0001:00043620       ?isNormalized@PxVec3@physx@@QBE_NXZ 10044620 f i GuOverlapTests.obj
 0001:000436a0       ?multiply@PxVec3@physx@@QBE?AV12@ABV12@@Z 100446a0 f i GuOverlapTests.obj
 0001:00043700       ?support@?$RelativeConvex@VBoxV@Gu@physx@@@Gu@physx@@UBE?AT__m128@@ABT4@@Z 10044700 f i GuOverlapTests.obj
 0001:00043740       ?support@?$RelativeConvex@VBoxV@Gu@physx@@@Gu@physx@@UBE?AT__m128@@ABT4@AAH@Z 10044740 f i GuOverlapTests.obj
 0001:00043780       ?support@?$RelativeConvex@VConvexHullV@Gu@physx@@@Gu@physx@@UBE?AT__m128@@ABT4@@Z 10044780 f i GuOverlapTests.obj
 0001:000437c0       ?support@?$RelativeConvex@VConvexHullV@Gu@physx@@@Gu@physx@@UBE?AT__m128@@ABT4@AAH@Z 100447c0 f i GuOverlapTests.obj
 0001:00043800       ?supportLocal@BoxV@Gu@physx@@QBE?AT__m128@@ABT4@AAH@Z 10044800 f i GuOverlapTests.obj
 0001:00043890       ?supportPoint@?$RelativeConvex@VBoxV@Gu@physx@@@Gu@physx@@UBE?AT__m128@@H@Z 10044890 f i GuOverlapTests.obj
 0001:000438e0       ?supportPoint@?$RelativeConvex@VConvexHullV@Gu@physx@@@Gu@physx@@UBE?AT__m128@@H@Z 100448e0 f i GuOverlapTests.obj
 0001:00043930       ?supportPoint@BoxV@Gu@physx@@QBE?AT__m128@@H@Z 10044930 f i GuOverlapTests.obj
 0001:000439a0       ?supportRelative@BoxV@Gu@physx@@QBE?AT__m128@@ABT4@ABVPsMatTransformV@aos@shdfnd@3@1@Z 100449a0 f i GuOverlapTests.obj
 0001:00043a00       ?supportRelative@BoxV@Gu@physx@@QBE?AT__m128@@ABT4@ABVPsMatTransformV@aos@shdfnd@3@1AAH@Z 10044a00 f i GuOverlapTests.obj
 0001:00043a60       ?supportRelative@ConvexHullV@Gu@physx@@QBE?AT__m128@@ABT4@ABVPsMatTransformV@aos@shdfnd@3@1@Z 10044a60 f i GuOverlapTests.obj
 0001:00043ac0       ?supportRelative@ConvexHullV@Gu@physx@@QBE?AT__m128@@ABT4@ABVPsMatTransformV@aos@shdfnd@3@1AAH@Z 10044ac0 f i GuOverlapTests.obj
 0001:00043b20       ?transform@PsMatTransformV@aos@shdfnd@physx@@QBE?AT__m128@@ABT5@@Z 10044b20 f i GuOverlapTests.obj
 0001:00043b80       ?transform@PxTransform@physx@@QBE?AV12@ABV12@@Z 10044b80 f i GuOverlapTests.obj
 0001:00043c70       ?getRaycastFuncTable@Gu@physx@@YAAAY06Q6AIABVPxGeometry@2@ABVPxTransform@2@ABVPxVec3@2@2MV?$PxFlags@W4Enum@PxHitFlag@physx@@G@2@IPIAUPxRaycastHit@2@@ZXZ 10044c70 f   GuRaycastTests.obj
 0001:00043d10       ?raycast_box@@YAIABVPxGeometry@physx@@ABVPxTransform@2@ABVPxVec3@2@2MV?$PxFlags@W4Enum@PxHitFlag@physx@@G@2@IPIAUPxRaycastHit@2@@Z 10044d10 f   GuRaycastTests.obj
 0001:00044000       ?raycast_sphere@@YAIABVPxGeometry@physx@@ABVPxTransform@2@ABVPxVec3@2@2MV?$PxFlags@W4Enum@PxHitFlag@physx@@G@2@IPIAUPxRaycastHit@2@@Z 10045000 f   GuRaycastTests.obj
 0001:000441d0       ?raycast_capsule@@YAIABVPxGeometry@physx@@ABVPxTransform@2@ABVPxVec3@2@2MV?$PxFlags@W4Enum@PxHitFlag@physx@@G@2@IPIAUPxRaycastHit@2@@Z 100451d0 f   GuRaycastTests.obj
 0001:00044470       ?raycast_plane@@YAIABVPxGeometry@physx@@ABVPxTransform@2@ABVPxVec3@2@2MV?$PxFlags@W4Enum@PxHitFlag@physx@@G@2@IPIAUPxRaycastHit@2@@Z 10045470 f   GuRaycastTests.obj
 0001:00044600       ?raycast_convexMesh@@YAIABVPxGeometry@physx@@ABVPxTransform@2@ABVPxVec3@2@2MV?$PxFlags@W4Enum@PxHitFlag@physx@@G@2@IPIAUPxRaycastHit@2@@Z 10045600 f   GuRaycastTests.obj
 0001:00044ac0       ?raycast_triangleMesh@@YAIABVPxGeometry@physx@@ABVPxTransform@2@ABVPxVec3@2@2MV?$PxFlags@W4Enum@PxHitFlag@physx@@G@2@IPIAUPxRaycastHit@2@@Z 10045ac0 f   GuRaycastTests.obj
 0001:00044eb0       ?raycast_heightField@@YAIABVPxGeometry@physx@@ABVPxTransform@2@ABVPxVec3@2@2MV?$PxFlags@W4Enum@PxHitFlag@physx@@G@2@IPIAUPxRaycastHit@2@@Z 10045eb0 f   GuRaycastTests.obj
 0001:000452f0       ?registerHeightFields_Raycasts@@YAXXZ 100462f0 f   GuRaycastTests.obj
 0001:00045d20       ??$PX_UNUSED@PIAUPxRaycastHit@physx@@@@YAXABQIAUPxRaycastHit@physx@@@Z 10046d20 f i GuRaycastTests.obj
 0001:00045d30       ??$PX_UNUSED@V?$PxFlags@W4Enum@PxHitFlag@physx@@G@physx@@@@YAXABV?$PxFlags@W4Enum@PxHitFlag@physx@@G@physx@@@Z 10046d30 f i GuRaycastTests.obj
 0001:00045d40       ??$PxMin@H@physx@@YAHHH@Z  10046d40 f i GuRaycastTests.obj
 0001:000478f0       ??Dphysx@@YA?AVMatrix34@Cm@0@ABVPxMeshScale@0@ABVPxTransform@0@@Z 100488f0 f i GuRaycastTests.obj
 0001:00047950       ?PxSign@physx@@YAMM@Z      10048950 f i GuRaycastTests.obj
 0001:00047970       ?ceil@shdfnd@physx@@YAMM@Z 10048970 f i GuRaycastTests.obj
 0001:00047990       ?computePoint@Segment@Gu@physx@@QBEXAAVPxVec3@3@M@Z 10048990 f i GuRaycastTests.obj
 0001:000479e0       ?floatFloor@shdfnd@physx@@YAMM@Z 100489e0 f i GuRaycastTests.obj
 0001:00047a00       ?floor@shdfnd@physx@@YAMM@Z 10048a00 f i GuRaycastTests.obj
 0001:00047a20       ?getConcreteType@PxBase@physx@@QBEGXZ 10048a20 f i GuRaycastTests.obj
 0001:00047a40       ?getInverse@PxMeshScale@physx@@QBE?AV12@XZ 10048a40 f i GuRaycastTests.obj
 0001:00047ab0       ?getMax@HeightField@Gu@physx@@QBEIMI@Z 10048ab0 f i GuRaycastTests.obj
 0001:00047b30       ?getMaxColumn@HeightField@Gu@physx@@QBEIM@Z 10048b30 f i GuRaycastTests.obj
 0001:00047b60       ?getMaxRow@HeightField@Gu@physx@@QBEIM@Z 10048b60 f i GuRaycastTests.obj
 0001:00047b90       ?getMin@HeightField@Gu@physx@@QBEIMI@Z 10048b90 f i GuRaycastTests.obj
 0001:00047c10       ?getMinColumn@HeightField@Gu@physx@@QBEIM@Z 10048c10 f i GuRaycastTests.obj
 0001:00047c40       ?getMinRow@HeightField@Gu@physx@@QBEIM@Z 10048c40 f i GuRaycastTests.obj
 0001:00047c70       ?intersectRayCapsule@Gu@physx@@YA_NABVPxVec3@2@000MAAM@Z 10048c70 f i GuRaycastTests.obj
 0001:00047df0       ?intersectRayCapsule@Gu@physx@@YA_NABVPxVec3@2@0ABVCapsule@12@AAM@Z 10048df0 f i GuRaycastTests.obj
 0001:00047e30       ?intersectRayPlane@Gu@physx@@YA_NABVPxVec3@2@0ABVPxPlane@2@AAMPAV32@@Z 10048e30 f i GuRaycastTests.obj
 0001:00047ed0       ?intersectRayTriangle@Gu@physx@@YA_NABVPxVec3@2@0000AAM11_NM@Z 10048ed0 f i GuRaycastTests.obj
 0001:000481a0       ?isSet@?$PxFlags@W4Enum@PxHitFlag@physx@@G@physx@@QBE_NW4Enum@PxHitFlag@2@@Z 100491a0 f i GuRaycastTests.obj
 0001:000481e0       ?isSet@?$PxFlags@W4Enum@PxMeshGeometryFlag@physx@@E@physx@@QBE_NW4Enum@PxMeshGeometryFlag@2@@Z 100491e0 f i GuRaycastTests.obj
 0001:00048220       ?normalizeSafe@PxVec3@physx@@QAEMXZ 10049220 f i GuRaycastTests.obj
 0001:00048270       ?raycastTriangleMesh@Midphase@Gu@physx@@YAIPBVTriangleMesh@23@ABVPxTriangleMeshGeometry@3@ABVPxTransform@3@ABVPxVec3@3@3MV?$PxFlags@W4Enum@PxHitFlag@physx@@G@3@IPIAUPxRaycastHit@3@@Z 10049270 f i GuRaycastTests.obj
 0001:000482d0       ?rotateTranspose@Matrix34@Cm@physx@@QBE?AVPxVec3@3@ABV43@@Z 100492d0 f i GuRaycastTests.obj
 0001:000482f0       ?sign@intrinsics@physx@@YAMM@Z 100492f0 f i GuRaycastTests.obj
 0001:00048330       ?readChunk@physx@@YAXAAC000AAVPxInputStream@1@@Z 10049330 f   GuSerialize.obj
 0001:00048380       ?readWord@physx@@YAG_NAAVPxInputStream@1@@Z 10049380 f   GuSerialize.obj
 0001:000483c0       ?readDword@physx@@YAI_NAAVPxInputStream@1@@Z 100493c0 f   GuSerialize.obj
 0001:00048400       ?readFloat@physx@@YAM_NAAVPxInputStream@1@@Z 10049400 f   GuSerialize.obj
 0001:00048440       ?writeWord@physx@@YAXG_NAAVPxOutputStream@1@@Z 10049440 f   GuSerialize.obj
 0001:00048470       ?writeDword@physx@@YAXI_NAAVPxOutputStream@1@@Z 10049470 f   GuSerialize.obj
 0001:000484a0       ?writeFloat@physx@@YAXM_NAAVPxOutputStream@1@@Z 100494a0 f   GuSerialize.obj
 0001:000484d0       ?readFloatBuffer@physx@@YA_NPAMI_NAAVPxInputStream@1@@Z 100494d0 f   GuSerialize.obj
 0001:00048530       ?writeFloatBuffer@physx@@YAXPBMI_NAAVPxOutputStream@1@@Z 10049530 f   GuSerialize.obj
 0001:000485b0       ?writeWordBuffer@physx@@YAXPBGI_NAAVPxOutputStream@1@@Z 100495b0 f   GuSerialize.obj
 0001:00048630       ?readWordBuffer@physx@@YAXPAGI_NAAVPxInputStream@1@@Z 10049630 f   GuSerialize.obj
 0001:00048690       ?writeHeader@physx@@YA_NCCCCI_NAAVPxOutputStream@1@@Z 10049690 f   GuSerialize.obj
 0001:00048700       ?readHeader@physx@@YA_NCCCCAAIAA_NAAVPxInputStream@1@@Z 10049700 f   GuSerialize.obj
 0001:000487f0       ?computeMaxIndex@physx@@YAIPBII@Z 100497f0 f   GuSerialize.obj
 0001:00048840       ?computeMaxIndex@physx@@YAGPBGI@Z 10049840 f   GuSerialize.obj
 0001:000488a0       ?storeIndices@physx@@YAXIIPBIAAVPxOutputStream@1@_N@Z 100498a0 f   GuSerialize.obj
 0001:00048960       ?readIndices@physx@@YAXIIPAIAAVPxInputStream@1@_N@Z 10049960 f   GuSerialize.obj
 0001:00048a10       ?WriteHeader@Gu@physx@@YA_NEEEEI_NAAVPxOutputStream@2@@Z 10049a10 f   GuSerialize.obj
 0001:00048a80       ?ReadHeader@Gu@physx@@YA_NEEEEAAIAA_NAAVPxInputStream@2@@Z 10049a80 f   GuSerialize.obj
 0001:00048b70       ?StoreIndices@Gu@physx@@YAXIIPBIAAVPxOutputStream@2@_N@Z 10049b70 f   GuSerialize.obj
 0001:00048c50       ?ReadIndices@Gu@physx@@YAXIIPAIAAVPxInputStream@2@_N@Z 10049c50 f   GuSerialize.obj
 0001:00048d40       ?StoreIndices@Gu@physx@@YAXGIPBGAAVPxOutputStream@2@_N@Z 10049d40 f   GuSerialize.obj
 0001:00048dd0       ?ReadIndices@Gu@physx@@YAXGIPAGAAVPxInputStream@2@_N@Z 10049dd0 f   GuSerialize.obj
 0001:00048e60       ?ReadDwordBuffer@physx@@YA_NPAII_NAAVPxInputStream@1@@Z 10049e60 f i GuSerialize.obj
 0001:00048e80       ?littleEndian@shdfnd@physx@@YADXZ 10049e80 f i GuSerialize.obj
 0001:00048ea0       ?readIntBuffer@physx@@YA_NPAII_NAAVPxInputStream@1@@Z 10049ea0 f i GuSerialize.obj
 0001:00048ec0       ?writeChunk@physx@@YAXCCCCAAVPxOutputStream@1@@Z 10049ec0 f i GuSerialize.obj
 0001:00048f10       ?writeIntBuffer@physx@@YAXPBII_NAAVPxOutputStream@1@@Z 10049f10 f i GuSerialize.obj
 0001:00049010       ?computeCapsule_TriangleMeshMTD@Gu@physx@@YA_NABVPxTriangleMeshGeometry@2@ABVPxTransform@2@AAVCapsuleV@12@M_NAAUPxSweepHit@2@@Z 1004a010 f   GuSweepMTD.obj
 0001:000496a0       ?computeCapsule_HeightFieldMTD@Gu@physx@@YA_NABVPxHeightFieldGeometry@2@ABVPxTransform@2@AAVCapsuleV@12@M_NIAAUPxSweepHit@2@@Z 1004a6a0 f   GuSweepMTD.obj
 0001:00049d10       ?computeBox_TriangleMeshMTD@Gu@physx@@YA_NABVPxTriangleMeshGeometry@2@ABVPxTransform@2@ABVBox@12@1M_NAAUPxSweepHit@2@@Z 1004ad10 f   GuSweepMTD.obj
 0001:0004a5f0       ?computeBox_HeightFieldMTD@Gu@physx@@YA_NABVPxHeightFieldGeometry@2@ABVPxTransform@2@ABVBox@12@1M_NIAAUPxSweepHit@2@@Z 1004b5f0 f   GuSweepMTD.obj
 0001:0004aee0       ?computeConvex_TriangleMeshMTD@Gu@physx@@YA_NABVPxTriangleMeshGeometry@2@ABVPxTransform@2@ABVPxConvexMeshGeometry@2@1M_NAAUPxSweepHit@2@@Z 1004bee0 f   GuSweepMTD.obj
 0001:0004b8f0       ?computeConvex_HeightFieldMTD@Gu@physx@@YA_NABVPxHeightFieldGeometry@2@ABVPxTransform@2@ABVPxConvexMeshGeometry@2@1M_NIAAUPxSweepHit@2@@Z 1004c8f0 f   GuSweepMTD.obj
 0001:0004c300       ?computeSphere_SphereMTD@Gu@physx@@YA_NABVSphere@12@0AAUPxSweepHit@2@@Z 1004d300 f   GuSweepMTD.obj
 0001:0004c3b0       ?computeSphere_CapsuleMTD@Gu@physx@@YA_NABVSphere@12@ABVCapsule@12@AAUPxSweepHit@2@@Z 1004d3b0 f   GuSweepMTD.obj
 0001:0004c490       ?computeCapsule_CapsuleMTD@Gu@physx@@YA_NABVCapsule@12@0AAUPxSweepHit@2@@Z 1004d490 f   GuSweepMTD.obj
 0001:0004c580       ?computePlane_CapsuleMTD@Gu@physx@@YA_NABVPxPlane@2@ABVCapsule@12@AAUPxSweepHit@2@@Z 1004d580 f   GuSweepMTD.obj
 0001:0004c650       ?computePlane_BoxMTD@Gu@physx@@YA_NABVPxPlane@2@ABVBox@12@AAUPxSweepHit@2@@Z 1004d650 f   GuSweepMTD.obj
 0001:0004c750       ?computePlane_ConvexMTD@Gu@physx@@YA_NABVPxPlane@2@ABVPxConvexMeshGeometry@2@ABVPxTransform@2@AAUPxSweepHit@2@@Z 1004d750 f   GuSweepMTD.obj
 0001:0004cec0       ??0?$Array@IVNamedAllocator@shdfnd@physx@@@shdfnd@physx@@QAE@ABVNamedAllocator@12@@Z 1004dec0 f i GuSweepMTD.obj
 0001:0004cf00       ??0?$MeshHitCallback@UPxRaycastHit@physx@@@Gu@physx@@QAE@W4Enum@CallbackMode@12@@Z 1004df00 f i GuSweepMTD.obj
 0001:0004cf30       ??0FastVertex2ShapeScaling@Cm@physx@@QAE@ABVPxMeshScale@2@@Z 1004df30 f i GuSweepMTD.obj
 0001:0004cf60       ??0FastVertex2ShapeScaling@Cm@physx@@QAE@XZ 1004df60 f i GuSweepMTD.obj
 0001:0004cfc0       ??0MTDTriangle@@QAE@XZ     1004dfc0 f i GuSweepMTD.obj
 0001:0004cfe0       ??0MeshMTDGenerationCallback@@QAE@AAV?$Array@IVNamedAllocator@shdfnd@physx@@@shdfnd@physx@@@Z 1004dfe0 f i GuSweepMTD.obj
 0001:0004d010       ??0MidPhaseQueryLocalReport@@QAE@AAV?$Array@IVNamedAllocator@shdfnd@physx@@@shdfnd@physx@@@Z 1004e010 f i GuSweepMTD.obj
 0001:0004d040       ??0PsMatTransformV@aos@shdfnd@physx@@QAE@ABT__m128@@ABUMat33V@123@@Z 1004e040 f i GuSweepMTD.obj
 0001:0004d080       ??0PxTransform@physx@@QAE@ABV01@@Z 1004e080 f i GuSweepMTD.obj
 0001:0004d0b0       ??0TriangleV@Gu@physx@@QAE@XZ 1004e0b0 f i GuSweepMTD.obj
 0001:0004d100       ??1?$Array@IVNamedAllocator@shdfnd@physx@@@shdfnd@physx@@QAE@XZ 1004e100 f i GuSweepMTD.obj
 0001:0004d160       ??1?$MeshHitCallback@UPxRaycastHit@physx@@@Gu@physx@@UAE@XZ 1004e160 f i GuSweepMTD.obj
 0001:0004d180       ??1MTDTriangle@@QAE@XZ     1004e180 f i GuSweepMTD.obj
 0001:0004d1a0       ??1MeshMTDGenerationCallback@@UAE@XZ 1004e1a0 f i GuSweepMTD.obj
 0001:0004d1c0       ??1MidPhaseQueryLocalReport@@UAE@XZ 1004e1c0 f i GuSweepMTD.obj
 0001:0004d1e0       ??1TriangleV@Gu@physx@@QAE@XZ 1004e1e0 f i GuSweepMTD.obj
 0001:0004d200       ??A?$Array@IVNamedAllocator@shdfnd@physx@@@shdfnd@physx@@QAEAAII@Z 1004e200 f i GuSweepMTD.obj
 0001:0004d260       ??DFastVertex2ShapeScaling@Cm@physx@@QBE?AVPxVec3@2@ABV32@@Z 1004e260 f i GuSweepMTD.obj
 0001:0004d280       ??DMatrix34@Cm@physx@@QBE?AV012@ABV012@@Z 1004e280 f i GuSweepMTD.obj
 0001:0004d2e0       ??Dphysx@@YA?AVMatrix34@Cm@0@ABVPxTransform@0@ABVPxMeshScale@0@@Z 1004e2e0 f i GuSweepMTD.obj
 0001:0004d330       ??_E?$MeshHitCallback@UPxRaycastHit@physx@@@Gu@physx@@UAEPAXI@Z 1004e330 f i GuSweepMTD.obj
 0001:0004d330       ??_G?$MeshHitCallback@UPxRaycastHit@physx@@@Gu@physx@@UAEPAXI@Z 1004e330 f i GuSweepMTD.obj
 0001:0004d360       ??_EMeshMTDGenerationCallback@@UAEPAXI@Z 1004e360 f i GuSweepMTD.obj
 0001:0004d360       ??_GMeshMTDGenerationCallback@@UAEPAXI@Z 1004e360 f i GuSweepMTD.obj
 0001:0004d390       ??_EMidPhaseQueryLocalReport@@UAEPAXI@Z 1004e390 f i GuSweepMTD.obj
 0001:0004d390       ??_GMidPhaseQueryLocalReport@@UAEPAXI@Z 1004e390 f i GuSweepMTD.obj
 0001:0004d3c0       ?CalculateMTDBoxMargin@Gu@physx@@YA?AT__m128@@ABT3@@Z 1004e3c0 f i GuSweepMTD.obj
 0001:0004d430       ?CalculateMTDConvexMargin@Gu@physx@@YA?AT__m128@@PBUConvexHullData@12@ABT3@@Z 1004e430 f i GuSweepMTD.obj
 0001:0004d4d0       ?QuatTransform@aos@shdfnd@physx@@YA?AT__m128@@T4@00@Z 1004e4d0 f i GuSweepMTD.obj
 0001:0004d670       ?allocate@?$Array@IVNamedAllocator@shdfnd@physx@@@shdfnd@physx@@IAEPAII@Z 1004e670 f i GuSweepMTD.obj
 0001:0004d6e0       ?begin@?$Array@IVNamedAllocator@shdfnd@physx@@@shdfnd@physx@@QAEPAIXZ 1004e6e0 f i GuSweepMTD.obj
 0001:0004d6f0       ?capacity@?$Array@IVNamedAllocator@shdfnd@physx@@@shdfnd@physx@@QBEIXZ 1004e6f0 f i GuSweepMTD.obj
 0001:0004d710       ?capacityIncrement@?$Array@IVNamedAllocator@shdfnd@physx@@@shdfnd@physx@@IBEIXZ 1004e710 f i GuSweepMTD.obj
 0001:0004d750       ?computeWorldTriangle@TriangleMesh@Gu@physx@@QBEXAAVPxTriangle@3@IABVMatrix34@Cm@3@_NPIAI3@Z 1004e750 f i GuSweepMTD.obj
 0001:0004d9c0       ?copy@?$Array@IVNamedAllocator@shdfnd@physx@@@shdfnd@physx@@KAXPAI0PBI@Z 1004e9c0 f i GuSweepMTD.obj
 0001:0004da10       ?createDiagonal@PxMat33@physx@@SA?BV12@ABVPxVec3@2@@Z 1004ea10 f i GuSweepMTD.obj
 0001:0004daa0       ?deallocate@?$Array@IVNamedAllocator@shdfnd@physx@@@shdfnd@physx@@IAEXPAX@Z 1004eaa0 f i GuSweepMTD.obj
 0001:0004dac0       ?destroy@?$Array@IVNamedAllocator@shdfnd@physx@@@shdfnd@physx@@KAXPAI0@Z 1004eac0 f i GuSweepMTD.obj
 0001:0004dae0       ?empty@?$Array@IVNamedAllocator@shdfnd@physx@@@shdfnd@physx@@QBE_NXZ 1004eae0 f i GuSweepMTD.obj
 0001:0004db10       ?forceSize_Unsafe@?$Array@IVNamedAllocator@shdfnd@physx@@@shdfnd@physx@@QAEXI@Z 1004eb10 f i GuSweepMTD.obj
 0001:0004db70       ?getAdjacencies@TriangleMesh@Gu@physx@@QBEPBIXZ 1004eb70 f i GuSweepMTD.obj
 0001:0004db90       ?getConvexEdgeFlags@Gu@physx@@YAEPBEI@Z 1004eb90 f i GuSweepMTD.obj
 0001:0004dbc0       ?getDeterminant@PxMat33@physx@@QBEMXZ 1004ebc0 f i GuSweepMTD.obj
 0001:0004dbf0       ?getExtraTrigData@TriangleMesh@Gu@physx@@QBEPBEXZ 1004ebf0 f i GuSweepMTD.obj
 0001:0004dc10       ?getInverse@PxMat33@physx@@QBE?BV12@XZ 1004ec10 f i GuSweepMTD.obj
 0001:0004de30       ?getLocalTriangle@TriangleMesh@Gu@physx@@QBEXAAVPxTriangle@3@I_N@Z 1004ee30 f i GuSweepMTD.obj
 0001:0004df50       ?getTrianglesFast@TriangleMesh@Gu@physx@@QBEPBXXZ 1004ef50 f i GuSweepMTD.obj
 0001:0004df70       ?getVerticesFast@TriangleMesh@Gu@physx@@QBEPBVPxVec3@3@XZ 1004ef70 f i GuSweepMTD.obj
 0001:0004df90       ?grow@?$Array@IVNamedAllocator@shdfnd@physx@@@shdfnd@physx@@IAEXI@Z 1004ef90 f i GuSweepMTD.obj
 0001:0004dff0       ?growAndPushBack@?$Array@IVNamedAllocator@shdfnd@physx@@@shdfnd@physx@@IAEAAIABI@Z 1004eff0 f i GuSweepMTD.obj
 0001:0004e120       ?has16BitIndices@TriangleMesh@Gu@physx@@QBE_NXZ 1004f120 f i GuSweepMTD.obj
 0001:0004e150       ?hasNegativeDeterminant@PxMeshScale@physx@@QBE_NXZ 1004f150 f i GuSweepMTD.obj
 0001:0004e190       ?init@FastVertex2ShapeScaling@Cm@physx@@QAEXABVPxMeshScale@3@@Z 1004f190 f i GuSweepMTD.obj
 0001:0004e1b0       ?init@FastVertex2ShapeScaling@Cm@physx@@QAEXABVPxVec3@3@ABVPxQuat@3@@Z 1004f1b0 f i GuSweepMTD.obj
 0001:0004e280       ?intersectOBB@Midphase@Gu@physx@@YAXPBVTriangleMesh@23@ABVBox@23@AAU?$MeshHitCallback@UPxRaycastHit@physx@@@23@_N3@Z 1004f280 f i GuSweepMTD.obj
 0001:0004e2c0       ?isInUserMemory@?$Array@IVNamedAllocator@shdfnd@physx@@@shdfnd@physx@@QBEIXZ 1004f2c0 f i GuSweepMTD.obj
 0001:0004e2e0       ?normal@TriangleV@Gu@physx@@QBE?AT__m128@@XZ 1004f2e0 f i GuSweepMTD.obj
 0001:0004e3a0       ?onEvent@MidPhaseQueryLocalReport@@UAE_NIPAI@Z 1004f3a0 f i GuSweepMTD.obj
 0001:0004e3f0       ?processHit@MeshMTDGenerationCallback@@UAE_NABUPxRaycastHit@physx@@ABVPxVec3@3@11AAMPBI@Z 1004f3f0 f i GuSweepMTD.obj
 0001:0004e420       ?pushBack@?$Array@IVNamedAllocator@shdfnd@physx@@@shdfnd@physx@@QAEAAIABI@Z 1004f420 f i GuSweepMTD.obj
 0001:0004e4a0       ?recreate@?$Array@IVNamedAllocator@shdfnd@physx@@@shdfnd@physx@@IAEXI@Z 1004f4a0 f i GuSweepMTD.obj
 0001:0004e570       ?reserve@?$Array@IVNamedAllocator@shdfnd@physx@@@shdfnd@physx@@QAEXI@Z 1004f570 f i GuSweepMTD.obj
 0001:0004e5a0       ?rotate@PsTransformV@aos@shdfnd@physx@@QBE?AT__m128@@ABT5@@Z 1004f5a0 f i GuSweepMTD.obj
 0001:0004e630       ?setCenter@CapsuleV@Gu@physx@@QAEXABT__m128@@@Z 1004f630 f i GuSweepMTD.obj
 0001:0004e6c0       ?setShapeSpaceCenterofMass@SupportLocal@Gu@physx@@QAEXABT__m128@@@Z 1004f6c0 f i GuSweepMTD.obj
 0001:0004e6e0       ?size@?$Array@IVNamedAllocator@shdfnd@physx@@@shdfnd@physx@@QBEIXZ 1004f6e0 f i GuSweepMTD.obj
 0001:0004e700       ?transform@PsTransformV@aos@shdfnd@physx@@QBE?AT__m128@@ABT5@@Z 1004f700 f i GuSweepMTD.obj
 0001:0004e7e0       ?sweepCapsuleTriangles@Gu@physx@@YA_NIPBVPxTriangle@2@_NABVPxCapsuleGeometry@2@ABVPxTransform@2@ABVPxVec3@2@MAAUPxSweepHit@2@PBIMV?$PxFlags@W4Enum@PxHitFlag@physx@@G@2@@Z 1004f7e0 f   GuSweepSharedTests.obj
 0001:0004ed00       ?sweepCapsule_SphereGeom@@YA_NABVPxGeometry@physx@@ABVPxTransform@2@ABVPxCapsuleGeometry@2@1ABVCapsule@Gu@2@ABVPxVec3@2@MAAUPxSweepHit@2@V?$PxFlags@W4Enum@PxHitFlag@physx@@G@2@M@Z 1004fd00 f   GuSweepSharedTests.obj
 0001:0004ef20       ?sweepCapsule_PlaneGeom@@YA_NABVPxGeometry@physx@@ABVPxTransform@2@ABVPxCapsuleGeometry@2@1ABVCapsule@Gu@2@ABVPxVec3@2@MAAUPxSweepHit@2@V?$PxFlags@W4Enum@PxHitFlag@physx@@G@2@M@Z 1004ff20 f   GuSweepSharedTests.obj
 0001:0004f1e0       ?sweepCapsule_CapsuleGeom@@YA_NABVPxGeometry@physx@@ABVPxTransform@2@ABVPxCapsuleGeometry@2@1ABVCapsule@Gu@2@ABVPxVec3@2@MAAUPxSweepHit@2@V?$PxFlags@W4Enum@PxHitFlag@physx@@G@2@M@Z 100501e0 f   GuSweepSharedTests.obj
 0001:0004f370       ?sweepCapsule_ConvexGeom@@YA_NABVPxGeometry@physx@@ABVPxTransform@2@ABVPxCapsuleGeometry@2@1ABVCapsule@Gu@2@ABVPxVec3@2@MAAUPxSweepHit@2@V?$PxFlags@W4Enum@PxHitFlag@physx@@G@2@M@Z 10050370 f   GuSweepSharedTests.obj
 0001:0004f910       ?sweepBox_PlaneGeom@@YA_NABVPxGeometry@physx@@ABVPxTransform@2@ABVPxBoxGeometry@2@1ABVBox@Gu@2@ABVPxVec3@2@MAAUPxSweepHit@2@V?$PxFlags@W4Enum@PxHitFlag@physx@@G@2@M@Z 10050910 f   GuSweepSharedTests.obj
 0001:0004fb90       ?sweepBox_ConvexGeom@@YA_NABVPxGeometry@physx@@ABVPxTransform@2@ABVPxBoxGeometry@2@1ABVBox@Gu@2@ABVPxVec3@2@MAAUPxSweepHit@2@V?$PxFlags@W4Enum@PxHitFlag@physx@@G@2@M@Z 10050b90 f   GuSweepSharedTests.obj
 0001:00050040       ?sweepConvex_SphereGeom@@YA_NABVPxGeometry@physx@@ABVPxTransform@2@ABVPxConvexMeshGeometry@2@1ABVPxVec3@2@MAAUPxSweepHit@2@V?$PxFlags@W4Enum@PxHitFlag@physx@@G@2@M@Z 10051040 f   GuSweepSharedTests.obj
 0001:00050500       ?sweepConvex_PlaneGeom@@YA_NABVPxGeometry@physx@@ABVPxTransform@2@ABVPxConvexMeshGeometry@2@1ABVPxVec3@2@MAAUPxSweepHit@2@V?$PxFlags@W4Enum@PxHitFlag@physx@@G@2@M@Z 10051500 f   GuSweepSharedTests.obj
 0001:00050780       ?sweepConvex_CapsuleGeom@@YA_NABVPxGeometry@physx@@ABVPxTransform@2@ABVPxConvexMeshGeometry@2@1ABVPxVec3@2@MAAUPxSweepHit@2@V?$PxFlags@W4Enum@PxHitFlag@physx@@G@2@M@Z 10051780 f   GuSweepSharedTests.obj
 0001:00050900       ?sweepConvex_BoxGeom@@YA_NABVPxGeometry@physx@@ABVPxTransform@2@ABVPxConvexMeshGeometry@2@1ABVPxVec3@2@MAAUPxSweepHit@2@V?$PxFlags@W4Enum@PxHitFlag@physx@@G@2@M@Z 10051900 f   GuSweepSharedTests.obj
 0001:00050a80       ?sweepConvex_ConvexGeom@@YA_NABVPxGeometry@physx@@ABVPxTransform@2@ABVPxConvexMeshGeometry@2@1ABVPxVec3@2@MAAUPxSweepHit@2@V?$PxFlags@W4Enum@PxHitFlag@physx@@G@2@M@Z 10051a80 f   GuSweepSharedTests.obj
 0001:00050f60       ??$PX_UNUSED@T__m128@@@@YAXABT__m128@@@Z 10051f60 f i GuSweepSharedTests.obj
 0001:00050f70       ??$gjkPenetration@U?$LocalConvex@VCapsuleV@Gu@physx@@@Gu@physx@@U?$LocalConvex@VConvexHullV@Gu@physx@@@23@@Gu@physx@@YA?AW4GjkStatus@01@ABU?$LocalConvex@VCapsuleV@Gu@physx@@@01@ABU?$LocalConvex@VConvexHullV@Gu@physx@@@01@ABT__m128@@2_NPIAE4AAEAAUGjkOutput@01@@Z 10051f70 f i GuSweepSharedTests.obj
 0001:00051a40       ??$gjkPenetration@U?$RelativeConvex@VBoxV@Gu@physx@@@Gu@physx@@U?$LocalConvex@VConvexHullV@Gu@physx@@@23@@Gu@physx@@YA?AW4GjkStatus@01@ABU?$RelativeConvex@VBoxV@Gu@physx@@@01@ABU?$LocalConvex@VConvexHullV@Gu@physx@@@01@ABT__m128@@2_NPIAE4AAEAAUGjkOutput@01@@Z 10052a40 f i GuSweepSharedTests.obj
 0001:00052510       ??$gjkPenetration@U?$RelativeConvex@VConvexHullV@Gu@physx@@@Gu@physx@@U?$LocalConvex@VConvexHullV@Gu@physx@@@23@@Gu@physx@@YA?AW4GjkStatus@01@ABU?$RelativeConvex@VConvexHullV@Gu@physx@@@01@ABU?$LocalConvex@VConvexHullV@Gu@physx@@@01@ABT__m128@@2_NPIAE4AAEAAUGjkOutput@01@@Z 10053510 f i GuSweepSharedTests.obj
 0001:00052fe0       ??$gjkRaycast@U?$LocalConvex@VCapsuleV@Gu@physx@@@Gu@physx@@U?$LocalConvex@VConvexHullV@Gu@physx@@@23@@Gu@physx@@YA_NABU?$LocalConvex@VCapsuleV@Gu@physx@@@01@ABU?$LocalConvex@VConvexHullV@Gu@physx@@@01@ABT__m128@@222AAT4@33M@Z 10053fe0 f i GuSweepSharedTests.obj
 0001:00053be0       ??$gjkRaycast@U?$RelativeConvex@VBoxV@Gu@physx@@@Gu@physx@@U?$LocalConvex@VConvexHullV@Gu@physx@@@23@@Gu@physx@@YA_NABU?$RelativeConvex@VBoxV@Gu@physx@@@01@ABU?$LocalConvex@VConvexHullV@Gu@physx@@@01@ABT__m128@@222AAT4@33M@Z 10054be0 f i GuSweepSharedTests.obj
 0001:000547e0       ??$gjkRaycast@U?$RelativeConvex@VConvexHullV@Gu@physx@@@Gu@physx@@U?$LocalConvex@VConvexHullV@Gu@physx@@@23@@Gu@physx@@YA_NABU?$RelativeConvex@VConvexHullV@Gu@physx@@@01@ABU?$LocalConvex@VConvexHullV@Gu@physx@@@01@ABT__m128@@222AAT4@33M@Z 100557e0 f i GuSweepSharedTests.obj
 0001:000553e0       ??$gjkRaycastPenetration@U?$LocalConvex@VCapsuleV@Gu@physx@@@Gu@physx@@U?$LocalConvex@VConvexHullV@Gu@physx@@@23@@Gu@physx@@YA_NABU?$LocalConvex@VCapsuleV@Gu@physx@@@01@ABU?$LocalConvex@VConvexHullV@Gu@physx@@@01@ABT__m128@@222AAT4@33M_N@Z 100563e0 f i GuSweepSharedTests.obj
 0001:00055690       ??$gjkRaycastPenetration@U?$RelativeConvex@VBoxV@Gu@physx@@@Gu@physx@@U?$LocalConvex@VConvexHullV@Gu@physx@@@23@@Gu@physx@@YA_NABU?$RelativeConvex@VBoxV@Gu@physx@@@01@ABU?$LocalConvex@VConvexHullV@Gu@physx@@@01@ABT__m128@@222AAT4@33M_N@Z 10056690 f i GuSweepSharedTests.obj
 0001:00055950       ??$gjkRaycastPenetration@U?$RelativeConvex@VConvexHullV@Gu@physx@@@Gu@physx@@U?$LocalConvex@VConvexHullV@Gu@physx@@@23@@Gu@physx@@YA_NABU?$RelativeConvex@VConvexHullV@Gu@physx@@@01@ABU?$LocalConvex@VConvexHullV@Gu@physx@@@01@ABT__m128@@222AAT4@33M_N@Z 10056950 f i GuSweepSharedTests.obj
 0001:00055c10       ??0BoxPadded@Gu@physx@@QAE@XZ 10056c10 f i GuSweepSharedTests.obj
 0001:00055c30       ??0GjkOutput@Gu@physx@@QAE@XZ 10056c30 f i GuSweepSharedTests.obj
 0001:00055ca0       ??0PxPlane@physx@@QAE@XZ   10056ca0 f i GuSweepSharedTests.obj
 0001:00055cc0       ??1BoxPadded@Gu@physx@@QAE@XZ 10056cc0 f i GuSweepSharedTests.obj
 0001:00055ce0       ??S?$PxFlags@W4Enum@PxHitFlag@physx@@G@physx@@QBE?AV01@XZ 10056ce0 f i GuSweepSharedTests.obj
 0001:00055d20       ??Sphysx@@YA?AV?$PxFlags@W4Enum@PxHitFlag@physx@@G@0@W4Enum@PxHitFlag@0@@Z 10056d20 f i GuSweepSharedTests.obj
 0001:00055d50       ??_4?$PxFlags@W4Enum@PxHitFlag@physx@@G@physx@@QAEAAV01@ABV01@@Z 10056d50 f i GuSweepSharedTests.obj
 0001:00055d80       ?BAllEqFFFF@aos@shdfnd@physx@@YAIT__m128@@@Z 10056d80 f i GuSweepSharedTests.obj
 0001:00055dd0       ?GJKCPairDoSimplex@Gu@physx@@YA?AT__m128@@PIAT3@00PIAH1ABT3@AAI@Z 10056dd0 f i GuSweepSharedTests.obj
 0001:00055ee0       ?QuatRotateInv@aos@shdfnd@physx@@YA?AT__m128@@T4@0@Z 10056ee0 f i GuSweepSharedTests.obj
 0001:00056060       ?V3NormalizeSafe@aos@shdfnd@physx@@YA?AT__m128@@T4@0@Z 10057060 f i GuSweepSharedTests.obj
 0001:00056150       ?assignWarmStartValue@Gu@physx@@YAXPIAE0AAEPIAH2I@Z 10057150 f i GuSweepSharedTests.obj
 0001:00056200       ?closestPtPointTriangle@Gu@physx@@YA?AT__m128@@PIAT3@PAT3@1PIAH2AAI@Z 10057200 f i GuSweepSharedTests.obj
 0001:00056560       ?getGjkConvex@?$LocalConvex@VCapsuleV@Gu@physx@@@Gu@physx@@QBE?AU123@XZ 10057560 f i GuSweepSharedTests.obj
 0001:00056580       ?getGjkConvex@?$LocalConvex@VConvexHullV@Gu@physx@@@Gu@physx@@QBE?AU123@XZ 10057580 f i GuSweepSharedTests.obj
 0001:000565a0       ?getGjkConvex@?$RelativeConvex@VBoxV@Gu@physx@@@Gu@physx@@QBE?AU123@XZ 100575a0 f i GuSweepSharedTests.obj
 0001:000565d0       ?getGjkConvex@?$RelativeConvex@VConvexHullV@Gu@physx@@@Gu@physx@@QBE?AU123@XZ 100575d0 f i GuSweepSharedTests.obj
 0001:00056600       ?getSweepContactEps@Gu@physx@@YA?AT__m128@@ABT3@0@Z 10057600 f i GuSweepSharedTests.obj
 0001:00056680       ?loadTransformU@aos@shdfnd@physx@@YA?AVPsTransformV@123@ABVPxTransform@3@@Z 10057680 f i GuSweepSharedTests.obj
 0001:000566f0       ?rotateInv@PsTransformV@aos@shdfnd@physx@@QBE?AT__m128@@ABT5@@Z 100576f0 f i GuSweepSharedTests.obj
 0001:00056780       ?to8@shdfnd@physx@@YAEH@Z  10057780 f i GuSweepSharedTests.obj
 0001:00056800       ?to8@shdfnd@physx@@YAEI@Z  10057800 f i GuSweepSharedTests.obj
 0001:00056850       ?transformPlaneToShapeSpace@FastVertex2ShapeScaling@Cm@physx@@QBEXABVPxVec3@3@MAAV43@AAM@Z 10057850 f i GuSweepSharedTests.obj
 0001:000568c0       ?getSweepFuncTable@Gu@physx@@YAABUGeomSweepFuncs@12@XZ 100578c0 f   GuSweepTests.obj
 0001:000568d0       ?sweepBoxTriangles@Gu@physx@@YA_NIPBVPxTriangle@2@_NABVPxBoxGeometry@2@ABVPxTransform@2@ABVPxVec3@2@MAAUPxSweepHit@2@PBIMV?$PxFlags@W4Enum@PxHitFlag@physx@@G@2@@Z 100578d0 f   GuSweepTests.obj
 0001:00057350       ?sweepCapsule_BoxGeom@@YA_NABVPxGeometry@physx@@ABVPxTransform@2@ABVPxCapsuleGeometry@2@1ABVCapsule@Gu@2@ABVPxVec3@2@MAAUPxSweepHit@2@V?$PxFlags@W4Enum@PxHitFlag@physx@@G@2@M@Z 10058350 f   GuSweepTests.obj
 0001:000578e0       ?sweepBox_SphereGeom@@YA_NABVPxGeometry@physx@@ABVPxTransform@2@ABVPxBoxGeometry@2@1ABVBox@Gu@2@ABVPxVec3@2@MAAUPxSweepHit@2@V?$PxFlags@W4Enum@PxHitFlag@physx@@G@2@M@Z 100588e0 f   GuSweepTests.obj
 0001:00057dc0       ?sweepBox_CapsuleGeom@@YA_NABVPxGeometry@physx@@ABVPxTransform@2@ABVPxBoxGeometry@2@1ABVBox@Gu@2@ABVPxVec3@2@MAAUPxSweepHit@2@V?$PxFlags@W4Enum@PxHitFlag@physx@@G@2@M@Z 10058dc0 f   GuSweepTests.obj
 0001:00058330       ?sweepBox_BoxGeom@@YA_NABVPxGeometry@physx@@ABVPxTransform@2@ABVPxBoxGeometry@2@1ABVBox@Gu@2@ABVPxVec3@2@MAAUPxSweepHit@2@V?$PxFlags@W4Enum@PxHitFlag@physx@@G@2@M@Z 10059330 f   GuSweepTests.obj
 0001:000589c0       ?registerHeightFields_Sweeps@@YAXXZ 100599c0 f   GuSweepTests.obj
 0001:00058a20       ??$PX_UNUSED@UPxSweepHit@physx@@@@YAXABUPxSweepHit@physx@@@Z 10059a20 f i GuSweepTests.obj
 0001:00058a30       ??$PX_UNUSED@VBox@Gu@physx@@@@YAXABVBox@Gu@physx@@@Z 10059a30 f i GuSweepTests.obj
 0001:00058a40       ??$PX_UNUSED@VCapsule@Gu@physx@@@@YAXABVCapsule@Gu@physx@@@Z 10059a40 f i GuSweepTests.obj
 0001:00058a50       ??$PX_UNUSED@VPxConvexMeshGeometry@physx@@@@YAXABVPxConvexMeshGeometry@physx@@@Z 10059a50 f i GuSweepTests.obj
 0001:00058a60       ??$getConvex@VTriangleV@Gu@physx@@@GjkConvexBase@Gu@physx@@QBEABVTriangleV@12@XZ 10059a60 f i GuSweepTests.obj
 0001:00058a80       ??$gjkPenetration@U?$LocalConvex@VCapsuleV@Gu@physx@@@Gu@physx@@U?$LocalConvex@VBoxV@Gu@physx@@@23@@Gu@physx@@YA?AW4GjkStatus@01@ABU?$LocalConvex@VCapsuleV@Gu@physx@@@01@ABU?$LocalConvex@VBoxV@Gu@physx@@@01@ABT__m128@@2_NPIAE4AAEAAUGjkOutput@01@@Z 10059a80 f i GuSweepTests.obj
 0001:00059550       ??$gjkPenetration@U?$LocalConvex@VTriangleV@Gu@physx@@@Gu@physx@@U?$LocalConvex@VBoxV@Gu@physx@@@23@@Gu@physx@@YA?AW4GjkStatus@01@ABU?$LocalConvex@VTriangleV@Gu@physx@@@01@ABU?$LocalConvex@VBoxV@Gu@physx@@@01@ABT__m128@@2_NPIAE4AAEAAUGjkOutput@01@@Z 1005a550 f i GuSweepTests.obj
 0001:0005a020       ??$gjkPenetration@U?$RelativeConvex@VBoxV@Gu@physx@@@Gu@physx@@U?$LocalConvex@VBoxV@Gu@physx@@@23@@Gu@physx@@YA?AW4GjkStatus@01@ABU?$RelativeConvex@VBoxV@Gu@physx@@@01@ABU?$LocalConvex@VBoxV@Gu@physx@@@01@ABT__m128@@2_NPIAE4AAEAAUGjkOutput@01@@Z 1005b020 f i GuSweepTests.obj
 0001:0005aaf0       ??$gjkRaycast@U?$LocalConvex@VCapsuleV@Gu@physx@@@Gu@physx@@U?$LocalConvex@VBoxV@Gu@physx@@@23@@Gu@physx@@YA_NABU?$LocalConvex@VCapsuleV@Gu@physx@@@01@ABU?$LocalConvex@VBoxV@Gu@physx@@@01@ABT__m128@@222AAT4@33M@Z 1005baf0 f i GuSweepTests.obj
 0001:0005b6f0       ??$gjkRaycast@U?$LocalConvex@VTriangleV@Gu@physx@@@Gu@physx@@U?$LocalConvex@VBoxV@Gu@physx@@@23@@Gu@physx@@YA_NABU?$LocalConvex@VTriangleV@Gu@physx@@@01@ABU?$LocalConvex@VBoxV@Gu@physx@@@01@ABT__m128@@222AAT4@33M@Z 1005c6f0 f i GuSweepTests.obj
 0001:0005c2f0       ??$gjkRaycast@U?$RelativeConvex@VBoxV@Gu@physx@@@Gu@physx@@U?$LocalConvex@VBoxV@Gu@physx@@@23@@Gu@physx@@YA_NABU?$RelativeConvex@VBoxV@Gu@physx@@@01@ABU?$LocalConvex@VBoxV@Gu@physx@@@01@ABT__m128@@222AAT4@33M@Z 1005d2f0 f i GuSweepTests.obj
 0001:0005cef0       ??$gjkRaycastPenetration@U?$LocalConvex@VCapsuleV@Gu@physx@@@Gu@physx@@U?$LocalConvex@VBoxV@Gu@physx@@@23@@Gu@physx@@YA_NABU?$LocalConvex@VCapsuleV@Gu@physx@@@01@ABU?$LocalConvex@VBoxV@Gu@physx@@@01@ABT__m128@@222AAT4@33M_N@Z 1005def0 f i GuSweepTests.obj
 0001:0005d1a0       ??$gjkRaycastPenetration@U?$LocalConvex@VTriangleV@Gu@physx@@@Gu@physx@@U?$LocalConvex@VBoxV@Gu@physx@@@23@@Gu@physx@@YA_NABU?$LocalConvex@VTriangleV@Gu@physx@@@01@ABU?$LocalConvex@VBoxV@Gu@physx@@@01@ABT__m128@@222AAT4@33M_N@Z 1005e1a0 f i GuSweepTests.obj
 0001:0005d450       ??$gjkRaycastPenetration@U?$RelativeConvex@VBoxV@Gu@physx@@@Gu@physx@@U?$LocalConvex@VBoxV@Gu@physx@@@23@@Gu@physx@@YA_NABU?$RelativeConvex@VBoxV@Gu@physx@@@01@ABU?$LocalConvex@VBoxV@Gu@physx@@@01@ABT__m128@@222AAT4@33M_N@Z 1005e450 f i GuSweepTests.obj
 0001:0005d710       ??0?$LocalConvex@VBoxV@Gu@physx@@@Gu@physx@@QAE@ABVBoxV@12@@Z 1005e710 f i GuSweepTests.obj
 0001:0005d740       ??0?$LocalConvex@VTriangleV@Gu@physx@@@Gu@physx@@QAE@ABVTriangleV@12@@Z 1005e740 f i GuSweepTests.obj
 0001:0005d770       ??0TriangleV@Gu@physx@@QAE@ABT__m128@@00@Z 1005e770 f i GuSweepTests.obj
 0001:0005d880       ??1?$LocalConvex@VBoxV@Gu@physx@@@Gu@physx@@UAE@XZ 1005e880 f i GuSweepTests.obj
 0001:0005d8a0       ??1?$LocalConvex@VTriangleV@Gu@physx@@@Gu@physx@@UAE@XZ 1005e8a0 f i GuSweepTests.obj
 0001:0005d8c0       ??_E?$LocalConvex@VBoxV@Gu@physx@@@Gu@physx@@UAEPAXI@Z 1005e8c0 f i GuSweepTests.obj
 0001:0005d8c0       ??_G?$LocalConvex@VBoxV@Gu@physx@@@Gu@physx@@UAEPAXI@Z 1005e8c0 f i GuSweepTests.obj
 0001:0005d8f0       ??_E?$LocalConvex@VTriangleV@Gu@physx@@@Gu@physx@@UAEPAXI@Z 1005e8f0 f i GuSweepTests.obj
 0001:0005d8f0       ??_G?$LocalConvex@VTriangleV@Gu@physx@@@Gu@physx@@UAEPAXI@Z 1005e8f0 f i GuSweepTests.obj
 0001:0005d920       ?V3Merge@aos@shdfnd@physx@@YA?AT__m128@@ABT4@00@Z 1005e920 f i GuSweepTests.obj
 0001:0005da70       ?VecI32V_Sel@aos@shdfnd@physx@@YA?AT__m128@@T4@ABT4@1@Z 1005ea70 f i GuSweepTests.obj
 0001:0005db30       ?VecI32V_Two@aos@shdfnd@physx@@YA?AT__m128@@XZ 1005eb30 f i GuSweepTests.obj
 0001:0005db70       ?VecI32V_Zero@aos@shdfnd@physx@@YA?AT__m128@@XZ 1005eb70 f i GuSweepTests.obj
 0001:0005dba0       ?getCenter@?$LocalConvex@VBoxV@Gu@physx@@@Gu@physx@@UBE?AT__m128@@XZ 1005eba0 f i GuSweepTests.obj
 0001:0005dbd0       ?getCenter@?$LocalConvex@VTriangleV@Gu@physx@@@Gu@physx@@UBE?AT__m128@@XZ 1005ebd0 f i GuSweepTests.obj
 0001:0005dc00       ?getGjkConvex@?$LocalConvex@VBoxV@Gu@physx@@@Gu@physx@@QBE?AU123@XZ 1005ec00 f i GuSweepTests.obj
 0001:0005dc20       ?getGjkConvex@?$LocalConvex@VTriangleV@Gu@physx@@@Gu@physx@@QBE?AU123@XZ 1005ec20 f i GuSweepTests.obj
 0001:0005dc40       ?getSweepMargin@?$LocalConvex@VBoxV@Gu@physx@@@Gu@physx@@UBE?AT__m128@@XZ 1005ec40 f i GuSweepTests.obj
 0001:0005dc70       ?getSweepMargin@?$LocalConvex@VTriangleV@Gu@physx@@@Gu@physx@@UBE?AT__m128@@XZ 1005ec70 f i GuSweepTests.obj
 0001:0005dca0       ?getSweepMargin@TriangleV@Gu@physx@@QBE?AT__m128@@XZ 1005eca0 f i GuSweepTests.obj
 0001:0005dce0       ?support@?$LocalConvex@VBoxV@Gu@physx@@@Gu@physx@@UBE?AT__m128@@ABT4@@Z 1005ece0 f i GuSweepTests.obj
 0001:0005dd10       ?support@?$LocalConvex@VBoxV@Gu@physx@@@Gu@physx@@UBE?AT__m128@@ABT4@AAH@Z 1005ed10 f i GuSweepTests.obj
 0001:0005dd40       ?support@?$LocalConvex@VTriangleV@Gu@physx@@@Gu@physx@@UBE?AT__m128@@ABT4@@Z 1005ed40 f i GuSweepTests.obj
 0001:0005dd70       ?support@?$LocalConvex@VTriangleV@Gu@physx@@@Gu@physx@@UBE?AT__m128@@ABT4@AAH@Z 1005ed70 f i GuSweepTests.obj
 0001:0005dda0       ?supportLocal@TriangleV@Gu@physx@@QBE?AT__m128@@ABT4@@Z 1005eda0 f i GuSweepTests.obj
 0001:0005df20       ?supportLocal@TriangleV@Gu@physx@@QBE?AT__m128@@ABT4@AAH@Z 1005ef20 f i GuSweepTests.obj
 0001:0005e150       ?supportPoint@?$LocalConvex@VBoxV@Gu@physx@@@Gu@physx@@UBE?AT__m128@@H@Z 1005f150 f i GuSweepTests.obj
 0001:0005e180       ?supportPoint@?$LocalConvex@VTriangleV@Gu@physx@@@Gu@physx@@UBE?AT__m128@@H@Z 1005f180 f i GuSweepTests.obj
 0001:0005e1b0       ?supportPoint@TriangleV@Gu@physx@@QBE?AT__m128@@H@Z 1005f1b0 f i GuSweepTests.obj
 0001:0005e1e0       ?subdivide@AABBTreeBuildNode@Gu@physx@@QAEXABVAABBTreeBuildParams@23@AAUBuildStats@23@AAVNodeAllocator@23@QAI@Z 1005f1e0 f   GuAABBTreeBuild.obj
 0001:0005e830       ?_buildHierarchy@AABBTreeBuildNode@Gu@physx@@QAEXAAVAABBTreeBuildParams@23@AAUBuildStats@23@AAVNodeAllocator@23@QAI@Z 1005f830 f   GuAABBTreeBuild.obj
 0001:0005e900       ??0NodeAllocator@Gu@physx@@QAE@XZ 1005f900 f   GuAABBTreeBuild.obj
 0001:0005e950       ??1NodeAllocator@Gu@physx@@QAE@XZ 1005f950 f   GuAABBTreeBuild.obj
 0001:0005e970       ?release@NodeAllocator@Gu@physx@@QAEXXZ 1005f970 f   GuAABBTreeBuild.obj
 0001:0005ea10       ?init@NodeAllocator@Gu@physx@@QAEXII@Z 1005fa10 f   GuAABBTreeBuild.obj
 0001:0005eb40       ?getBiNode@NodeAllocator@Gu@physx@@QAEPAVAABBTreeBuildNode@23@XZ 1005fb40 f   GuAABBTreeBuild.obj
 0001:0005ec60       ?initAABBTreeBuild@Gu@physx@@YA_NAAVAABBTreeBuildParams@12@AAVNodeAllocator@12@AAUBuildStats@12@AAPAI@Z 1005fc60 f   GuAABBTreeBuild.obj
 0001:0005ee50       ?buildAABBTree@Gu@physx@@YA_NAAVAABBTreeBuildParams@12@AAVNodeAllocator@12@AAUBuildStats@12@AAPAI@Z 1005fe50 f   GuAABBTreeBuild.obj
 0001:0005efd0       ??$?4VNamedAllocator@shdfnd@physx@@@?$Array@USlab@NodeAllocator@Gu@physx@@VNamedAllocator@shdfnd@4@@shdfnd@physx@@QAEAAV012@ABV012@@Z 1005ffd0 f i GuAABBTreeBuild.obj
 0001:0005f040       ??$?_UV?$ReflectionAllocator@VAABBTreeBuildNode@Gu@physx@@@shdfnd@physx@@@UserAllocated@shdfnd@physx@@SAPAXIV?$ReflectionAllocator@VAABBTreeBuildNode@Gu@physx@@@12@PBDH@Z 10060040 f i GuAABBTreeBuild.obj
 0001:0005f060       ??$copy@VNamedAllocator@shdfnd@physx@@@?$Array@USlab@NodeAllocator@Gu@physx@@VNamedAllocator@shdfnd@4@@shdfnd@physx@@IAEXABV012@@Z 10060060 f i GuAABBTreeBuild.obj
 0001:0005f0f0       ??0?$Array@USlab@NodeAllocator@Gu@physx@@VNamedAllocator@shdfnd@4@@shdfnd@physx@@QAE@ABV012@ABVNamedAllocator@12@@Z 100600f0 f i GuAABBTreeBuild.obj
 0001:0005f120       ??0?$Array@USlab@NodeAllocator@Gu@physx@@VNamedAllocator@shdfnd@4@@shdfnd@physx@@QAE@ABVNamedAllocator@12@@Z 10060120 f i GuAABBTreeBuild.obj
 0001:0005f160       ??0?$ReflectionAllocator@VAABBTreeBuildNode@Gu@physx@@@shdfnd@physx@@QAE@PBD@Z 10060160 f i GuAABBTreeBuild.obj
 0001:0005f170       ??0AABBTreeBuildNode@Gu@physx@@QAE@ABV012@@Z 10060170 f i GuAABBTreeBuild.obj
 0001:0005f1b0       ??0AABBTreeBuildNode@Gu@physx@@QAE@XZ 100601b0 f i GuAABBTreeBuild.obj
 0001:0005f1d0       ??0AABBTreeBuildParams@Gu@physx@@QAE@IIPBVPxBounds3@2@@Z 100601d0 f i GuAABBTreeBuild.obj
 0001:0005f210       ??0BuildStats@Gu@physx@@QAE@XZ 10060210 f i GuAABBTreeBuild.obj
 0001:0005f240       ??0NodeAllocator@Gu@physx@@QAE@ABV012@@Z 10060240 f i GuAABBTreeBuild.obj
 0001:0005f2a0       ??0PxBounds3@physx@@QAE@ABV01@@Z 100602a0 f i GuAABBTreeBuild.obj
 0001:0005f2d0       ??0Slab@NodeAllocator@Gu@physx@@QAE@PAVAABBTreeBuildNode@23@II@Z 100602d0 f i GuAABBTreeBuild.obj
 0001:0005f300       ??0Slab@NodeAllocator@Gu@physx@@QAE@XZ 10060300 f i GuAABBTreeBuild.obj
 0001:0005f310       ??1?$Array@USlab@NodeAllocator@Gu@physx@@VNamedAllocator@shdfnd@4@@shdfnd@physx@@QAE@XZ 10060310 f i GuAABBTreeBuild.obj
 0001:0005f370       ??1AABBTreeBuildNode@Gu@physx@@QAE@XZ 10060370 f i GuAABBTreeBuild.obj
 0001:0005f380       ??1AABBTreeBuildParams@Gu@physx@@QAE@XZ 10060380 f i GuAABBTreeBuild.obj
 0001:0005f3a0       ??4?$Array@USlab@NodeAllocator@Gu@physx@@VNamedAllocator@shdfnd@4@@shdfnd@physx@@QAEAAV012@ABV012@@Z 100603a0 f i GuAABBTreeBuild.obj
 0001:0005f3c0       ??4AABBTreeBuildNode@Gu@physx@@QAEAAV012@ABV012@@Z 100603c0 f i GuAABBTreeBuild.obj
 0001:0005f400       ??4AABBTreeBuildParams@Gu@physx@@QAEAAV012@ABV012@@Z 10060400 f i GuAABBTreeBuild.obj
 0001:0005f430       ??4BuildStats@Gu@physx@@QAEAAU012@$$QAU012@@Z 10060430 f i GuAABBTreeBuild.obj
 0001:0005f460       ??4BuildStats@Gu@physx@@QAEAAU012@ABU012@@Z 10060460 f i GuAABBTreeBuild.obj
 0001:0005f480       ??4NodeAllocator@Gu@physx@@QAEAAV012@ABV012@@Z 10060480 f i GuAABBTreeBuild.obj
 0001:0005f4d0       ??4PxBounds3@physx@@QAEAAV01@ABV01@@Z 100604d0 f i GuAABBTreeBuild.obj
 0001:0005f500       ??A?$Array@USlab@NodeAllocator@Gu@physx@@VNamedAllocator@shdfnd@4@@shdfnd@physx@@QAEAAUSlab@NodeAllocator@Gu@2@I@Z 10060500 f i GuAABBTreeBuild.obj
 0001:0005f560       ??_EAABBTreeBuildNode@Gu@physx@@QAEPAXI@Z 10060560 f i GuAABBTreeBuild.obj
 0001:0005f610       ??_FAABBTreeBuildParams@Gu@physx@@QAEXXZ 10060610 f i GuAABBTreeBuild.obj
 0001:0005f630       ?allocate@?$Array@USlab@NodeAllocator@Gu@physx@@VNamedAllocator@shdfnd@4@@shdfnd@physx@@IAEPAUSlab@NodeAllocator@Gu@3@I@Z 10060630 f i GuAABBTreeBuild.obj
 0001:0005f6a0       ?allocate@?$ReflectionAllocator@VAABBTreeBuildNode@Gu@physx@@@shdfnd@physx@@QAEPAXIPBDH@Z 100606a0 f i GuAABBTreeBuild.obj
 0001:0005f6f0       ?begin@?$Array@USlab@NodeAllocator@Gu@physx@@VNamedAllocator@shdfnd@4@@shdfnd@physx@@QBEPBUSlab@NodeAllocator@Gu@3@XZ 100606f0 f i GuAABBTreeBuild.obj
 0001:0005f700       ?capacity@?$Array@USlab@NodeAllocator@Gu@physx@@VNamedAllocator@shdfnd@4@@shdfnd@physx@@QBEIXZ 10060700 f i GuAABBTreeBuild.obj
 0001:0005f720       ?capacityIncrement@?$Array@USlab@NodeAllocator@Gu@physx@@VNamedAllocator@shdfnd@4@@shdfnd@physx@@IBEIXZ 10060720 f i GuAABBTreeBuild.obj
 0001:0005f760       ?clear@?$Array@USlab@NodeAllocator@Gu@physx@@VNamedAllocator@shdfnd@4@@shdfnd@physx@@QAEXXZ 10060760 f i GuAABBTreeBuild.obj
 0001:0005f790       ?copy@?$Array@USlab@NodeAllocator@Gu@physx@@VNamedAllocator@shdfnd@4@@shdfnd@physx@@KAXPAUSlab@NodeAllocator@Gu@3@0PBU4563@@Z 10060790 f i GuAABBTreeBuild.obj
 0001:0005f7f0       ?create@?$Array@USlab@NodeAllocator@Gu@physx@@VNamedAllocator@shdfnd@4@@shdfnd@physx@@KAXPAUSlab@NodeAllocator@Gu@3@0ABU4563@@Z 100607f0 f i GuAABBTreeBuild.obj
 0001:0005f840       ?deallocate@?$Array@USlab@NodeAllocator@Gu@physx@@VNamedAllocator@shdfnd@4@@shdfnd@physx@@IAEXPAX@Z 10060840 f i GuAABBTreeBuild.obj
 0001:0005f860       ?destroy@?$Array@USlab@NodeAllocator@Gu@physx@@VNamedAllocator@shdfnd@4@@shdfnd@physx@@KAXPAUSlab@NodeAllocator@Gu@3@0@Z 10060860 f i GuAABBTreeBuild.obj
 0001:0005f880       ?empty@?$Array@USlab@NodeAllocator@Gu@physx@@VNamedAllocator@shdfnd@4@@shdfnd@physx@@QBE_NXZ 10060880 f i GuAABBTreeBuild.obj
 0001:0005f8b0       ?getAABB@AABBTreeBuildNode@Gu@physx@@QBEABVPxBounds3@3@XZ 100608b0 f i GuAABBTreeBuild.obj
 0001:0005f8c0       ?getCenter@PxBounds3@physx@@QBEMI@Z 100608c0 f i GuAABBTreeBuild.obj
 0001:0005f930       ?getCount@BuildStats@Gu@physx@@QBEIXZ 10060930 f i GuAABBTreeBuild.obj
 0001:0005f940       ?getName@?$ReflectionAllocator@VAABBTreeBuildNode@Gu@physx@@@shdfnd@physx@@CAPBDXZ 10060940 f i GuAABBTreeBuild.obj
 0001:0005f980       ?getNbPrimitives@AABBTreeBuildNode@Gu@physx@@QBEIXZ 10060980 f i GuAABBTreeBuild.obj
 0001:0005f9a0       ?getNbRuntimePrimitives@AABBTreeBuildNode@Gu@physx@@QBEIXZ 100609a0 f i GuAABBTreeBuild.obj
 0001:0005f9c0       ?getNeg@AABBTreeBuildNode@Gu@physx@@QBEPBV123@XZ 100609c0 f i GuAABBTreeBuild.obj
 0001:0005fa00       ?getPos@AABBTreeBuildNode@Gu@physx@@QBEPBV123@XZ 10060a00 f i GuAABBTreeBuild.obj
 0001:0005fa20       ?getPrimitives@AABBTreeBuildNode@Gu@physx@@QAEPAIPAI@Z 10060a20 f i GuAABBTreeBuild.obj
 0001:0005fa40       ?getPrimitives@AABBTreeBuildNode@Gu@physx@@QBEPBIPBI@Z 10060a40 f i GuAABBTreeBuild.obj
 0001:0005fa60       ?grow@?$Array@USlab@NodeAllocator@Gu@physx@@VNamedAllocator@shdfnd@4@@shdfnd@physx@@IAEXI@Z 10060a60 f i GuAABBTreeBuild.obj
 0001:0005fac0       ?growAndPushBack@?$Array@USlab@NodeAllocator@Gu@physx@@VNamedAllocator@shdfnd@4@@shdfnd@physx@@IAEAAUSlab@NodeAllocator@Gu@3@ABU4563@@Z 10060ac0 f i GuAABBTreeBuild.obj
 0001:0005fbf0       ?increaseCount@BuildStats@Gu@physx@@QAEXI@Z 10060bf0 f i GuAABBTreeBuild.obj
 0001:0005fc10       ?isInUserMemory@?$Array@USlab@NodeAllocator@Gu@physx@@VNamedAllocator@shdfnd@4@@shdfnd@physx@@QBEIXZ 10060c10 f i GuAABBTreeBuild.obj
 0001:0005fc30       ?isLeaf@AABBTreeBuildNode@Gu@physx@@QBE_NXZ 10060c30 f i GuAABBTreeBuild.obj
 0001:0005fc60       ?largestAxis@shdfnd@physx@@YAIABVPxVec3@2@@Z 10060c60 f i GuAABBTreeBuild.obj
 0001:0005fcc0       ?pushBack@?$Array@USlab@NodeAllocator@Gu@physx@@VNamedAllocator@shdfnd@4@@shdfnd@physx@@QAEAAUSlab@NodeAllocator@Gu@3@ABU4563@@Z 10060cc0 f i GuAABBTreeBuild.obj
 0001:0005fd40       ?recreate@?$Array@USlab@NodeAllocator@Gu@physx@@VNamedAllocator@shdfnd@4@@shdfnd@physx@@IAEXI@Z 10060d40 f i GuAABBTreeBuild.obj
 0001:0005fe10       ?reserve@?$Array@USlab@NodeAllocator@Gu@physx@@VNamedAllocator@shdfnd@4@@shdfnd@physx@@QAEXI@Z 10060e10 f i GuAABBTreeBuild.obj
 0001:0005fe40       ?reset@?$Array@USlab@NodeAllocator@Gu@physx@@VNamedAllocator@shdfnd@4@@shdfnd@physx@@QAEXXZ 10060e40 f i GuAABBTreeBuild.obj
 0001:0005fe70       ?reset@AABBTreeBuildParams@Gu@physx@@QAEXXZ 10060e70 f i GuAABBTreeBuild.obj
 0001:0005fec0       ?reset@BuildStats@Gu@physx@@QAEXXZ 10060ec0 f i GuAABBTreeBuild.obj
 0001:0005fee0       ?resize@?$Array@USlab@NodeAllocator@Gu@physx@@VNamedAllocator@shdfnd@4@@shdfnd@physx@@QAEXIABUSlab@NodeAllocator@Gu@3@@Z 10060ee0 f i GuAABBTreeBuild.obj
 0001:0005ff50       ?setCount@BuildStats@Gu@physx@@QAEXI@Z 10060f50 f i GuAABBTreeBuild.obj
 0001:0005ff70       ?setNbRunTimePrimitives@AABBTreeBuildNode@Gu@physx@@QAEXI@Z 10060f70 f i GuAABBTreeBuild.obj
 0001:0005ff90       ?shrink@?$Array@USlab@NodeAllocator@Gu@physx@@VNamedAllocator@shdfnd@4@@shdfnd@physx@@QAEXXZ 10060f90 f i GuAABBTreeBuild.obj
 0001:0005ffb0       ?size@?$Array@USlab@NodeAllocator@Gu@physx@@VNamedAllocator@shdfnd@4@@shdfnd@physx@@QBEIXZ 10060fb0 f i GuAABBTreeBuild.obj
 0001:0005ffd0       ??0BVHStructure@Gu@physx@@QAE@PAVGuMeshFactory@2@@Z 10060fd0 f   GuBVHStructure.obj
 0001:00060060       ??0BVHStructure@Gu@physx@@QAE@PAVGuMeshFactory@2@AAUBVHStructureData@12@@Z 10061060 f   GuBVHStructure.obj
 0001:00060100       ??1BVHStructure@Gu@physx@@UAE@XZ 10061100 f   GuBVHStructure.obj
 0001:00060140       ?load@BVHStructure@Gu@physx@@QAE_NAAVPxInputStream@3@@Z 10061140 f   GuBVHStructure.obj
 0001:000602f0       ?release@BVHStructure@Gu@physx@@UAEXXZ 100612f0 f   GuBVHStructure.obj
 0001:00060310       ?raycast@BVHStructure@Gu@physx@@UBEIABVPxVec3@3@0MIPIAI@Z 10061310 f   GuBVHStructure.obj
 0001:00060390       ?sweep@BVHStructure@Gu@physx@@UBEIABVPxBounds3@3@ABVPxVec3@3@MIPIAI@Z 10061390 f   GuBVHStructure.obj
 0001:00060420       ?overlap@BVHStructure@Gu@physx@@UBEIABVPxBounds3@3@IPIAI@Z 10061420 f   GuBVHStructure.obj
 0001:000604b0       ?onRefCountZero@BVHStructure@Gu@physx@@UAEXXZ 100614b0 f   GuBVHStructure.obj
 0001:000605d0       ?createVolumes@BVHStructure@Gu@physx@@ABEXXZ 100615d0 f   GuBVHStructure.obj
 0001:00060950       ??$check@$00@RayAABBTest@Gu@physx@@QBEIT__m128@@0@Z 10061950 f i GuBVHStructure.obj
 0001:00060bd0       ??$check@$0A@@RayAABBTest@Gu@physx@@QBEIT__m128@@0@Z 10061bd0 f i GuBVHStructure.obj
 0001:00060e50       ??$deletePxBase@VBVHStructure@Gu@physx@@@Cm@physx@@YAXPAVBVHStructure@Gu@1@@Z 10061e50 f i GuBVHStructure.obj
 0001:00060ec0       ??0?$Array@PBUBVHNode@Gu@physx@@V?$InlineAllocator@$0EAA@VNamedAllocator@shdfnd@physx@@@shdfnd@3@@shdfnd@physx@@QAE@ABV?$InlineAllocator@$0EAA@VNamedAllocator@shdfnd@physx@@@12@@Z 10061ec0 f i GuBVHStructure.obj
 0001:00060f10       ??0?$InlineAllocator@$0EAA@VNamedAllocator@shdfnd@physx@@@shdfnd@physx@@QAE@ABV012@@Z 10061f10 f i GuBVHStructure.obj
 0001:00060f40       ??0?$InlineAllocator@$0EAA@VNamedAllocator@shdfnd@physx@@@shdfnd@physx@@QAE@ABVNamedAllocator@12@@Z 10061f40 f i GuBVHStructure.obj
 0001:00060f70       ??0?$InlineArray@PBUBVHNode@Gu@physx@@$0BAA@VNamedAllocator@shdfnd@3@@shdfnd@physx@@QAE@ABVNamedAllocator@12@@Z 10061f70 f i GuBVHStructure.obj
 0001:00060fe0       ??0?$PxFlags@W4Enum@PxBaseFlag@physx@@G@physx@@QAE@W4Enum@PxBaseFlag@1@@Z 10061fe0 f i GuBVHStructure.obj
 0001:00061000       ??0AABBAABBTest@Gu@physx@@QAE@ABVPxBounds3@2@@Z 10062000 f i GuBVHStructure.obj
 0001:00061070       ??0BVHCallback@Gu@physx@@QAE@PAII@Z 10062070 f i GuBVHStructure.obj
 0001:000610a0       ??0BVHTree@Gu@physx@@QAE@PBUBVHNode@12@PBI@Z 100620a0 f i GuBVHStructure.obj
 0001:000610d0       ??0PxBVHStructure@physx@@IAE@GV?$PxFlags@W4Enum@PxBaseFlag@physx@@G@1@@Z 100620d0 f i GuBVHStructure.obj
 0001:00061110       ??0PxBase@physx@@IAE@GV?$PxFlags@W4Enum@PxBaseFlag@physx@@G@1@@Z 10062110 f i GuBVHStructure.obj
 0001:00061150       ??0RayAABBTest@Gu@physx@@QAE@ABVPxVec3@2@0M0@Z 10062150 f i GuBVHStructure.obj
 0001:00061410       ??0RefCountable@Cm@physx@@QAE@I@Z 10062410 f i GuBVHStructure.obj
 0001:00061470       ??1?$Array@PBUBVHNode@Gu@physx@@V?$InlineAllocator@$0EAA@VNamedAllocator@shdfnd@physx@@@shdfnd@3@@shdfnd@physx@@QAE@XZ 10062470 f i GuBVHStructure.obj
 0001:000614e0       ??1?$InlineAllocator@$0EAA@VNamedAllocator@shdfnd@physx@@@shdfnd@physx@@QAE@XZ 100624e0 f i GuBVHStructure.obj
 0001:00061500       ??1?$InlineArray@PBUBVHNode@Gu@physx@@$0BAA@VNamedAllocator@shdfnd@3@@shdfnd@physx@@QAE@XZ 10062500 f i GuBVHStructure.obj
 0001:00061520       ??1PxBVHStructure@physx@@MAE@XZ 10062520 f i GuBVHStructure.obj
 0001:00061540       ??1RefCountable@Cm@physx@@UAE@XZ 10062540 f i GuBVHStructure.obj
 0001:00061560       ??A?$Array@PBUBVHNode@Gu@physx@@V?$InlineAllocator@$0EAA@VNamedAllocator@shdfnd@physx@@@shdfnd@3@@shdfnd@physx@@QAEAAPBUBVHNode@Gu@2@I@Z 10062560 f i GuBVHStructure.obj
 0001:000615d0       ??R?$AABBTreeOverlap@UAABBAABBTest@Gu@physx@@UBVHTree@23@UBVHNode@23@IUBVHCallback@23@@Gu@physx@@QAE_NPBIPBVPxBounds3@2@ABUBVHTree@12@ABUAABBAABBTest@12@AAUBVHCallback@12@@Z 100625d0 f i GuBVHStructure.obj
 0001:000618d0       ??R?$AABBTreeRaycast@$00UBVHTree@Gu@physx@@UBVHNode@23@IUBVHCallback@23@@Gu@physx@@QAE_NPBIPBVPxBounds3@2@ABUBVHTree@12@ABVPxVec3@2@3AAM3AAUBVHCallback@12@@Z 100628d0 f i GuBVHStructure.obj
 0001:00061c10       ??R?$AABBTreeRaycast@$0A@UBVHTree@Gu@physx@@UBVHNode@23@IUBVHCallback@23@@Gu@physx@@QAE_NPBIPBVPxBounds3@2@ABUBVHTree@12@ABVPxVec3@2@3AAM3AAUBVHCallback@12@@Z 10062c10 f i GuBVHStructure.obj
 0001:00061f50       ??RAABBAABBTest@Gu@physx@@QBEHT__m128@@0@Z 10062f50 f i GuBVHStructure.obj
 0001:00061fc0       ??Uphysx@@YA?AV?$PxFlags@W4Enum@PxBaseFlag@physx@@G@0@W4Enum@PxBaseFlag@0@0@Z 10062fc0 f i GuBVHStructure.obj
 0001:00061ff0       ??_5?$PxFlags@W4Enum@PxBaseFlag@physx@@G@physx@@QAEAAV01@W4Enum@PxBaseFlag@1@@Z 10062ff0 f i GuBVHStructure.obj
 0001:00062012       ??_EBVHStructure@Gu@physx@@W7AEPAXI@Z 10063012 f i GuBVHStructure.obj
 0001:00062020       ??_GBVHStructure@Gu@physx@@UAEPAXI@Z 10063020 f i GuBVHStructure.obj
 0001:00062020       ??_EBVHStructure@Gu@physx@@UAEPAXI@Z 10063020 f i GuBVHStructure.obj
 0001:00062070       ??_EPxBVHStructure@physx@@MAEPAXI@Z 10063070 f i GuBVHStructure.obj
 0001:00062070       ??_GPxBVHStructure@physx@@MAEPAXI@Z 10063070 f i GuBVHStructure.obj
 0001:000620a0       ??_GRefCountable@Cm@physx@@UAEPAXI@Z 100630a0 f i GuBVHStructure.obj
 0001:000620a0       ??_ERefCountable@Cm@physx@@UAEPAXI@Z 100630a0 f i GuBVHStructure.obj
 0001:000620d0       ?V3AllGrtrOrEq@aos@shdfnd@physx@@YAIT__m128@@0@Z 100630d0 f i GuBVHStructure.obj
 0001:000621a0       ?V3IsGrtrOrEq@aos@shdfnd@physx@@YA?AT__m128@@T4@0@Z 100631a0 f i GuBVHStructure.obj
 0001:00062270       ?V3Min@aos@shdfnd@physx@@YA?AT__m128@@T4@0@Z 10063270 f i GuBVHStructure.obj
 0001:00062340       ?V3MulAdd@aos@shdfnd@physx@@YA?AT__m128@@T4@00@Z 10063340 f i GuBVHStructure.obj
 0001:00062470       ?V3NegMulSub@aos@shdfnd@physx@@YA?AT__m128@@T4@00@Z 10063470 f i GuBVHStructure.obj
 0001:000625a0       ?V3PermYZX@aos@shdfnd@physx@@YA?AT__m128@@T4@@Z 100635a0 f i GuBVHStructure.obj
 0001:00062620       ?V4IsGrtrOrEq@aos@shdfnd@physx@@YA?AT__m128@@T4@0@Z 10063620 f i GuBVHStructure.obj
 0001:00062660       ?allocate@?$Array@PBUBVHNode@Gu@physx@@V?$InlineAllocator@$0EAA@VNamedAllocator@shdfnd@physx@@@shdfnd@3@@shdfnd@physx@@IAEPAPBUBVHNode@Gu@3@I@Z 10063660 f i GuBVHStructure.obj
 0001:000626d0       ?allocate@?$InlineAllocator@$0EAA@VNamedAllocator@shdfnd@physx@@@shdfnd@physx@@QAEPAXIPBDH@Z 100636d0 f i GuBVHStructure.obj
 0001:00062720       ?capacity@?$Array@PBUBVHNode@Gu@physx@@V?$InlineAllocator@$0EAA@VNamedAllocator@shdfnd@physx@@@shdfnd@3@@shdfnd@physx@@QBEIXZ 10063720 f i GuBVHStructure.obj
 0001:00062740       ?copy@?$Array@PBUBVHNode@Gu@physx@@V?$InlineAllocator@$0EAA@VNamedAllocator@shdfnd@physx@@@shdfnd@3@@shdfnd@physx@@KAXPAPBUBVHNode@Gu@3@0PBQBU453@@Z 10063740 f i GuBVHStructure.obj
 0001:00062790       ?deallocate@?$Array@PBUBVHNode@Gu@physx@@V?$InlineAllocator@$0EAA@VNamedAllocator@shdfnd@physx@@@shdfnd@3@@shdfnd@physx@@IAEXPAX@Z 10063790 f i GuBVHStructure.obj
 0001:000627b0       ?deallocate@?$InlineAllocator@$0EAA@VNamedAllocator@shdfnd@physx@@@shdfnd@physx@@QAEXPAX@Z 100637b0 f i GuBVHStructure.obj
 0001:000627e0       ?destroy@?$Array@PBUBVHNode@Gu@physx@@V?$InlineAllocator@$0EAA@VNamedAllocator@shdfnd@physx@@@shdfnd@3@@shdfnd@physx@@KAXPAPBUBVHNode@Gu@3@0@Z 100637e0 f i GuBVHStructure.obj
 0001:00062800       ?forceSize_Unsafe@?$Array@PBUBVHNode@Gu@physx@@V?$InlineAllocator@$0EAA@VNamedAllocator@shdfnd@physx@@@shdfnd@3@@shdfnd@physx@@QAEXI@Z 10063800 f i GuBVHStructure.obj
 0001:00062860       ?getAABBCenterExtentsV2@BVHNode@Gu@physx@@QBEXPAT__m128@@0@Z 10063860 f i GuBVHStructure.obj
 0001:00062920       ?getAABBCenterExtentsV@BVHNode@Gu@physx@@QBEXPAT__m128@@0@Z 10063920 f i GuBVHStructure.obj
 0001:00062a40       ?getBaseFlags@PxBase@physx@@QBE?AV?$PxFlags@W4Enum@PxBaseFlag@physx@@G@2@XZ 10063a40 f i GuBVHStructure.obj
 0001:00062a60       ?getBounds@BVHStructure@Gu@physx@@UBEPBVPxBounds3@3@XZ 10063a60 f i GuBVHStructure.obj
 0001:00062a80       ?getConcreteTypeName@PxBVHStructure@physx@@UBEPBDXZ 10063a80 f i GuBVHStructure.obj
 0001:00062a90       ?getIndices@BVHTree@Gu@physx@@QBEPBIXZ 10063a90 f i GuBVHStructure.obj
 0001:00062ab0       ?getNbBounds@BVHStructure@Gu@physx@@UBEIXZ 10063ab0 f i GuBVHStructure.obj
 0001:00062ad0       ?getNbPrimitives@BVHNode@Gu@physx@@QBEIXZ 10063ad0 f i GuBVHStructure.obj
 0001:00062af0       ?getNodes@BVHTree@Gu@physx@@QBEPBUBVHNode@23@XZ 10063af0 f i GuBVHStructure.obj
 0001:00062b00       ?getPos@BVHNode@Gu@physx@@QBEPBU123@PBU123@@Z 10063b00 f i GuBVHStructure.obj
 0001:00062b20       ?getPrimitives@BVHNode@Gu@physx@@QBEPBIPBI@Z 10063b20 f i GuBVHStructure.obj
 0001:00062b40       ?grow@?$Array@PBUBVHNode@Gu@physx@@V?$InlineAllocator@$0EAA@VNamedAllocator@shdfnd@physx@@@shdfnd@3@@shdfnd@physx@@IAEXI@Z 10063b40 f i GuBVHStructure.obj
 0001:00062ba0       ?invoke@BVHCallback@Gu@physx@@QAE_NAAMI@Z 10063ba0 f i GuBVHStructure.obj
 0001:00062bf0       ?isInUserMemory@?$Array@PBUBVHNode@Gu@physx@@V?$InlineAllocator@$0EAA@VNamedAllocator@shdfnd@physx@@@shdfnd@3@@shdfnd@physx@@QBEIXZ 10063bf0 f i GuBVHStructure.obj
 0001:00062c10       ?isKindOf@PxBVHStructure@physx@@MBE_NPBD@Z 10063c10 f i GuBVHStructure.obj
 0001:00062c60       ?isLeaf@BVHNode@Gu@physx@@QBEIXZ 10063c60 f i GuBVHStructure.obj
 0001:00062c80       ?onRefCountZero@RefCountable@Cm@physx@@UAEXXZ 10063c80 f i GuBVHStructure.obj
 0001:00062cc0       ?recreate@?$Array@PBUBVHNode@Gu@physx@@V?$InlineAllocator@$0EAA@VNamedAllocator@shdfnd@physx@@@shdfnd@3@@shdfnd@physx@@IAEXI@Z 10063cc0 f i GuBVHStructure.obj
 0001:00062dc0       ?reserve@?$Array@PBUBVHNode@Gu@physx@@V?$InlineAllocator@$0EAA@VNamedAllocator@shdfnd@physx@@@shdfnd@3@@shdfnd@physx@@QAEXI@Z 10063dc0 f i GuBVHStructure.obj
 0001:00062df0       ?resizeUninitialized@?$Array@PBUBVHNode@Gu@physx@@V?$InlineAllocator@$0EAA@VNamedAllocator@shdfnd@physx@@@shdfnd@3@@shdfnd@physx@@QAEXI@Z 10063df0 f i GuBVHStructure.obj
 0001:00062e20       ?setDistance@RayAABBTest@Gu@physx@@QAEXM@Z 10063e20 f i GuBVHStructure.obj
 0001:00062ec0       ?SweepEstimateAnyShapeHeightfield@Gu@physx@@YAMABUCCDShape@12@0ABVPxTransform@2@111MM@Z 10063ec0 f   GuCCDSweepConvexMesh.obj
 0001:000632c0       ?SweepEstimateAnyShapeMesh@Gu@physx@@YAMABUCCDShape@12@0ABVPxTransform@2@111MM@Z 100642c0 f   GuCCDSweepConvexMesh.obj
 0001:00063b00       ?SweepAnyShapeHeightfield@Gu@physx@@YAMABUCCDShape@12@0ABVPxTransform@2@111MAAVPxVec3@2@2MAAIM@Z 10064b00 f   GuCCDSweepConvexMesh.obj
 0001:000645e0       ?SweepAnyShapeMesh@Gu@physx@@YAMABUCCDShape@12@0ABVPxTransform@2@111MAAVPxVec3@2@2MAAIM@Z 100655e0 f   GuCCDSweepConvexMesh.obj
 0001:000653d0       ??$checkType@$$CBUPxHeightFieldGeometryLL@physx@@@physx@@YAXABVGeometryUnion@Gu@0@@Z 100663d0 f i GuCCDSweepConvexMesh.obj
 0001:00065430       ??$checkType@$$CBUPxTriangleMeshGeometryLL@physx@@@physx@@YAXABVGeometryUnion@Gu@0@@Z 10066430 f i GuCCDSweepConvexMesh.obj
 0001:00065490       ??$get@$$CBUPxHeightFieldGeometryLL@physx@@@GeometryUnion@Gu@physx@@QBEABUPxHeightFieldGeometryLL@2@XZ 10066490 f i GuCCDSweepConvexMesh.obj
 0001:000654b0       ??$get@$$CBUPxTriangleMeshGeometryLL@physx@@@GeometryUnion@Gu@physx@@QBEABUPxTriangleMeshGeometryLL@2@XZ 100664b0 f i GuCCDSweepConvexMesh.obj
 0001:000654d0       ??0?$Array@IV?$InlineAllocator@$0BAA@VNamedAllocator@shdfnd@physx@@@shdfnd@physx@@@shdfnd@physx@@QAE@ABV?$InlineAllocator@$0BAA@VNamedAllocator@shdfnd@physx@@@12@@Z 100664d0 f i GuCCDSweepConvexMesh.obj
 0001:00065520       ??0?$Array@IVNamedAllocator@shdfnd@physx@@@shdfnd@physx@@QAE@IABIABVNamedAllocator@12@@Z 10066520 f i GuCCDSweepConvexMesh.obj
 0001:00065570       ??0?$InlineAllocator@$0BAA@VNamedAllocator@shdfnd@physx@@@shdfnd@physx@@QAE@ABV012@@Z 10066570 f i GuCCDSweepConvexMesh.obj
 0001:000655a0       ??0?$InlineAllocator@$0BAA@VNamedAllocator@shdfnd@physx@@@shdfnd@physx@@QAE@ABVNamedAllocator@12@@Z 100665a0 f i GuCCDSweepConvexMesh.obj
 0001:000655d0       ??0?$InlineArray@I$0EA@VNamedAllocator@shdfnd@physx@@@shdfnd@physx@@QAE@ABVNamedAllocator@12@@Z 100665d0 f i GuCCDSweepConvexMesh.obj
 0001:00065630       ??0HullPolygonData@Gu@physx@@QAE@XZ 10066630 f i GuCCDSweepConvexMesh.obj
 0001:00065650       ??1?$Array@IV?$InlineAllocator@$0BAA@VNamedAllocator@shdfnd@physx@@@shdfnd@physx@@@shdfnd@physx@@QAE@XZ 10066650 f i GuCCDSweepConvexMesh.obj
 0001:000656c0       ??1?$InlineAllocator@$0BAA@VNamedAllocator@shdfnd@physx@@@shdfnd@physx@@QAE@XZ 100666c0 f i GuCCDSweepConvexMesh.obj
 0001:000656e0       ??1?$InlineArray@I$0EA@VNamedAllocator@shdfnd@physx@@@shdfnd@physx@@QAE@XZ 100666e0 f i GuCCDSweepConvexMesh.obj
 0001:00065700       ?allocate@?$Array@IV?$InlineAllocator@$0BAA@VNamedAllocator@shdfnd@physx@@@shdfnd@physx@@@shdfnd@physx@@IAEPAII@Z 10066700 f i GuCCDSweepConvexMesh.obj
 0001:00065770       ?allocate@?$InlineAllocator@$0BAA@VNamedAllocator@shdfnd@physx@@@shdfnd@physx@@QAEPAXIPBDH@Z 10066770 f i GuCCDSweepConvexMesh.obj
 0001:000657c0       ?begin@?$Array@IV?$InlineAllocator@$0BAA@VNamedAllocator@shdfnd@physx@@@shdfnd@physx@@@shdfnd@physx@@QAEPAIXZ 100667c0 f i GuCCDSweepConvexMesh.obj
 0001:000657e0       ?capacity@?$Array@IV?$InlineAllocator@$0BAA@VNamedAllocator@shdfnd@physx@@@shdfnd@physx@@@shdfnd@physx@@QBEIXZ 100667e0 f i GuCCDSweepConvexMesh.obj
 0001:00065800       ?capacityIncrement@?$Array@IV?$InlineAllocator@$0BAA@VNamedAllocator@shdfnd@physx@@@shdfnd@physx@@@shdfnd@physx@@IBEIXZ 10066800 f i GuCCDSweepConvexMesh.obj
 0001:00065840       ?copy@?$Array@IV?$InlineAllocator@$0BAA@VNamedAllocator@shdfnd@physx@@@shdfnd@physx@@@shdfnd@physx@@KAXPAI0PBI@Z 10066840 f i GuCCDSweepConvexMesh.obj
 0001:00065890       ?create@?$Array@IV?$InlineAllocator@$0BAA@VNamedAllocator@shdfnd@physx@@@shdfnd@physx@@@shdfnd@physx@@KAXPAI0ABI@Z 10066890 f i GuCCDSweepConvexMesh.obj
 0001:000658d0       ?create@?$Array@IVNamedAllocator@shdfnd@physx@@@shdfnd@physx@@KAXPAI0ABI@Z 100668d0 f i GuCCDSweepConvexMesh.obj
 0001:00065910       ?deallocate@?$Array@IV?$InlineAllocator@$0BAA@VNamedAllocator@shdfnd@physx@@@shdfnd@physx@@@shdfnd@physx@@IAEXPAX@Z 10066910 f i GuCCDSweepConvexMesh.obj
 0001:00065930       ?deallocate@?$InlineAllocator@$0BAA@VNamedAllocator@shdfnd@physx@@@shdfnd@physx@@QAEXPAX@Z 10066930 f i GuCCDSweepConvexMesh.obj
 0001:00065960       ?destroy@?$Array@IV?$InlineAllocator@$0BAA@VNamedAllocator@shdfnd@physx@@@shdfnd@physx@@@shdfnd@physx@@KAXPAI0@Z 10066960 f i GuCCDSweepConvexMesh.obj
 0001:00065980       ?distancePointTriangleSquared@Gu@physx@@YAMABVPxVec3@2@000PAM1@Z 10066980 f i GuCCDSweepConvexMesh.obj
 0001:00065a10       ?flipsNormal@FastVertex2ShapeScaling@Cm@physx@@QBE_NXZ 10066a10 f i GuCCDSweepConvexMesh.obj
 0001:00065a30       ?forceSize_Unsafe@?$Array@IV?$InlineAllocator@$0BAA@VNamedAllocator@shdfnd@physx@@@shdfnd@physx@@@shdfnd@physx@@QAEXI@Z 10066a30 f i GuCCDSweepConvexMesh.obj
 0001:00065a90       ?getTriangleVerts@TriangleVertexPointers@Gu@physx@@SAXPBVTriangleMesh@23@IAAVPxVec3@3@11@Z 10066a90 f i GuCCDSweepConvexMesh.obj
 0001:00065b90       ?grow@?$Array@IV?$InlineAllocator@$0BAA@VNamedAllocator@shdfnd@physx@@@shdfnd@physx@@@shdfnd@physx@@IAEXI@Z 10066b90 f i GuCCDSweepConvexMesh.obj
 0001:00065bf0       ?growAndPushBack@?$Array@IV?$InlineAllocator@$0BAA@VNamedAllocator@shdfnd@physx@@@shdfnd@physx@@@shdfnd@physx@@IAEAAIABI@Z 10066bf0 f i GuCCDSweepConvexMesh.obj
 0001:00065d50       ?include@PxBounds3@physx@@QAEXABVPxVec3@2@@Z 10066d50 f i GuCCDSweepConvexMesh.obj
 0001:00065dc0       ?isEmpty@PxBounds3@physx@@QBE_NXZ 10066dc0 f i GuCCDSweepConvexMesh.obj
 0001:00065e20       ?isInUserMemory@?$Array@IV?$InlineAllocator@$0BAA@VNamedAllocator@shdfnd@physx@@@shdfnd@physx@@@shdfnd@physx@@QBEIXZ 10066e20 f i GuCCDSweepConvexMesh.obj
 0001:00065e40       ?isZero@PxVec3@physx@@QBE_NXZ 10066e40 f i GuCCDSweepConvexMesh.obj
 0001:00065ea0       ?pushBack@?$Array@IV?$InlineAllocator@$0BAA@VNamedAllocator@shdfnd@physx@@@shdfnd@physx@@@shdfnd@physx@@QAEAAIABI@Z 10066ea0 f i GuCCDSweepConvexMesh.obj
 0001:00065f30       ?recreate@?$Array@IV?$InlineAllocator@$0BAA@VNamedAllocator@shdfnd@physx@@@shdfnd@physx@@@shdfnd@physx@@IAEXI@Z 10066f30 f i GuCCDSweepConvexMesh.obj
 0001:00066030       ?reserve@?$Array@IV?$InlineAllocator@$0BAA@VNamedAllocator@shdfnd@physx@@@shdfnd@physx@@@shdfnd@physx@@QAEXI@Z 10067030 f i GuCCDSweepConvexMesh.obj
 0001:00066060       ?resize@?$Array@IV?$InlineAllocator@$0BAA@VNamedAllocator@shdfnd@physx@@@shdfnd@physx@@@shdfnd@physx@@QAEXIABI@Z 10067060 f i GuCCDSweepConvexMesh.obj
 0001:000660f0       ?resize@?$Array@IVNamedAllocator@shdfnd@physx@@@shdfnd@physx@@QAEXIABI@Z 100670f0 f i GuCCDSweepConvexMesh.obj
 0001:00066160       ?size@?$Array@IV?$InlineAllocator@$0BAA@VNamedAllocator@shdfnd@physx@@@shdfnd@physx@@@shdfnd@physx@@QBEIXZ 10067160 f i GuCCDSweepConvexMesh.obj
 0001:00066180       ?sweepAABBAABB@Gu@physx@@YAMABVPxVec3@2@00000@Z 10067180 f i GuCCDSweepConvexMesh.obj
 0001:000665a0       ?transformBoxOrthonormal@physx@@YA?AVBox@Gu@1@ABV231@ABVPxTransform@1@@Z 100675a0 f i GuCCDSweepConvexMesh.obj
 0001:00066660       ?SweepShapeShape@Gu@physx@@YAMABUCCDShape@12@0ABVPxTransform@2@111MAAVPxVec3@2@2MAAIM@Z 10067660 f   GuCCDSweepPrimitives.obj
 0001:000666e0       ?UnimplementedSweep@Gu@physx@@YAMABUCCDShape@12@0ABVPxTransform@2@111MAAVPxVec3@2@2MAAIM@Z 100676e0 f   GuCCDSweepPrimitives.obj
 0001:000666f0       ?UnimplementedTriangleSweep@Gu@physx@@YAMABVGeometryUnion@12@0ABVPxTransform@2@111MAAVPxVec3@2@2ABVFastVertex2ShapeScaling@Cm@2@AAVTriangleV@12@M@Z 100676f0 f   GuCCDSweepPrimitives.obj
 0001:00066790       ?SweepShapeTriangle@Gu@physx@@YAMABVGeometryUnion@12@0ABVPxTransform@2@111MAAVPxVec3@2@2ABVFastVertex2ShapeScaling@Cm@2@AAVTriangleV@12@M@Z 10067790 f   GuCCDSweepPrimitives.obj
 0001:00068660       ??$SweepGeomGeom@VCapsuleV@Gu@physx@@V123@@Gu@physx@@YAMABUCCDShape@01@0ABVPxTransform@1@111MAAVPxVec3@1@2MAAIM@Z 10069660 f i GuCCDSweepPrimitives.obj
 0001:00068780       ??$SweepGeomGeom@VCapsuleV@Gu@physx@@VBoxV@23@@Gu@physx@@YAMABUCCDShape@01@0ABVPxTransform@1@111MAAVPxVec3@1@2MAAIM@Z 10069780 f i GuCCDSweepPrimitives.obj
 0001:00068890       ??$SweepGeomGeom@VCapsuleV@Gu@physx@@VConvexHullV@23@@Gu@physx@@YAMABUCCDShape@01@0ABVPxTransform@1@111MAAVPxVec3@1@2MAAIM@Z 10069890 f i GuCCDSweepPrimitives.obj
 0001:000689b0       ??$SweepGeomGeom@VBoxV@Gu@physx@@V123@@Gu@physx@@YAMABUCCDShape@01@0ABVPxTransform@1@111MAAVPxVec3@1@2MAAIM@Z 100699b0 f i GuCCDSweepPrimitives.obj
 0001:00068ac0       ??$SweepGeomGeom@VBoxV@Gu@physx@@VConvexHullV@23@@Gu@physx@@YAMABUCCDShape@01@0ABVPxTransform@1@111MAAVPxVec3@1@2MAAIM@Z 10069ac0 f i GuCCDSweepPrimitives.obj
 0001:00068bd0       ??$SweepGeomGeom@VConvexHullV@Gu@physx@@V123@@Gu@physx@@YAMABUCCDShape@01@0ABVPxTransform@1@111MAAVPxVec3@1@2MAAIM@Z 10069bd0 f i GuCCDSweepPrimitives.obj
 0001:00068cf0       ??$SweepGeomTriangles@VCapsuleV@Gu@physx@@@Gu@physx@@YAMABVGeometryUnion@01@0ABVPxTransform@1@111MAAVPxVec3@1@2ABVFastVertex2ShapeScaling@Cm@1@AAVTriangleV@01@M@Z 10069cf0 f i GuCCDSweepPrimitives.obj
 0001:00068dc0       ??$SweepGeomTriangles@VBoxV@Gu@physx@@@Gu@physx@@YAMABVGeometryUnion@01@0ABVPxTransform@1@111MAAVPxVec3@1@2ABVFastVertex2ShapeScaling@Cm@1@AAVTriangleV@01@M@Z 10069dc0 f i GuCCDSweepPrimitives.obj
 0001:00068e80       ??$SweepGeomTriangles@VConvexHullV@Gu@physx@@@Gu@physx@@YAMABVGeometryUnion@01@0ABVPxTransform@1@111MAAVPxVec3@1@2ABVFastVertex2ShapeScaling@Cm@1@AAVTriangleV@01@M@Z 10069e80 f i GuCCDSweepPrimitives.obj
 0001:00068f50       ??$PX_UNUSED@VFastVertex2ShapeScaling@Cm@physx@@@@YAXABVFastVertex2ShapeScaling@Cm@physx@@@Z 10069f50 f i GuCCDSweepPrimitives.obj
 0001:00068f60       ??$PX_UNUSED@VTriangleV@Gu@physx@@@@YAXABVTriangleV@Gu@physx@@@Z 10069f60 f i GuCCDSweepPrimitives.obj
 0001:00068f70       ??$getRadius@VBoxV@Gu@physx@@@Gu@physx@@YAMABVPxGeometry@1@@Z 10069f70 f i GuCCDSweepPrimitives.obj
 0001:00068f80       ??$getRadius@VCapsuleV@Gu@physx@@@Gu@physx@@YAMABVPxGeometry@1@@Z 10069f80 f i GuCCDSweepPrimitives.obj
 0001:00068fe0       ??$getRadius@VConvexHullV@Gu@physx@@@Gu@physx@@YAMABVPxGeometry@1@@Z 10069fe0 f i GuCCDSweepPrimitives.obj
 0001:00068ff0       ??$gjkPenetration@U?$RelativeConvex@VCapsuleV@Gu@physx@@@Gu@physx@@U?$LocalConvex@VBoxV@Gu@physx@@@23@@Gu@physx@@YA?AW4GjkStatus@01@ABU?$RelativeConvex@VCapsuleV@Gu@physx@@@01@ABU?$LocalConvex@VBoxV@Gu@physx@@@01@ABT__m128@@2_NPIAE4AAEAAUGjkOutput@01@@Z 10069ff0 f i GuCCDSweepPrimitives.obj
 0001:00069ac0       ??$gjkPenetration@U?$RelativeConvex@VCapsuleV@Gu@physx@@@Gu@physx@@U?$LocalConvex@VCapsuleV@Gu@physx@@@23@@Gu@physx@@YA?AW4GjkStatus@01@ABU?$RelativeConvex@VCapsuleV@Gu@physx@@@01@ABU?$LocalConvex@VCapsuleV@Gu@physx@@@01@ABT__m128@@2_NPIAE4AAEAAUGjkOutput@01@@Z 1006aac0 f i GuCCDSweepPrimitives.obj
 0001:0006a590       ??$gjkPenetration@U?$RelativeConvex@VCapsuleV@Gu@physx@@@Gu@physx@@U?$LocalConvex@VConvexHullV@Gu@physx@@@23@@Gu@physx@@YA?AW4GjkStatus@01@ABU?$RelativeConvex@VCapsuleV@Gu@physx@@@01@ABU?$LocalConvex@VConvexHullV@Gu@physx@@@01@ABT__m128@@2_NPIAE4AAEAAUGjkOutput@01@@Z 1006b590 f i GuCCDSweepPrimitives.obj
 0001:0006b060       ??$gjkPenetration@U?$RelativeConvex@VTriangleV@Gu@physx@@@Gu@physx@@U?$LocalConvex@VBoxV@Gu@physx@@@23@@Gu@physx@@YA?AW4GjkStatus@01@ABU?$RelativeConvex@VTriangleV@Gu@physx@@@01@ABU?$LocalConvex@VBoxV@Gu@physx@@@01@ABT__m128@@2_NPIAE4AAEAAUGjkOutput@01@@Z 1006c060 f i GuCCDSweepPrimitives.obj
 0001:0006bb30       ??$gjkPenetration@U?$RelativeConvex@VTriangleV@Gu@physx@@@Gu@physx@@U?$LocalConvex@VCapsuleV@Gu@physx@@@23@@Gu@physx@@YA?AW4GjkStatus@01@ABU?$RelativeConvex@VTriangleV@Gu@physx@@@01@ABU?$LocalConvex@VCapsuleV@Gu@physx@@@01@ABT__m128@@2_NPIAE4AAEAAUGjkOutput@01@@Z 1006cb30 f i GuCCDSweepPrimitives.obj
 0001:0006c600       ??$gjkPenetration@U?$RelativeConvex@VTriangleV@Gu@physx@@@Gu@physx@@U?$LocalConvex@VConvexHullV@Gu@physx@@@23@@Gu@physx@@YA?AW4GjkStatus@01@ABU?$RelativeConvex@VTriangleV@Gu@physx@@@01@ABU?$LocalConvex@VConvexHullV@Gu@physx@@@01@ABT__m128@@2_NPIAE4AAEAAUGjkOutput@01@@Z 1006d600 f i GuCCDSweepPrimitives.obj
 0001:0006d0d0       ??$gjkRaycast@U?$RelativeConvex@VCapsuleV@Gu@physx@@@Gu@physx@@U?$LocalConvex@VBoxV@Gu@physx@@@23@@Gu@physx@@YA_NABU?$RelativeConvex@VCapsuleV@Gu@physx@@@01@ABU?$LocalConvex@VBoxV@Gu@physx@@@01@ABT__m128@@222AAT4@33M@Z 1006e0d0 f i GuCCDSweepPrimitives.obj
 0001:0006dcd0       ??$gjkRaycast@U?$RelativeConvex@VCapsuleV@Gu@physx@@@Gu@physx@@U?$LocalConvex@VCapsuleV@Gu@physx@@@23@@Gu@physx@@YA_NABU?$RelativeConvex@VCapsuleV@Gu@physx@@@01@ABU?$LocalConvex@VCapsuleV@Gu@physx@@@01@ABT__m128@@222AAT4@33M@Z 1006ecd0 f i GuCCDSweepPrimitives.obj
 0001:0006e8d0       ??$gjkRaycast@U?$RelativeConvex@VCapsuleV@Gu@physx@@@Gu@physx@@U?$LocalConvex@VConvexHullV@Gu@physx@@@23@@Gu@physx@@YA_NABU?$RelativeConvex@VCapsuleV@Gu@physx@@@01@ABU?$LocalConvex@VConvexHullV@Gu@physx@@@01@ABT__m128@@222AAT4@33M@Z 1006f8d0 f i GuCCDSweepPrimitives.obj
 0001:0006f4d0       ??$gjkRaycast@U?$RelativeConvex@VTriangleV@Gu@physx@@@Gu@physx@@U?$LocalConvex@VBoxV@Gu@physx@@@23@@Gu@physx@@YA_NABU?$RelativeConvex@VTriangleV@Gu@physx@@@01@ABU?$LocalConvex@VBoxV@Gu@physx@@@01@ABT__m128@@222AAT4@33M@Z 100704d0 f i GuCCDSweepPrimitives.obj
 0001:000700d0       ??$gjkRaycast@U?$RelativeConvex@VTriangleV@Gu@physx@@@Gu@physx@@U?$LocalConvex@VCapsuleV@Gu@physx@@@23@@Gu@physx@@YA_NABU?$RelativeConvex@VTriangleV@Gu@physx@@@01@ABU?$LocalConvex@VCapsuleV@Gu@physx@@@01@ABT__m128@@222AAT4@33M@Z 100710d0 f i GuCCDSweepPrimitives.obj
 0001:00070cd0       ??$gjkRaycast@U?$RelativeConvex@VTriangleV@Gu@physx@@@Gu@physx@@U?$LocalConvex@VConvexHullV@Gu@physx@@@23@@Gu@physx@@YA_NABU?$RelativeConvex@VTriangleV@Gu@physx@@@01@ABU?$LocalConvex@VConvexHullV@Gu@physx@@@01@ABT__m128@@222AAT4@33M@Z 10071cd0 f i GuCCDSweepPrimitives.obj
 0001:000718d0       ??$gjkRaycastPenetration@U?$RelativeConvex@VCapsuleV@Gu@physx@@@Gu@physx@@U?$LocalConvex@VBoxV@Gu@physx@@@23@@Gu@physx@@YA_NABU?$RelativeConvex@VCapsuleV@Gu@physx@@@01@ABU?$LocalConvex@VBoxV@Gu@physx@@@01@ABT__m128@@222AAT4@33M_N@Z 100728d0 f i GuCCDSweepPrimitives.obj
 0001:00071b90       ??$gjkRaycastPenetration@U?$RelativeConvex@VCapsuleV@Gu@physx@@@Gu@physx@@U?$LocalConvex@VCapsuleV@Gu@physx@@@23@@Gu@physx@@YA_NABU?$RelativeConvex@VCapsuleV@Gu@physx@@@01@ABU?$LocalConvex@VCapsuleV@Gu@physx@@@01@ABT__m128@@222AAT4@33M_N@Z 10072b90 f i GuCCDSweepPrimitives.obj
 0001:00071e50       ??$gjkRaycastPenetration@U?$RelativeConvex@VCapsuleV@Gu@physx@@@Gu@physx@@U?$LocalConvex@VConvexHullV@Gu@physx@@@23@@Gu@physx@@YA_NABU?$RelativeConvex@VCapsuleV@Gu@physx@@@01@ABU?$LocalConvex@VConvexHullV@Gu@physx@@@01@ABT__m128@@222AAT4@33M_N@Z 10072e50 f i GuCCDSweepPrimitives.obj
 0001:00072110       ??$gjkRaycastPenetration@U?$RelativeConvex@VTriangleV@Gu@physx@@@Gu@physx@@U?$LocalConvex@VBoxV@Gu@physx@@@23@@Gu@physx@@YA_NABU?$RelativeConvex@VTriangleV@Gu@physx@@@01@ABU?$LocalConvex@VBoxV@Gu@physx@@@01@ABT__m128@@222AAT4@33M_N@Z 10073110 f i GuCCDSweepPrimitives.obj
 0001:000723d0       ??$gjkRaycastPenetration@U?$RelativeConvex@VTriangleV@Gu@physx@@@Gu@physx@@U?$LocalConvex@VCapsuleV@Gu@physx@@@23@@Gu@physx@@YA_NABU?$RelativeConvex@VTriangleV@Gu@physx@@@01@ABU?$LocalConvex@VCapsuleV@Gu@physx@@@01@ABT__m128@@222AAT4@33M_N@Z 100733d0 f i GuCCDSweepPrimitives.obj
 0001:00072690       ??$gjkRaycastPenetration@U?$RelativeConvex@VTriangleV@Gu@physx@@@Gu@physx@@U?$LocalConvex@VConvexHullV@Gu@physx@@@23@@Gu@physx@@YA_NABU?$RelativeConvex@VTriangleV@Gu@physx@@@01@ABU?$LocalConvex@VConvexHullV@Gu@physx@@@01@ABT__m128@@222AAT4@33M_N@Z 10073690 f i GuCCDSweepPrimitives.obj
 0001:00072950       ??0?$RelativeConvex@VCapsuleV@Gu@physx@@@Gu@physx@@QAE@ABVCapsuleV@12@ABVPsMatTransformV@aos@shdfnd@2@@Z 10073950 f i GuCCDSweepPrimitives.obj
 0001:000729b0       ??0?$RelativeConvex@VTriangleV@Gu@physx@@@Gu@physx@@QAE@ABVTriangleV@12@ABVPsMatTransformV@aos@shdfnd@2@@Z 100739b0 f i GuCCDSweepPrimitives.obj
 0001:00072a10       ??0BoxV@Gu@physx@@QAE@ABVPxGeometry@2@@Z 10073a10 f i GuCCDSweepPrimitives.obj
 0001:00072ac0       ??0CapsuleV@Gu@physx@@QAE@ABVPxGeometry@2@@Z 10073ac0 f i GuCCDSweepPrimitives.obj
 0001:00072bf0       ??0ConvexHullV@Gu@physx@@QAE@ABVPxGeometry@2@@Z 10073bf0 f i GuCCDSweepPrimitives.obj
 0001:00072d30       ??1?$RelativeConvex@VCapsuleV@Gu@physx@@@Gu@physx@@UAE@XZ 10073d30 f i GuCCDSweepPrimitives.obj
 0001:00072d50       ??1?$RelativeConvex@VTriangleV@Gu@physx@@@Gu@physx@@UAE@XZ 10073d50 f i GuCCDSweepPrimitives.obj
 0001:00072d70       ??_G?$RelativeConvex@VCapsuleV@Gu@physx@@@Gu@physx@@UAEPAXI@Z 10073d70 f i GuCCDSweepPrimitives.obj
 0001:00072d70       ??_E?$RelativeConvex@VCapsuleV@Gu@physx@@@Gu@physx@@UAEPAXI@Z 10073d70 f i GuCCDSweepPrimitives.obj
 0001:00072da0       ??_E?$RelativeConvex@VTriangleV@Gu@physx@@@Gu@physx@@UAEPAXI@Z 10073da0 f i GuCCDSweepPrimitives.obj
 0001:00072da0       ??_G?$RelativeConvex@VTriangleV@Gu@physx@@@Gu@physx@@UAEPAXI@Z 10073da0 f i GuCCDSweepPrimitives.obj
 0001:00072dd0       ?QuatVLoadA@aos@shdfnd@physx@@YA?AT__m128@@PBM@Z 10073dd0 f i GuCCDSweepPrimitives.obj
 0001:00072e10       ?V3LoadA@aos@shdfnd@physx@@YA?AT__m128@@PBM@Z 10073e10 f i GuCCDSweepPrimitives.obj
 0001:00072ea0       ?V4LoadA@aos@shdfnd@physx@@YA?AT__m128@@QBM@Z 10073ea0 f i GuCCDSweepPrimitives.obj
 0001:00072f20       ?getCenter@?$RelativeConvex@VCapsuleV@Gu@physx@@@Gu@physx@@UBE?AT__m128@@XZ 10073f20 f i GuCCDSweepPrimitives.obj
 0001:00072f70       ?getCenter@?$RelativeConvex@VTriangleV@Gu@physx@@@Gu@physx@@UBE?AT__m128@@XZ 10073f70 f i GuCCDSweepPrimitives.obj
 0001:00072fc0       ?getGjkConvex@?$RelativeConvex@VCapsuleV@Gu@physx@@@Gu@physx@@QBE?AU123@XZ 10073fc0 f i GuCCDSweepPrimitives.obj
 0001:00072ff0       ?getGjkConvex@?$RelativeConvex@VTriangleV@Gu@physx@@@Gu@physx@@QBE?AU123@XZ 10073ff0 f i GuCCDSweepPrimitives.obj
 0001:00073020       ?getSweepMargin@?$RelativeConvex@VCapsuleV@Gu@physx@@@Gu@physx@@UBE?AT__m128@@XZ 10074020 f i GuCCDSweepPrimitives.obj
 0001:00073050       ?getSweepMargin@?$RelativeConvex@VTriangleV@Gu@physx@@@Gu@physx@@UBE?AT__m128@@XZ 10074050 f i GuCCDSweepPrimitives.obj
 0001:00073080       ?support@?$RelativeConvex@VCapsuleV@Gu@physx@@@Gu@physx@@UBE?AT__m128@@ABT4@@Z 10074080 f i GuCCDSweepPrimitives.obj
 0001:000730c0       ?support@?$RelativeConvex@VCapsuleV@Gu@physx@@@Gu@physx@@UBE?AT__m128@@ABT4@AAH@Z 100740c0 f i GuCCDSweepPrimitives.obj
 0001:00073100       ?support@?$RelativeConvex@VTriangleV@Gu@physx@@@Gu@physx@@UBE?AT__m128@@ABT4@@Z 10074100 f i GuCCDSweepPrimitives.obj
 0001:00073140       ?support@?$RelativeConvex@VTriangleV@Gu@physx@@@Gu@physx@@UBE?AT__m128@@ABT4@AAH@Z 10074140 f i GuCCDSweepPrimitives.obj
 0001:00073180       ?supportPoint@?$RelativeConvex@VCapsuleV@Gu@physx@@@Gu@physx@@UBE?AT__m128@@H@Z 10074180 f i GuCCDSweepPrimitives.obj
 0001:000731d0       ?supportPoint@?$RelativeConvex@VTriangleV@Gu@physx@@@Gu@physx@@UBE?AT__m128@@H@Z 100741d0 f i GuCCDSweepPrimitives.obj
 0001:00073220       ?supportRelative@CapsuleV@Gu@physx@@QBE?AT__m128@@ABT4@ABVPsMatTransformV@aos@shdfnd@3@1@Z 10074220 f i GuCCDSweepPrimitives.obj
 0001:00073280       ?supportRelative@CapsuleV@Gu@physx@@QBE?AT__m128@@ABT4@ABVPsMatTransformV@aos@shdfnd@3@1AAH@Z 10074280 f i GuCCDSweepPrimitives.obj
 0001:000732e0       ?supportRelative@TriangleV@Gu@physx@@QBE?AT__m128@@ABT4@ABVPsMatTransformV@aos@shdfnd@3@1@Z 100742e0 f i GuCCDSweepPrimitives.obj
 0001:00073340       ?supportRelative@TriangleV@Gu@physx@@QBE?AT__m128@@ABT4@ABVPsMatTransformV@aos@shdfnd@3@1AAH@Z 10074340 f i GuCCDSweepPrimitives.obj
 0001:000733a0       ?barycentricCoordinates@Gu@physx@@YAXABT__m128@@00AAT3@@Z 100743a0 f   GuBarycentricCoordinates.obj
 0001:00073500       ?barycentricCoordinates@Gu@physx@@YAXABT__m128@@000AAT3@1@Z 10074500 f   GuBarycentricCoordinates.obj
 0001:00073850       ?barycentricCoordinates@Gu@physx@@YAXABT__m128@@00AAT3@1@Z 10074850 f   GuBarycentricCoordinates.obj
 0001:00073a50       ?FIsEq@aos@shdfnd@physx@@YA?AT__m128@@T4@0@Z 10074a50 f i GuBarycentricCoordinates.obj
 0001:00073b20       ?addAxis@SeparatingAxes@Gu@physx@@QAE_NABVPxVec3@3@@Z 10074b20 f   GuSeparatingAxes.obj
 0001:00073c20       ?contactBoxBox@Gu@physx@@YA_NABVGeometryUnion@12@0ABVPxTransform@2@1ABUNarrowPhaseParams@12@AAUCache@12@AAVContactBuffer@12@PAVRenderOutput@Cm@2@@Z 10074c20 f   GuContactBoxBox.obj
 0001:00076bd0       ??$PX_UNUSED@PAVRenderOutput@Cm@physx@@@@YAXABQAVRenderOutput@Cm@physx@@@Z 10077bd0 f i GuContactBoxBox.obj
 0001:00076be0       ??$checkType@$$CBVPxBoxGeometry@physx@@@physx@@YAXABVGeometryUnion@Gu@0@@Z 10077be0 f i GuContactBoxBox.obj
 0001:00076c40       ??$get@$$CBVPxBoxGeometry@physx@@@GeometryUnion@Gu@physx@@QBEABVPxBoxGeometry@2@XZ 10077c40 f i GuContactBoxBox.obj
 0001:00076c60       ??0VertexInfo@@QAE@XZ      10077c60 f i GuContactBoxBox.obj
 0001:00076c80       ?contact@ContactBuffer@Gu@physx@@QAE_NABVPxVec3@3@0MI@Z 10077c80 f i GuContactBoxBox.obj
 0001:00076dc0       ?contactCapsuleBox@Gu@physx@@YA_NABVGeometryUnion@12@0ABVPxTransform@2@1ABUNarrowPhaseParams@12@AAUCache@12@AAVContactBuffer@12@PAVRenderOutput@Cm@2@@Z 10077dc0 f   GuContactCapsuleBox.obj
 0001:00077dc0       ??$PX_UNUSED@UCache@Gu@physx@@@@YAXABUCache@Gu@physx@@@Z 10078dc0 f i GuContactCapsuleBox.obj
 0001:00077dd0       ??$checkType@$$CBVPxCapsuleGeometry@physx@@@physx@@YAXABVGeometryUnion@Gu@0@@Z 10078dd0 f i GuContactCapsuleBox.obj
 0001:00077e40       ??$get@$$CBVPxCapsuleGeometry@physx@@@GeometryUnion@Gu@physx@@QBEABVPxCapsuleGeometry@2@XZ 10078e40 f i GuContactCapsuleBox.obj
 0001:00077e60       ?closestAxis@shdfnd@physx@@YAIABVPxVec3@2@AAI1@Z 10078e60 f i GuContactCapsuleBox.obj
 0001:00077f30       ?makeFatEdge@shdfnd@physx@@YAXAAVPxVec3@2@0M@Z 10078f30 f i GuContactCapsuleBox.obj
 0001:00077ff0       ?contactCapsuleCapsule@Gu@physx@@YA_NABVGeometryUnion@12@0ABVPxTransform@2@1ABUNarrowPhaseParams@12@AAUCache@12@AAVContactBuffer@12@PAVRenderOutput@Cm@2@@Z 10078ff0 f   GuContactCapsuleCapsule.obj
 0001:000788f0       ?contactCapsuleConvex@Gu@physx@@YA_NABVGeometryUnion@12@0ABVPxTransform@2@1ABUNarrowPhaseParams@12@AAUCache@12@AAVContactBuffer@12@PAVRenderOutput@Cm@2@@Z 100798f0 f   GuContactCapsuleConvex.obj
 0001:00079e20       ??$checkType@$$CBUPxConvexMeshGeometryLL@physx@@@physx@@YAXABVGeometryUnion@Gu@0@@Z 1007ae20 f i GuContactCapsuleConvex.obj
 0001:00079e80       ??$get@$$CBUPxConvexMeshGeometryLL@physx@@@GeometryUnion@Gu@physx@@QBEABUPxConvexMeshGeometryLL@2@XZ 1007ae80 f i GuContactCapsuleConvex.obj
 0001:00079ea0       ??0ConvexEdge@Gu@physx@@QAE@XZ 1007aea0 f i GuContactCapsuleConvex.obj
 0001:00079f10       ?contactCapsuleMesh@Gu@physx@@YA_NABVGeometryUnion@12@0ABVPxTransform@2@1ABUNarrowPhaseParams@12@AAUCache@12@AAVContactBuffer@12@PAVRenderOutput@Cm@2@@Z 1007af10 f   GuContactCapsuleMesh.obj
 0001:0007a110       ?contactCapsuleHeightfield@Gu@physx@@YA_NABVGeometryUnion@12@0ABVPxTransform@2@1ABUNarrowPhaseParams@12@AAUCache@12@AAVContactBuffer@12@PAVRenderOutput@Cm@2@@Z 1007b110 f   GuContactCapsuleMesh.obj
 0001:0007b720       ??0Capsule@Gu@physx@@QAE@ABVSegment@12@M@Z 1007c720 f i GuContactCapsuleMesh.obj
 0001:0007b750       ??0TrianglePadded@Gu@physx@@QAE@XZ 1007c750 f i GuContactCapsuleMesh.obj
 0001:0007b770       ??1TrianglePadded@Gu@physx@@QAE@XZ 1007c770 f i GuContactCapsuleMesh.obj
 0001:0007b790       ??4PxBounds3@physx@@QAEAAV01@$$QAV01@@Z 1007c790 f i GuContactCapsuleMesh.obj
 0001:0007b7c0       ?computeBarycentricPoint@shdfnd@physx@@YA?AVPxVec3@2@ABV32@00MM@Z 1007c7c0 f i GuContactCapsuleMesh.obj
 0001:0007b890       ?distanceSegmentTriangleSquared@Gu@physx@@YAMABVSegment@12@ABVPxVec3@2@11PAM22@Z 1007c890 f i GuContactCapsuleMesh.obj
 0001:0007b8d0       ?getNextIndex3@shdfnd@physx@@YAII@Z 1007c8d0 f i GuContactCapsuleMesh.obj
 0001:0007b8f0       ?getScaledVertices@Cm@physx@@YAXPAVPxVec3@2@ABV32@11_NABVFastVertex2ShapeScaling@12@@Z 1007c8f0 f i GuContactCapsuleMesh.obj
 0001:0007b9d0       ?intersectRayTriangleCulling@Gu@physx@@YA_NABVPxVec3@2@0000AAM11M@Z 1007c9d0 f i GuContactCapsuleMesh.obj
 0001:0007ba10       ?normal@PxTriangle@physx@@QBEXAAVPxVec3@2@@Z 1007ca10 f i GuContactCapsuleMesh.obj
 0001:0007ba80       ?transformFast@PxBounds3@physx@@SA?AV12@ABVPxTransform@2@ABV12@@Z 1007ca80 f i GuContactCapsuleMesh.obj
 0001:0007bb00       ?transformQueryBounds@FastVertex2ShapeScaling@Cm@physx@@QBEXAAVPxVec3@3@0AAVPxMat33@3@@Z 1007cb00 f i GuContactCapsuleMesh.obj
 0001:0007bbf0       ?contactBoxConvex@Gu@physx@@YA_NABVGeometryUnion@12@0ABVPxTransform@2@1ABUNarrowPhaseParams@12@AAUCache@12@AAVContactBuffer@12@PAVRenderOutput@Cm@2@@Z 1007cbf0 f   GuContactConvexConvex.obj
 0001:0007bd00       ?contactConvexConvex@Gu@physx@@YA_NABVGeometryUnion@12@0ABVPxTransform@2@1ABUNarrowPhaseParams@12@AAUCache@12@AAVContactBuffer@12@PAVRenderOutput@Cm@2@@Z 1007cd00 f   GuContactConvexConvex.obj
 0001:0007def0       ??0Matrix34@Cm@physx@@QAE@ABVPxVec3@2@000@Z 1007eef0 f i GuContactConvexConvex.obj
 0001:0007df30       ??4PxPlane@physx@@QAEAAV01@$$QAV01@@Z 1007ef30 f i GuContactConvexConvex.obj
 0001:0007df60       ??4PxTransform@physx@@QAEAAV01@$$QAV01@@Z 1007ef60 f i GuContactConvexConvex.obj
 0001:0007df90       ??LFastVertex2ShapeScaling@Cm@physx@@QBE?AVPxVec3@2@ABV32@@Z 1007ef90 f i GuContactConvexConvex.obj
 0001:0007dfc0       ?BoxSupport@@YAXQBMABVPxVec3@physx@@QAM@Z 1007efc0 f i GuContactConvexConvex.obj
 0001:0007e070       ?PxcMultiplyAdd3x4@@YAMIABVPxVec3@physx@@0ABVMatrix34@Cm@2@@Z 1007f070 f i GuContactConvexConvex.obj
 0001:0007e150       ?PxcMultiplySub3x4@@YAMIABVPxVec3@physx@@0ABVMatrix34@Cm@2@@Z 1007f150 f i GuContactConvexConvex.obj
 0001:0007e200       ?getMax@HullPolygonData@Gu@physx@@QBEMXZ 1007f200 f i GuContactConvexConvex.obj
 0001:0007e230       ?getMin@HullPolygonData@Gu@physx@@QBEMPIBVPxVec3@3@@Z 1007f230 f i GuContactConvexConvex.obj
 0001:0007e260       ?getPolygonVertexRefs@PolygonalData@Gu@physx@@QBEPBEABUHullPolygonData@23@@Z 1007f260 f i GuContactConvexConvex.obj
 0001:0007e280       ?set@Matrix34@Cm@physx@@QAEXABVPxQuat@3@@Z 1007f280 f i GuContactConvexConvex.obj
 0001:0007e2c0       ?contactBoxMesh@Gu@physx@@YA_NABVGeometryUnion@12@0ABVPxTransform@2@1ABUNarrowPhaseParams@12@AAUCache@12@AAVContactBuffer@12@PAVRenderOutput@Cm@2@@Z 1007f2c0 f   GuContactConvexMesh.obj
 0001:0007e3c0       ?contactConvexMesh@Gu@physx@@YA_NABVGeometryUnion@12@0ABVPxTransform@2@1ABUNarrowPhaseParams@12@AAUCache@12@AAVContactBuffer@12@PAVRenderOutput@Cm@2@@Z 1007f3c0 f   GuContactConvexMesh.obj
 0001:0007e4a0       ?contactBoxHeightfield@Gu@physx@@YA_NABVGeometryUnion@12@0ABVPxTransform@2@1ABUNarrowPhaseParams@12@AAUCache@12@AAVContactBuffer@12@PAVRenderOutput@Cm@2@@Z 1007f4a0 f   GuContactConvexMesh.obj
 0001:0007e590       ?contactConvexHeightfield@Gu@physx@@YA_NABVGeometryUnion@12@0ABVPxTransform@2@1ABUNarrowPhaseParams@12@AAUCache@12@AAVContactBuffer@12@PAVRenderOutput@Cm@2@@Z 1007f590 f   GuContactConvexMesh.obj
 0001:00081190       ??0?$Array@IV?$InlineAllocator@$0BBAA@VNamedAllocator@shdfnd@physx@@@shdfnd@physx@@@shdfnd@physx@@QAE@ABV?$InlineAllocator@$0BBAA@VNamedAllocator@shdfnd@physx@@@12@@Z 10082190 f i GuContactConvexMesh.obj
 0001:000811e0       ??0?$CacheMap@UCachedEdge@Gu@physx@@$0IA@@Gu@physx@@QAE@XZ 100821e0 f i GuContactConvexMesh.obj
 0001:00081240       ??0?$CacheMap@UCachedVertex@Gu@physx@@$0IA@@Gu@physx@@QAE@XZ 10082240 f i GuContactConvexMesh.obj
 0001:000812a0       ??0?$InlineAllocator@$0BBAA@VNamedAllocator@shdfnd@physx@@@shdfnd@physx@@QAE@ABV012@@Z 100822a0 f i GuContactConvexMesh.obj
 0001:000812d0       ??0?$InlineAllocator@$0BBAA@VNamedAllocator@shdfnd@physx@@@shdfnd@physx@@QAE@ABVNamedAllocator@12@@Z 100822d0 f i GuContactConvexMesh.obj
 0001:00081300       ??0?$InlineArray@I$0EEA@VNamedAllocator@shdfnd@physx@@@shdfnd@physx@@QAE@ABVNamedAllocator@12@@Z 10082300 f i GuContactConvexMesh.obj
 0001:00081370       ??0CachedEdge@Gu@physx@@QAE@II@Z 10082370 f i GuContactConvexMesh.obj
 0001:000813b0       ??0CachedEdge@Gu@physx@@QAE@XZ 100823b0 f i GuContactConvexMesh.obj
 0001:000813c0       ??0CachedVertex@Gu@physx@@QAE@I@Z 100823c0 f i GuContactConvexMesh.obj
 0001:000813e0       ??0CachedVertex@Gu@physx@@QAE@XZ 100823e0 f i GuContactConvexMesh.obj
 0001:000813f0       ??0ConvexMeshContactGenerationCallback@@QAE@AAV?$InlineArray@I$0EEA@VNamedAllocator@shdfnd@physx@@@shdfnd@physx@@ABVPxTransform@3@1ABUPolygonalData@Gu@3@ABVMatrix34@Cm@3@3PBVTriangleMesh@63@PIBEABVFastVertex2ShapeScaling@83@6MM_N7M11AAVContactBuffer@63@ABVBoxPadded@63@@Z 100823f0 f i GuContactConvexMesh.obj
 0001:000814b0       ??0Matrix34@Cm@physx@@QAE@ABV012@@Z 100824b0 f i GuContactConvexMesh.obj
 0001:000814e0       ??0PxPlane@physx@@QAE@ABVPxVec3@1@00@Z 100824e0 f i GuContactConvexMesh.obj
 0001:00081560       ??1?$Array@IV?$InlineAllocator@$0BBAA@VNamedAllocator@shdfnd@physx@@@shdfnd@physx@@@shdfnd@physx@@QAE@XZ 10082560 f i GuContactConvexMesh.obj
 0001:000815d0       ??1?$InlineAllocator@$0BBAA@VNamedAllocator@shdfnd@physx@@@shdfnd@physx@@QAE@XZ 100825d0 f i GuContactConvexMesh.obj
 0001:000815f0       ??1?$InlineArray@I$0EEA@VNamedAllocator@shdfnd@physx@@@shdfnd@physx@@QAE@XZ 100825f0 f i GuContactConvexMesh.obj
 0001:00081610       ??1ConvexMeshContactGenerationCallback@@UAE@XZ 10082610 f i GuContactConvexMesh.obj
 0001:00081630       ??8CachedEdge@Gu@physx@@QBE_NABU012@@Z 10082630 f i GuContactConvexMesh.obj
 0001:00081670       ??8CachedVertex@Gu@physx@@QBE_NABU012@@Z 10082670 f i GuContactConvexMesh.obj
 0001:000816a0       ??_GConvexMeshContactGenerationCallback@@UAEPAXI@Z 100826a0 f i GuContactConvexMesh.obj
 0001:000816a0       ??_EConvexMeshContactGenerationCallback@@UAEPAXI@Z 100826a0 f i GuContactConvexMesh.obj
 0001:000816e0       ?addData@?$CacheMap@UCachedEdge@Gu@physx@@$0IA@@Gu@physx@@QAE_NABUCachedEdge@23@@Z 100826e0 f i GuContactConvexMesh.obj
 0001:00081820       ?addData@?$CacheMap@UCachedVertex@Gu@physx@@$0IA@@Gu@physx@@QAE_NABUCachedVertex@23@@Z 10082820 f i GuContactConvexMesh.obj
 0001:00081950       ?allocate@?$Array@IV?$InlineAllocator@$0BBAA@VNamedAllocator@shdfnd@physx@@@shdfnd@physx@@@shdfnd@physx@@IAEPAII@Z 10082950 f i GuContactConvexMesh.obj
 0001:000819c0       ?allocate@?$InlineAllocator@$0BBAA@VNamedAllocator@shdfnd@physx@@@shdfnd@physx@@QAEPAXIPBDH@Z 100829c0 f i GuContactConvexMesh.obj
 0001:00081a10       ?begin@?$Array@IV?$InlineAllocator@$0BBAA@VNamedAllocator@shdfnd@physx@@@shdfnd@physx@@@shdfnd@physx@@QAEPAIXZ 10082a10 f i GuContactConvexMesh.obj
 0001:00081a30       ?capacity@?$Array@IV?$InlineAllocator@$0BBAA@VNamedAllocator@shdfnd@physx@@@shdfnd@physx@@@shdfnd@physx@@QBEIXZ 10082a30 f i GuContactConvexMesh.obj
 0001:00081a50       ?contains@?$CacheMap@UCachedEdge@Gu@physx@@$0IA@@Gu@physx@@QBE_NABUCachedEdge@23@@Z 10082a50 f i GuContactConvexMesh.obj
 0001:00081ad0       ?contains@?$CacheMap@UCachedVertex@Gu@physx@@$0IA@@Gu@physx@@QBE_NABUCachedVertex@23@@Z 10082ad0 f i GuContactConvexMesh.obj
 0001:00081b50       ?copy@?$Array@IV?$InlineAllocator@$0BBAA@VNamedAllocator@shdfnd@physx@@@shdfnd@physx@@@shdfnd@physx@@KAXPAI0PBI@Z 10082b50 f i GuContactConvexMesh.obj
 0001:00081ba0       ?deallocate@?$Array@IV?$InlineAllocator@$0BBAA@VNamedAllocator@shdfnd@physx@@@shdfnd@physx@@@shdfnd@physx@@IAEXPAX@Z 10082ba0 f i GuContactConvexMesh.obj
 0001:00081bc0       ?deallocate@?$InlineAllocator@$0BBAA@VNamedAllocator@shdfnd@physx@@@shdfnd@physx@@QAEXPAX@Z 10082bc0 f i GuContactConvexMesh.obj
 0001:00081bf0       ?destroy@?$Array@IV?$InlineAllocator@$0BBAA@VNamedAllocator@shdfnd@physx@@@shdfnd@physx@@@shdfnd@physx@@KAXPAI0@Z 10082bf0 f i GuContactConvexMesh.obj
 0001:00081c10       ?end@?$Array@IV?$InlineAllocator@$0BBAA@VNamedAllocator@shdfnd@physx@@@shdfnd@physx@@@shdfnd@physx@@QAEPAIXZ 10082c10 f i GuContactConvexMesh.obj
 0001:00081c30       ?forceSize_Unsafe@?$Array@IV?$InlineAllocator@$0BBAA@VNamedAllocator@shdfnd@physx@@@shdfnd@physx@@@shdfnd@physx@@QAEXI@Z 10082c30 f i GuContactConvexMesh.obj
 0001:00081c90       ?getHashCode@CachedEdge@Gu@physx@@QBEIXZ 10082c90 f i GuContactConvexMesh.obj
 0001:00081cc0       ?getHashCode@CachedVertex@Gu@physx@@QBEIXZ 10082cc0 f i GuContactConvexMesh.obj
 0001:00081cd0       ?grow@?$Array@IV?$InlineAllocator@$0BBAA@VNamedAllocator@shdfnd@physx@@@shdfnd@physx@@@shdfnd@physx@@IAEXI@Z 10082cd0 f i GuContactConvexMesh.obj
 0001:00081d30       ?isInUserMemory@?$Array@IV?$InlineAllocator@$0BBAA@VNamedAllocator@shdfnd@physx@@@shdfnd@physx@@@shdfnd@physx@@QBEIXZ 10082d30 f i GuContactConvexMesh.obj
 0001:00081d50       ?processHit@ConvexMeshContactGenerationCallback@@UAE_NABUPxRaycastHit@physx@@ABVPxVec3@3@11AAMPBI@Z 10082d50 f i GuContactConvexMesh.obj
 0001:00081e10       ?recreate@?$Array@IV?$InlineAllocator@$0BBAA@VNamedAllocator@shdfnd@physx@@@shdfnd@physx@@@shdfnd@physx@@IAEXI@Z 10082e10 f i GuContactConvexMesh.obj
 0001:00081f10       ?reserve@?$Array@IV?$InlineAllocator@$0BBAA@VNamedAllocator@shdfnd@physx@@@shdfnd@physx@@@shdfnd@physx@@QAEXI@Z 10082f10 f i GuContactConvexMesh.obj
 0001:00081f40       ?size@?$Array@IV?$InlineAllocator@$0BBAA@VNamedAllocator@shdfnd@physx@@@shdfnd@physx@@@shdfnd@physx@@QBEIXZ 10082f40 f i GuContactConvexMesh.obj
 0001:00081f60       ?contactPlaneBox@Gu@physx@@YA_NABVGeometryUnion@12@0ABVPxTransform@2@1ABUNarrowPhaseParams@12@AAUCache@12@AAVContactBuffer@12@PAVRenderOutput@Cm@2@@Z 10082f60 f   GuContactPlaneBox.obj
 0001:00082640       ??$PxUnionCast@PAIPAM@physx@@YAPAIPAM@Z 10083640 f i GuContactPlaneBox.obj
 0001:00082660       ??0AB@?1???$PxUnionCast@PAIPAM@physx@@YAPAIPAM@Z@QAE@0@Z 10083660 f i GuContactPlaneBox.obj
 0001:00082680       ?contactPlaneCapsule@Gu@physx@@YA_NABVGeometryUnion@12@0ABVPxTransform@2@1ABUNarrowPhaseParams@12@AAUCache@12@AAVContactBuffer@12@PAVRenderOutput@Cm@2@@Z 10083680 f   GuContactPlaneCapsule.obj
 0001:00082830       ?contactPlaneConvex@Gu@physx@@YA_NABVGeometryUnion@12@0ABVPxTransform@2@1ABUNarrowPhaseParams@12@AAUCache@12@AAVContactBuffer@12@PAVRenderOutput@Cm@2@@Z 10083830 f   GuContactPlaneConvex.obj
 0001:00082a10       ??AMatrix34@Cm@physx@@QAEAAVPxVec3@2@H@Z 10083a10 f i GuContactPlaneConvex.obj
 0001:00082a30       ?contact@ContactBuffer@Gu@physx@@QAEPAUContactPoint@23@XZ 10083a30 f i GuContactPlaneConvex.obj
 0001:00082a80       ?getVertex2ShapeSkew@FastVertex2ShapeScaling@Cm@physx@@QBEABVPxMat33@3@XZ 10083a80 f i GuContactPlaneConvex.obj
 0001:00082ae0       ?findRotationMatrixFromZ@Gu@physx@@YA?AVPxMat33@2@ABVPxVec3@2@@Z 10083ae0 f   GuContactPolygonPolygon.obj
 0001:00083110       ?contactPolygonPolygonExt@Gu@physx@@YA_NIPBVPxVec3@2@PBEABVMatrix34@Cm@2@ABVPxPlane@2@ABVPxMat33@2@I01234ABV32@22IIAAVContactBuffer@12@_N5M@Z 10084110 f   GuContactPolygonPolygon.obj
 0001:00084900       ??4ContactPoint@Gu@physx@@QAEAAU012@ABU012@@Z 10085900 f i GuContactPolygonPolygon.obj
 0001:000849b0       ??RPxMat33@physx@@QAEAAMII@Z 100859b0 f i GuContactPolygonPolygon.obj
 0001:000849e0       ?EdgeEdgeContactSpecial@@YA_NABVPxVec3@physx@@ABVPxPlane@2@00000AAMAAV12@IIM@Z 100859e0 f i GuContactPolygonPolygon.obj
 0001:00084be0       ?cross001@shdfnd@physx@@YA?AVPxVec3@2@ABV32@@Z 10085be0 f i GuContactPolygonPolygon.obj
 0001:00084c20       ?degToRad@shdfnd@physx@@YAMM@Z 10085c20 f i GuContactPolygonPolygon.obj
 0001:00084c40       ?pointInTriangle2D@@YA_NMMMMMMMM@Z 10085c40 f i GuContactPolygonPolygon.obj
 0001:00084da0       ?transform2D@@YAXAAM0ABVPxVec3@physx@@ABVMatrix34@Cm@2@@Z 10085da0 f i GuContactPolygonPolygon.obj
 0001:00084e30       ?transform2DT@@YAXAAM0ABVPxVec3@physx@@ABVPxMat33@2@@Z 10085e30 f i GuContactPolygonPolygon.obj
 0001:00084e60       ?transformTranspose@@YA?AVMatrix34@Cm@physx@@ABVPxMat33@3@ABV123@@Z 10085e60 f i GuContactPolygonPolygon.obj
 0001:00084ed0       ?transformZ@@YAMABVPxVec3@physx@@ABVMatrix34@Cm@2@@Z 10085ed0 f i GuContactPolygonPolygon.obj
 0001:00084f20       ?contactSphereBox@Gu@physx@@YA_NABVGeometryUnion@12@0ABVPxTransform@2@1ABUNarrowPhaseParams@12@AAUCache@12@AAVContactBuffer@12@PAVRenderOutput@Cm@2@@Z 10085f20 f   GuContactSphereBox.obj
 0001:00085470       ??$checkType@$$CBVPxSphereGeometry@physx@@@physx@@YAXABVGeometryUnion@Gu@0@@Z 10086470 f i GuContactSphereBox.obj
 0001:000854d0       ??$get@$$CBVPxSphereGeometry@physx@@@GeometryUnion@Gu@physx@@QBEABVPxSphereGeometry@2@XZ 100864d0 f i GuContactSphereBox.obj
 0001:00085540       ?contactSphereCapsule@Gu@physx@@YA_NABVGeometryUnion@12@0ABVPxTransform@2@1ABUNarrowPhaseParams@12@AAUCache@12@AAVContactBuffer@12@PAVRenderOutput@Cm@2@@Z 10086540 f   GuContactSphereCapsule.obj
 0001:00085790       ?contactSphereMesh@Gu@physx@@YA_NABVGeometryUnion@12@0ABVPxTransform@2@1ABUNarrowPhaseParams@12@AAUCache@12@AAVContactBuffer@12@PAVRenderOutput@Cm@2@@Z 10086790 f   GuContactSphereMesh.obj
 0001:000859a0       ?contactSphereHeightfield@Gu@physx@@YA_NABVGeometryUnion@12@0ABVPxTransform@2@1ABUNarrowPhaseParams@12@AAUCache@12@AAVContactBuffer@12@PAVRenderOutput@Cm@2@@Z 100869a0 f   GuContactSphereMesh.obj
 0001:00087070       ??$median3@USortKey@@$$CBU?$Less@USortKey@@@shdfnd@physx@@@internal@shdfnd@physx@@YAXPAUSortKey@@HHABU?$Less@USortKey@@@12@@Z 10088070 f i GuContactSphereMesh.obj
 0001:00087160       ??$partition@USortKey@@$$CBU?$Less@USortKey@@@shdfnd@physx@@@internal@shdfnd@physx@@YAHPAUSortKey@@HHABU?$Less@USortKey@@@12@@Z 10088160 f i GuContactSphereMesh.obj
 0001:000872d0       ??$smallSort@USortKey@@$$CBU?$Less@USortKey@@@shdfnd@physx@@@internal@shdfnd@physx@@YAXPAUSortKey@@HHABU?$Less@USortKey@@@12@@Z 100882d0 f i GuContactSphereMesh.obj
 0001:000875b0       ??$swap@USortKey@@@shdfnd@physx@@YAXAAUSortKey@@0@Z 100885b0 f i GuContactSphereMesh.obj
 0001:000875f0       ??0?$ScopedPointer@HVTempAllocator@shdfnd@physx@@@shdfnd@physx@@QAE@XZ 100885f0 f i GuContactSphereMesh.obj
 0001:00087610       ??0TempAllocator@shdfnd@physx@@QAE@PBD@Z 10088610 f i GuContactSphereMesh.obj
 0001:00087620       ??0TriangleData@@QAE@XZ    10088620 f i GuContactSphereMesh.obj
 0001:00087640       ??1?$ScopedPointer@HVTempAllocator@shdfnd@physx@@@shdfnd@physx@@QAE@XZ 10088640 f i GuContactSphereMesh.obj
 0001:00087670       ??B?$ScopedPointer@HVTempAllocator@shdfnd@physx@@@shdfnd@physx@@QBEPAHXZ 10088670 f i GuContactSphereMesh.obj
 0001:00087680       ??MSortKey@@QBE_NABU0@@Z   10088680 f i GuContactSphereMesh.obj
 0001:000876c0       ??R?$Less@USortKey@@@shdfnd@physx@@QBE_NABUSortKey@@0@Z 100886c0 f i GuContactSphereMesh.obj
 0001:000876e0       ?contactSpherePlane@Gu@physx@@YA_NABVGeometryUnion@12@0ABVPxTransform@2@1ABUNarrowPhaseParams@12@AAUCache@12@AAVContactBuffer@12@PAVRenderOutput@Cm@2@@Z 100886e0 f   GuContactSpherePlane.obj
 0001:000877b0       ?contactSphereSphere@Gu@physx@@YA_NABVGeometryUnion@12@0ABVPxTransform@2@1ABUNarrowPhaseParams@12@AAUCache@12@AAVContactBuffer@12@PAVRenderOutput@Cm@2@@Z 100887b0 f   GuContactSphereSphere.obj
 0001:00087930       ?selectNormal@Gu@physx@@YA_NEMM@Z 10088930 f   GuFeatureCode.obj
 0001:00087ad0       ??0BigConvexData@physx@@QAE@XZ 10088ad0 f   GuBigConvexData.obj
 0001:00087b30       ??1BigConvexData@physx@@QAE@XZ 10088b30 f   GuBigConvexData.obj
 0001:00087bb0       ?Load@BigConvexData@physx@@QAE_NAAVPxInputStream@2@@Z 10088bb0 f   GuBigConvexData.obj
 0001:00087cc0       ?ComputeOffset@BigConvexData@physx@@QBEIABVPxVec3@2@@Z 10088cc0 f   GuBigConvexData.obj
 0001:00087ce0       ?ComputeNearestOffset@BigConvexData@physx@@QBEIABVPxVec3@2@@Z 10088ce0 f   GuBigConvexData.obj
 0001:00087d00       ?exportExtraData@BigConvexData@physx@@QAEXAAVPxSerializationContext@2@@Z 10088d00 f   GuBigConvexData.obj
 0001:00087da0       ?importExtraData@BigConvexData@physx@@QAEXAAVPxDeserializationContext@2@@Z 10088da0 f   GuBigConvexData.obj
 0001:00087e20       ?CreateOffsets@BigConvexData@physx@@IAEXXZ 10088e20 f   GuBigConvexData.obj
 0001:00087e90       ?VLoad@BigConvexData@physx@@IAE_NAAVPxInputStream@2@@Z 10088e90 f   GuBigConvexData.obj
 0001:000880b0       ??$readExtraData@E$0BA@@PxDeserializationContext@physx@@QAEPAEI@Z 100890b0 f i GuBigConvexData.obj
 0001:000880e0       ??$readExtraData@E@PxDeserializationContext@physx@@QAEPAEI@Z 100890e0 f i GuBigConvexData.obj
 0001:00088110       ??$readExtraData@UValency@Gu@physx@@@PxDeserializationContext@physx@@QAEPAUValency@Gu@1@I@Z 10089110 f i GuBigConvexData.obj
 0001:00088140       ?ComputeCubemapOffset@physx@@YAIABVPxVec3@1@I@Z 10089140 f i GuBigConvexData.obj
 0001:00088210       ?getScaledConvex@Gu@physx@@YAXAAPAVPxVec3@2@AAPAEPAV32@PAE_NPBV32@PBEIABVFastVertex2ShapeScaling@Cm@2@@Z 10089210 f   GuConvexHelper.obj
 0001:000882b0       ?getConvexData@Gu@physx@@YA_NABVGeometryUnion@12@AAVFastVertex2ShapeScaling@Cm@2@AAVPxBounds3@2@AAUPolygonalData@12@@Z 100892b0 f   GuConvexHelper.obj
 0001:00088380       ?findUniqueConvexEdges@Gu@physx@@YAIIPIAUConvexEdge@12@IPIBUHullPolygonData@12@PIBE@Z 10089380 f   GuConvexHelper.obj
 0001:00088540       ?isEmpty@CenterExtents@Gu@physx@@QBE_NXZ 10089540 f i GuConvexHelper.obj
 0001:00088560       ?isEmpty@Cm@physx@@YA_NABVPxVec3@2@0@Z 10089560 f i GuConvexHelper.obj
 0001:000885e0       ?isValid@CenterExtents@Gu@physx@@QBE_NXZ 100895e0 f i GuConvexHelper.obj
 0001:00088600       ?isValid@Cm@physx@@YA_NABVPxVec3@2@0@Z 10089600 f i GuConvexHelper.obj
 0001:000886b0       ?reset@InternalObjectsData@Gu@physx@@QAEXXZ 100896b0 f i GuConvexHelper.obj
 0001:00088700       ?transformFast@CenterExtents@Gu@physx@@QBE?AVPxBounds3@3@ABVPxMat33@3@@Z 10089700 f i GuConvexHelper.obj
 0001:00088810       ?exportExtraData@ConvexMesh@Gu@physx@@UAEXAAVPxSerializationContext@3@@Z 10089810 f   GuConvexMesh.obj
 0001:000888a0       ?importExtraData@ConvexMesh@Gu@physx@@QAEXAAVPxDeserializationContext@3@@Z 100898a0 f   GuConvexMesh.obj
 0001:00088940       ?onRefCountZero@ConvexMesh@Gu@physx@@UAEXXZ 10089940 f   GuConvexMesh.obj
 0001:000889c0       ?createObject@ConvexMesh@Gu@physx@@SAPAV123@AAPAEAAVPxDeserializationContext@3@@Z 100899c0 f   GuConvexMesh.obj
 0001:00088a40       ??0ConvexMesh@Gu@physx@@QAE@XZ 10089a40 f   GuConvexMesh.obj
 0001:00088ae0       ??0ConvexMesh@Gu@physx@@QAE@AAVGuMeshFactory@2@AAUConvexHullInitData@12@@Z 10089ae0 f   GuConvexMesh.obj
 0001:00088b90       ?load@ConvexMesh@Gu@physx@@QAE_NAAVPxInputStream@3@@Z 10089b90 f   GuConvexMesh.obj
 0001:00089050       ?release@ConvexMesh@Gu@physx@@UAEXXZ 1008a050 f   GuConvexMesh.obj
 0001:00089070       ?getPolygonData@ConvexMesh@Gu@physx@@UBE_NIAAUPxHullPolygon@3@@Z 1008a070 f   GuConvexMesh.obj
 0001:00089110       ?isGpuCompatible@ConvexMesh@Gu@physx@@UBE_NXZ 1008a110 f   GuConvexMesh.obj
 0001:00089170       ?getReferenceCount@ConvexMesh@Gu@physx@@UBEIXZ 1008a170 f   GuConvexMesh.obj
 0001:00089190       ?acquireReference@ConvexMesh@Gu@physx@@UAEXXZ 1008a190 f   GuConvexMesh.obj
 0001:000891b0       ?getMassInformation@ConvexMesh@Gu@physx@@UBEXAAMAAVPxMat33@3@AAVPxVec3@3@@Z 1008a1b0 f   GuConvexMesh.obj
 0001:000891f0       ?getLocalBounds@ConvexMesh@Gu@physx@@UBE?AVPxBounds3@3@XZ 1008a1f0 f   GuConvexMesh.obj
 0001:00089270       ??1ConvexMesh@Gu@physx@@UAE@XZ 1008a270 f   GuConvexMesh.obj
 0001:000899a0       ??$PX_UNUSED@G@@YAXABG@Z   1008a9a0 f i GuConvexMesh.obj
 0001:000899b0       ??$deletePxBase@VConvexMesh@Gu@physx@@@Cm@physx@@YAXPAVConvexMesh@Gu@1@@Z 1008a9b0 f i GuConvexMesh.obj
 0001:00089a20       ??$readExtraData@VBigConvexData@physx@@$0BA@@PxDeserializationContext@physx@@QAEPAVBigConvexData@1@I@Z 1008aa20 f i GuConvexMesh.obj
 0001:00089a50       ??$readExtraData@VBigConvexData@physx@@@PxDeserializationContext@physx@@QAEPAVBigConvexData@1@I@Z 1008aa50 f i GuConvexMesh.obj
 0001:00089a80       ??0?$PxBitAndDataT@G$0IAAA@@physx@@QAE@G_N@Z 1008aa80 f i GuConvexMesh.obj
 0001:00089ac0       ??0?$PxBitAndDataT@G$0IAAA@@physx@@QAE@W4PxEMPTY@1@@Z 1008aac0 f i GuConvexMesh.obj
 0001:00089ad0       ??0?$PxBitAndDataT@G$0IAAA@@physx@@QAE@XZ 1008aad0 f i GuConvexMesh.obj
 0001:00089af0       ??0?$PxBitAndDataT@I$0IAAAAAAA@@physx@@QAE@I_N@Z 1008aaf0 f i GuConvexMesh.obj
 0001:00089b30       ??0?$PxBitAndDataT@I$0IAAAAAAA@@physx@@QAE@W4PxEMPTY@1@@Z 1008ab30 f i GuConvexMesh.obj
 0001:00089b40       ??0?$ReflectionAllocator@VBigConvexData@physx@@@shdfnd@physx@@QAE@PBD@Z 1008ab40 f i GuConvexMesh.obj
 0001:00089b50       ??0CenterExtents@Gu@physx@@QAE@ABVPxBounds3@2@@Z 1008ab50 f i GuConvexMesh.obj
 0001:00089bb0       ??0ConvexHullData@Gu@physx@@QAE@W4PxEMPTY@2@@Z 1008abb0 f i GuConvexMesh.obj
 0001:00089be0       ??0ConvexHullData@Gu@physx@@QAE@XZ 1008abe0 f i GuConvexMesh.obj
 0001:00089c10       ??0ConvexMesh@Gu@physx@@QAE@V?$PxFlags@W4Enum@PxBaseFlag@physx@@G@2@@Z 1008ac10 f i GuConvexMesh.obj
 0001:00089c90       ??0PxBase@physx@@IAE@V?$PxFlags@W4Enum@PxBaseFlag@physx@@G@1@@Z 1008ac90 f i GuConvexMesh.obj
 0001:00089cc0       ??0PxConvexMesh@physx@@IAE@GV?$PxFlags@W4Enum@PxBaseFlag@physx@@G@1@@Z 1008acc0 f i GuConvexMesh.obj
 0001:00089d00       ??0PxConvexMesh@physx@@IAE@V?$PxFlags@W4Enum@PxBaseFlag@physx@@G@1@@Z 1008ad00 f i GuConvexMesh.obj
 0001:00089d30       ??0RefCountable@Cm@physx@@QAE@W4PxEMPTY@2@@Z 1008ad30 f i GuConvexMesh.obj
 0001:00089d90       ??1ConvexHullData@Gu@physx@@QAE@XZ 1008ad90 f i GuConvexMesh.obj
 0001:00089db0       ??4ConvexHullData@Gu@physx@@QAEAAU012@ABU012@@Z 1008adb0 f i GuConvexMesh.obj
 0001:00089e40       ??B?$PxBitAndDataT@I$0IAAAAAAA@@physx@@QBEIXZ 1008ae40 f i GuConvexMesh.obj
 0001:00089e60       ??_EConvexMesh@Gu@physx@@UAEPAXI@Z 1008ae60 f i GuConvexMesh.obj
 0001:00089f13       ??_EConvexMesh@Gu@physx@@W7AEPAXI@Z 1008af13 f i GuConvexMesh.obj
 0001:00089f20       ??_GBigConvexData@physx@@QAEPAXI@Z 1008af20 f i GuConvexMesh.obj
 0001:00089f70       ?allocate@?$ReflectionAllocator@VBigConvexData@physx@@@shdfnd@physx@@QAEPAXIPBDH@Z 1008af70 f i GuConvexMesh.obj
 0001:00089fc0       ?centerExtents@PxBounds3@physx@@SA?AV12@ABVPxVec3@2@0@Z 1008afc0 f i GuConvexMesh.obj
 0001:0008a000       ?computeBufferSize@Gu@physx@@YAIABUConvexHullData@12@I@Z 1008b000 f i GuConvexMesh.obj
 0001:0008a0c0       ?flipData@Gu@physx@@YAXAAUHullPolygonData@12@@Z 1008b0c0 f i GuConvexMesh.obj
 0001:0008a110       ?getBufferSize@ConvexMesh@Gu@physx@@QBEIXZ 1008b110 f i GuConvexMesh.obj
 0001:0008a140       ?getInertia@ConvexMesh@Gu@physx@@QBEABVPxMat33@3@XZ 1008b140 f i GuConvexMesh.obj
 0001:0008a160       ?getMass@ConvexMesh@Gu@physx@@QBEMXZ 1008b160 f i GuConvexMesh.obj
 0001:0008a180       ?getName@?$ReflectionAllocator@VBigConvexData@physx@@@shdfnd@physx@@CAPBDXZ 1008b180 f i GuConvexMesh.obj
 0001:0008a1c0       ?getNb@ConvexMesh@Gu@physx@@ABEIXZ 1008b1c0 f i GuConvexMesh.obj
 0001:0008a1e0       ?incRefCount@RefCountable@Cm@physx@@QAEXXZ 1008b1e0 f i GuConvexMesh.obj
 0001:0008a240       ?requiresObjects@ConvexMesh@Gu@physx@@UAEXAAVPxProcessPxBaseCallback@3@@Z 1008b240 f i GuConvexMesh.obj
 0001:0008a250       ?resolveReferences@ConvexMesh@Gu@physx@@QAEXAAVPxDeserializationContext@3@@Z 1008b250 f i GuConvexMesh.obj
 0001:0008a260       ?setBit@?$PxBitAndDataT@I$0IAAAAAAA@@physx@@QAEXXZ 1008b260 f i GuConvexMesh.obj
 0001:0008a280       ?setEmpty@CenterExtents@Gu@physx@@QAEXXZ 1008b280 f i GuConvexMesh.obj
 0001:0008a2b0       ?BFFTF@aos@shdfnd@physx@@YA?AT__m128@@XZ 1008b2b0 f i GuConvexSupportTable.obj
 0001:0008a2f0       ?BFTFF@aos@shdfnd@physx@@YA?AT__m128@@XZ 1008b2f0 f i GuConvexSupportTable.obj
 0001:0008a330       ?BFTTF@aos@shdfnd@physx@@YA?AT__m128@@XZ 1008b330 f i GuConvexSupportTable.obj
 0001:0008a370       ?BTFFF@aos@shdfnd@physx@@YA?AT__m128@@XZ 1008b370 f i GuConvexSupportTable.obj
 0001:0008a3b0       ?BTFTF@aos@shdfnd@physx@@YA?AT__m128@@XZ 1008b3b0 f i GuConvexSupportTable.obj
 0001:0008a3f0       ?BTTFF@aos@shdfnd@physx@@YA?AT__m128@@XZ 1008b3f0 f i GuConvexSupportTable.obj
 0001:0008a430       ?computeHullOBB@Gu@physx@@YAXAAVBox@12@ABVPxBounds3@2@MABVMatrix34@Cm@2@2ABVFastVertex2ShapeScaling@62@_N@Z 1008b430 f   GuConvexUtilsInternal.obj
 0001:0008a4e0       ?computeVertexSpaceOBB@Gu@physx@@YAXAAVBox@12@ABV312@ABVPxTransform@2@ABVPxMeshScale@2@@Z 1008b4e0 f   GuConvexUtilsInternal.obj
 0001:0008a550       ?computeOBBAroundConvex@Gu@physx@@YAXAAVBox@12@ABVPxConvexMeshGeometry@2@PBVPxConvexMesh@2@ABVPxTransform@2@@Z 1008b550 f   GuConvexUtilsInternal.obj
 0001:0008a6f0       ??DMatrix34@Cm@physx@@QBE?AV012@ABVPxMat33@2@@Z 1008b6f0 f i GuConvexUtilsInternal.obj
 0001:0008a730       ??Dphysx@@YA?AVMatrix34@Cm@0@ABVPxMeshScale@0@ABV120@@Z 1008b730 f i GuConvexUtilsInternal.obj
 0001:0008a780       ?getLocalBoundsFast@ConvexMesh@Gu@physx@@QBEABVCenterExtents@23@XZ 1008b780 f i GuConvexUtilsInternal.obj
 0001:0008a7a0       ?transform@physx@@YA?AVBox@Gu@1@ABVMatrix34@Cm@1@ABV231@@Z 1008b7a0 f i GuConvexUtilsInternal.obj
 0001:0008a8b0       ?transformTranspose@Matrix34@Cm@physx@@QBE?AV123@ABV123@@Z 1008b8b0 f i GuConvexUtilsInternal.obj
 0001:0008a930       ?localSearch@physx@@YAXAAIABVPxVec3@1@PBV21@PBUBigConvexRawData@Gu@1@@Z 1008b930 f   GuHillClimbing.obj
 0001:0008abd0       ??0PolygonalBox@Gu@physx@@QAE@ABVPxVec3@2@@Z 1008bbd0 f   GuShapeConvex.obj
 0001:0008b3c0       ?getPolygonalData@PolygonalBox@Gu@physx@@QBEXPIAUPolygonalData@23@@Z 1008c3c0 f   GuShapeConvex.obj
 0001:0008b4b0       ?getPolygonalData_Convex@Gu@physx@@YAXPIAUPolygonalData@12@PIBUConvexHullData@12@ABVFastVertex2ShapeScaling@Cm@2@@Z 1008c4b0 f   GuShapeConvex.obj
 0001:0008bfc0       ?getFacesByEdges8@ConvexHullData@Gu@physx@@QBEPBEXZ 1008cfc0 f i GuShapeConvex.obj
 0001:0008c000       ?distancePointBoxSquared@Gu@physx@@YAMABVPxVec3@2@00ABVPxMat33@2@PAV32@@Z 1008d000 f   GuDistancePointBox.obj
 0001:0008c200       ?closestPtPointTriangle@Gu@physx@@YA?AVPxVec3@2@ABV32@000AAM1@Z 1008d200 f   GuDistancePointTriangle.obj
 0001:0008c650       ?distancePointTriangleSquared@Gu@physx@@YA?AT__m128@@ABT3@000AAT3@11@Z 1008d650 f   GuDistancePointTriangle.obj
 0001:0008d310       ?distanceSegmentBoxSquared@Gu@physx@@YAMABVPxVec3@2@000ABVPxMat33@2@PAMPAV32@@Z 1008e310 f   GuDistanceSegmentBox.obj
 0001:0008fcd0       ?distanceSegmentSegmentSquared@Gu@physx@@YAMABVPxVec3@2@0M00MPAM1@Z 10090cd0 f   GuDistanceSegmentSegment.obj
 0001:00090d20       ?distanceSegmentSegmentSquared@Gu@physx@@YAMABVPxVec3@2@000PAM1@Z 10091d20 f   GuDistanceSegmentSegment.obj
 0001:00090f30       ?distanceSegmentSegmentSquared@Gu@physx@@YA?AT__m128@@ABT3@000AAT3@1@Z 10091f30 f   GuDistanceSegmentSegment.obj
 0001:00091440       ?distanceSegmentSegmentSquared4@Gu@physx@@YA?AT__m128@@ABT3@000000000AAT3@1@Z 10092440 f   GuDistanceSegmentSegment.obj
 0001:00092060       ?FHalf@aos@shdfnd@physx@@YA?AT__m128@@XZ 10093060 f i GuDistanceSegmentSegment.obj
 0001:000920a0       ?V3Dot4@aos@shdfnd@physx@@YA?AT__m128@@ABT4@0000000@Z 100930a0 f i GuDistanceSegmentSegment.obj
 0001:000922c0       ?V4Clamp@aos@shdfnd@physx@@YA?AT__m128@@T4@00@Z 100932c0 f i GuDistanceSegmentSegment.obj
 0001:00092320       ?V4Div@aos@shdfnd@physx@@YA?AT__m128@@T4@0@Z 10093320 f i GuDistanceSegmentSegment.obj
 0001:00092360       ?V4Eps@aos@shdfnd@physx@@YA?AT__m128@@XZ 10093360 f i GuDistanceSegmentSegment.obj
 0001:000923a0       ?V4IsGrtr@aos@shdfnd@physx@@YA?AT__m128@@T4@0@Z 100933a0 f i GuDistanceSegmentSegment.obj
 0001:000923e0       ?V4One@aos@shdfnd@physx@@YA?AT__m128@@XZ 100933e0 f i GuDistanceSegmentSegment.obj
 0001:00092420       ?V4Recip@aos@shdfnd@physx@@YA?AT__m128@@T4@@Z 10093420 f i GuDistanceSegmentSegment.obj
 0001:00092460       ?V4Splat@aos@shdfnd@physx@@YA?AT__m128@@T4@@Z 10093460 f i GuDistanceSegmentSegment.obj
 0001:000924d0       ?V4UnpackXY@aos@shdfnd@physx@@YA?AT__m128@@ABT4@0@Z 100934d0 f i GuDistanceSegmentSegment.obj
 0001:00092510       ?V4UnpackZW@aos@shdfnd@physx@@YA?AT__m128@@ABT4@0@Z 10093510 f i GuDistanceSegmentSegment.obj
 0001:00092550       ?distanceSegmentTriangleSquared@Gu@physx@@YAMABVPxVec3@2@0000PAM11@Z 10093550 f   GuDistanceSegmentTriangle.obj
 0001:00093a00       ?distanceSegmentTriangleSquared@Gu@physx@@YA?AT__m128@@ABT3@0000AAT3@1@Z 10094a00 f   GuDistanceSegmentTriangle.obj
 0001:00094ad0       ?isValidTriangleBarycentricCoord@Gu@physx@@YA?AT__m128@@ABT3@0@Z 10095ad0 f i GuDistanceSegmentTriangle.obj
 0001:00094c60       ?epaPenetration@Gu@physx@@YA?AW4GjkStatus@12@ABUGjkConvex@12@0PIBE1E_NT__m128@@AAUGjkOutput@12@@Z 10095c60 f   GuEPA.obj
 0001:00094d90       ?isValid2@Facet@Gu@physx@@QAE?AT__m128@@IIIPIBT4@0ABT4@@Z 10095d90 f   GuEPA.obj
 0001:00095040       ?silhouette@Facet@Gu@physx@@QAEXABT__m128@@PIBT4@1AAVEdgeBuffer@23@AAV?$InlineDeferredIDPool@$0EA@@Cm@3@@Z 10096040 f   GuEPA.obj
 0001:000950a0       ?PenetrationDepth@EPA@Gu@physx@@QAE?AW4GjkStatus@23@ABUGjkConvex@23@0PIBT__m128@@1E_NT6@AAUGjkOutput@23@@Z 100960a0 f   GuEPA.obj
 0001:00095e00       ?expandPoint@EPA@Gu@physx@@QAE_NABUGjkConvex@23@0AAHABT__m128@@@Z 10096e00 f   GuEPA.obj
 0001:00095ee0       ?expandSegment@EPA@Gu@physx@@QAE_NABUGjkConvex@23@0AAHABT__m128@@@Z 10096ee0 f   GuEPA.obj
 0001:00096160       ?expandTriangle@EPA@Gu@physx@@QAE_NAAHABT__m128@@@Z 10097160 f   GuEPA.obj
 0001:000961f0       ?addFacet@EPA@Gu@physx@@QAEPAVFacet@23@IIIABT__m128@@@Z 100971f0 f   GuEPA.obj
 0001:00096640       ??0?$DeferredIDPoolBase@V?$InlineFixedArray@I$0EA@@Cm@physx@@@Cm@physx@@QAE@XZ 10097640 f i GuEPA.obj
 0001:00096670       ??0?$IDPoolBase@V?$InlineFixedArray@I$0EA@@Cm@physx@@@Cm@physx@@QAE@XZ 10097670 f i GuEPA.obj
 0001:000966a0       ??0?$InlineDeferredIDPool@$0EA@@Cm@physx@@QAE@XZ 100976a0 f i GuEPA.obj
 0001:000966c0       ??0?$InlineFixedArray@I$0EA@@Cm@physx@@QAE@XZ 100976c0 f i GuEPA.obj
 0001:000966e0       ??0?$InlinePriorityQueue@PAVFacet@Gu@physx@@$0EA@UFacetDistanceComparator@23@@Cm@physx@@QAE@ABUFacetDistanceComparator@Gu@2@@Z 100976e0 f i GuEPA.obj
 0001:00096710       ??0?$PriorityQueueBase@PAVFacet@Gu@physx@@UFacetDistanceComparator@23@@Cm@physx@@QAE@ABUFacetDistanceComparator@Gu@2@PAPAVFacet@42@@Z 10097710 f i GuEPA.obj
 0001:00096740       ??0EPA@Gu@physx@@QAE@XZ    10097740 f i GuEPA.obj
 0001:00096790       ??0Edge@Gu@physx@@QAE@PIAVFacet@12@I@Z 10097790 f i GuEPA.obj
 0001:000967c0       ??0Edge@Gu@physx@@QAE@XZ   100977c0 f i GuEPA.obj
 0001:000967d0       ??0EdgeBuffer@Gu@physx@@QAE@XZ 100977d0 f i GuEPA.obj
 0001:00096810       ??0Facet@Gu@physx@@QAE@III@Z 10097810 f i GuEPA.obj
 0001:000968f0       ??0Facet@Gu@physx@@QAE@XZ  100978f0 f i GuEPA.obj
 0001:00096900       ??1?$DeferredIDPoolBase@V?$InlineFixedArray@I$0EA@@Cm@physx@@@Cm@physx@@QAE@XZ 10097900 f i GuEPA.obj
 0001:00096930       ??1?$IDPoolBase@V?$InlineFixedArray@I$0EA@@Cm@physx@@@Cm@physx@@QAE@XZ 10097930 f i GuEPA.obj
 0001:00096950       ??1?$InlineDeferredIDPool@$0EA@@Cm@physx@@QAE@XZ 10097950 f i GuEPA.obj
 0001:00096970       ??1?$InlineFixedArray@I$0EA@@Cm@physx@@QAE@XZ 10097970 f i GuEPA.obj
 0001:00096980       ??1?$InlinePriorityQueue@PAVFacet@Gu@physx@@$0EA@UFacetDistanceComparator@23@@Cm@physx@@QAE@XZ 10097980 f i GuEPA.obj
 0001:000969a0       ??1?$PriorityQueueBase@PAVFacet@Gu@physx@@UFacetDistanceComparator@23@@Cm@physx@@QAE@XZ 100979a0 f i GuEPA.obj
 0001:000969b0       ??1EPA@Gu@physx@@QAE@XZ    100979b0 f i GuEPA.obj
 0001:000969e0       ??4Edge@Gu@physx@@QAEAAV012@ABV012@@Z 100979e0 f i GuEPA.obj
 0001:00096a10       ??A?$InlineFixedArray@I$0EA@@Cm@physx@@QAEAAII@Z 10097a10 f i GuEPA.obj
 0001:00096a70       ??AFacet@Gu@physx@@QBEII@Z 10097a70 f i GuEPA.obj
 0001:00096a90       ??MFacet@Gu@physx@@QBE_NABV012@@Z 10097a90 f i GuEPA.obj
 0001:00096ad0       ??RFacetDistanceComparator@Gu@physx@@QBE_NPBVFacet@12@0@Z 10097ad0 f i GuEPA.obj
 0001:00096af0       ?FNegScaleSub@aos@shdfnd@physx@@YA?AT__m128@@T4@00@Z 10097af0 f i GuEPA.obj
 0001:00096c20       ?FRsqrt@aos@shdfnd@physx@@YA?AT__m128@@T4@@Z 10097c20 f i GuEPA.obj
 0001:00096cb0       ?FSqrt@aos@shdfnd@physx@@YA?AT__m128@@T4@@Z 10097cb0 f i GuEPA.obj
 0001:00096d30       ?Get@EdgeBuffer@Gu@physx@@QAEPAVEdge@23@I@Z 10097d30 f i GuEPA.obj
 0001:00096d90       ?Insert@EdgeBuffer@Gu@physx@@QAEPAVEdge@23@PIAVFacet@23@I@Z 10097d90 f i GuEPA.obj
 0001:00096e00       ?IsValid@EdgeBuffer@Gu@physx@@QAE_NXZ 10097e00 f i GuEPA.obj
 0001:00096e40       ?MakeEmpty@EdgeBuffer@Gu@physx@@QAEXXZ 10097e40 f i GuEPA.obj
 0001:00096e70       ?Size@EdgeBuffer@Gu@physx@@QAEIXZ 10097e70 f i GuEPA.obj
 0001:00096e90       ?Valid@Facet@Gu@physx@@QAE_NXZ 10097e90 f i GuEPA.obj
 0001:00096f10       ?clear@?$InlineFixedArray@I$0EA@@Cm@physx@@QAEXXZ 10097f10 f i GuEPA.obj
 0001:00096f30       ?clear@?$PriorityQueueBase@PAVFacet@Gu@physx@@UFacetDistanceComparator@23@@Cm@physx@@QAEXXZ 10097f30 f i GuEPA.obj
 0001:00096f50       ?compare@?$PriorityQueueBase@PAVFacet@Gu@physx@@UFacetDistanceComparator@23@@Cm@physx@@IBE_NABQAVFacet@Gu@3@0@Z 10097f50 f i GuEPA.obj
 0001:00096f80       ?deferredFreeID@?$DeferredIDPoolBase@V?$InlineFixedArray@I$0EA@@Cm@physx@@@Cm@physx@@QAEXI@Z 10097f80 f i GuEPA.obj
 0001:00096fa0       ?empty@?$PriorityQueueBase@PAVFacet@Gu@physx@@UFacetDistanceComparator@23@@Cm@physx@@QBE_NXZ 10097fa0 f i GuEPA.obj
 0001:00096fd0       ?freeID@?$IDPoolBase@V?$InlineFixedArray@I$0EA@@Cm@physx@@@Cm@physx@@QAEXI@Z 10097fd0 f i GuEPA.obj
 0001:00097010       ?getClosestPoint@Facet@Gu@physx@@QAEXPIBT__m128@@0AAT4@1@Z 10098010 f i GuEPA.obj
 0001:00097540       ?getFacet@Edge@Gu@physx@@QBEPAVFacet@23@XZ 10098540 f i GuEPA.obj
 0001:00097550       ?getIndex@Edge@Gu@physx@@QBEIXZ 10098550 f i GuEPA.obj
 0001:00097570       ?getNewID@?$IDPoolBase@V?$InlineFixedArray@I$0EA@@Cm@physx@@@Cm@physx@@QAEIXZ 10098570 f i GuEPA.obj
 0001:000975c0       ?getNumRemainingIDs@?$InlineDeferredIDPool@$0EA@@Cm@physx@@QAEIXZ 100985c0 f i GuEPA.obj
 0001:000975e0       ?getNumUsedID@?$DeferredIDPoolBase@V?$InlineFixedArray@I$0EA@@Cm@physx@@@Cm@physx@@QBEIXZ 100985e0 f i GuEPA.obj
 0001:00097610       ?getNumUsedID@?$IDPoolBase@V?$InlineFixedArray@I$0EA@@Cm@physx@@@Cm@physx@@QBEIXZ 10098610 f i GuEPA.obj
 0001:00097630       ?getPlaneDist@Facet@Gu@physx@@QBE?AT__m128@@ABT4@PIBT4@1@Z 10098630 f i GuEPA.obj
 0001:000976e0       ?getPlaneDist@Facet@Gu@physx@@QBE?AT__m128@@XZ 100986e0 f i GuEPA.obj
 0001:00097730       ?getPlaneNormal@Facet@Gu@physx@@QBE?AT__m128@@XZ 10098730 f i GuEPA.obj
 0001:00097750       ?getSource@Edge@Gu@physx@@QBEIXZ 10098750 f i GuEPA.obj
 0001:000977b0       ?getTarget@Edge@Gu@physx@@QBEIXZ 100987b0 f i GuEPA.obj
 0001:00097820       ?incMod3@Gu@physx@@YAII@Z  10098820 f i GuEPA.obj
 0001:00097830       ?isObsolete@Facet@Gu@physx@@QBE_NXZ 10098830 f i GuEPA.obj
 0001:00097850       ?left@?$PriorityQueueBase@PAVFacet@Gu@physx@@UFacetDistanceComparator@23@@Cm@physx@@KAII@Z 10098850 f i GuEPA.obj
 0001:00097860       ?link@Facet@Gu@physx@@QAE_NIPIAV123@I@Z 10098860 f i GuEPA.obj
 0001:00097910       ?parent@?$PriorityQueueBase@PAVFacet@Gu@physx@@UFacetDistanceComparator@23@@Cm@physx@@KAII@Z 10098910 f i GuEPA.obj
 0001:00097920       ?pop@?$PriorityQueueBase@PAVFacet@Gu@physx@@UFacetDistanceComparator@23@@Cm@physx@@QAEPAVFacet@Gu@3@XZ 10098920 f i GuEPA.obj
 0001:00097ac0       ?popBack@?$InlineFixedArray@I$0EA@@Cm@physx@@QAEIXZ 10098ac0 f i GuEPA.obj
 0001:00097b40       ?processDeferredIds@?$DeferredIDPoolBase@V?$InlineFixedArray@I$0EA@@Cm@physx@@@Cm@physx@@QAEXXZ 10098b40 f i GuEPA.obj
 0001:00097bb0       ?push@?$InlinePriorityQueue@PAVFacet@Gu@physx@@$0EA@UFacetDistanceComparator@23@@Cm@physx@@QAEXAAPAVFacet@Gu@3@@Z 10098bb0 f i GuEPA.obj
 0001:00097c10       ?push@?$PriorityQueueBase@PAVFacet@Gu@physx@@UFacetDistanceComparator@23@@Cm@physx@@QAEXABQAVFacet@Gu@3@@Z 10098c10 f i GuEPA.obj
 0001:00097cf0       ?pushBack@?$InlineFixedArray@I$0EA@@Cm@physx@@QAEXABI@Z 10098cf0 f i GuEPA.obj
 0001:00097d70       ?silhouette@Facet@Gu@physx@@QAEXIABT__m128@@PIBT4@1AAVEdgeBuffer@23@AAV?$InlineDeferredIDPool@$0EA@@Cm@3@@Z 10098d70 f i GuEPA.obj
 0001:00097fc0       ?size@?$InlineFixedArray@I$0EA@@Cm@physx@@QBEIXZ 10098fc0 f i GuEPA.obj
 0001:00097fe0       ?size@?$PriorityQueueBase@PAVFacet@Gu@physx@@UFacetDistanceComparator@23@@Cm@physx@@QBEIXZ 10098fe0 f i GuEPA.obj
 0001:00098000       ?toI8@shdfnd@physx@@YACI@Z 10099000 f i GuEPA.obj
 0001:00098050       ?top@?$PriorityQueueBase@PAVFacet@Gu@physx@@UFacetDistanceComparator@23@@Cm@physx@@QAEPAVFacet@Gu@3@XZ 10099050 f i GuEPA.obj
 0001:00098070       ?valid@?$PriorityQueueBase@PAVFacet@Gu@physx@@UFacetDistanceComparator@23@@Cm@physx@@QBE_NXZ 10099070 f i GuEPA.obj
 0001:000980e0       ?closestPtPointTetrahedron@Gu@physx@@YA?AT__m128@@PIAT3@00AAI@Z 100990e0 f   GuGJKSimplex.obj
 0001:000984d0       ?closestPtPointTetrahedron@Gu@physx@@YA?AT__m128@@PIAT3@00PIAH1AAI@Z 100994d0 f   GuGJKSimplex.obj
 0001:00098e60       ?BGetW@aos@shdfnd@physx@@YA?AT__m128@@T4@@Z 10099e60 f i GuGJKSimplex.obj
 0001:00098ea0       ?BGetX@aos@shdfnd@physx@@YA?AT__m128@@T4@@Z 10099ea0 f i GuGJKSimplex.obj
 0001:00098ee0       ?BGetY@aos@shdfnd@physx@@YA?AT__m128@@T4@@Z 10099ee0 f i GuGJKSimplex.obj
 0001:00098f20       ?BGetZ@aos@shdfnd@physx@@YA?AT__m128@@T4@@Z 10099f20 f i GuGJKSimplex.obj
 0001:00098f60       ?PointOutsideOfPlane4@Gu@physx@@YA?AT__m128@@ABT3@000@Z 10099f60 f i GuGJKSimplex.obj
 0001:000992b0       ?V4Merge@aos@shdfnd@physx@@YA?AT__m128@@ABT4@000@Z 1009a2b0 f i GuGJKSimplex.obj
 0001:00099440       ?testGjk@Gu@physx@@YA?AW4GjkStatus@12@AAUGjkConvex@12@0ABT__m128@@1AAT5@222@Z 1009a440 f   GuGJKTest.obj
 0001:00099470       ?testGjkPenetration@Gu@physx@@YA?AW4GjkStatus@12@AAUGjkConvex@12@0ABT__m128@@1PAE2AAEAAUGjkOutput@12@@Z 1009a470 f   GuGJKTest.obj
 0001:000994a0       ?testEpaPenetration@Gu@physx@@YA?AW4GjkStatus@12@AAUGjkConvex@12@0PBE1EAAUGjkOutput@12@@Z 1009a4a0 f   GuGJKTest.obj
 0001:00099510       ?testGjkRaycast@Gu@physx@@YA_NAAUGjkConvex@12@0ABT__m128@@111AAT4@22M@Z 1009a510 f   GuGJKTest.obj
 0001:00099550       ??$gjk@UGjkConvex@Gu@physx@@U123@@Gu@physx@@YA?AW4GjkStatus@01@ABUGjkConvex@01@0ABT__m128@@1AAT4@222@Z 1009a550 f i GuGJKTest.obj
 0001:00099f10       ??$gjkPenetration@UGjkConvex@Gu@physx@@U123@@Gu@physx@@YA?AW4GjkStatus@01@ABUGjkConvex@01@0ABT__m128@@1_NPIAE3AAEAAUGjkOutput@01@@Z 1009af10 f i GuGJKTest.obj
 0001:0009a9e0       ??$gjkRaycast@UGjkConvex@Gu@physx@@U123@@Gu@physx@@YA_NABUGjkConvex@01@0ABT__m128@@111AAT3@22M@Z 1009b9e0 f i GuGJKTest.obj
 0001:0009b5e0       ?exportExtraData@HeightField@Gu@physx@@UAEXAAVPxSerializationContext@3@@Z 1009c5e0 f   GuHeightField.obj
 0001:0009b630       ?importExtraData@HeightField@Gu@physx@@QAEXAAVPxDeserializationContext@3@@Z 1009c630 f   GuHeightField.obj
 0001:0009b660       ?createObject@HeightField@Gu@physx@@SAPAV123@AAPAEAAVPxDeserializationContext@3@@Z 1009c660 f   GuHeightField.obj
 0001:0009b6d0       ??0HeightField@Gu@physx@@QAE@PAVGuMeshFactory@2@@Z 1009c6d0 f   GuHeightField.obj
 0001:0009b7b0       ??0HeightField@Gu@physx@@QAE@AAVGuMeshFactory@2@AAUHeightFieldData@12@@Z 1009c7b0 f   GuHeightField.obj
 0001:0009b860       ?release@HeightField@Gu@physx@@UAEXXZ 1009c860 f   GuHeightField.obj
 0001:0009b880       ?saveCells@HeightField@Gu@physx@@UBEIPAXI@Z 1009c880 f   GuHeightField.obj
 0001:0009b8d0       ?modifySamples@HeightField@Gu@physx@@UAE_NHHABVPxHeightFieldDesc@3@_N@Z 1009c8d0 f   GuHeightField.obj
 0001:0009bbd0       ?acquireReference@HeightField@Gu@physx@@UAEXXZ 1009cbd0 f   GuHeightField.obj
 0001:0009bbf0       ?getReferenceCount@HeightField@Gu@physx@@UBEIXZ 1009cbf0 f   GuHeightField.obj
 0001:0009bc10       ?onRefCountZero@HeightField@Gu@physx@@UAEXXZ 1009cc10 f   GuHeightField.obj
 0001:0009bcc0       ?loadFromDesc@HeightField@Gu@physx@@QAE_NABVPxHeightFieldDesc@3@@Z 1009ccc0 f   GuHeightField.obj
 0001:0009c0c0       ?load@HeightField@Gu@physx@@QAE_NAAVPxInputStream@3@@Z 1009d0c0 f   GuHeightField.obj
 0001:0009c3e0       ?computeCellCoordinates@HeightField@Gu@physx@@QBEIMMAAM0@Z 1009d3e0 f   GuHeightField.obj
 0001:0009c690       ?isSolidVertex@HeightField@Gu@physx@@QBE_NIIIGAA_N@Z 1009d690 f   GuHeightField.obj
 0001:0009c820       ?isCollisionVertexPreca@HeightField@Gu@physx@@QBE_NIIIG@Z 1009d820 f   GuHeightField.obj
 0001:0009c970       ?parseTrianglesForCollisionVertices@HeightField@Gu@physx@@QAEXG@Z 1009d970 f   GuHeightField.obj
 0001:0009cc40       ?releaseMemory@HeightField@Gu@physx@@QAEXXZ 1009dc40 f   GuHeightField.obj
 0001:0009cca0       ??1HeightField@Gu@physx@@UAE@XZ 1009dca0 f   GuHeightField.obj
 0001:0009ccf0       ?getVertexEdgeIndices@physx@@YAIABVHeightField@Gu@1@IIIQAUEdgeData@1@@Z 1009dcf0 f   GuHeightField.obj
 0001:0009d0f0       ?getEdgeTriangleIndices@physx@@YAIABVHeightField@Gu@1@ABUEdgeData@1@PIAI@Z 1009e0f0 f   GuHeightField.obj
 0001:0009d380       ??$deletePxBase@VHeightField@Gu@physx@@@Cm@physx@@YAXPAVHeightField@Gu@1@@Z 1009e380 f i GuHeightField.obj
 0001:0009d3f0       ??$readExtraData@UPxHeightFieldSample@physx@@$0BA@@PxDeserializationContext@physx@@QAEPAUPxHeightFieldSample@1@I@Z 1009e3f0 f i GuHeightField.obj
 0001:0009d420       ??$readExtraData@UPxHeightFieldSample@physx@@@PxDeserializationContext@physx@@QAEPAUPxHeightFieldSample@1@I@Z 1009e420 f i GuHeightField.obj
 0001:0009d450       ??0?$BitMapBase@VNonTrackingAllocator@shdfnd@physx@@@Cm@physx@@QAE@XZ 1009e450 f i GuHeightField.obj
 0001:0009d480       ??0?$PxFlags@W4Enum@PxHeightFieldFlag@physx@@G@physx@@QAE@G@Z 1009e480 f i GuHeightField.obj
 0001:0009d4a0       ??0HeightField@Gu@physx@@QAE@V?$PxFlags@W4Enum@PxBaseFlag@physx@@G@2@@Z 1009e4a0 f i GuHeightField.obj
 0001:0009d500       ??0PxHeightField@physx@@IAE@GV?$PxFlags@W4Enum@PxBaseFlag@physx@@G@1@@Z 1009e500 f i GuHeightField.obj
 0001:0009d540       ??0PxHeightField@physx@@IAE@V?$PxFlags@W4Enum@PxBaseFlag@physx@@G@1@@Z 1009e540 f i GuHeightField.obj
 0001:0009d570       ??1?$BitMapBase@VNonTrackingAllocator@shdfnd@physx@@@Cm@physx@@QAE@XZ 1009e570 f i GuHeightField.obj
 0001:0009d5b0       ??9?$PxFlags@W4Enum@PxHeightFieldFlag@physx@@G@physx@@QBE_NABV01@@Z 1009e5b0 f i GuHeightField.obj
 0001:0009d5f0       ??_EHeightField@Gu@physx@@UAEPAXI@Z 1009e5f0 f i GuHeightField.obj
 0001:0009d69a       ??_EHeightField@Gu@physx@@W7AEPAXI@Z 1009e69a f i GuHeightField.obj
 0001:0009d6b0       ?PxMemSet@physx@@YAPAXPAXHI@Z 1009e6b0 f i GuHeightField.obj
 0001:0009d6d0       ?anyHole@@YAIIG@Z          1009e6d0 f i GuHeightField.obj
 0001:0009d720       ?clear@?$BitMapBase@VNonTrackingAllocator@shdfnd@physx@@@Cm@physx@@QAEXXZ 1009e720 f i GuHeightField.obj
 0001:0009d750       ?clearBit@?$PxBitAndDataT@E$0IA@@physx@@QAEXXZ 1009e750 f i GuHeightField.obj
 0001:0009d770       ?extendUninitialized@?$BitMapBase@VNonTrackingAllocator@shdfnd@physx@@@Cm@physx@@IAEXI@Z 1009e770 f i GuHeightField.obj
 0001:0009d7f0       ?flip@physx@@YAXAAF@Z      1009e7f0 f i GuHeightField.obj
 0001:0009d840       ?getMaterialIndex01@HeightField@Gu@physx@@QBEII@Z 1009e840 f i GuHeightField.obj
 0001:0009d890       ?getMaxHeight@HeightField@Gu@physx@@QBEMXZ 1009e890 f i GuHeightField.obj
 0001:0009d8b0       ?getMinHeight@HeightField@Gu@physx@@QBEMXZ 1009e8b0 f i GuHeightField.obj
 0001:0009d8d0       ?getWordCount@?$BitMapBase@VNonTrackingAllocator@shdfnd@physx@@@Cm@physx@@QBEIXZ 1009e8d0 f i GuHeightField.obj
 0001:0009d8f0       ?isConvexVertex@HeightField@Gu@physx@@QBE_NIII@Z 1009e8f0 f i GuHeightField.obj
 0001:0009dab0       ?isInUserMemory@?$BitMapBase@VNonTrackingAllocator@shdfnd@physx@@@Cm@physx@@QBEIXZ 1009eab0 f i GuHeightField.obj
 0001:0009dad0       ?isValid@PxHeightFieldDesc@physx@@QBE_NXZ 1009ead0 f i GuHeightField.obj
 0001:0009db50       ?requiresObjects@HeightField@Gu@physx@@UAEXAAVPxProcessPxBaseCallback@3@@Z 1009eb50 f i GuHeightField.obj
 0001:0009db60       ?resizeAndClear@?$BitMapBase@VNonTrackingAllocator@shdfnd@physx@@@Cm@physx@@QAEXI@Z 1009eb60 f i GuHeightField.obj
 0001:0009dba0       ?resolveReferences@HeightField@Gu@physx@@QAEXAAVPxDeserializationContext@3@@Z 1009eba0 f i GuHeightField.obj
 0001:0009dbb0       ?set@?$BitMapBase@VNonTrackingAllocator@shdfnd@physx@@@Cm@physx@@QAEXI@Z 1009ebb0 f i GuHeightField.obj
 0001:0009dc30       ?setBit@?$PxBitAndDataT@E$0IA@@physx@@QAEXXZ 1009ec30 f i GuHeightField.obj
 0001:0009dc50       ?test@?$BitMapBase@VNonTrackingAllocator@shdfnd@physx@@@Cm@physx@@QBEHI@Z 1009ec50 f i GuHeightField.obj
 0001:0009dd20       ?computeLocalBounds@HeightFieldUtil@Gu@physx@@QBEXAAVPxBounds3@3@@Z 1009ed20 f   GuHeightFieldUtil.obj
 0001:0009de60       ?getFaceIndexAtShapePoint@HeightFieldUtil@Gu@physx@@QBEIMM@Z 1009ee60 f   GuHeightFieldUtil.obj
 0001:0009df00       ?getVertexNormal@HeightFieldUtil@Gu@physx@@QBE?AVPxVec3@3@III@Z 1009ef00 f   GuHeightFieldUtil.obj
 0001:0009e0c0       ?getVertexFaceIndex@HeightFieldUtil@Gu@physx@@QBEIIII@Z 1009f0c0 f   GuHeightFieldUtil.obj
 0001:0009e210       ?getEdge@HeightFieldUtil@Gu@physx@@QBEXIIIIAAVPxVec3@3@0@Z 1009f210 f   GuHeightFieldUtil.obj
 0001:0009e820       ?getEdgeFaceIndex@HeightFieldUtil@Gu@physx@@QBEII@Z 1009f820 f   GuHeightFieldUtil.obj
 0001:0009e8e0       ?getEdgeFaceIndex@HeightFieldUtil@Gu@physx@@QBEIIIII@Z 1009f8e0 f   GuHeightFieldUtil.obj
 0001:0009e9b0       ?getEdgeFaceIndex@HeightFieldUtil@Gu@physx@@QBEIIIPIBI@Z 1009f9b0 f   GuHeightFieldUtil.obj
 0001:0009ea70       ?findClosestPointsOnCell@HeightFieldUtil@Gu@physx@@QBEIIIVPxVec3@3@PIAV43@PIAI_N33@Z 1009fa70 f   GuHeightFieldUtil.obj
 0001:0009f440       ?findProjectionOnTriangle@HeightFieldUtil@Gu@physx@@QBE_NIIIABVPxVec3@3@AAV43@@Z 100a0440 f   GuHeightFieldUtil.obj
 0001:0009faf0       ?findClosestPointOnEdge@HeightFieldUtil@Gu@physx@@QBEMIIIIABVPxVec3@3@AAV43@@Z 100a0af0 f   GuHeightFieldUtil.obj
 0001:000a0370       ?getTriangle@HeightFieldUtil@Gu@physx@@QBEIABVPxTransform@3@AAVPxTriangle@3@PAI2I_N3@Z 100a1370 f   GuHeightFieldUtil.obj
 0001:000a0700       ?overlapAABBTriangles@HeightFieldUtil@Gu@physx@@QBE_NABVPxTransform@3@ABVPxBounds3@3@IPAV?$EntityReport@I@23@@Z 100a1700 f   GuHeightFieldUtil.obj
 0001:000a0c30       ?getEdgeTriangleIndices@HeightField@Gu@physx@@QBEIIQAI@Z 100a1c30 f i GuHeightFieldUtil.obj
 0001:000a0dd0       ?getEdgeTriangleIndices@HeightField@Gu@physx@@QBEIIQAIIII@Z 100a1dd0 f i GuHeightFieldUtil.obj
 0001:000a0f40       ?getMax@CenterExtents@Gu@physx@@QBE?AVPxVec3@3@XZ 100a1f40 f i GuHeightFieldUtil.obj
 0001:000a0f70       ?getMin@CenterExtents@Gu@physx@@QBE?AVPxVec3@3@XZ 100a1f70 f i GuHeightFieldUtil.obj
 0001:000a0fa0       ?getTriangleAdjacencyIndices@HeightField@Gu@physx@@QBEXIIIIAAI00@Z 100a1fa0 f i GuHeightFieldUtil.obj
 0001:000a1280       ?getTriangleIndex2@HeightField@Gu@physx@@QBEIIMM@Z 100a2280 f i GuHeightFieldUtil.obj
 0001:000a1300       ?getTriangleIndex@HeightField@Gu@physx@@QBEIMM@Z 100a2300 f i GuHeightFieldUtil.obj
 0001:000a1360       ?getVertex@HeightField@Gu@physx@@QBE?AVPxVec3@3@I@Z 100a2360 f i GuHeightFieldUtil.obj
 0001:000a1400       ?isValidTriangle@HeightField@Gu@physx@@QBE_NI@Z 100a2400 f i GuHeightFieldUtil.obj
 0001:000a1470       ?checkOverlapAABB_heightFieldGeom@Gu@physx@@YA_NABVPxGeometry@2@ABVPxTransform@2@ABVPxBounds3@2@@Z 100a2470 f   GuOverlapTestsHF.obj
 0001:000a2ff0       ?GeomOverlapCallback_SphereHeightfield@@YA_NABVPxGeometry@physx@@ABVPxTransform@2@01PAUTriggerCache@Gu@2@@Z 100a3ff0 f   GuOverlapTestsHF.obj
 0001:000a30f0       ?GeomOverlapCallback_CapsuleHeightfield@@YA_NABVPxGeometry@physx@@ABVPxTransform@2@01PAUTriggerCache@Gu@2@@Z 100a40f0 f   GuOverlapTestsHF.obj
 0001:000a31d0       ?GeomOverlapCallback_BoxHeightfield@@YA_NABVPxGeometry@physx@@ABVPxTransform@2@01PAUTriggerCache@Gu@2@@Z 100a41d0 f   GuOverlapTestsHF.obj
 0001:000a32e0       ?GeomOverlapCallback_ConvexHeightfield@@YA_NABVPxGeometry@physx@@ABVPxTransform@2@01PAUTriggerCache@Gu@2@@Z 100a42e0 f   GuOverlapTestsHF.obj
 0001:000a33c0       ??$traceSegment@UTriggerTraceSegmentCallback@Gu@physx@@$0A@$0A@@HeightFieldTraceUtil@Gu@physx@@QBEXABVPxVec3@2@0MPAUTriggerTraceSegmentCallback@12@ABVPxBounds3@2@_NPBV32@@Z 100a43c0 f i GuOverlapTestsHF.obj
 0001:000a4f40       ??0?$OverlapTraceSegment@UTriggerTraceSegmentCallback@Gu@physx@@@HeightFieldTraceUtil@Gu@physx@@QAE@ABVHeightFieldUtil@23@ABVHeightField@23@@Z 100a5f40 f i GuOverlapTestsHF.obj
 0001:000a4f80       ??0EdgeCache@Gu@physx@@QAE@XZ 100a5f80 f i GuOverlapTestsHF.obj
 0001:000a4fa0       ??0Matrix34@Cm@physx@@QAE@ABVPxMat33@2@@Z 100a5fa0 f i GuOverlapTestsHF.obj
 0001:000a4fd0       ??0OverlapHeightfieldTraceSegmentHelper@Gu@physx@@QAE@ABVHeightFieldTraceUtil@12@@Z 100a5fd0 f i GuOverlapTestsHF.obj
 0001:000a5010       ??0TriggerTraceSegmentCallback@Gu@physx@@QAE@XZ 100a6010 f i GuOverlapTestsHF.obj
 0001:000a5030       ?V4AllGrtr@aos@shdfnd@physx@@YAIT__m128@@0@Z 100a6030 f i GuOverlapTestsHF.obj
 0001:000a5080       ?addIndex@?$OverlapTraceSegment@UTriggerTraceSegmentCallback@Gu@physx@@@HeightFieldTraceUtil@Gu@physx@@QAE_NI@Z 100a6080 f i GuOverlapTestsHF.obj
 0001:000a50e0       ?computeRectangleDifference@?$OverlapTraceSegment@UTriggerTraceSegmentCallback@Gu@physx@@@HeightFieldTraceUtil@Gu@physx@@QAEXABUOverlapRectangle@1234@0AAUOverlapLine@1234@@Z 100a60e0 f i GuOverlapTestsHF.obj
 0001:000a51a0       ?faceHit@TriggerTraceSegmentCallback@Gu@physx@@QAE_NABVHeightFieldUtil@23@ABVPxVec3@3@IMM@Z 100a61a0 f i GuOverlapTestsHF.obj
 0001:000a51c0       ?getInverse@PsTransformV@aos@shdfnd@physx@@QBE?AV1234@XZ 100a61c0 f i GuOverlapTestsHF.obj
 0001:000a5270       ?hash@EdgeCache@Gu@physx@@QBEII@Z 100a6270 f i GuOverlapTestsHF.obj
 0001:000a5290       ?init@?$OverlapTraceSegment@UTriggerTraceSegmentCallback@Gu@physx@@@HeightFieldTraceUtil@Gu@physx@@QAE_NHHHHHPAUTriggerTraceSegmentCallback@34@@Z 100a6290 f i GuOverlapTestsHF.obj
 0001:000a5370       ?initialized@?$OverlapTraceSegment@UTriggerTraceSegmentCallback@Gu@physx@@@HeightFieldTraceUtil@Gu@physx@@QBE_NXZ 100a6370 f i GuOverlapTestsHF.obj
 0001:000a5380       ?invalidate@OverlapRectangle@?$OverlapTraceSegment@UTriggerTraceSegmentCallback@Gu@physx@@@HeightFieldTraceUtil@Gu@physx@@QAEXXZ 100a6380 f i GuOverlapTestsHF.obj
 0001:000a53c0       ?isDeltaHeightInsideExtent@HeightField@Gu@physx@@QBE_NMM@Z 100a63c0 f i GuOverlapTestsHF.obj
 0001:000a5410       ?isDeltaHeightOppositeExtent@HeightField@Gu@physx@@QBE_NM@Z 100a6410 f i GuOverlapTestsHF.obj
 0001:000a5460       ?isInCache@EdgeCache@Gu@physx@@QAE_NEE@Z 100a6460 f i GuOverlapTestsHF.obj
 0001:000a5500       ?onEvent@TriggerTraceSegmentCallback@Gu@physx@@QAE_NIPAI@Z 100a6500 f i GuOverlapTestsHF.obj
 0001:000a5510       ?prepare@?$OverlapTraceSegment@UTriggerTraceSegmentCallback@Gu@physx@@@HeightFieldTraceUtil@Gu@physx@@QAEXABVPxVec3@4@00AAM1@Z 100a6510 f i GuOverlapTestsHF.obj
 0001:000a57f0       ?reportOverlaps@?$OverlapTraceSegment@UTriggerTraceSegmentCallback@Gu@physx@@@HeightFieldTraceUtil@Gu@physx@@QAE_NXZ 100a67f0 f i GuOverlapTestsHF.obj
 0001:000a5840       ?step@?$OverlapTraceSegment@UTriggerTraceSegmentCallback@Gu@physx@@@HeightFieldTraceUtil@Gu@physx@@QAE_NHH@Z 100a6840 f i GuOverlapTestsHF.obj
 0001:000a5900       ?testVertexIndex@?$OverlapTraceSegment@UTriggerTraceSegmentCallback@Gu@physx@@@HeightFieldTraceUtil@Gu@physx@@QAE_NI@Z 100a6900 f i GuOverlapTestsHF.obj
 0001:000a5a50       ?traceSegment@OverlapHeightfieldTraceSegmentHelper@Gu@physx@@QBEXABVPxVec3@3@0PAUTriggerTraceSegmentCallback@23@@Z 100a6a50 f i GuOverlapTestsHF.obj
 0001:000a5aa0       ?underFaceHit@TriggerTraceSegmentCallback@Gu@physx@@QAE_NABVHeightFieldUtil@23@ABVPxVec3@3@1MMMI@Z 100a6aa0 f i GuOverlapTestsHF.obj
 0001:000a5ab0       ?visitCells@?$OverlapTraceSegment@UTriggerTraceSegmentCallback@Gu@physx@@@HeightFieldTraceUtil@Gu@physx@@QAE_NABUOverlapLine@1234@@Z 100a6ab0 f i GuOverlapTestsHF.obj
 0001:000a5c20       ?visitCells@?$OverlapTraceSegment@UTriggerTraceSegmentCallback@Gu@physx@@@HeightFieldTraceUtil@Gu@physx@@QAE_NABUOverlapRectangle@1234@@Z 100a6c20 f i GuOverlapTestsHF.obj
 0001:000a6190       ?sweepCapsule_HeightFieldGeom@@YA_NABVPxGeometry@physx@@ABVPxTransform@2@ABVPxCapsuleGeometry@2@1ABVCapsule@Gu@2@ABVPxVec3@2@MAAUPxSweepHit@2@V?$PxFlags@W4Enum@PxHitFlag@physx@@G@2@M@Z 100a7190 f   GuSweepsHF.obj
 0001:000a63a0       ?sweepConvex_HeightFieldGeom@@YA_NABVPxGeometry@physx@@ABVPxTransform@2@ABVPxConvexMeshGeometry@2@1ABVPxVec3@2@MAAUPxSweepHit@2@V?$PxFlags@W4Enum@PxHitFlag@physx@@G@2@M@Z 100a73a0 f   GuSweepsHF.obj
 0001:000a6680       ?sweepBox_HeightFieldGeom@@YA_NABVPxGeometry@physx@@ABVPxTransform@2@ABVPxBoxGeometry@2@1ABVBox@Gu@2@ABVPxVec3@2@MAAUPxSweepHit@2@V?$PxFlags@W4Enum@PxHitFlag@physx@@G@2@M@Z 100a7680 f   GuSweepsHF.obj
 0001:000a6990       ??$gjkPenetration@U?$LocalConvex@VTriangleV@Gu@physx@@@Gu@physx@@U?$LocalConvex@VConvexHullV@Gu@physx@@@23@@Gu@physx@@YA?AW4GjkStatus@01@ABU?$LocalConvex@VTriangleV@Gu@physx@@@01@ABU?$LocalConvex@VConvexHullV@Gu@physx@@@01@ABT__m128@@2_NPIAE4AAEAAUGjkOutput@01@@Z 100a7990 f i GuSweepsHF.obj
 0001:000a7460       ??$gjkRaycast@U?$LocalConvex@VTriangleV@Gu@physx@@@Gu@physx@@U?$LocalConvex@VConvexHullV@Gu@physx@@@23@@Gu@physx@@YA_NABU?$LocalConvex@VTriangleV@Gu@physx@@@01@ABU?$LocalConvex@VConvexHullV@Gu@physx@@@01@ABT__m128@@222AAT4@33M@Z 100a8460 f i GuSweepsHF.obj
 0001:000a8060       ??$gjkRaycastPenetration@U?$LocalConvex@VTriangleV@Gu@physx@@@Gu@physx@@U?$LocalConvex@VConvexHullV@Gu@physx@@@23@@Gu@physx@@YA_NABU?$LocalConvex@VTriangleV@Gu@physx@@@01@ABU?$LocalConvex@VConvexHullV@Gu@physx@@@01@ABT__m128@@222AAT4@33M_N@Z 100a9060 f i GuSweepsHF.obj
 0001:000a8310       ??$traceSegment@VBoxTraceSegmentReport@@$0A@$00@HeightFieldTraceUtil@Gu@physx@@QBEXABVPxVec3@2@0MPAVBoxTraceSegmentReport@@ABVPxBounds3@2@_NPBV32@@Z 100a9310 f i GuSweepsHF.obj
 0001:000a9ea0       ??$traceSegment@VBoxTraceSegmentReport@@@HeightFieldTraceSegmentSweepHelper@@QBEXABVPxVec3@physx@@0MPAVBoxTraceSegmentReport@@@Z 100aaea0 f i GuSweepsHF.obj
 0001:000a9ee0       ??$traceSegment@VCapsuleTraceSegmentReport@@$0A@$00@HeightFieldTraceUtil@Gu@physx@@QBEXABVPxVec3@2@0MPAVCapsuleTraceSegmentReport@@ABVPxBounds3@2@_NPBV32@@Z 100aaee0 f i GuSweepsHF.obj
 0001:000aba70       ??$traceSegment@VCapsuleTraceSegmentReport@@@HeightFieldTraceSegmentSweepHelper@@QBEXABVPxVec3@physx@@0MPAVCapsuleTraceSegmentReport@@@Z 100aca70 f i GuSweepsHF.obj
 0001:000abab0       ??$traceSegment@VConvexTraceSegmentReport@@$0A@$00@HeightFieldTraceUtil@Gu@physx@@QBEXABVPxVec3@2@0MPAVConvexTraceSegmentReport@@ABVPxBounds3@2@_NPBV32@@Z 100acab0 f i GuSweepsHF.obj
 0001:000ad640       ??$traceSegment@VConvexTraceSegmentReport@@@HeightFieldTraceSegmentSweepHelper@@QBEXABVPxVec3@physx@@0MPAVConvexTraceSegmentReport@@@Z 100ae640 f i GuSweepsHF.obj
 0001:000ad680       ??0?$OverlapTraceSegment@VBoxTraceSegmentReport@@@HeightFieldTraceUtil@Gu@physx@@QAE@ABVHeightFieldUtil@23@ABVHeightField@23@@Z 100ae680 f i GuSweepsHF.obj
 0001:000ad6c0       ??0?$OverlapTraceSegment@VCapsuleTraceSegmentReport@@@HeightFieldTraceUtil@Gu@physx@@QAE@ABVHeightFieldUtil@23@ABVHeightField@23@@Z 100ae6c0 f i GuSweepsHF.obj
 0001:000ad700       ??0?$OverlapTraceSegment@VConvexTraceSegmentReport@@@HeightFieldTraceUtil@Gu@physx@@QAE@ABVHeightFieldUtil@23@ABVHeightField@23@@Z 100ae700 f i GuSweepsHF.obj
 0001:000ad740       ??0BoxTraceSegmentReport@@QAE@ABVHeightFieldUtil@Gu@physx@@V?$PxFlags@W4Enum@PxHitFlag@physx@@G@3@ABVPsTransformV@aos@shdfnd@3@ABVPxTransform@3@ABVBoxV@23@ABVPxVec3@3@AAUPxSweepHit@3@M@Z 100ae740 f i GuSweepsHF.obj
 0001:000ad7f0       ??0CapsuleTraceSegmentReport@@QAE@ABVHeightFieldUtil@Gu@physx@@V?$PxFlags@W4Enum@PxHitFlag@physx@@G@3@ABVCapsule@23@ABVPxVec3@3@AAUPxSweepHit@3@ABVPxTransform@3@M@Z 100ae7f0 f i GuSweepsHF.obj
 0001:000ad860       ??0CapsuleV@Gu@physx@@QAE@XZ 100ae860 f i GuSweepsHF.obj
 0001:000ad880       ??0ConvexHullV@Gu@physx@@QAE@XZ 100ae880 f i GuSweepsHF.obj
 0001:000ad8b0       ??0ConvexTraceSegmentReport@@QAE@ABVHeightFieldUtil@Gu@physx@@ABUConvexHullData@23@ABVPxMeshScale@3@ABVPxTransform@3@3ABVPxVec3@3@MV?$PxFlags@W4Enum@PxHitFlag@physx@@G@3@M@Z 100ae8b0 f i GuSweepsHF.obj
 0001:000adbd0       ??0HeightFieldTraceSegmentReport@@QAE@ABVHeightFieldUtil@Gu@physx@@V?$PxFlags@W4Enum@PxHitFlag@physx@@G@3@@Z 100aebd0 f i GuSweepsHF.obj
 0001:000adc90       ??0HeightFieldTraceSegmentSweepHelper@@QAE@ABVHeightFieldTraceUtil@Gu@physx@@ABVPxVec3@3@@Z 100aec90 f i GuSweepsHF.obj
 0001:000add10       ??0PsMatTransformV@aos@shdfnd@physx@@QAE@XZ 100aed10 f i GuSweepsHF.obj
 0001:000add70       ??0PxTransform@physx@@QAE@XZ 100aed70 f i GuSweepsHF.obj
 0001:000adda0       ??1BoxTraceSegmentReport@@UAE@XZ 100aeda0 f i GuSweepsHF.obj
 0001:000addc0       ??1CapsuleTraceSegmentReport@@UAE@XZ 100aedc0 f i GuSweepsHF.obj
 0001:000adde0       ??1ConvexTraceSegmentReport@@UAE@XZ 100aede0 f i GuSweepsHF.obj
 0001:000ade00       ??1HeightFieldTraceSegmentReport@@UAE@XZ 100aee00 f i GuSweepsHF.obj
 0001:000ade20       ??U?$PxFlags@W4Enum@PxHitFlag@physx@@G@physx@@QBE?AV01@W4Enum@PxHitFlag@1@@Z 100aee20 f i GuSweepsHF.obj
 0001:000ade60       ??_EBoxTraceSegmentReport@@UAEPAXI@Z 100aee60 f i GuSweepsHF.obj
 0001:000ade60       ??_GBoxTraceSegmentReport@@UAEPAXI@Z 100aee60 f i GuSweepsHF.obj
 0001:000ade90       ??_ECapsuleTraceSegmentReport@@UAEPAXI@Z 100aee90 f i GuSweepsHF.obj
 0001:000ade90       ??_GCapsuleTraceSegmentReport@@UAEPAXI@Z 100aee90 f i GuSweepsHF.obj
 0001:000adec0       ??_EConvexTraceSegmentReport@@UAEPAXI@Z 100aeec0 f i GuSweepsHF.obj
 0001:000adec0       ??_GConvexTraceSegmentReport@@UAEPAXI@Z 100aeec0 f i GuSweepsHF.obj
 0001:000adf00       ??_EHeightFieldTraceSegmentReport@@UAEPAXI@Z 100aef00 f i GuSweepsHF.obj
 0001:000adf00       ??_GHeightFieldTraceSegmentReport@@UAEPAXI@Z 100aef00 f i GuSweepsHF.obj
 0001:000adf30       ?addIndex@?$OverlapTraceSegment@VBoxTraceSegmentReport@@@HeightFieldTraceUtil@Gu@physx@@QAE_NI@Z 100aef30 f i GuSweepsHF.obj
 0001:000adf90       ?addIndex@?$OverlapTraceSegment@VCapsuleTraceSegmentReport@@@HeightFieldTraceUtil@Gu@physx@@QAE_NI@Z 100aef90 f i GuSweepsHF.obj
 0001:000adff0       ?addIndex@?$OverlapTraceSegment@VConvexTraceSegmentReport@@@HeightFieldTraceUtil@Gu@physx@@QAE_NI@Z 100aeff0 f i GuSweepsHF.obj
 0001:000ae050       ?computeRectangleDifference@?$OverlapTraceSegment@VBoxTraceSegmentReport@@@HeightFieldTraceUtil@Gu@physx@@QAEXABUOverlapRectangle@1234@0AAUOverlapLine@1234@@Z 100af050 f i GuSweepsHF.obj
 0001:000ae110       ?computeRectangleDifference@?$OverlapTraceSegment@VCapsuleTraceSegmentReport@@@HeightFieldTraceUtil@Gu@physx@@QAEXABUOverlapRectangle@1234@0AAUOverlapLine@1234@@Z 100af110 f i GuSweepsHF.obj
 0001:000ae1d0       ?computeRectangleDifference@?$OverlapTraceSegment@VConvexTraceSegmentReport@@@HeightFieldTraceUtil@Gu@physx@@QAEXABUOverlapRectangle@1234@0AAUOverlapLine@1234@@Z 100af1d0 f i GuSweepsHF.obj
 0001:000ae290       ?faceHit@HeightFieldTraceSegmentReport@@QAE_NABVHeightFieldUtil@Gu@physx@@ABVPxVec3@4@IMM@Z 100af290 f i GuSweepsHF.obj
 0001:000ae2a0       ?finalizeHit@BoxTraceSegmentReport@@QAE_NAAUPxSweepHit@physx@@ABVPxHeightFieldGeometry@3@ABVPxTransform@3@2ABVBox@Gu@3@ABVPxVec3@3@MM@Z 100af2a0 f i GuSweepsHF.obj
 0001:000ae470       ?finalizeHit@CapsuleTraceSegmentReport@@QAE_NAAUPxSweepHit@physx@@ABVPxHeightFieldGeometry@3@ABVPxTransform@3@ABVCapsule@Gu@3@3ABVPxVec3@3@@Z 100af470 f i GuSweepsHF.obj
 0001:000ae650       ?finalizeHit@ConvexTraceSegmentReport@@QAE_NAAUPxSweepHit@physx@@ABVPxHeightFieldGeometry@3@ABVPxTransform@3@ABVPxConvexMeshGeometry@3@2ABVPxVec3@3@M@Z 100af650 f i GuSweepsHF.obj
 0001:000ae7a0       ?init@?$OverlapTraceSegment@VBoxTraceSegmentReport@@@HeightFieldTraceUtil@Gu@physx@@QAE_NHHHHHPAVBoxTraceSegmentReport@@@Z 100af7a0 f i GuSweepsHF.obj
 0001:000ae880       ?init@?$OverlapTraceSegment@VCapsuleTraceSegmentReport@@@HeightFieldTraceUtil@Gu@physx@@QAE_NHHHHHPAVCapsuleTraceSegmentReport@@@Z 100af880 f i GuSweepsHF.obj
 0001:000ae960       ?init@?$OverlapTraceSegment@VConvexTraceSegmentReport@@@HeightFieldTraceUtil@Gu@physx@@QAE_NHHHHHPAVConvexTraceSegmentReport@@@Z 100af960 f i GuSweepsHF.obj
 0001:000aea40       ?initialize@CapsuleV@Gu@physx@@QAEXABT__m128@@00@Z 100afa40 f i GuSweepsHF.obj
 0001:000aeb10       ?initialize@ConvexHullV@Gu@physx@@QAEXPBUConvexHullData@23@ABT__m128@@11_N@Z 100afb10 f i GuSweepsHF.obj
 0001:000aec20       ?initialized@?$OverlapTraceSegment@VBoxTraceSegmentReport@@@HeightFieldTraceUtil@Gu@physx@@QBE_NXZ 100afc20 f i GuSweepsHF.obj
 0001:000aec30       ?initialized@?$OverlapTraceSegment@VCapsuleTraceSegmentReport@@@HeightFieldTraceUtil@Gu@physx@@QBE_NXZ 100afc30 f i GuSweepsHF.obj
 0001:000aec40       ?initialized@?$OverlapTraceSegment@VConvexTraceSegmentReport@@@HeightFieldTraceUtil@Gu@physx@@QBE_NXZ 100afc40 f i GuSweepsHF.obj
 0001:000aec50       ?invalidate@OverlapRectangle@?$OverlapTraceSegment@VBoxTraceSegmentReport@@@HeightFieldTraceUtil@Gu@physx@@QAEXXZ 100afc50 f i GuSweepsHF.obj
 0001:000aec90       ?invalidate@OverlapRectangle@?$OverlapTraceSegment@VCapsuleTraceSegmentReport@@@HeightFieldTraceUtil@Gu@physx@@QAEXXZ 100afc90 f i GuSweepsHF.obj
 0001:000aecd0       ?invalidate@OverlapRectangle@?$OverlapTraceSegment@VConvexTraceSegmentReport@@@HeightFieldTraceUtil@Gu@physx@@QAEXXZ 100afcd0 f i GuSweepsHF.obj
 0001:000aed10       ?onEvent@BoxTraceSegmentReport@@UAE_NIPAI@Z 100afd10 f i GuSweepsHF.obj
 0001:000af170       ?onEvent@CapsuleTraceSegmentReport@@UAE_NIPAI@Z 100b0170 f i GuSweepsHF.obj
 0001:000af330       ?onEvent@ConvexTraceSegmentReport@@UAE_NIPAI@Z 100b0330 f i GuSweepsHF.obj
 0001:000af4a0       ?prepare@?$OverlapTraceSegment@VBoxTraceSegmentReport@@@HeightFieldTraceUtil@Gu@physx@@QAEXABVPxVec3@4@00AAM1@Z 100b04a0 f i GuSweepsHF.obj
 0001:000af780       ?prepare@?$OverlapTraceSegment@VCapsuleTraceSegmentReport@@@HeightFieldTraceUtil@Gu@physx@@QAEXABVPxVec3@4@00AAM1@Z 100b0780 f i GuSweepsHF.obj
 0001:000afa60       ?prepare@?$OverlapTraceSegment@VConvexTraceSegmentReport@@@HeightFieldTraceUtil@Gu@physx@@QAEXABVPxVec3@4@00AAM1@Z 100b0a60 f i GuSweepsHF.obj
 0001:000afd40       ?reportOverlaps@?$OverlapTraceSegment@VBoxTraceSegmentReport@@@HeightFieldTraceUtil@Gu@physx@@QAE_NXZ 100b0d40 f i GuSweepsHF.obj
 0001:000afda0       ?reportOverlaps@?$OverlapTraceSegment@VCapsuleTraceSegmentReport@@@HeightFieldTraceUtil@Gu@physx@@QAE_NXZ 100b0da0 f i GuSweepsHF.obj
 0001:000afe00       ?reportOverlaps@?$OverlapTraceSegment@VConvexTraceSegmentReport@@@HeightFieldTraceUtil@Gu@physx@@QAE_NXZ 100b0e00 f i GuSweepsHF.obj
 0001:000afe60       ?step@?$OverlapTraceSegment@VBoxTraceSegmentReport@@@HeightFieldTraceUtil@Gu@physx@@QAE_NHH@Z 100b0e60 f i GuSweepsHF.obj
 0001:000aff20       ?step@?$OverlapTraceSegment@VCapsuleTraceSegmentReport@@@HeightFieldTraceUtil@Gu@physx@@QAE_NHH@Z 100b0f20 f i GuSweepsHF.obj
 0001:000affe0       ?step@?$OverlapTraceSegment@VConvexTraceSegmentReport@@@HeightFieldTraceUtil@Gu@physx@@QAE_NHH@Z 100b0fe0 f i GuSweepsHF.obj
 0001:000b00a0       ?testVertexIndex@?$OverlapTraceSegment@VBoxTraceSegmentReport@@@HeightFieldTraceUtil@Gu@physx@@QAE_NI@Z 100b10a0 f i GuSweepsHF.obj
 0001:000b01f0       ?testVertexIndex@?$OverlapTraceSegment@VCapsuleTraceSegmentReport@@@HeightFieldTraceUtil@Gu@physx@@QAE_NI@Z 100b11f0 f i GuSweepsHF.obj
 0001:000b0340       ?testVertexIndex@?$OverlapTraceSegment@VConvexTraceSegmentReport@@@HeightFieldTraceUtil@Gu@physx@@QAE_NI@Z 100b1340 f i GuSweepsHF.obj
 0001:000b0490       ?underFaceHit@HeightFieldTraceSegmentReport@@QAE_NABVHeightFieldUtil@Gu@physx@@ABVPxVec3@4@1MMMI@Z 100b1490 f i GuSweepsHF.obj
 0001:000b04a0       ?visitCells@?$OverlapTraceSegment@VBoxTraceSegmentReport@@@HeightFieldTraceUtil@Gu@physx@@QAE_NABUOverlapLine@1234@@Z 100b14a0 f i GuSweepsHF.obj
 0001:000b0610       ?visitCells@?$OverlapTraceSegment@VBoxTraceSegmentReport@@@HeightFieldTraceUtil@Gu@physx@@QAE_NABUOverlapRectangle@1234@@Z 100b1610 f i GuSweepsHF.obj
 0001:000b06e0       ?visitCells@?$OverlapTraceSegment@VCapsuleTraceSegmentReport@@@HeightFieldTraceUtil@Gu@physx@@QAE_NABUOverlapLine@1234@@Z 100b16e0 f i GuSweepsHF.obj
 0001:000b0850       ?visitCells@?$OverlapTraceSegment@VCapsuleTraceSegmentReport@@@HeightFieldTraceUtil@Gu@physx@@QAE_NABUOverlapRectangle@1234@@Z 100b1850 f i GuSweepsHF.obj
 0001:000b0920       ?visitCells@?$OverlapTraceSegment@VConvexTraceSegmentReport@@@HeightFieldTraceUtil@Gu@physx@@QAE_NABUOverlapLine@1234@@Z 100b1920 f i GuSweepsHF.obj
 0001:000b0a90       ?visitCells@?$OverlapTraceSegment@VConvexTraceSegmentReport@@@HeightFieldTraceUtil@Gu@physx@@QAE_NABUOverlapRectangle@1234@@Z 100b1a90 f i GuSweepsHF.obj
 0001:000b0b60       ?intersectOBBOBB@Gu@physx@@YA_NABVPxVec3@2@0ABVPxMat33@2@001_N@Z 100b1b60 f   GuIntersectionBoxBox.obj
 0001:000b1b70       ?intersectCapsuleTriangle@Gu@physx@@YA_NABVPxVec3@2@000ABVCapsule@12@ABUCapsuleTriangleOverlapData@12@@Z 100b2b70 f   GuIntersectionCapsuleTriangle.obj
 0001:000b1d60       ??$PxClamp@M@physx@@YAMMMM@Z 100b2d60 f i GuIntersectionCapsuleTriangle.obj
 0001:000b1dc0       ??9PxVec3@physx@@QBE_NABV01@@Z 100b2dc0 f i GuIntersectionCapsuleTriangle.obj
 0001:000b1e20       ?computeEdgeAxis@Gu@physx@@YA?AVPxVec3@2@ABV32@000MM@Z 100b2e20 f i GuIntersectionCapsuleTriangle.obj
 0001:000b2020       ?testAxis@Gu@physx@@YAIABVPxVec3@2@00ABVCapsule@12@0@Z 100b3020 f i GuIntersectionCapsuleTriangle.obj
 0001:000b2150       ?intersectEdgeEdge@Gu@physx@@YA_NABVPxVec3@2@0000AAMAAV32@@Z 100b3150 f   GuIntersectionEdgeEdge.obj
 0001:000b2460       ?rayAABBIntersect@Gu@physx@@YA_NABVPxVec3@2@000AAV32@@Z 100b3460 f   GuIntersectionRayBox.obj
 0001:000b2780       ?rayAABBIntersect2@Gu@physx@@YAIABVPxVec3@2@000AAV32@AAM@Z 100b3780 f   GuIntersectionRayBox.obj
 0001:000b2ac0       ?intersectRayAABB@Gu@physx@@YAHABVPxVec3@2@000AAM1@Z 100b3ac0 f   GuIntersectionRayBox.obj
 0001:000b2cd0       ?intersectRayAABB@Gu@physx@@YAHABVPxVec3@2@0000AAM1@Z 100b3cd0 f   GuIntersectionRayBox.obj
 0001:000b2ff0       ?intersectRayAABB2@Gu@physx@@YA_NABVPxVec3@2@000MAAM1@Z 100b3ff0 f   GuIntersectionRayBox.obj
 0001:000b34a0       ?intersectRayAABB2@Gu@physx@@YA_NABT__m128@@0000AAT3@1@Z 100b44a0 f   GuIntersectionRayBox.obj
 0001:000b37b0       ?V3Sign@aos@shdfnd@physx@@YA?AT__m128@@T4@@Z 100b47b0 f i GuIntersectionRayBox.obj
 0001:000b3890       ?recip@intrinsics@physx@@YAMM@Z 100b4890 f i GuIntersectionRayBox.obj
 0001:000b38b0       ?intersectRayCapsuleInternal@Gu@physx@@YAIABVPxVec3@2@000MQAM@Z 100b48b0 f   GuIntersectionRayCapsule.obj
 0001:000b43d0       ?intersectRaySphereBasic@Gu@physx@@YA_NABVPxVec3@2@0M0MAAMPAV32@@Z 100b53d0 f   GuIntersectionRaySphere.obj
 0001:000b4510       ?intersectRaySphere@Gu@physx@@YA_NABVPxVec3@2@0M0MAAMPAV32@@Z 100b5510 f   GuIntersectionRaySphere.obj
 0001:000b4600       ?intersectSphereBox@Gu@physx@@YA_NABVSphere@12@ABVBox@12@@Z 100b5600 f   GuIntersectionSphereBox.obj
 0001:000b4780       ?intersectTriangleBox_ReferenceCode@Gu@physx@@YAHABVPxVec3@2@0000@Z 100b5780 f   GuIntersectionTriangleBox.obj
 0001:000b47b0       ?intersectTriangleBox_Unsafe@Gu@physx@@YAHABVPxVec3@2@0000@Z 100b57b0 f   GuIntersectionTriangleBox.obj
 0001:000b4890       ?intersectTriangleBox@Gu@physx@@YAHABVBoxPadded@12@ABVPxVec3@2@11@Z 100b5890 f   GuIntersectionTriangleBox.obj
 0001:000b5ef0       ?intersectTriangleBoxBV4@@YAHABVPxVec3@physx@@00ABVPxMat33@2@00@Z 100b6ef0 f   GuIntersectionTriangleBox.obj
 0001:000b6020       ?BAnyTrue3_R@internalWindowsSimd@aos@shdfnd@physx@@YAIT__m128@@@Z 100b7020 f i GuIntersectionTriangleBox.obj
 0001:000b6070       ?U4LoadXYZW@aos@shdfnd@physx@@YA?AT__m128@@IIII@Z 100b7070 f i GuIntersectionTriangleBox.obj
 0001:000b60d0       ?V4AllGrtrOrEq3@aos@shdfnd@physx@@YAIT__m128@@0@Z 100b70d0 f i GuIntersectionTriangleBox.obj
 0001:000b6120       ?V4AnyGrtr3@aos@shdfnd@physx@@YAIT__m128@@0@Z 100b7120 f i GuIntersectionTriangleBox.obj
 0001:000b6170       ?V4Cross@aos@shdfnd@physx@@YA?AT__m128@@T4@0@Z 100b7170 f i GuIntersectionTriangleBox.obj
 0001:000b6240       ?V4Dot3@aos@shdfnd@physx@@YA?AT__m128@@T4@0@Z 100b7240 f i GuIntersectionTriangleBox.obj
 0001:000b6300       ?V4NegMulSub@aos@shdfnd@physx@@YA?AT__m128@@T4@00@Z 100b7300 f i GuIntersectionTriangleBox.obj
 0001:000b6360       ?V4PermYZXW@aos@shdfnd@physx@@YA?AT__m128@@T4@@Z 100b7360 f i GuIntersectionTriangleBox.obj
 0001:000b63a0       ?V4U32and@aos@shdfnd@physx@@YA?AT__m128@@T4@0@Z 100b73a0 f i GuIntersectionTriangleBox.obj
 0001:000b6400       ?V4U32or@aos@shdfnd@physx@@YA?AT__m128@@T4@0@Z 100b7400 f i GuIntersectionTriangleBox.obj
 0001:000b6460       ?V4U32xor@aos@shdfnd@physx@@YA?AT__m128@@T4@0@Z 100b7460 f i GuIntersectionTriangleBox.obj
 0001:000b64c0       ?Vec4V_From_FloatV@aos@shdfnd@physx@@YA?AT__m128@@T4@@Z 100b74c0 f i GuIntersectionTriangleBox.obj
 0001:000b64f0       ?Vec4V_ReinterpretFrom_VecU32V@aos@shdfnd@physx@@YA?AT__m128@@T4@@Z 100b74f0 f i GuIntersectionTriangleBox.obj
 0001:000b6520       ?VecU32V_ReinterpretFrom_Vec4V@aos@shdfnd@physx@@YA?AT__m128@@T4@@Z 100b7520 f i GuIntersectionTriangleBox.obj
 0001:000b6550       ??0SourceMeshBase@Gu@physx@@QAE@XZ 100b7550 f   GuBV4.obj
 0001:000b6580       ??1SourceMeshBase@Gu@physx@@QAE@XZ 100b7580 f   GuBV4.obj
 0001:000b65b0       ??0SourceMesh@Gu@physx@@QAE@XZ 100b75b0 f   GuBV4.obj
 0001:000b65d0       ??1SourceMesh@Gu@physx@@QAE@XZ 100b75d0 f   GuBV4.obj
 0001:000b65f0       ?reset@SourceMesh@Gu@physx@@QAEXXZ 100b75f0 f   GuBV4.obj
 0001:000b6640       ??4SourceMesh@Gu@physx@@QAEXAAV012@@Z 100b7640 f   GuBV4.obj
 0001:000b66a0       ?remapTopology@SourceMesh@Gu@physx@@QAEXPBI@Z 100b76a0 f   GuBV4.obj
 0001:000b6a00       ?isValid@SourceMesh@Gu@physx@@QBE_NXZ 100b7a00 f   GuBV4.obj
 0001:000b6a50       ??0BV4Tree@Gu@physx@@QAE@W4PxEMPTY@2@@Z 100b7a50 f   GuBV4.obj
 0001:000b6a90       ?exportExtraData@BV4Tree@Gu@physx@@QAEXAAVPxSerializationContext@3@@Z 100b7a90 f   GuBV4.obj
 0001:000b6ae0       ?importExtraData@BV4Tree@Gu@physx@@QAEXAAVPxDeserializationContext@3@@Z 100b7ae0 f   GuBV4.obj
 0001:000b6b20       ??0BV4Tree@Gu@physx@@QAE@XZ 100b7b20 f   GuBV4.obj
 0001:000b6b60       ??0BV4Tree@Gu@physx@@QAE@PAVSourceMesh@12@ABVPxBounds3@2@@Z 100b7b60 f   GuBV4.obj
 0001:000b6bb0       ??1BV4Tree@Gu@physx@@QAE@XZ 100b7bb0 f   GuBV4.obj
 0001:000b6bd0       ?load@BV4Tree@Gu@physx@@QAE_NAAVPxInputStream@3@_N@Z 100b7bd0 f   GuBV4.obj
 0001:000b6e30       ?reset@BV4Tree@Gu@physx@@QAEXXZ 100b7e30 f   GuBV4.obj
 0001:000b6eb0       ??4BV4Tree@Gu@physx@@QAEXAAV012@@Z 100b7eb0 f   GuBV4.obj
 0001:000b6f50       ?init@BV4Tree@Gu@physx@@QAE_NPAVSourceMesh@23@ABVPxBounds3@3@@Z 100b7f50 f   GuBV4.obj
 0001:000b6f80       ?release@BV4Tree@Gu@physx@@QAEXXZ 100b7f80 f   GuBV4.obj
 0001:000b6fd0       ?refit@BV4Tree@Gu@physx@@QAEXM@Z 100b7fd0 f   GuBV4.obj
 0001:000b7000       ??$?_UV?$ReflectionAllocator@VIndTri16@Gu@physx@@@shdfnd@physx@@@UserAllocated@shdfnd@physx@@SAPAXIV?$ReflectionAllocator@VIndTri16@Gu@physx@@@12@PBDH@Z 100b8000 f i GuBV4.obj
 0001:000b7020       ??$?_UV?$ReflectionAllocator@VIndTri32@Gu@physx@@@shdfnd@physx@@@UserAllocated@shdfnd@physx@@SAPAXIV?$ReflectionAllocator@VIndTri32@Gu@physx@@@12@PBDH@Z 100b8020 f i GuBV4.obj
 0001:000b7040       ??$readExtraData@U?$BVDataPackedT@VQuantizedAABB@Gu@physx@@@Gu@physx@@@PxDeserializationContext@physx@@QAEPAU?$BVDataPackedT@VQuantizedAABB@Gu@physx@@@Gu@1@I@Z 100b8040 f i GuBV4.obj
 0001:000b7070       ??0?$ReflectionAllocator@VIndTri16@Gu@physx@@@shdfnd@physx@@QAE@PBD@Z 100b8070 f i GuBV4.obj
 0001:000b7080       ??0?$ReflectionAllocator@VIndTri32@Gu@physx@@@shdfnd@physx@@QAE@PBD@Z 100b8080 f i GuBV4.obj
 0001:000b7090       ??0IndTri16@Gu@physx@@QAE@XZ 100b8090 f i GuBV4.obj
 0001:000b70a0       ??0IndTri32@Gu@physx@@QAE@XZ 100b80a0 f i GuBV4.obj
 0001:000b70b0       ??0LocalBounds@Gu@physx@@QAE@W4PxEMPTY@2@@Z 100b80b0 f i GuBV4.obj
 0001:000b70d0       ??0LocalBounds@Gu@physx@@QAE@XZ 100b80d0 f i GuBV4.obj
 0001:000b7100       ??1IndTri16@Gu@physx@@QAE@XZ 100b8100 f i GuBV4.obj
 0001:000b7110       ??1IndTri32@Gu@physx@@QAE@XZ 100b8110 f i GuBV4.obj
 0001:000b7120       ??4LocalBounds@Gu@physx@@QAEAAU012@ABU012@@Z 100b8120 f i GuBV4.obj
 0001:000b7150       ??_EIndTri16@Gu@physx@@QAEPAXI@Z 100b8150 f i GuBV4.obj
 0001:000b7200       ??_EIndTri32@Gu@physx@@QAEPAXI@Z 100b8200 f i GuBV4.obj
 0001:000b72b0       ?allocate@?$ReflectionAllocator@VIndTri16@Gu@physx@@@shdfnd@physx@@QAEPAXIPBDH@Z 100b82b0 f i GuBV4.obj
 0001:000b7300       ?allocate@?$ReflectionAllocator@VIndTri32@Gu@physx@@@shdfnd@physx@@QAEPAXIPBDH@Z 100b8300 f i GuBV4.obj
 0001:000b7350       ?getName@?$ReflectionAllocator@VIndTri16@Gu@physx@@@shdfnd@physx@@CAPBDXZ 100b8350 f i GuBV4.obj
 0001:000b7390       ?getName@?$ReflectionAllocator@VIndTri32@Gu@physx@@@shdfnd@physx@@CAPBDXZ 100b8390 f i GuBV4.obj
 0001:000b73d0       ?init@LocalBounds@Gu@physx@@QAEXABVPxBounds3@3@@Z 100b83d0 f i GuBV4.obj
 0001:000b7410       ?readBigEndianVersionNumber@physx@@YA_NAAVPxInputStream@1@_NAAIAA_N@Z 100b8410 f i GuBV4.obj
 0001:000b7580       ??0AABBTree@Gu@physx@@QAE@XZ 100b8580 f   GuBV4Build.obj
 0001:000b75b0       ??1AABBTree@Gu@physx@@QAE@XZ 100b85b0 f   GuBV4Build.obj
 0001:000b75d0       ?buildFromMesh@AABBTree@Gu@physx@@QAE_NAAVSourceMesh@23@I@Z 100b85d0 f   GuBV4Build.obj
 0001:000b79e0       ?release@AABBTree@Gu@physx@@QAEXXZ 100b89e0 f   GuBV4Build.obj
 0001:000b7a50       ?walk@AABBTree@Gu@physx@@QBEIP6A_NPBVAABBTreeNode@23@IPAX@Z1@Z 100b8a50 f   GuBV4Build.obj
 0001:000b7a90       ?BuildBV4Ex@Gu@physx@@YA_NAAVBV4Tree@12@AAVSourceMesh@12@MI@Z 100b8a90 f   GuBV4Build.obj
 0001:000b8b80       ??0BVData@@QAE@XZ          100b9b80 f   GuBV4Build.obj
 0001:000b8bc0       ??1BV4BuildParams@@QAE@XZ  100b9bc0 f   GuBV4Build.obj
 0001:000b8be0       ?allocateNode@BV4BuildParams@@QAEPAUBV4Node@@XZ 100b9be0 f   GuBV4Build.obj
 0001:000b8cb0       ?releaseNodes@BV4BuildParams@@QAEXXZ 100b9cb0 f   GuBV4Build.obj
 0001:000ba620       ??$?2V?$ReflectionAllocator@USlab@BV4BuildParams@@@shdfnd@physx@@@UserAllocated@shdfnd@physx@@SAPAXIV?$ReflectionAllocator@USlab@BV4BuildParams@@@12@PBDH@Z 100bb620 f i GuBV4Build.obj
 0001:000ba640       ??$?_UV?$ReflectionAllocator@U?$BVDataPackedT@VQuantizedAABB@Gu@physx@@@Gu@physx@@@shdfnd@physx@@@UserAllocated@shdfnd@physx@@SAPAXIV?$ReflectionAllocator@U?$BVDataPackedT@VQuantizedAABB@Gu@physx@@@Gu@physx@@@12@PBDH@Z 100bb640 f i GuBV4Build.obj
 0001:000ba660       ??$?_UV?$ReflectionAllocator@VAABBTreeNode@Gu@physx@@@shdfnd@physx@@@UserAllocated@shdfnd@physx@@SAPAXIV?$ReflectionAllocator@VAABBTreeNode@Gu@physx@@@12@PBDH@Z 100bb660 f i GuBV4Build.obj
 0001:000ba680       ??$swap@PAVAABBTreeNode@Gu@physx@@@shdfnd@physx@@YAXAAPAVAABBTreeNode@Gu@1@0@Z 100bb680 f i GuBV4Build.obj
 0001:000ba6b0       ??$swap@VAABBTreeNode@Gu@physx@@@shdfnd@physx@@YAXAAVAABBTreeNode@Gu@1@0@Z 100bb6b0 f i GuBV4Build.obj
 0001:000ba6f0       ??0?$ReflectionAllocator@U?$BVDataPackedT@VQuantizedAABB@Gu@physx@@@Gu@physx@@@shdfnd@physx@@QAE@PBD@Z 100bb6f0 f i GuBV4Build.obj
 0001:000ba700       ??0?$ReflectionAllocator@USlab@BV4BuildParams@@@shdfnd@physx@@QAE@PBD@Z 100bb700 f i GuBV4Build.obj
 0001:000ba710       ??0?$ReflectionAllocator@VAABBTreeNode@Gu@physx@@@shdfnd@physx@@QAE@PBD@Z 100bb710 f i GuBV4Build.obj
 0001:000ba720       ??0AABBTreeNode@Gu@physx@@QAE@ABV012@@Z 100bb720 f i GuBV4Build.obj
 0001:000ba760       ??0AABBTreeNode@Gu@physx@@QAE@XZ 100bb760 f i GuBV4Build.obj
 0001:000ba7a0       ??0BV4BuildParams@@QAE@M@Z 100bb7a0 f i GuBV4Build.obj
 0001:000ba7d0       ??0BV4Node@@QAE@XZ         100bb7d0 f i GuBV4Build.obj
 0001:000ba7f0       ??0Slab@BV4BuildParams@@QAE@XZ 100bb7f0 f i GuBV4Build.obj
 0001:000ba820       ??1AABBTreeNode@Gu@physx@@QAE@XZ 100bb820 f i GuBV4Build.obj
 0001:000ba850       ??1BV4Node@@QAE@XZ         100bb850 f i GuBV4Build.obj
 0001:000ba870       ??1BVData@@QAE@XZ          100bb870 f i GuBV4Build.obj
 0001:000ba890       ??1Slab@BV4BuildParams@@QAE@XZ 100bb890 f i GuBV4Build.obj
 0001:000ba8c0       ??4AABBTreeNode@Gu@physx@@QAEAAV012@ABV012@@Z 100bb8c0 f i GuBV4Build.obj
 0001:000ba900       ??_EAABBTreeNode@Gu@physx@@QAEPAXI@Z 100bb900 f i GuBV4Build.obj
 0001:000ba9b0       ??_GSlab@BV4BuildParams@@QAEPAXI@Z 100bb9b0 f i GuBV4Build.obj
 0001:000baa00       ?allocate@?$ReflectionAllocator@U?$BVDataPackedT@VQuantizedAABB@Gu@physx@@@Gu@physx@@@shdfnd@physx@@QAEPAXIPBDH@Z 100bba00 f i GuBV4Build.obj
 0001:000baa50       ?allocate@?$ReflectionAllocator@USlab@BV4BuildParams@@@shdfnd@physx@@QAEPAXIPBDH@Z 100bba50 f i GuBV4Build.obj
 0001:000baaa0       ?allocate@?$ReflectionAllocator@VAABBTreeNode@Gu@physx@@@shdfnd@physx@@QAEPAXIPBDH@Z 100bbaa0 f i GuBV4Build.obj
 0001:000baaf0       ?encodePNS@?$BVDataPackedT@VQuantizedAABB@Gu@physx@@@Gu@physx@@QAEXI@Z 100bbaf0 f i GuBV4Build.obj
 0001:000bab50       ?getAABB@AABBTreeNode@Gu@physx@@QBEABVPxBounds3@3@XZ 100bbb50 f i GuBV4Build.obj
 0001:000bab60       ?getBV@AABBTree@Gu@physx@@QBEABVPxBounds3@3@XZ 100bbb60 f i GuBV4Build.obj
 0001:000bab80       ?getChild@BV4Node@@QBEPBU1@I@Z 100bbb80 f i GuBV4Build.obj
 0001:000baba0       ?getIndices@AABBTree@Gu@physx@@QBEPBIXZ 100bbba0 f i GuBV4Build.obj
 0001:000babb0       ?getName@?$ReflectionAllocator@U?$BVDataPackedT@VQuantizedAABB@Gu@physx@@@Gu@physx@@@shdfnd@physx@@CAPBDXZ 100bbbb0 f i GuBV4Build.obj
 0001:000babf0       ?getName@?$ReflectionAllocator@USlab@BV4BuildParams@@@shdfnd@physx@@CAPBDXZ 100bbbf0 f i GuBV4Build.obj
 0001:000bac30       ?getName@?$ReflectionAllocator@VAABBTreeNode@Gu@physx@@@shdfnd@physx@@CAPBDXZ 100bbc30 f i GuBV4Build.obj
 0001:000bac70       ?getNbPrimitives@AABBTreeNode@Gu@physx@@QBEIXZ 100bbc70 f i GuBV4Build.obj
 0001:000bac90       ?getNbTriangles@SourceMesh@Gu@physx@@QBEIXZ 100bbc90 f i GuBV4Build.obj
 0001:000bacb0       ?getNeg@AABBTreeNode@Gu@physx@@QBEPBV123@XZ 100bbcb0 f i GuBV4Build.obj
 0001:000bacf0       ?getNodes@AABBTree@Gu@physx@@QBEPBVAABBTreeNode@23@XZ 100bbcf0 f i GuBV4Build.obj
 0001:000bad10       ?getPos@AABBTreeNode@Gu@physx@@QBEPBV123@XZ 100bbd10 f i GuBV4Build.obj
 0001:000bad30       ?getPrimitives@AABBTreeNode@Gu@physx@@QBEPBIXZ 100bbd30 f i GuBV4Build.obj
 0001:000bad50       ?getTriangle@SourceMesh@Gu@physx@@QBEXAAUVertexPointers@23@I@Z 100bbd50 f i GuBV4Build.obj
 0001:000badd0       ?getType@BV4Node@@QBEIXZ   100bbdd0 f i GuBV4Build.obj
 0001:000bae20       ?getVertexReferences@Gu@physx@@YAXAAI00IPBVIndTri32@12@PBVIndTri16@12@@Z 100bbe20 f i GuBV4Build.obj
 0001:000baec0       ?isLeaf@AABBTreeNode@Gu@physx@@QBE_NXZ 100bbec0 f i GuBV4Build.obj
 0001:000baef0       ?isLeaf@BV4Node@@QBEII@Z   100bbef0 f i GuBV4Build.obj
 0001:000bc670       ?Sweep_AABB_BV4@@YAHABVBox@Gu@physx@@ABVPxVec3@3@MABVBV4Tree@23@PIAVSweepHit@23@I@Z 100bd670 f   GuBV4_AABBSweep.obj
 0001:000bca00       ?Sweep_AABB_BV4_CB@@YAXABVBox@Gu@physx@@ABVPxVec3@3@MABVBV4Tree@23@PIBVPxMat44@3@P6A_NPAXABVSweepHit@23@@Z4I_N@Z 100bda00 f   GuBV4_AABBSweep.obj
 0001:000bce60       ?GenericSweep_AABB_CB@@YAXABVBox@Gu@physx@@ABVPxVec3@3@MABVBV4Tree@23@P6A_NPAX111IAAM@Z3I@Z 100bde60 f   GuBV4_AABBSweep.obj
 0001:000c3d00       ??$V4SplatElement@$00@aos@shdfnd@physx@@YA?AT__m128@@T3@@Z 100c4d00 f i GuBV4_AABBSweep.obj
 0001:000c3d50       ??$V4SplatElement@$01@aos@shdfnd@physx@@YA?AT__m128@@T3@@Z 100c4d50 f i GuBV4_AABBSweep.obj
 0001:000c3da0       ??$V4SplatElement@$0A@@aos@shdfnd@physx@@YA?AT__m128@@T3@@Z 100c4da0 f i GuBV4_AABBSweep.obj
 0001:000c42e0       ??0RayParams@@QAE@XZ       100c52e0 f i GuBV4_AABBSweep.obj
 0001:000c4310       ??0RaycastHitInternal@Gu@physx@@QAE@XZ 100c5310 f i GuBV4_AABBSweep.obj
 0001:000c4320       ??0SweepHit@Gu@physx@@QAE@XZ 100c5320 f i GuBV4_AABBSweep.obj
 0001:000c4350       ??1RayParams@@QAE@XZ       100c5350 f i GuBV4_AABBSweep.obj
 0001:000c4380       ??1RaycastHitInternal@Gu@physx@@QAE@XZ 100c5380 f i GuBV4_AABBSweep.obj
 0001:000c4390       ??1SweepHit@Gu@physx@@QAE@XZ 100c5390 f i GuBV4_AABBSweep.obj
 0001:000c43a0       ?V4RecipFast@aos@shdfnd@physx@@YA?AT__m128@@T4@@Z 100c53a0 f i GuBV4_AABBSweep.obj
 0001:000c43d0       ?computeBoxLocalImpact@Gu@physx@@YAXAAVPxVec3@2@0AAV?$PxFlags@W4Enum@PxHitFlag@physx@@G@2@ABVBox@12@ABV32@ABVPxTriangle@2@V42@_N6M@Z 100c53d0 f i GuBV4_AABBSweep.obj
 0001:000c4540       ?cross010@shdfnd@physx@@YA?AVPxVec3@2@ABV32@@Z 100c5540 f i GuBV4_AABBSweep.obj
 0001:000c4580       ?cross100@shdfnd@physx@@YA?AVPxVec3@2@ABV32@@Z 100c5580 f i GuBV4_AABBSweep.obj
 0001:000c45c0       ?decodePNSNoShift@BVDataSwizzledQ@Gu@physx@@QBEII@Z 100c55c0 f i GuBV4_AABBSweep.obj
 0001:000c45e0       ?getChildData@BVDataSwizzledQ@Gu@physx@@QBEII@Z 100c55e0 f i GuBV4_AABBSweep.obj
 0001:000c4600       ?getNbPrimitives@Gu@physx@@YAIAAI@Z 100c5600 f i GuBV4_AABBSweep.obj
 0001:000c4630       ?getPrimitive@BVDataSwizzledQ@Gu@physx@@QBEII@Z 100c5630 f i GuBV4_AABBSweep.obj
 0001:000c4650       ?getTris16@SourceMesh@Gu@physx@@QBEPBVIndTri16@23@XZ 100c5650 f i GuBV4_AABBSweep.obj
 0001:000c4670       ?getTris32@SourceMesh@Gu@physx@@QBEPBVIndTri32@23@XZ 100c5670 f i GuBV4_AABBSweep.obj
 0001:000c4690       ?getVerts@SourceMeshBase@Gu@physx@@QBEPBVPxVec3@3@XZ 100c5690 f i GuBV4_AABBSweep.obj
 0001:000c46b0       ?invertBoxMatrix@Gu@physx@@YAXAAVPxMat33@2@AAVPxVec3@2@ABVBox@12@@Z 100c56b0 f i GuBV4_AABBSweep.obj
 0001:000c4870       ?isLeaf@BVDataSwizzledQ@Gu@physx@@QBEII@Z 100c5870 f i GuBV4_AABBSweep.obj
 0001:000c4890       ?shouldFlipNormal@Gu@physx@@YA_NABVPxVec3@2@_N1ABVPxTriangle@2@0PBVPxTransform@2@@Z 100c5890 f i GuBV4_AABBSweep.obj
 0001:000c4970       ?testSeparationAxes@Gu@physx@@YAHABVPxTriangle@2@ABVPxVec3@2@111MAAM@Z 100c5970 f i GuBV4_AABBSweep.obj
 0001:000c4c20       ?triBoxSweepTestBoxSpace_inlined@Gu@physx@@YAHABVPxTriangle@2@ABVPxVec3@2@11MAAMI@Z 100c5c20 f i GuBV4_AABBSweep.obj
 0001:000c4dd0       ?BV4_OverlapBoxAny@@YAHABVBox@Gu@physx@@ABVBV4Tree@23@PIBVPxMat44@3@@Z 100c5dd0 f   GuBV4_BoxOverlap.obj
 0001:000c5090       ?BV4_OverlapBoxAll@@YAIABVBox@Gu@physx@@ABVBV4Tree@23@PIBVPxMat44@3@PAIIAA_N@Z 100c6090 f   GuBV4_BoxOverlap.obj
 0001:000c5390       ?BV4_OverlapBoxCB@@YAXABVBox@Gu@physx@@ABVBV4Tree@23@P6A_NPAXABVPxVec3@3@33IPBI@Z2@Z 100c6390 f   GuBV4_BoxOverlap.obj
 0001:000c57e0       ?BV4_OverlapCapsuleAny@@YAHABVCapsule@Gu@physx@@ABVBV4Tree@23@PIBVPxMat44@3@@Z 100c67e0 f   GuBV4_BoxOverlap.obj
 0001:000c5a00       ?BV4_OverlapCapsuleAll@@YAIABVCapsule@Gu@physx@@ABVBV4Tree@23@PIBVPxMat44@3@PAIIAA_N@Z 100c6a00 f   GuBV4_BoxOverlap.obj
 0001:000c5cc0       ?BV4_OverlapCapsuleCB@@YAXABVCapsule@Gu@physx@@ABVBV4Tree@23@PIBVPxMat44@3@P6A_NPAXABVPxVec3@3@44IPBI@Z3@Z 100c6cc0 f   GuBV4_BoxOverlap.obj
 0001:000ca3f0       ??$precomputeData@UOBBTestParams@@@@YAXPIAUOBBTestParams@@PIAVPxMat33@physx@@PIBV12@@Z 100cb3f0 f i GuBV4_BoxOverlap.obj
 0001:000ca7c0       ??$setupBoxData@UOBBTestParams@@@@YAXPIAUOBBTestParams@@ABVPxVec3@physx@@PIBVPxMat33@2@@Z 100cb7c0 f i GuBV4_BoxOverlap.obj
 0001:000ca8c0       ??$setupMeshPointersAndQuantizedCoeffs@UCapsuleParamsAll@@@Gu@physx@@YAXPIAUCapsuleParamsAll@@PIBVSourceMesh@01@PIBVBV4Tree@01@@Z 100cb8c0 f i GuBV4_BoxOverlap.obj
 0001:000ca960       ??$setupMeshPointersAndQuantizedCoeffs@UCapsuleParamsAny@@@Gu@physx@@YAXPIAUCapsuleParamsAny@@PIBVSourceMesh@01@PIBVBV4Tree@01@@Z 100cb960 f i GuBV4_BoxOverlap.obj
 0001:000caa00       ??$setupMeshPointersAndQuantizedCoeffs@UCapsuleParamsCB@@@Gu@physx@@YAXPIAUCapsuleParamsCB@@PIBVSourceMesh@01@PIBVBV4Tree@01@@Z 100cba00 f i GuBV4_BoxOverlap.obj
 0001:000caaa0       ??$setupMeshPointersAndQuantizedCoeffs@UOBBParams@@@Gu@physx@@YAXPIAUOBBParams@@PIBVSourceMesh@01@PIBVBV4Tree@01@@Z 100cbaa0 f i GuBV4_BoxOverlap.obj
 0001:000cab40       ??$setupMeshPointersAndQuantizedCoeffs@UOBBParamsAll@@@Gu@physx@@YAXPIAUOBBParamsAll@@PIBVSourceMesh@01@PIBVBV4Tree@01@@Z 100cbb40 f i GuBV4_BoxOverlap.obj
 0001:000cabe0       ??$setupMeshPointersAndQuantizedCoeffs@UOBBParamsCB@@@Gu@physx@@YAXPIAUOBBParamsCB@@PIBVSourceMesh@01@PIBVBV4Tree@01@@Z 100cbbe0 f i GuBV4_BoxOverlap.obj
 0001:000cac80       ??0CapsuleParamsAll@@QAE@XZ 100cbc80 f i GuBV4_BoxOverlap.obj
 0001:000caca0       ??0CapsuleParamsAny@@QAE@XZ 100cbca0 f i GuBV4_BoxOverlap.obj
 0001:000cace0       ??0CapsuleParamsCB@@QAE@XZ 100cbce0 f i GuBV4_BoxOverlap.obj
 0001:000cad00       ??0CapsuleTriangleOverlapData@Gu@physx@@QAE@XZ 100cbd00 f i GuBV4_BoxOverlap.obj
 0001:000cad20       ??0OBBParams@@QAE@XZ       100cbd20 f i GuBV4_BoxOverlap.obj
 0001:000cad60       ??0OBBParamsAll@@QAE@XZ    100cbd60 f i GuBV4_BoxOverlap.obj
 0001:000cad80       ??0OBBParamsCB@@QAE@XZ     100cbd80 f i GuBV4_BoxOverlap.obj
 0001:000cada0       ??0OBBTestParams@@QAE@XZ   100cbda0 f i GuBV4_BoxOverlap.obj
 0001:000cae30       ??0PxMat44@physx@@QAE@XZ   100cbe30 f i GuBV4_BoxOverlap.obj
 0001:000cae70       ??1CapsuleParamsAll@@QAE@XZ 100cbe70 f i GuBV4_BoxOverlap.obj
 0001:000cae90       ??1CapsuleParamsAny@@QAE@XZ 100cbe90 f i GuBV4_BoxOverlap.obj
 0001:000caec0       ??1CapsuleParamsCB@@QAE@XZ 100cbec0 f i GuBV4_BoxOverlap.obj
 0001:000caee0       ??1OBBParams@@QAE@XZ       100cbee0 f i GuBV4_BoxOverlap.obj
 0001:000caf10       ??1OBBParamsAll@@QAE@XZ    100cbf10 f i GuBV4_BoxOverlap.obj
 0001:000caf30       ??1OBBParamsCB@@QAE@XZ     100cbf30 f i GuBV4_BoxOverlap.obj
 0001:000caf50       ??1OBBTestParams@@QAE@XZ   100cbf50 f i GuBV4_BoxOverlap.obj
 0001:000cafe0       ?BV4_BoxBoxOverlap@@YAHT__m128@@0PIBUOBBTestParams@@@Z 100cbfe0 f i GuBV4_BoxOverlap.obj
 0001:000cb420       ?computeLocalBox@Gu@physx@@YAXAAVBox@12@ABV312@PIBVPxMat44@2@@Z 100cc420 f i GuBV4_BoxOverlap.obj
 0001:000cb470       ?computeLocalCapsule@Gu@physx@@YAXAAVCapsule@12@ABV312@PIBVPxMat44@2@@Z 100cc470 f i GuBV4_BoxOverlap.obj
 0001:000cb4f0       ?init@CapsuleTriangleOverlapData@Gu@physx@@QAEXABVCapsule@23@@Z 100cc4f0 f i GuBV4_BoxOverlap.obj
 0001:000cb580       ?inverseTransform@Gu@physx@@YA?AVPxVec3@2@PIBVPxMat44@2@ABV32@@Z 100cc580 f i GuBV4_BoxOverlap.obj
 0001:000cb750       ?invertPRMatrix@Gu@physx@@YAXPIAVPxMat44@2@PIBV32@@Z 100cc750 f i GuBV4_BoxOverlap.obj
 0001:000cb940       ?precomputeBoxData@OBBTestParams@@QAEXABVPxVec3@physx@@PIBVPxMat33@3@@Z 100cc940 f i GuBV4_BoxOverlap.obj
 0001:000cb980       ?rotateBox@Gu@physx@@YAXAAVBox@12@ABVPxMat44@2@ABV312@@Z 100cc980 f i GuBV4_BoxOverlap.obj
 0001:000cd2c0       ?BV4_CapsuleSweepSingle@@YAHABVCapsule@Gu@physx@@ABVPxVec3@3@MABVBV4Tree@23@PIAVSweepHit@23@I@Z 100ce2c0 f   GuBV4_CapsuleSweep.obj
 0001:000cdaa0       ?BV4_CapsuleSweepCB@@YAXABVCapsule@Gu@physx@@ABVPxVec3@3@MABVBV4Tree@23@PIBVPxMat44@3@P6A_NPAXABVSweepHit@23@@Z4I_N@Z 100ceaa0 f   GuBV4_CapsuleSweep.obj
 0001:000d1450       ??$PX_UNUSED@_N@@YAXAB_N@Z 100d2450 f i GuBV4_CapsuleSweep.obj
 0001:000d1c00       ??4Capsule@Gu@physx@@QAEAAV012@ABV012@@Z 100d2c00 f i GuBV4_CapsuleSweep.obj
 0001:000d1c30       ??4Segment@Gu@physx@@QAEAAV012@ABV012@@Z 100d2c30 f i GuBV4_CapsuleSweep.obj
 0001:000d1c60       ?coarseCullingQuad@Gu@physx@@YA_NABVPxVec3@2@0MMPIBV32@@Z 100d2c60 f i GuBV4_CapsuleSweep.obj
 0001:000d1e10       ?coarseCullingTri@Gu@physx@@YA_NABVPxVec3@2@0MMPIBV32@@Z 100d2e10 f i GuBV4_CapsuleSweep.obj
 0001:000d2040       ?computeAlignmentValue@Gu@physx@@YAMABVPxVec3@2@0@Z 100d3040 f i GuBV4_CapsuleSweep.obj
 0001:000d2080       ?cullQuad@Gu@physx@@YA_NPIBVPxVec3@2@ABV32@MMM@Z 100d3080 f i GuBV4_CapsuleSweep.obj
 0001:000d21d0       ?keepTriangle@Gu@physx@@YA_NMMMMMM@Z 100d31d0 f i GuBV4_CapsuleSweep.obj
 0001:000d22a0       ?rejectQuad@Gu@physx@@YA_NABVPxVec3@2@0MMPIBV32@M@Z 100d32a0 f i GuBV4_CapsuleSweep.obj
 0001:000d2320       ?rejectTriangle@Gu@physx@@YA_NABVPxVec3@2@0MMPIBV32@M@Z 100d3320 f i GuBV4_CapsuleSweep.obj
 0001:000d23a0       ?squareDistance@Gu@physx@@YAMABVPxVec3@2@0M0@Z 100d33a0 f i GuBV4_CapsuleSweep.obj
 0001:000d3ae0       ?BV4_CapsuleSweepSingleAA@@YAHABVCapsule@Gu@physx@@ABVPxVec3@3@MABVBV4Tree@23@PIAVSweepHit@23@I@Z 100d4ae0 f   GuBV4_CapsuleSweepAA.obj
 0001:000d7ee0       ?Sweep_OBB_BV4@@YAHABVBox@Gu@physx@@ABVPxVec3@3@MABVBV4Tree@23@PIAVSweepHit@23@I@Z 100d8ee0 f   GuBV4_OBBSweep.obj
 0001:000d8250       ?Sweep_OBB_BV4_CB@@YAXABVBox@Gu@physx@@ABVPxVec3@3@MABVBV4Tree@23@PIBVPxMat44@3@P6A_NPAXABVSweepHit@23@@Z4I_N@Z 100d9250 f   GuBV4_OBBSweep.obj
 0001:000d86e0       ?GenericSweep_OBB_CB@@YAXABVBox@Gu@physx@@ABVPxVec3@3@MABVBV4Tree@23@P6A_NPAX111IAAM@Z3I@Z 100d96e0 f   GuBV4_OBBSweep.obj
 0001:000d89b0       ?BV4_BoxSweepSingle@@YAHABVBox@Gu@physx@@ABVPxVec3@3@MABVBV4Tree@23@PIBVPxMat44@3@PIAVSweepHit@23@I@Z 100d99b0 f   GuBV4_OBBSweep.obj
 0001:000d8ab0       ?BV4_BoxSweepCB@@YAXABVBox@Gu@physx@@ABVPxVec3@3@MABVBV4Tree@23@PIBVPxMat44@3@P6A_NPAXABVSweepHit@23@@Z4I_N@Z 100d9ab0 f   GuBV4_OBBSweep.obj
 0001:000d8b70       ?BV4_GenericSweepCB@@YAXABVBox@Gu@physx@@ABVPxVec3@3@MABVBV4Tree@23@P6A_NPAX111IAAM@Z3_N@Z 100d9b70 f   GuBV4_OBBSweep.obj
 0001:000df120       ?BV4_RaycastSingle@@YAHABVPxVec3@physx@@0ABVBV4Tree@Gu@2@PIBVPxMat44@2@PIAUPxRaycastHit@2@MMIV?$PxFlags@W4Enum@PxHitFlag@physx@@G@2@@Z 100e0120 f   GuBV4_Raycast.obj
 0001:000df460       ?BV4_RaycastCB@@YAXABVPxVec3@physx@@0ABVBV4Tree@Gu@2@PIBVPxMat44@2@MMIP6A?AW4HitCode@42@PAX000IMMM@Z3@Z 100e0460 f   GuBV4_Raycast.obj
 0001:000df7c0       ?BV4_RaycastAll@@YAIABVPxVec3@physx@@0ABVBV4Tree@Gu@2@PIBVPxMat44@2@PIAUPxRaycastHit@2@IMMIV?$PxFlags@W4Enum@PxHitFlag@physx@@G@2@@Z 100e07c0 f   GuBV4_Raycast.obj
 0001:000e3b00       ??$RayTriOverlapT@URayParams@@@@YAHAAUPxRaycastHit@physx@@ABVPxVec3@1@11PIBURayParams@@@Z 100e4b00 f i GuBV4_Raycast.obj
 0001:000e3f00       ??$setupMeshPointersAndQuantizedCoeffs@URayParams@@@Gu@physx@@YAXPIAURayParams@@PIBVSourceMesh@01@PIBVBV4Tree@01@@Z 100e4f00 f i GuBV4_Raycast.obj
 0001:000e40e0       ??$setupParamsFlags@URayParams@@@Gu@physx@@YAXPIAURayParams@@I@Z 100e50e0 f i GuBV4_Raycast.obj
 0001:000e41a0       ??0RaycastHitInternalUV@@QAE@XZ 100e51a0 f i GuBV4_Raycast.obj
 0001:000e41c0       ??1RaycastHitInternalUV@@QAE@XZ 100e51c0 f i GuBV4_Raycast.obj
 0001:000e41e0       ?computeLocalRay@Gu@physx@@YAXAAVPxVec3@2@0ABV32@1PIBVPxMat44@2@@Z 100e51e0 f i GuBV4_Raycast.obj
 0001:000e4250       ?inverseRotate@Gu@physx@@YA?AVPxVec3@2@PIBVPxMat44@2@ABV32@@Z 100e5250 f i GuBV4_Raycast.obj
 0001:000e46c0       ?BV4_OverlapSphereAny@@YAHABVSphere@Gu@physx@@ABVBV4Tree@23@PIBVPxMat44@3@@Z 100e56c0 f   GuBV4_SphereOverlap.obj
 0001:000e48c0       ?BV4_OverlapSphereAll@@YAIABVSphere@Gu@physx@@ABVBV4Tree@23@PIBVPxMat44@3@PAIIAA_N@Z 100e58c0 f   GuBV4_SphereOverlap.obj
 0001:000e4b50       ?BV4_OverlapSphereCB@@YAXABVSphere@Gu@physx@@ABVBV4Tree@23@PIBVPxMat44@3@P6A_NPAXABVPxVec3@3@44IPBI@Z3@Z 100e5b50 f   GuBV4_SphereOverlap.obj
 0001:000e6b40       ??$setupMeshPointersAndQuantizedCoeffs@USphereParams@@@Gu@physx@@YAXPIAUSphereParams@@PIBVSourceMesh@01@PIBVBV4Tree@01@@Z 100e7b40 f i GuBV4_SphereOverlap.obj
 0001:000e6be0       ??$setupMeshPointersAndQuantizedCoeffs@USphereParamsAll@@@Gu@physx@@YAXPIAUSphereParamsAll@@PIBVSourceMesh@01@PIBVBV4Tree@01@@Z 100e7be0 f i GuBV4_SphereOverlap.obj
 0001:000e6c80       ??$setupMeshPointersAndQuantizedCoeffs@USphereParamsCB@@@Gu@physx@@YAXPIAUSphereParamsCB@@PIBVSourceMesh@01@PIBVBV4Tree@01@@Z 100e7c80 f i GuBV4_SphereOverlap.obj
 0001:000e6d20       ??0SphereParams@@QAE@XZ    100e7d20 f i GuBV4_SphereOverlap.obj
 0001:000e6d60       ??0SphereParamsAll@@QAE@XZ 100e7d60 f i GuBV4_SphereOverlap.obj
 0001:000e6d80       ??0SphereParamsCB@@QAE@XZ  100e7d80 f i GuBV4_SphereOverlap.obj
 0001:000e6da0       ??1SphereParams@@QAE@XZ    100e7da0 f i GuBV4_SphereOverlap.obj
 0001:000e6dd0       ??1SphereParamsAll@@QAE@XZ 100e7dd0 f i GuBV4_SphereOverlap.obj
 0001:000e6df0       ??1SphereParamsCB@@QAE@XZ  100e7df0 f i GuBV4_SphereOverlap.obj
 0001:000e6e10       ?closestPtPointTriangle2@Gu@physx@@YA?AVPxVec3@2@ABV32@00000@Z 100e7e10 f i GuBV4_SphereOverlap.obj
 0001:000e7190       ?computeLocalSphere@Gu@physx@@YAXAAMAAVPxVec3@2@ABVSphere@12@PIBVPxMat44@2@@Z 100e8190 f i GuBV4_SphereOverlap.obj
 0001:000e7670       ?BV4_SphereSweepSingle@@YAHABVSphere@Gu@physx@@ABVPxVec3@3@MABVBV4Tree@23@PIBVPxMat44@3@PIAVSweepHit@23@I@Z 100e8670 f   GuBV4_SphereSweep.obj
 0001:000e7de0       ?BV4_SphereSweepCB@@YAXABVSphere@Gu@physx@@ABVPxVec3@3@MABVBV4Tree@23@PIBVPxMat44@3@P6A_NPAXABVSweepHit@23@@Z4I_N@Z 100e8de0 f   GuBV4_SphereSweep.obj
 0001:000e8110       ?BV4_GenericSweepCB_Old@@YAXABVPxVec3@physx@@00MABVBV4Tree@Gu@2@PIBVPxMat44@2@P6A_NPAX000IAAM@Z3@Z 100e9110 f   GuBV4_SphereSweep.obj
 0001:000ee4a0       ??0Sphere@Gu@physx@@QAE@XZ 100ef4a0 f i GuBV4_SphereSweep.obj
 0001:000ee5a0       ?raycast_triangleMesh_BV4@Gu@physx@@YAIPBVTriangleMesh@12@ABVPxTriangleMeshGeometry@2@ABVPxTransform@2@ABVPxVec3@2@3MV?$PxFlags@W4Enum@PxHitFlag@physx@@G@2@IPIAUPxRaycastHit@2@@Z 100ef5a0 f   GuMidphaseBV4.obj
 0001:000eeb00       ?intersectSphereVsMesh_BV4@Gu@physx@@YA_NABVSphere@12@ABVTriangleMesh@12@ABVPxTransform@2@ABVPxMeshScale@2@PAULimitedResults@12@@Z 100efb00 f   GuMidphaseBV4.obj
 0001:000eed00       ?intersectBoxVsMesh_BV4@Gu@physx@@YA_NABVBox@12@ABVTriangleMesh@12@ABVPxTransform@2@ABVPxMeshScale@2@PAULimitedResults@12@@Z 100efd00 f   GuMidphaseBV4.obj
 0001:000eeec0       ?intersectCapsuleVsMesh_BV4@Gu@physx@@YA_NABVCapsule@12@ABVTriangleMesh@12@ABVPxTransform@2@ABVPxMeshScale@2@PAULimitedResults@12@@Z 100efec0 f   GuMidphaseBV4.obj
 0001:000ef0b0       ?intersectOBB_BV4@Gu@physx@@YAXPBVTriangleMesh@12@ABVBox@12@AAU?$MeshHitCallback@UPxRaycastHit@physx@@@12@_N3@Z 100f00b0 f   GuMidphaseBV4.obj
 0001:000ef0f0       ?sweepCapsule_MeshGeom_BV4@Gu@physx@@YA_NPBVTriangleMesh@12@ABVPxTriangleMeshGeometry@2@ABVPxTransform@2@ABVCapsule@12@ABVPxVec3@2@MAAUPxSweepHit@2@V?$PxFlags@W4Enum@PxHitFlag@physx@@G@2@M@Z 100f00f0 f   GuMidphaseBV4.obj
 0001:000ef710       ?sweepBox_MeshGeom_BV4@Gu@physx@@YA_NPBVTriangleMesh@12@ABVPxTriangleMeshGeometry@2@ABVPxTransform@2@ABVBox@12@ABVPxVec3@2@MAAUPxSweepHit@2@V?$PxFlags@W4Enum@PxHitFlag@physx@@G@2@M@Z 100f0710 f   GuMidphaseBV4.obj
 0001:000efec0       ?sweepConvex_MeshGeom_BV4@Gu@physx@@YAXPBVTriangleMesh@12@ABVBox@12@ABVPxVec3@2@MAAUSweepConvexMeshHitCallback@12@_N@Z 100f0ec0 f   GuMidphaseBV4.obj
 0001:000f14d0       ??0BV4RaycastCBParams@@QAE@PAUPxRaycastHit@physx@@IPBVPxMeshScale@2@PBVPxTransform@2@PBVMatrix34@Cm@2@IABVPxVec3@2@_NM@Z 100f24d0 f i GuMidphaseBV4.obj
 0001:000f1540       ??0Matrix34Padded@Gu@physx@@QAE@ABVMatrix34@Cm@2@@Z 100f2540 f i GuMidphaseBV4.obj
 0001:000f1560       ??0PxRaycastHit@physx@@QAE@XZ 100f2560 f i GuMidphaseBV4.obj
 0001:000f1590       ??1Matrix34Padded@Gu@physx@@QAE@XZ 100f2590 f i GuMidphaseBV4.obj
 0001:000f15a0       ??1SweepBoxMeshHitCallback@Gu@physx@@UAE@XZ 100f25a0 f i GuMidphaseBV4.obj
 0001:000f15d0       ??1SweepCapsuleMeshHitCallback@Gu@physx@@UAE@XZ 100f25d0 f i GuMidphaseBV4.obj
 0001:000f15f0       ??1SweepShapeMeshHitCallback@Gu@physx@@UAE@XZ 100f25f0 f i GuMidphaseBV4.obj
 0001:000f1610       ??4PxRaycastHit@physx@@QAEAAU01@ABU01@@Z 100f2610 f i GuMidphaseBV4.obj
 0001:000f1680       ??_GSweepBoxMeshHitCallback@Gu@physx@@UAEPAXI@Z 100f2680 f i GuMidphaseBV4.obj
 0001:000f1680       ??_ESweepBoxMeshHitCallback@Gu@physx@@UAEPAXI@Z 100f2680 f i GuMidphaseBV4.obj
 0001:000f16c0       ?add@LimitedResults@Gu@physx@@QAE_NI@Z 100f26c0 f i GuMidphaseBV4.obj
 0001:000f1730       ?computeSweepData@physx@@YAMABVPxTriangleMeshGeometry@1@AAVPxVec3@1@11M@Z 100f2730 f i GuMidphaseBV4.obj
 0001:000f18a0       ?getBV4Tree@BV4TriangleMesh@Gu@physx@@QBEABVBV4Tree@23@XZ 100f28a0 f i GuMidphaseBV4.obj
 0001:000f18c0       ?getGeomEpsilon@TriangleMesh@Gu@physx@@QBEMXZ 100f28c0 f i GuMidphaseBV4.obj
 0001:000f18e0       ?getInverse@physx@@YAXAAVPxMat33@1@AAVPxVec3@1@ABV21@ABV31@@Z 100f28e0 f i GuMidphaseBV4.obj
 0001:000f1930       ?setupSweepHitForMTD@Gu@physx@@YAXAAUPxSweepHit@2@_NABVPxVec3@2@@Z 100f2930 f i GuMidphaseBV4.obj
 0001:000f19c0       ?transform@PxMeshScale@physx@@QBE?AVPxVec3@2@ABV32@@Z 100f29c0 f i GuMidphaseBV4.obj
 0001:000f1a10       ?getTriangle@PxMeshQuery@physx@@SAXABVPxTriangleMeshGeometry@2@ABVPxTransform@2@IAAVPxTriangle@2@PAI3@Z 100f2a10 f   GuMeshQuery.obj
 0001:000f1ae0       ?getTriangle@PxMeshQuery@physx@@SAXABVPxHeightFieldGeometry@2@ABVPxTransform@2@IAAVPxTriangle@2@PAI3@Z 100f2ae0 f   GuMeshQuery.obj
 0001:000f1b20       ?findOverlapTriangleMesh@PxMeshQuery@physx@@SAIABVPxGeometry@2@ABVPxTransform@2@ABVPxTriangleMeshGeometry@2@1PAIIIAA_N@Z 100f2b20 f   GuMeshQuery.obj
 0001:000f1cf0       ?findOverlapHeightField@PxMeshQuery@physx@@SAIABVPxGeometry@2@ABVPxTransform@2@ABVPxHeightFieldGeometry@2@1PAIIIAA_N@Z 100f2cf0 f   GuMeshQuery.obj
 0001:000f1f70       ?sweep@PxMeshQuery@physx@@SA_NABVPxVec3@2@MABVPxGeometry@2@ABVPxTransform@2@IPBVPxTriangle@2@AAUPxSweepHit@2@V?$PxFlags@W4Enum@PxHitFlag@physx@@G@2@PBIM_N@Z 100f2f70 f   GuMeshQuery.obj
 0001:000f2610       ??0LimitedResults@Gu@physx@@QAE@PAIII@Z 100f3610 f i GuMeshQuery.obj
 0001:000f2650       ??0PxBoxGeometry@physx@@QAE@XZ 100f3650 f i GuMeshQuery.obj
 0001:000f2690       ??0PxProfileScoped@physx@@QAE@PAVPxProfilerCallback@1@PBD_N_K@Z 100f3690 f i GuMeshQuery.obj
 0001:000f2710       ??1PxProfileScoped@physx@@QAE@XZ 100f3710 f i GuMeshQuery.obj
 0001:000f2760       ?intersectBoxVsMesh@Midphase@Gu@physx@@YA_NABVBox@23@ABVTriangleMesh@23@ABVPxTransform@3@ABVPxMeshScale@3@PAULimitedResults@23@@Z 100f3760 f i GuMeshQuery.obj
 0001:000f27a0       ?intersectCapsuleVsMesh@Midphase@Gu@physx@@YA_NABVCapsule@23@ABVTriangleMesh@23@ABVPxTransform@3@ABVPxMeshScale@3@PAULimitedResults@23@@Z 100f37a0 f i GuMeshQuery.obj
 0001:000f27e0       ?intersectSphereVsMesh@Midphase@Gu@physx@@YA_NABVSphere@23@ABVTriangleMesh@23@ABVPxTransform@3@ABVPxMeshScale@3@PAULimitedResults@23@@Z 100f37e0 f i GuMeshQuery.obj
 0001:000f2820       ?reset@LimitedResults@Gu@physx@@QAEXXZ 100f3820 f i GuMeshQuery.obj
 0001:000f2930       ?raycast_triangleMesh_RTREE@Gu@physx@@YAIPBVTriangleMesh@12@ABVPxTriangleMeshGeometry@2@ABVPxTransform@2@ABVPxVec3@2@3MV?$PxFlags@W4Enum@PxHitFlag@physx@@G@2@IPIAUPxRaycastHit@2@@Z 100f3930 f   GuMidphaseRTree.obj
 0001:000f2bd0       ?intersectSphereVsMesh_RTREE@Gu@physx@@YA_NABVSphere@12@ABVTriangleMesh@12@ABVPxTransform@2@ABVPxMeshScale@2@PAULimitedResults@12@@Z 100f3bd0 f   GuMidphaseRTree.obj
 0001:000f2c00       ?intersectBoxVsMesh_RTREE@Gu@physx@@YA_NABVBox@12@ABVTriangleMesh@12@ABVPxTransform@2@ABVPxMeshScale@2@PAULimitedResults@12@@Z 100f3c00 f   GuMidphaseRTree.obj
 0001:000f2c30       ?intersectCapsuleVsMesh_RTREE@Gu@physx@@YA_NABVCapsule@12@ABVTriangleMesh@12@ABVPxTransform@2@ABVPxMeshScale@2@PAULimitedResults@12@@Z 100f3c30 f   GuMidphaseRTree.obj
 0001:000f2c60       ?intersectOBB_RTREE@Gu@physx@@YAXPBVTriangleMesh@12@ABVBox@12@AAU?$MeshHitCallback@UPxRaycastHit@physx@@@12@_N3@Z 100f3c60 f   GuMidphaseRTree.obj
 0001:000f2c90       ?sweepCapsule_MeshGeom_RTREE@Gu@physx@@YA_NPBVTriangleMesh@12@ABVPxTriangleMeshGeometry@2@ABVPxTransform@2@ABVCapsule@12@ABVPxVec3@2@MAAUPxSweepHit@2@V?$PxFlags@W4Enum@PxHitFlag@physx@@G@2@M@Z 100f3c90 f   GuMidphaseRTree.obj
 0001:000f2f70       ?sweepBox_MeshGeom_RTREE@Gu@physx@@YA_NPBVTriangleMesh@12@ABVPxTriangleMeshGeometry@2@ABVPxTransform@2@ABVBox@12@ABVPxVec3@2@MAAUPxSweepHit@2@V?$PxFlags@W4Enum@PxHitFlag@physx@@G@2@M@Z 100f3f70 f   GuMidphaseRTree.obj
 0001:000f3530       ?sweepConvex_MeshGeom_RTREE@Gu@physx@@YAXPBVTriangleMesh@12@ABVBox@12@ABVPxVec3@2@MAAUSweepConvexMeshHitCallback@12@_N@Z 100f4530 f   GuMidphaseRTree.obj
 0001:000f35e0       ?collideOBB@MeshRayCollider@@SAXABVBox@Gu@physx@@_NPBVRTreeTriangleMesh@34@AAU?$MeshHitCallback@UPxRaycastHit@physx@@@34@1@Z 100f45e0 f   GuMidphaseRTree.obj
 0001:000f7480       ??$collide@$00$00@MeshRayCollider@@SAXABVPxVec3@physx@@0M_NPBVRTreeTriangleMesh@Gu@2@AAU?$MeshHitCallback@UPxRaycastHit@physx@@@42@PBV12@@Z 100f8480 f i GuMidphaseRTree.obj
 0001:000f7660       ??$collide@$00$0A@@MeshRayCollider@@SAXABVPxVec3@physx@@0M_NPBVRTreeTriangleMesh@Gu@2@AAU?$MeshHitCallback@UPxRaycastHit@physx@@@42@PBV12@@Z 100f8660 f i GuMidphaseRTree.obj
 0001:000f7840       ??$collide@$0A@$00@MeshRayCollider@@SAXABVPxVec3@physx@@0M_NPBVRTreeTriangleMesh@Gu@2@AAU?$MeshHitCallback@UPxRaycastHit@physx@@@42@PBV12@@Z 100f8840 f i GuMidphaseRTree.obj
 0001:000f7a10       ??$collide@$0A@$0A@@MeshRayCollider@@SAXABVPxVec3@physx@@0M_NPBVRTreeTriangleMesh@Gu@2@AAU?$MeshHitCallback@UPxRaycastHit@physx@@@42@PBV12@@Z 100f8a10 f i GuMidphaseRTree.obj
 0001:000f7be0       ??0?$RayRTreeCallback@$00$00@@QAE@MAAU?$MeshHitCallback@UPxRaycastHit@physx@@@Gu@physx@@HPBXPBVPxVec3@3@ABV43@3M_N2@Z 100f8be0 f i GuMidphaseRTree.obj
 0001:000f7da0       ??0?$RayRTreeCallback@$00$0A@@@QAE@MAAU?$MeshHitCallback@UPxRaycastHit@physx@@@Gu@physx@@HPBXPBVPxVec3@3@ABV43@3M_N2@Z 100f8da0 f i GuMidphaseRTree.obj
 0001:000f7f60       ??0?$RayRTreeCallback@$0A@$00@@QAE@MAAU?$MeshHitCallback@UPxRaycastHit@physx@@@Gu@physx@@HPBXPBVPxVec3@3@ABV43@3M_N2@Z 100f8f60 f i GuMidphaseRTree.obj
 0001:000f8110       ??0?$RayRTreeCallback@$0A@$0A@@@QAE@MAAU?$MeshHitCallback@UPxRaycastHit@physx@@@Gu@physx@@HPBXPBVPxVec3@3@ABV43@3M_N2@Z 100f9110 f i GuMidphaseRTree.obj
 0001:000f82c0       ??0Callback@RTree@Gu@physx@@QAE@XZ 100f92c0 f i GuMidphaseRTree.obj
 0001:000f82e0       ??0CallbackRaycast@RTree@Gu@physx@@QAE@XZ 100f92e0 f i GuMidphaseRTree.obj
 0001:000f8300       ??0PxLocationHit@physx@@QAE@ABU01@@Z 100f9300 f i GuMidphaseRTree.obj
 0001:000f8370       ??0PxRaycastHit@physx@@QAE@ABU01@@Z 100f9370 f i GuMidphaseRTree.obj
 0001:000f83c0       ??0RayMeshColliderCallback@@QAE@W4Enum@CallbackMode@Gu@physx@@PAUPxRaycastHit@4@IPBVPxMeshScale@4@PBVPxTransform@4@PBVMatrix34@Cm@4@IABVPxVec3@4@_NM@Z 100f93c0 f i GuMidphaseRTree.obj
 0001:000f8450       ??0SimpleRayTriOverlap@@QAE@ABVPxVec3@physx@@0_NM@Z 100f9450 f i GuMidphaseRTree.obj
 0001:000f84a0       ??1?$RayRTreeCallback@$00$00@@UAE@XZ 100f94a0 f i GuMidphaseRTree.obj
 0001:000f8580       ??1?$RayRTreeCallback@$00$0A@@@UAE@XZ 100f9580 f i GuMidphaseRTree.obj
 0001:000f8660       ??1?$RayRTreeCallback@$0A@$00@@UAE@XZ 100f9660 f i GuMidphaseRTree.obj
 0001:000f8740       ??1?$RayRTreeCallback@$0A@$0A@@@UAE@XZ 100f9740 f i GuMidphaseRTree.obj
 0001:000f8820       ??1Callback@RTree@Gu@physx@@UAE@XZ 100f9820 f i GuMidphaseRTree.obj
 0001:000f8840       ??1CallbackRaycast@RTree@Gu@physx@@UAE@XZ 100f9840 f i GuMidphaseRTree.obj
 0001:000f8860       ??1RayMeshColliderCallback@@UAE@XZ 100f9860 f i GuMidphaseRTree.obj
 0001:000f8873       ??_E?$RayRTreeCallback@$00$00@@W3AEPAXI@Z 100f9873 f i GuMidphaseRTree.obj
 0001:000f887b       ??_E?$RayRTreeCallback@$00$0A@@@W3AEPAXI@Z 100f987b f i GuMidphaseRTree.obj
 0001:000f8883       ??_E?$RayRTreeCallback@$0A@$00@@W3AEPAXI@Z 100f9883 f i GuMidphaseRTree.obj
 0001:000f888b       ??_E?$RayRTreeCallback@$0A@$0A@@@W3AEPAXI@Z 100f988b f i GuMidphaseRTree.obj
 0001:000f88a0       ??_E?$RayRTreeCallback@$00$00@@UAEPAXI@Z 100f98a0 f i GuMidphaseRTree.obj
 0001:000f88a0       ??_G?$RayRTreeCallback@$00$00@@UAEPAXI@Z 100f98a0 f i GuMidphaseRTree.obj
 0001:000f88e0       ??_G?$RayRTreeCallback@$00$0A@@@UAEPAXI@Z 100f98e0 f i GuMidphaseRTree.obj
 0001:000f88e0       ??_E?$RayRTreeCallback@$00$0A@@@UAEPAXI@Z 100f98e0 f i GuMidphaseRTree.obj
 0001:000f8920       ??_E?$RayRTreeCallback@$0A@$00@@UAEPAXI@Z 100f9920 f i GuMidphaseRTree.obj
 0001:000f8920       ??_G?$RayRTreeCallback@$0A@$00@@UAEPAXI@Z 100f9920 f i GuMidphaseRTree.obj
 0001:000f8960       ??_E?$RayRTreeCallback@$0A@$0A@@@UAEPAXI@Z 100f9960 f i GuMidphaseRTree.obj
 0001:000f8960       ??_G?$RayRTreeCallback@$0A@$0A@@@UAEPAXI@Z 100f9960 f i GuMidphaseRTree.obj
 0001:000f89a0       ??_ECallback@RTree@Gu@physx@@UAEPAXI@Z 100f99a0 f i GuMidphaseRTree.obj
 0001:000f89a0       ??_GCallback@RTree@Gu@physx@@UAEPAXI@Z 100f99a0 f i GuMidphaseRTree.obj
 0001:000f89d0       ??_ECallbackRaycast@RTree@Gu@physx@@UAEPAXI@Z 100f99d0 f i GuMidphaseRTree.obj
 0001:000f89d0       ??_GCallbackRaycast@RTree@Gu@physx@@UAEPAXI@Z 100f99d0 f i GuMidphaseRTree.obj
 0001:000f8a00       ??_ERayMeshColliderCallback@@UAEPAXI@Z 100f9a00 f i GuMidphaseRTree.obj
 0001:000f8a00       ??_GRayMeshColliderCallback@@UAEPAXI@Z 100f9a00 f i GuMidphaseRTree.obj
 0001:000f8a30       ?GetNbTriangles@LeafTriangles@Gu@physx@@QBEIXZ 100f9a30 f i GuMidphaseRTree.obj
 0001:000f8a50       ?GetTriangleIndex@LeafTriangles@Gu@physx@@QBEIXZ 100f9a50 f i GuMidphaseRTree.obj
 0001:000f8a70       ?LeafGetNbTriangles@Gu@physx@@YAII@Z 100f9a70 f i GuMidphaseRTree.obj
 0001:000f8a80       ?LeafGetTriangleIndex@Gu@physx@@YAII@Z 100f9a80 f i GuMidphaseRTree.obj
 0001:000f8a90       ?getRTree@RTreeTriangleMesh@Gu@physx@@QBEABURTree@23@XZ 100f9a90 f i GuMidphaseRTree.obj
 0001:000f8ab0       ?getVertIndices@?$RayRTreeCallback@$00$00@@QAEXIAAI00@Z 100f9ab0 f i GuMidphaseRTree.obj
 0001:000f8b60       ?getVertIndices@?$RayRTreeCallback@$00$0A@@@QAEXIAAI00@Z 100f9b60 f i GuMidphaseRTree.obj
 0001:000f8c10       ?getVertIndices@?$RayRTreeCallback@$0A@$00@@QAEXIAAI00@Z 100f9c10 f i GuMidphaseRTree.obj
 0001:000f8cc0       ?getVertIndices@?$RayRTreeCallback@$0A@$0A@@@QAEXIAAI00@Z 100f9cc0 f i GuMidphaseRTree.obj
 0001:000f8d70       ?inAnyMode@?$MeshHitCallback@UPxRaycastHit@physx@@@Gu@physx@@QBE_NXZ 100f9d70 f i GuMidphaseRTree.obj
 0001:000f8da0       ?inClosestMode@?$MeshHitCallback@UPxRaycastHit@physx@@@Gu@physx@@QBE_NXZ 100f9da0 f i GuMidphaseRTree.obj
 0001:000f8dd0       ?largestAxis@shdfnd@physx@@YAIABVPxVec3@2@AAI1@Z 100f9dd0 f i GuMidphaseRTree.obj
 0001:000f8e70       ?overlap@SimpleRayTriOverlap@@QBEHABVPxVec3@physx@@00AAUPxRaycastHit@3@@Z 100f9e70 f i GuMidphaseRTree.obj
 0001:000f8f00       ?processHit@RayMeshColliderCallback@@UAE_NABUPxRaycastHit@physx@@ABVPxVec3@3@11AAMPBI@Z 100f9f00 f i GuMidphaseRTree.obj
 0001:000f9190       ?processResults@?$RayRTreeCallback@$00$00@@UAE_NIPAI@Z 100fa190 f i GuMidphaseRTree.obj
 0001:000f91c0       ?processResults@?$RayRTreeCallback@$00$00@@UAE_NIPAIAAM@Z 100fa1c0 f i GuMidphaseRTree.obj
 0001:000f96e0       ?processResults@?$RayRTreeCallback@$00$0A@@@UAE_NIPAI@Z 100fa6e0 f i GuMidphaseRTree.obj
 0001:000f9710       ?processResults@?$RayRTreeCallback@$00$0A@@@UAE_NIPAIAAM@Z 100fa710 f i GuMidphaseRTree.obj
 0001:000f9c30       ?processResults@?$RayRTreeCallback@$0A@$00@@UAE_NIPAI@Z 100fac30 f i GuMidphaseRTree.obj
 0001:000f9c60       ?processResults@?$RayRTreeCallback@$0A@$00@@UAE_NIPAIAAM@Z 100fac60 f i GuMidphaseRTree.obj
 0001:000fa180       ?processResults@?$RayRTreeCallback@$0A@$0A@@@UAE_NIPAI@Z 100fb180 f i GuMidphaseRTree.obj
 0001:000fa1b0       ?processResults@?$RayRTreeCallback@$0A@$0A@@@UAE_NIPAIAAM@Z 100fb1b0 f i GuMidphaseRTree.obj
 0001:000fa6d0       ?profile@Callback@RTree@Gu@physx@@UAEXXZ 100fb6d0 f i GuMidphaseRTree.obj
 0001:000fa6e0       ?checkOverlapAABB_triangleGeom@Gu@physx@@YA_NABVPxGeometry@2@ABVPxTransform@2@ABVPxBounds3@2@@Z 100fb6e0 f   GuOverlapTestsMesh.obj
 0001:000fa830       ?GeomOverlapCallback_SphereMesh@@YA_NABVPxGeometry@physx@@ABVPxTransform@2@01PAUTriggerCache@Gu@2@@Z 100fb830 f   GuOverlapTestsMesh.obj
 0001:000fa920       ?GeomOverlapCallback_CapsuleMesh@@YA_NABVPxGeometry@physx@@ABVPxTransform@2@01PAUTriggerCache@Gu@2@@Z 100fb920 f   GuOverlapTestsMesh.obj
 0001:000faa10       ?GeomOverlapCallback_BoxMesh@@YA_NABVPxGeometry@physx@@ABVPxTransform@2@01PAUTriggerCache@Gu@2@@Z 100fba10 f   GuOverlapTestsMesh.obj
 0001:000fab10       ?GeomOverlapCallback_ConvexMesh@@YA_NABVPxGeometry@physx@@ABVPxTransform@2@01PAUTriggerCache@Gu@2@@Z 100fbb10 f   GuOverlapTestsMesh.obj
 0001:000fad80       ??$gjk@U?$RelativeConvex@VTriangleV@Gu@physx@@@Gu@physx@@U?$LocalConvex@VConvexHullV@Gu@physx@@@23@@Gu@physx@@YA?AW4GjkStatus@01@ABU?$RelativeConvex@VTriangleV@Gu@physx@@@01@ABU?$LocalConvex@VConvexHullV@Gu@physx@@@01@ABT__m128@@2AAT5@333@Z 100fbd80 f i GuOverlapTestsMesh.obj
 0001:000fb740       ??0ConvexVsMeshOverlapCallback@@QAE@ABVConvexMesh@Gu@physx@@ABVPxMeshScale@3@ABVFastVertex2ShapeScaling@Cm@3@ABVPxTransform@3@3_NABVBox@23@@Z 100fc740 f i GuOverlapTestsMesh.obj
 0001:000fba70       ??1ConvexVsMeshOverlapCallback@@UAE@XZ 100fca70 f i GuOverlapTestsMesh.obj
 0001:000fbaa0       ??_EConvexVsMeshOverlapCallback@@UAEPAXI@Z 100fcaa0 f i GuOverlapTestsMesh.obj
 0001:000fbaa0       ??_GConvexVsMeshOverlapCallback@@UAEPAXI@Z 100fcaa0 f i GuOverlapTestsMesh.obj
 0001:000fbae0       ?BAnyTrue3@aos@shdfnd@physx@@YA?AT__m128@@T4@@Z 100fcae0 f i GuOverlapTestsMesh.obj
 0001:000fbb60       ?processHit@ConvexVsMeshOverlapCallback@@UAE_NABUPxRaycastHit@physx@@ABVPxVec3@3@11AAMPBI@Z 100fcb60 f i GuOverlapTestsMesh.obj
 0001:000fbed0       ??0RTree@Gu@physx@@QAE@W4PxEMPTY@2@@Z 100fced0 f   GuRTree.obj
 0001:000fbf20       ?exportExtraData@RTree@Gu@physx@@QAEXAAVPxSerializationContext@3@@Z 100fcf20 f   GuRTree.obj
 0001:000fbf60       ?importExtraData@RTree@Gu@physx@@QAEXAAVPxDeserializationContext@3@@Z 100fcf60 f   GuRTree.obj
 0001:000fbf90       ?load@RTree@Gu@physx@@QAE_NAAVPxInputStream@3@I_N@Z 100fcf90 f   GuRTree.obj
 0001:000fc280       ?refitAllStaticTree@RTree@Gu@physx@@QAEXAAUCallbackRefit@123@PAVPxBounds3@3@@Z 100fd280 f   GuRTree.obj
 0001:000fc760       ?validate@RTree@Gu@physx@@QAEXPAUCallbackRefit@123@@Z 100fd760 f   GuRTree.obj
 0001:000fc7d0       ?computeBottomLevelCount@RTree@Gu@physx@@QBEII@Z 100fd7d0 f   GuRTree.obj
 0001:000fc940       ?validateRecursive@RTree@Gu@physx@@IAEXIURTreeNodeQ@23@PAURTreePage@23@PAUCallbackRefit@123@@Z 100fd940 f   GuRTree.obj
 0001:000fd010       ??$PX_UNUSED@URTreeNodeQ@Gu@physx@@@@YAXABURTreeNodeQ@Gu@physx@@@Z 100fe010 f i GuRTree.obj
 0001:000fd020       ??$readExtraData@URTreePage@Gu@physx@@@PxDeserializationContext@physx@@QAEPAURTreePage@Gu@1@I@Z 100fe020 f i GuRTree.obj
 0001:000fd050       ?allocate@?$AlignedAllocator@$0IA@VNonTrackingAllocator@shdfnd@physx@@@shdfnd@physx@@QAEPAXIPBDH@Z 100fe050 f i GuRTree.obj
 0001:000fd0b0       ?computeBounds@RTreePage@Gu@physx@@QAEXAAURTreeNodeQ@23@@Z 100fe0b0 f i GuRTree.obj
 0001:000fd280       ?getNode@RTreePage@Gu@physx@@QBEXIAAURTreeNodeQ@23@@Z 100fe280 f i GuRTree.obj
 0001:000fd340       ?isEmpty@RTreePage@Gu@physx@@QBE_NI@Z 100fe340 f i GuRTree.obj
 0001:000fd380       ?isLeaf@RTreeNodeQ@Gu@physx@@QBEIXZ 100fe380 f i GuRTree.obj
 0001:000fd3a0       ?isLeaf@RTreePage@Gu@physx@@QBEII@Z 100fe3a0 f i GuRTree.obj
 0001:000fd3c0       ?nodeCount@RTreePage@Gu@physx@@QBEIXZ 100fe3c0 f i GuRTree.obj
 0001:000fd410       ?traverseAABB@RTree@Gu@physx@@QBEXABVPxVec3@3@0IPAIPAUCallback@123@@Z 100fe410 f   GuRTreeQueries.obj
 0001:000fdac0       ?traverseOBB@RTree@Gu@physx@@QBEXABVBox@23@IPAIPAUCallback@123@@Z 100feac0 f   GuRTreeQueries.obj
 0001:000ff5b0       ??$PX_UNUSED@PAI@@YAXABQAI@Z 101005b0 f i GuRTreeQueries.obj
 0001:000ff5c0       ??$traverseRay@$00@RTree@Gu@physx@@QBEXABVPxVec3@2@0IPAIPAUCallbackRaycast@012@PBV32@M@Z 101005c0 f i GuRTreeQueries.obj
 0001:001001c0       ??$traverseRay@$0A@@RTree@Gu@physx@@QBEXABVPxVec3@2@0IPAIPAUCallbackRaycast@012@PBV32@M@Z 101011c0 f i GuRTreeQueries.obj
 0001:00100dc0       ?U4Load@aos@shdfnd@physx@@YA?AT__m128@@I@Z 10101dc0 f i GuRTreeQueries.obj
 0001:00100e00       ?U4StoreA@aos@shdfnd@physx@@YAXT__m128@@PAI@Z 10101e00 f i GuRTreeQueries.obj
 0001:00100e80       ?V4Andc@aos@shdfnd@physx@@YA?AT__m128@@T4@0@Z 10101e80 f i GuRTreeQueries.obj
 0001:00100ee0       ?V4IsGrtrV32u@aos@shdfnd@physx@@YA?AT__m128@@T4@0@Z 10101ee0 f i GuRTreeQueries.obj
 0001:00100f20       ?V4U32Andc@aos@shdfnd@physx@@YA?AT__m128@@T4@0@Z 10101f20 f i GuRTreeQueries.obj
 0001:00100f80       ?V4U32StoreAligned@aos@shdfnd@physx@@YAXT__m128@@PAT4@@Z 10101f80 f i GuRTreeQueries.obj
 0001:00100fb0       ?Vec4V_From_PxVec3_WUndefined@aos@shdfnd@physx@@YA?AT__m128@@ABVPxVec3@3@@Z 10101fb0 f i GuRTreeQueries.obj
 0001:00101000       ?VecU32V_From_BoolV@aos@shdfnd@physx@@YA?AT__m128@@ABT4@@Z 10102000 f i GuRTreeQueries.obj
 0001:001010a0       ??0SweepShapeMeshHitCallback@Gu@physx@@QAE@W4Enum@CallbackMode@12@ABV?$PxFlags@W4Enum@PxHitFlag@physx@@G@2@_NM@Z 101020a0 f   GuSweepsMesh.obj
 0001:00101100       ??0SweepCapsuleMeshHitCallback@Gu@physx@@QAE@AAUPxSweepHit@2@ABVMatrix34@Cm@2@M_NABVCapsule@12@ABVPxVec3@2@ABV?$PxFlags@W4Enum@PxHitFlag@physx@@G@2@2M@Z 10102100 f   GuSweepsMesh.obj
 0001:001011c0       ?processHit@SweepCapsuleMeshHitCallback@Gu@physx@@UAE_NABUPxRaycastHit@3@ABVPxVec3@3@11AAMPBI@Z 101021c0 f   GuSweepsMesh.obj
 0001:00101540       ?finalizeHit@SweepCapsuleMeshHitCallback@Gu@physx@@QBE_NAAUPxSweepHit@3@ABVCapsule@23@ABVPxTriangleMeshGeometry@3@ABVPxTransform@3@_N@Z 10102540 f   GuSweepsMesh.obj
 0001:001016c0       ??0SweepBoxMeshHitCallback@Gu@physx@@QAE@W4Enum@CallbackMode@12@ABVMatrix34Padded@12@M_NABVBox@12@ABVPxVec3@2@44ABV?$PxFlags@W4Enum@PxHitFlag@physx@@G@2@M2M@Z 101026c0 f   GuSweepsMesh.obj
 0001:001018b0       ?processHit@SweepBoxMeshHitCallback@Gu@physx@@UAE_NABUPxRaycastHit@3@ABVPxVec3@3@11AAMPBI@Z 101028b0 f   GuSweepsMesh.obj
 0001:00102050       ?finalizeHit@SweepBoxMeshHitCallback@Gu@physx@@QBE_NAAUPxSweepHit@3@ABVPxTriangleMeshGeometry@3@ABVPxTransform@3@2ABVPxVec3@3@_N4@Z 10103050 f   GuSweepsMesh.obj
 0001:00102300       ??0SweepConvexMeshHitCallback@Gu@physx@@QAE@ABUConvexHullData@12@ABVPxMeshScale@2@ABVFastVertex2ShapeScaling@Cm@2@ABVPxTransform@2@3ABVPxVec3@2@MV?$PxFlags@W4Enum@PxHitFlag@physx@@G@2@_NM6M@Z 10103300 f   GuSweepsMesh.obj
 0001:00102670       ?processHit@SweepConvexMeshHitCallback@Gu@physx@@UAE_NABUPxRaycastHit@3@ABVPxVec3@3@11AAMPBI@Z 10103670 f   GuSweepsMesh.obj
 0001:00102850       ?finalizeHit@SweepConvexMeshHitCallback@Gu@physx@@QAE_NAAUPxSweepHit@3@ABVPxTriangleMeshGeometry@3@ABVPxTransform@3@ABVPxConvexMeshGeometry@3@2ABVPxVec3@3@M_N555@Z 10103850 f   GuSweepsMesh.obj
 0001:00102f00       ?sweepCapsule_MeshGeom@@YA_NABVPxGeometry@physx@@ABVPxTransform@2@ABVPxCapsuleGeometry@2@1ABVCapsule@Gu@2@ABVPxVec3@2@MAAUPxSweepHit@2@V?$PxFlags@W4Enum@PxHitFlag@physx@@G@2@M@Z 10103f00 f   GuSweepsMesh.obj
 0001:001030f0       ?sweepBox_MeshGeom@@YA_NABVPxGeometry@physx@@ABVPxTransform@2@ABVPxBoxGeometry@2@1ABVBox@Gu@2@ABVPxVec3@2@MAAUPxSweepHit@2@V?$PxFlags@W4Enum@PxHitFlag@physx@@G@2@M@Z 101040f0 f   GuSweepsMesh.obj
 0001:001031b0       ?sweepConvex_MeshGeom@@YA_NABVPxGeometry@physx@@ABVPxTransform@2@ABVPxConvexMeshGeometry@2@1ABVPxVec3@2@MAAUPxSweepHit@2@V?$PxFlags@W4Enum@PxHitFlag@physx@@G@2@M@Z 101041b0 f   GuSweepsMesh.obj
 0001:00103580       ??1SweepConvexMeshHitCallback@Gu@physx@@UAE@XZ 10104580 f i GuSweepsMesh.obj
 0001:001035c0       ??4PxTriangle@physx@@QAEXABV01@@Z 101045c0 f i GuSweepsMesh.obj
 0001:00103620       ??_5?$PxFlags@W4Enum@PxHitFlag@physx@@G@physx@@QAEAAV01@ABV01@@Z 10104620 f i GuSweepsMesh.obj
 0001:00103650       ??_GSweepCapsuleMeshHitCallback@Gu@physx@@UAEPAXI@Z 10104650 f i GuSweepsMesh.obj
 0001:00103650       ??_ESweepCapsuleMeshHitCallback@Gu@physx@@UAEPAXI@Z 10104650 f i GuSweepsMesh.obj
 0001:00103680       ??_GSweepConvexMeshHitCallback@Gu@physx@@UAEPAXI@Z 10104680 f i GuSweepsMesh.obj
 0001:00103680       ??_ESweepConvexMeshHitCallback@Gu@physx@@UAEPAXI@Z 10104680 f i GuSweepsMesh.obj
 0001:001036c0       ??_GSweepShapeMeshHitCallback@Gu@physx@@UAEPAXI@Z 101046c0 f i GuSweepsMesh.obj
 0001:001036c0       ??_ESweepShapeMeshHitCallback@Gu@physx@@UAEPAXI@Z 101046c0 f i GuSweepsMesh.obj
 0001:001036f0       ?V4ScaleAdd@aos@shdfnd@physx@@YA?AT__m128@@T4@00@Z 101046f0 f i GuSweepsMesh.obj
 0001:00103790       ?getShape2VertexSkew@FastVertex2ShapeScaling@Cm@physx@@QBEABVPxMat33@3@XZ 10104790 f i GuSweepsMesh.obj
 0001:001037b0       ?sweepBoxVsMesh@Midphase@Gu@physx@@YA_NPBVTriangleMesh@23@ABVPxTriangleMeshGeometry@3@ABVPxTransform@3@ABVBox@23@ABVPxVec3@3@MAAUPxSweepHit@3@V?$PxFlags@W4Enum@PxHitFlag@physx@@G@3@M@Z 101047b0 f i GuSweepsMesh.obj
 0001:00103820       ?sweepCapsuleVsMesh@Midphase@Gu@physx@@YA_NPBVTriangleMesh@23@ABVPxTriangleMeshGeometry@3@ABVPxTransform@3@ABVCapsule@23@ABVPxVec3@3@MAAUPxSweepHit@3@V?$PxFlags@W4Enum@PxHitFlag@physx@@G@3@M@Z 10104820 f i GuSweepsMesh.obj
 0001:00103890       ?sweepConvexVsMesh@Midphase@Gu@physx@@YAXPBVTriangleMesh@23@ABVBox@23@ABVPxVec3@3@MAAUSweepConvexMeshHitCallback@23@_N@Z 10104890 f i GuSweepsMesh.obj
 0001:00103970       ?exportExtraData@TriangleMesh@Gu@physx@@UAEXAAVPxSerializationContext@3@@Z 10104970 f   GuTriangleMesh.obj
 0001:00103af0       ?importExtraData@TriangleMesh@Gu@physx@@QAEXAAVPxDeserializationContext@3@@Z 10104af0 f   GuTriangleMesh.obj
 0001:00103c00       ?release@TriangleMesh@Gu@physx@@UAEXXZ 10104c00 f   GuTriangleMesh.obj
 0001:00103c20       ?onRefCountZero@TriangleMesh@Gu@physx@@UAEXXZ 10104c20 f   GuTriangleMesh.obj
 0001:00103cb0       ??0TriangleMesh@Gu@physx@@QAE@AAVGuMeshFactory@2@AAVTriangleMeshData@12@@Z 10104cb0 f   GuTriangleMesh.obj
 0001:00103e30       ??1TriangleMesh@Gu@physx@@UAE@XZ 10104e30 f   GuTriangleMesh.obj
 0001:00104000       ?getVerticesForModification@TriangleMesh@Gu@physx@@UAEPAVPxVec3@3@XZ 10105000 f   GuTriangleMesh.obj
 0001:00104030       ?refitBVH@TriangleMesh@Gu@physx@@UAE?AVPxBounds3@3@XZ 10105030 f   GuTriangleMesh.obj
 0001:00104090       ??$deletePxBase@VTriangleMesh@Gu@physx@@@Cm@physx@@YAXPAVTriangleMesh@Gu@1@@Z 10105090 f i GuTriangleMesh.obj
 0001:00104100       ??$readExtraData@G$0BA@@PxDeserializationContext@physx@@QAEPAGI@Z 10105100 f i GuTriangleMesh.obj
 0001:00104130       ??$readExtraData@G@PxDeserializationContext@physx@@QAEPAGI@Z 10105130 f i GuTriangleMesh.obj
 0001:00104160       ??$readExtraData@I$0BA@@PxDeserializationContext@physx@@QAEPAII@Z 10105160 f i GuTriangleMesh.obj
 0001:00104190       ??$readExtraData@I@PxDeserializationContext@physx@@QAEPAII@Z 10105190 f i GuTriangleMesh.obj
 0001:001041c0       ??$readExtraData@VPxVec3@physx@@$0BA@@PxDeserializationContext@physx@@QAEPAVPxVec3@1@I@Z 101051c0 f i GuTriangleMesh.obj
 0001:001041f0       ??$readExtraData@VPxVec3@physx@@@PxDeserializationContext@physx@@QAEPAVPxVec3@1@I@Z 101051f0 f i GuTriangleMesh.obj
 0001:00104220       ??0?$PxFlags@W4Enum@PxTriangleMeshFlag@physx@@E@physx@@QAE@E@Z 10105220 f i GuTriangleMesh.obj
 0001:00104240       ??0PxTriangleMesh@physx@@IAE@GV?$PxFlags@W4Enum@PxBaseFlag@physx@@G@1@@Z 10105240 f i GuTriangleMesh.obj
 0001:00104280       ??1PxTriangleMesh@physx@@MAE@XZ 10105280 f i GuTriangleMesh.obj
 0001:0010429c       ??_ETriangleMesh@Gu@physx@@W7AEPAXI@Z 1010529c f i GuTriangleMesh.obj
 0001:001042b0       ??_GPxTriangleMesh@physx@@MAEPAXI@Z 101052b0 f i GuTriangleMesh.obj
 0001:001042b0       ??_EPxTriangleMesh@physx@@MAEPAXI@Z 101052b0 f i GuTriangleMesh.obj
 0001:001042e0       ??_ETriangleMesh@Gu@physx@@UAEPAXI@Z 101052e0 f i GuTriangleMesh.obj
 0001:001042e0       ??_GTriangleMesh@Gu@physx@@UAEPAXI@Z 101052e0 f i GuTriangleMesh.obj
 0001:00104330       ?acquireReference@TriangleMesh@Gu@physx@@UAEXXZ 10105330 f i GuTriangleMesh.obj
 0001:00104350       ?getLocalBounds@TriangleMesh@Gu@physx@@UBE?AVPxBounds3@3@XZ 10105350 f i GuTriangleMesh.obj
 0001:001043c0       ?getNbTriangles@TriangleMesh@Gu@physx@@UBEIXZ 101053c0 f i GuTriangleMesh.obj
 0001:001043e0       ?getNbVertices@TriangleMesh@Gu@physx@@UBEIXZ 101053e0 f i GuTriangleMesh.obj
 0001:00104400       ?getReferenceCount@TriangleMesh@Gu@physx@@UBEIXZ 10105400 f i GuTriangleMesh.obj
 0001:00104420       ?getTriangleMaterialIndex@TriangleMesh@Gu@physx@@UBEGI@Z 10105420 f i GuTriangleMesh.obj
 0001:00104460       ?getTriangleMeshFlags@TriangleMesh@Gu@physx@@UBE?AV?$PxFlags@W4Enum@PxTriangleMeshFlag@physx@@E@3@XZ 10105460 f i GuTriangleMesh.obj
 0001:00104480       ?getTriangles@TriangleMesh@Gu@physx@@UBEPBXXZ 10105480 f i GuTriangleMesh.obj
 0001:001044a0       ?getTrianglesRemap@TriangleMesh@Gu@physx@@UBEPBIXZ 101054a0 f i GuTriangleMesh.obj
 0001:001044c0       ?getVertices@TriangleMesh@Gu@physx@@UBEPBVPxVec3@3@XZ 101054c0 f i GuTriangleMesh.obj
 0001:001044e0       ?hasPerTriangleMaterials@TriangleMesh@Gu@physx@@QBE_NXZ 101054e0 f i GuTriangleMesh.obj
 0001:00104510       ?isKindOf@PxTriangleMesh@physx@@MBE_NPBD@Z 10105510 f i GuTriangleMesh.obj
 0001:00104560       ?requiresObjects@TriangleMesh@Gu@physx@@UAEXAAVPxProcessPxBaseCallback@3@@Z 10105560 f i GuTriangleMesh.obj
 0001:00104600       ?exportExtraData@BV4TriangleMesh@Gu@physx@@UAEXAAVPxSerializationContext@3@@Z 10105600 f   GuTriangleMeshBV4.obj
 0001:00104630       ?importExtraData@BV4TriangleMesh@Gu@physx@@QAEXAAVPxDeserializationContext@3@@Z 10105630 f   GuTriangleMeshBV4.obj
 0001:001046c0       ?createObject@BV4TriangleMesh@Gu@physx@@SAPAVTriangleMesh@23@AAPAEAAVPxDeserializationContext@3@@Z 101056c0 f   GuTriangleMeshBV4.obj
 0001:00104730       ??0BV4TriangleMesh@Gu@physx@@QAE@AAVGuMeshFactory@2@AAVTriangleMeshData@12@@Z 10105730 f   GuTriangleMeshBV4.obj
 0001:001047f0       ??0BV4TriangleMesh@Gu@physx@@QAE@V?$PxFlags@W4Enum@PxBaseFlag@physx@@G@2@@Z 101057f0 f i GuTriangleMeshBV4.obj
 0001:00104850       ??0PxTriangleMesh@physx@@IAE@V?$PxFlags@W4Enum@PxBaseFlag@physx@@G@1@@Z 10105850 f i GuTriangleMeshBV4.obj
 0001:00104880       ??0SourceMesh@Gu@physx@@QAE@W4PxEMPTY@2@@Z 10105880 f i GuTriangleMeshBV4.obj
 0001:001048a0       ??0TriangleMesh@Gu@physx@@QAE@V?$PxFlags@W4Enum@PxBaseFlag@physx@@G@2@@Z 101058a0 f i GuTriangleMeshBV4.obj
 0001:001048f0       ??1BV4TriangleMesh@Gu@physx@@UAE@XZ 101058f0 f i GuTriangleMeshBV4.obj
 0001:0010492c       ??_EBV4TriangleMesh@Gu@physx@@W7AEPAXI@Z 1010592c f i GuTriangleMeshBV4.obj
 0001:00104940       ??_EBV4TriangleMesh@Gu@physx@@UAEPAXI@Z 10105940 f i GuTriangleMeshBV4.obj
 0001:00104940       ??_GBV4TriangleMesh@Gu@physx@@UAEPAXI@Z 10105940 f i GuTriangleMeshBV4.obj
 0001:00104990       ?getConcreteTypeName@BV4TriangleMesh@Gu@physx@@UBEPBDXZ 10105990 f i GuTriangleMeshBV4.obj
 0001:001049a0       ?getMidphaseID@BV4TriangleMesh@Gu@physx@@UBE?AW4Enum@PxMeshMidPhase@3@XZ 101059a0 f i GuTriangleMeshBV4.obj
 0001:00104a40       ?exportExtraData@RTreeTriangleMesh@Gu@physx@@UAEXAAVPxSerializationContext@3@@Z 10105a40 f   GuTriangleMeshRTree.obj
 0001:00104a70       ?importExtraData@RTreeTriangleMesh@Gu@physx@@QAEXAAVPxDeserializationContext@3@@Z 10105a70 f   GuTriangleMeshRTree.obj
 0001:00104aa0       ?createObject@RTreeTriangleMesh@Gu@physx@@SAPAVTriangleMesh@23@AAPAEAAVPxDeserializationContext@3@@Z 10105aa0 f   GuTriangleMeshRTree.obj
 0001:00104b10       ??0RTreeTriangleMesh@Gu@physx@@QAE@AAVGuMeshFactory@2@AAVTriangleMeshData@12@@Z 10105b10 f   GuTriangleMeshRTree.obj
 0001:00104bb0       ?getVerticesForModification@RTreeTriangleMesh@Gu@physx@@UAEPAVPxVec3@3@XZ 10105bb0 f   GuTriangleMeshRTree.obj
 0001:00104bd0       ?refitBVH@RTreeTriangleMesh@Gu@physx@@UAE?AVPxBounds3@3@XZ 10105bd0 f   GuTriangleMeshRTree.obj
 0001:00104d00       ??0?$RefitCallback@G@physx@@QAE@PBVPxVec3@1@PBG@Z 10105d00 f i GuTriangleMeshRTree.obj
 0001:00104d40       ??0?$RefitCallback@I@physx@@QAE@PBVPxVec3@1@PBI@Z 10105d40 f i GuTriangleMeshRTree.obj
 0001:00104d80       ??0CallbackRefit@RTree@Gu@physx@@QAE@XZ 10105d80 f i GuTriangleMeshRTree.obj
 0001:00104da0       ??0RTreeTriangleMesh@Gu@physx@@QAE@V?$PxFlags@W4Enum@PxBaseFlag@physx@@G@2@@Z 10105da0 f i GuTriangleMeshRTree.obj
 0001:00104df0       ??1?$RefitCallback@G@physx@@UAE@XZ 10105df0 f i GuTriangleMeshRTree.obj
 0001:00104e10       ??1?$RefitCallback@I@physx@@UAE@XZ 10105e10 f i GuTriangleMeshRTree.obj
 0001:00104e30       ??1CallbackRefit@RTree@Gu@physx@@UAE@XZ 10105e30 f i GuTriangleMeshRTree.obj
 0001:00104e50       ??1RTreeTriangleMesh@Gu@physx@@UAE@XZ 10105e50 f i GuTriangleMeshRTree.obj
 0001:00104e90       ??4RTree@Gu@physx@@QAEAAU012@ABU012@@Z 10105e90 f i GuTriangleMeshRTree.obj
 0001:00104f36       ??_ERTreeTriangleMesh@Gu@physx@@W7AEPAXI@Z 10105f36 f i GuTriangleMeshRTree.obj
 0001:00104f40       ??_G?$RefitCallback@G@physx@@UAEPAXI@Z 10105f40 f i GuTriangleMeshRTree.obj
 0001:00104f40       ??_E?$RefitCallback@G@physx@@UAEPAXI@Z 10105f40 f i GuTriangleMeshRTree.obj
 0001:00104f70       ??_G?$RefitCallback@I@physx@@UAEPAXI@Z 10105f70 f i GuTriangleMeshRTree.obj
 0001:00104f70       ??_E?$RefitCallback@I@physx@@UAEPAXI@Z 10105f70 f i GuTriangleMeshRTree.obj
 0001:00104fa0       ??_GCallbackRefit@RTree@Gu@physx@@UAEPAXI@Z 10105fa0 f i GuTriangleMeshRTree.obj
 0001:00104fa0       ??_ECallbackRefit@RTree@Gu@physx@@UAEPAXI@Z 10105fa0 f i GuTriangleMeshRTree.obj
 0001:00104fd0       ??_ERTreeTriangleMesh@Gu@physx@@UAEPAXI@Z 10105fd0 f i GuTriangleMeshRTree.obj
 0001:00104fd0       ??_GRTreeTriangleMesh@Gu@physx@@UAEPAXI@Z 10105fd0 f i GuTriangleMeshRTree.obj
 0001:00105020       ?getConcreteTypeName@RTreeTriangleMesh@Gu@physx@@UBEPBDXZ 10106020 f i GuTriangleMeshRTree.obj
 0001:00105030       ?getMidphaseID@RTreeTriangleMesh@Gu@physx@@UBE?AW4Enum@PxMeshMidPhase@3@XZ 10106030 f i GuTriangleMeshRTree.obj
 0001:00105040       ?recomputeBounds@?$RefitCallback@G@physx@@UAEXIAAT__m128@@0@Z 10106040 f i GuTriangleMeshRTree.obj
 0001:00105390       ?recomputeBounds@?$RefitCallback@I@physx@@UAEXIAAT__m128@@0@Z 10106390 f i GuTriangleMeshRTree.obj
 0001:001056c0       ??0BV32Tree@Gu@physx@@QAE@W4PxEMPTY@2@@Z 101066c0 f   GuBV32.obj
 0001:001056f0       ?exportExtraData@BV32Tree@Gu@physx@@QAEXAAVPxSerializationContext@3@@Z 101066f0 f   GuBV32.obj
 0001:00105730       ?importExtraData@BV32Tree@Gu@physx@@QAEXAAVPxDeserializationContext@3@@Z 10106730 f   GuBV32.obj
 0001:00105760       ??0BV32Tree@Gu@physx@@QAE@XZ 10106760 f   GuBV32.obj
 0001:00105790       ??0BV32Tree@Gu@physx@@QAE@PAVSourceMesh@12@ABVPxBounds3@2@@Z 10106790 f   GuBV32.obj
 0001:001057d0       ??1BV32Tree@Gu@physx@@QAE@XZ 101067d0 f   GuBV32.obj
 0001:001057f0       ?load@BV32Tree@Gu@physx@@QAE_NAAVPxInputStream@3@_N@Z 101067f0 f   GuBV32.obj
 0001:00105ab0       ?calculateLeafNode@BV32Tree@Gu@physx@@QAEXAAUBV32Data@23@@Z 10106ab0 f   GuBV32.obj
 0001:00105b80       ?createSOAformatNode@BV32Tree@Gu@physx@@QAEXAAUBV32DataPacked@23@ABUBV32Data@23@IAAI2@Z 10106b80 f   GuBV32.obj
 0001:00105da0       ?reset@BV32Tree@Gu@physx@@QAEXXZ 10106da0 f   GuBV32.obj
 0001:00105df0       ??4BV32Tree@Gu@physx@@QAEXAAV012@@Z 10106df0 f   GuBV32.obj
 0001:00105e60       ?init@BV32Tree@Gu@physx@@QAE_NPAVSourceMesh@23@ABVPxBounds3@3@@Z 10106e60 f   GuBV32.obj
 0001:00105e90       ?release@BV32Tree@Gu@physx@@QAEXXZ 10106e90 f   GuBV32.obj
 0001:00105f10       ??$readExtraData@UBV32DataPacked@Gu@physx@@@PxDeserializationContext@physx@@QAEPAUBV32DataPacked@Gu@1@I@Z 10106f10 f i GuBV32.obj
 0001:00105f40       ?getChildOffset@BV32Data@Gu@physx@@QBEIXZ 10106f40 f i GuBV32.obj
 0001:00105fa0       ?getNbChildren@BV32Data@Gu@physx@@QBEIXZ 10106fa0 f i GuBV32.obj
 0001:00106000       ?isLeaf@BV32Data@Gu@physx@@QBEIXZ 10107000 f i GuBV32.obj
 0001:00106020       ?BuildBV32Ex@Gu@physx@@YA_NAAVBV32Tree@12@AAVSourceMesh@12@MI@Z 10107020 f   GuBV32Build.obj
 0001:001071a0       ??$?2V?$ReflectionAllocator@UBV32Node@@@shdfnd@physx@@@UserAllocated@shdfnd@physx@@SAPAXIV?$ReflectionAllocator@UBV32Node@@@12@PBDH@Z 101081a0 f i GuBV32Build.obj
 0001:001071c0       ??$?_UV?$ReflectionAllocator@UBV32Data@Gu@physx@@@shdfnd@physx@@@UserAllocated@shdfnd@physx@@SAPAXIV?$ReflectionAllocator@UBV32Data@Gu@physx@@@12@PBDH@Z 101081c0 f i GuBV32Build.obj
 0001:001071e0       ??0?$ReflectionAllocator@UBV32Data@Gu@physx@@@shdfnd@physx@@QAE@PBD@Z 101081e0 f i GuBV32Build.obj
 0001:001071f0       ??0?$ReflectionAllocator@UBV32Node@@@shdfnd@physx@@QAE@PBD@Z 101081f0 f i GuBV32Build.obj
 0001:00107200       ??0BV32Data@Gu@physx@@QAE@XZ 10108200 f i GuBV32Build.obj
 0001:00107240       ??0BV32Node@@QAE@XZ        10108240 f i GuBV32Build.obj
 0001:00107270       ?allocate@?$ReflectionAllocator@UBV32Data@Gu@physx@@@shdfnd@physx@@QAEPAXIPBDH@Z 10108270 f i GuBV32Build.obj
 0001:001072c0       ?allocate@?$ReflectionAllocator@UBV32Node@@@shdfnd@physx@@QAEPAXIPBDH@Z 101082c0 f i GuBV32Build.obj
 0001:00107310       ?getChild@BV32Node@@QBEPBU1@I@Z 10108310 f i GuBV32Build.obj
 0001:00107330       ?getName@?$ReflectionAllocator@UBV32Data@Gu@physx@@@shdfnd@physx@@CAPBDXZ 10108330 f i GuBV32Build.obj
 0001:00107370       ?getName@?$ReflectionAllocator@UBV32Node@@@shdfnd@physx@@CAPBDXZ 10108370 f i GuBV32Build.obj
 0001:001073b0       ?isLeaf@BV32Node@@QBEII@Z  101083b0 f i GuBV32Build.obj
 0001:001073d0       ?setEmpty@BV32Data@Gu@physx@@QAEXXZ 101083d0 f i GuBV32Build.obj
 0001:00107450       ?pcmContactBoxBox@Gu@physx@@YA_NABVGeometryUnion@12@0ABVPxTransform@2@1ABUNarrowPhaseParams@12@AAUCache@12@AAVContactBuffer@12@PAVRenderOutput@Cm@2@@Z 10108450 f   GuPCMContactBoxBox.obj
 0001:0010c0f0       ?BTTFT@aos@shdfnd@physx@@YA?AT__m128@@XZ 1010d0f0 f i GuPCMContactBoxBox.obj
 0001:0010c130       ?CalculatePCMBoxMargin@Gu@physx@@YA?AT__m128@@ABT3@MM@Z 1010d130 f i GuPCMContactBoxBox.obj
 0001:0010c1d0       ?PxAcos@physx@@YAMM@Z      1010d1d0 f i GuPCMContactBoxBox.obj
 0001:0010c210       ?V3ExtractMax@aos@shdfnd@physx@@YA?AT__m128@@T4@@Z 1010d210 f i GuPCMContactBoxBox.obj
 0001:0010c2f0       ?V3RecipFast@aos@shdfnd@physx@@YA?AT__m128@@T4@@Z 1010d2f0 f i GuPCMContactBoxBox.obj
 0001:0010c3b0       ?V3SetZ@aos@shdfnd@physx@@YA?AT__m128@@T4@0@Z 1010d3b0 f i GuPCMContactBoxBox.obj
 0001:0010c490       ?Vec3V_From_FloatV@aos@shdfnd@physx@@YA?AT__m128@@T4@@Z 1010d490 f i GuPCMContactBoxBox.obj
 0001:0010c4e0       ?contains@Gu@physx@@YA_NPAT__m128@@IABT3@11@Z 1010d4e0 f i GuPCMContactBoxBox.obj
 0001:0010c9d0       ?getCol0@PsMatTransformV@aos@shdfnd@physx@@QBE?AT__m128@@XZ 1010d9d0 f i GuPCMContactBoxBox.obj
 0001:0010c9f0       ?getCol1@PsMatTransformV@aos@shdfnd@physx@@QBE?AT__m128@@XZ 1010d9f0 f i GuPCMContactBoxBox.obj
 0001:0010ca10       ?getCol2@PsMatTransformV@aos@shdfnd@physx@@QBE?AT__m128@@XZ 1010da10 f i GuPCMContactBoxBox.obj
 0001:0010ca30       ?getManifold@Cache@Gu@physx@@QAEAAVPersistentContactManifold@23@XZ 1010da30 f i GuPCMContactBoxBox.obj
 0001:0010cb00       ?getNumContacts@PersistentContactManifold@Gu@physx@@QBEIXZ 1010db00 f i GuPCMContactBoxBox.obj
 0001:0010cb20       ?getWorldNormal@PersistentContactManifold@Gu@physx@@QAE?AT__m128@@ABVPsTransformV@aos@shdfnd@3@@Z 1010db20 f i GuPCMContactBoxBox.obj
 0001:0010cc70       ?invalidate_BoxConvex@PersistentContactManifold@Gu@physx@@QAEIABVPsTransformV@aos@shdfnd@3@ABT__m128@@1111@Z 1010dc70 f i GuPCMContactBoxBox.obj
 0001:0010cfd0       ?isManifold@Cache@Gu@physx@@QBEEXZ 1010dfd0 f i GuPCMContactBoxBox.obj
 0001:0010cff0       ?isMultiManifold@Cache@Gu@physx@@QBEEXZ 1010dff0 f i GuPCMContactBoxBox.obj
 0001:0010d010       ?loadTransformA@aos@shdfnd@physx@@YA?AVPsTransformV@123@ABVPxTransform@3@@Z 1010e010 f i GuPCMContactBoxBox.obj
 0001:0010d080       ?maxTransformPositionDelta@PersistentContactManifold@Gu@physx@@QAE?AT__m128@@ABT4@@Z 1010e080 f i GuPCMContactBoxBox.obj
 0001:0010d100       ?refreshContactPoints@PersistentContactManifold@Gu@physx@@QAEXABVPsMatTransformV@aos@shdfnd@3@ABT__m128@@1@Z 1010e100 f i GuPCMContactBoxBox.obj
 0001:0010d2e0       ?removeContactPoint@PersistentContactManifold@Gu@physx@@QAEXI@Z 1010e2e0 f i GuPCMContactBoxBox.obj
 0001:0010d330       ?rotateInv@PsMatTransformV@aos@shdfnd@physx@@QBE?AT__m128@@ABT5@@Z 1010e330 f i GuPCMContactBoxBox.obj
 0001:0010d380       ?setRelativeTransform@PersistentContactManifold@Gu@physx@@QAEXABVPsTransformV@aos@shdfnd@3@T__m128@@1@Z 1010e380 f i GuPCMContactBoxBox.obj
 0001:0010d3e0       ?transformInv@PsMatTransformV@aos@shdfnd@physx@@QBE?AT__m128@@ABT5@@Z 1010e3e0 f i GuPCMContactBoxBox.obj
 0001:0010d440       ?transformInv@PsMatTransformV@aos@shdfnd@physx@@QBE?AV1234@ABV1234@@Z 1010e440 f i GuPCMContactBoxBox.obj
 0001:0010d4e0       _acosf                     1010e4e0 f i GuPCMContactBoxBox.obj
 0001:0010d510       ?pcmContactBoxConvex@Gu@physx@@YA_NABVGeometryUnion@12@0ABVPxTransform@2@1ABUNarrowPhaseParams@12@AAUCache@12@AAVContactBuffer@12@PAVRenderOutput@Cm@2@@Z 1010e510 f   GuPCMContactBoxConvex.obj
 0001:0010e0a0       ??$getConvex@VConvexHullNoScaleV@Gu@physx@@@GjkConvexBase@Gu@physx@@QBEABVConvexHullNoScaleV@12@XZ 1010f0a0 f i GuPCMContactBoxConvex.obj
 0001:0010e0c0       ??$gjkPenetration@U?$RelativeConvex@VBoxV@Gu@physx@@@Gu@physx@@U?$LocalConvex@VConvexHullNoScaleV@Gu@physx@@@23@@Gu@physx@@YA?AW4GjkStatus@01@ABU?$RelativeConvex@VBoxV@Gu@physx@@@01@ABU?$LocalConvex@VConvexHullNoScaleV@Gu@physx@@@01@ABT__m128@@2_NPIAE4AAEAAUGjkOutput@01@@Z 1010f0c0 f i GuPCMContactBoxConvex.obj
 0001:0010eb90       ??0?$LocalConvex@VConvexHullNoScaleV@Gu@physx@@@Gu@physx@@QAE@ABVConvexHullNoScaleV@12@@Z 1010fb90 f i GuPCMContactBoxConvex.obj
 0001:0010ebc0       ??1?$LocalConvex@VConvexHullNoScaleV@Gu@physx@@@Gu@physx@@UAE@XZ 1010fbc0 f i GuPCMContactBoxConvex.obj
 0001:0010ebe0       ??_E?$LocalConvex@VConvexHullNoScaleV@Gu@physx@@@Gu@physx@@UAEPAXI@Z 1010fbe0 f i GuPCMContactBoxConvex.obj
 0001:0010ebe0       ??_G?$LocalConvex@VConvexHullNoScaleV@Gu@physx@@@Gu@physx@@UAEPAXI@Z 1010fbe0 f i GuPCMContactBoxConvex.obj
 0001:0010ec10       ?CalculatePCMConvexMargin@Gu@physx@@YA?AT__m128@@PBUConvexHullData@12@ABT3@MM@Z 1010fc10 f i GuPCMContactBoxConvex.obj
 0001:0010ecf0       ?getCenter@?$LocalConvex@VConvexHullNoScaleV@Gu@physx@@@Gu@physx@@UBE?AT__m128@@XZ 1010fcf0 f i GuPCMContactBoxConvex.obj
 0001:0010ed20       ?getLocalNormal@PersistentContactManifold@Gu@physx@@QAE?AT__m128@@XZ 1010fd20 f i GuPCMContactBoxConvex.obj
 0001:0010edd0       ?getMarginF@ConvexV@Gu@physx@@QBEMXZ 1010fdd0 f i GuPCMContactBoxConvex.obj
 0001:0010edf0       ?getSweepMargin@?$LocalConvex@VConvexHullNoScaleV@Gu@physx@@@Gu@physx@@UBE?AT__m128@@XZ 1010fdf0 f i GuPCMContactBoxConvex.obj
 0001:0010ee20       ?support@?$LocalConvex@VConvexHullNoScaleV@Gu@physx@@@Gu@physx@@UBE?AT__m128@@ABT4@@Z 1010fe20 f i GuPCMContactBoxConvex.obj
 0001:0010ee50       ?support@?$LocalConvex@VConvexHullNoScaleV@Gu@physx@@@Gu@physx@@UBE?AT__m128@@ABT4@AAH@Z 1010fe50 f i GuPCMContactBoxConvex.obj
 0001:0010ee80       ?supportLocal@ConvexHullNoScaleV@Gu@physx@@QBE?AT__m128@@ABT4@AAH@Z 1010fe80 f i GuPCMContactBoxConvex.obj
 0001:0010eef0       ?supportPoint@?$LocalConvex@VConvexHullNoScaleV@Gu@physx@@@Gu@physx@@UBE?AT__m128@@H@Z 1010fef0 f i GuPCMContactBoxConvex.obj
 0001:0010ef20       ?supportPoint@ConvexHullNoScaleV@Gu@physx@@QBE?AT__m128@@H@Z 1010ff20 f i GuPCMContactBoxConvex.obj
 0001:0010ef70       ?pcmContactCapsuleBox@Gu@physx@@YA_NABVGeometryUnion@12@0ABVPxTransform@2@1ABUNarrowPhaseParams@12@AAUCache@12@AAVContactBuffer@12@PAVRenderOutput@Cm@2@@Z 1010ff70 f   GuPCMContactCapsuleBox.obj
 0001:0010fac0       ?invalidate_SphereCapsule@PersistentContactManifold@Gu@physx@@QAEIABVPsTransformV@aos@shdfnd@3@ABT__m128@@@Z 10110ac0 f i GuPCMContactCapsuleBox.obj
 0001:0010fc30       ?setRelativeTransform@PersistentContactManifold@Gu@physx@@QAEXABVPsTransformV@aos@shdfnd@3@@Z 10110c30 f i GuPCMContactCapsuleBox.obj
 0001:0010fc50       ?transformInv@PsTransformV@aos@shdfnd@physx@@QBE?AT__m128@@ABT5@@Z 10110c50 f i GuPCMContactCapsuleBox.obj
 0001:0010fcf0       ?pcmContactCapsuleCapsule@Gu@physx@@YA_NABVGeometryUnion@12@0ABVPxTransform@2@1ABUNarrowPhaseParams@12@AAUCache@12@AAVContactBuffer@12@PAVRenderOutput@Cm@2@@Z 10110cf0 f   GuPCMContactCapsuleCapsule.obj
 0001:00111470       ?BFTTT@aos@shdfnd@physx@@YA?AT__m128@@XZ 10112470 f i GuPCMContactCapsuleCapsule.obj
 0001:001114b0       ?QuatGetBasisVector0@aos@shdfnd@physx@@YA?AT__m128@@T4@@Z 101124b0 f i GuPCMContactCapsuleCapsule.obj
 0001:00111690       ?V3SetX@aos@shdfnd@physx@@YA?AT__m128@@T4@0@Z 10112690 f i GuPCMContactCapsuleCapsule.obj
 0001:00111770       ?V3StoreA@aos@shdfnd@physx@@YAXT__m128@@AAVPxVec3@3@@Z 10112770 f i GuPCMContactCapsuleCapsule.obj
 0001:00111830       ?pcmContactCapsuleConvex@Gu@physx@@YA_NABVGeometryUnion@12@0ABVPxTransform@2@1ABUNarrowPhaseParams@12@AAUCache@12@AAVContactBuffer@12@PAVRenderOutput@Cm@2@@Z 10112830 f   GuPCMContactCapsuleConvex.obj
 0001:001124d0       ??$gjkPenetration@U?$LocalConvex@VCapsuleV@Gu@physx@@@Gu@physx@@U?$LocalConvex@VConvexHullNoScaleV@Gu@physx@@@23@@Gu@physx@@YA?AW4GjkStatus@01@ABU?$LocalConvex@VCapsuleV@Gu@physx@@@01@ABU?$LocalConvex@VConvexHullNoScaleV@Gu@physx@@@01@ABT__m128@@2_NPIAE4AAEAAUGjkOutput@01@@Z 101134d0 f i GuPCMContactCapsuleConvex.obj
 0001:00112fa0       ?CalculateCapsuleMinMargin@Gu@physx@@YA?AT__m128@@ABT3@@Z 10113fa0 f i GuPCMContactCapsuleConvex.obj
 0001:00113000       ?pcmContactCapsuleHeightField@Gu@physx@@YA_NABVGeometryUnion@12@0ABVPxTransform@2@1ABUNarrowPhaseParams@12@AAUCache@12@AAVContactBuffer@12@PAVRenderOutput@Cm@2@@Z 10114000 f   GuPCMContactCapsuleHeightField.obj
 0001:00113470       ??$processTriangleCache@$0BA@@PCMCapsuleVsHeightfieldContactGenerationCallback@physx@@QAEXAAU?$TriangleCache@$0BA@@Gu@1@@Z 10114470 f i GuPCMContactCapsuleHeightField.obj
 0001:00113490       ??$processTriangleCache@$0BA@VPCMCapsuleVsMeshContactGeneration@Gu@physx@@@PCMMeshContactGeneration@Gu@physx@@QAE_NAAU?$TriangleCache@$0BA@@12@@Z 10114490 f i GuPCMContactCapsuleHeightField.obj
 0001:00113530       ??0?$PCMHeightfieldContactGenerationCallback@UPCMCapsuleVsHeightfieldContactGenerationCallback@physx@@@Gu@physx@@QAE@ABVHeightFieldUtil@12@ABVPxTransform@2@@Z 10114530 f i GuPCMContactCapsuleHeightField.obj
 0001:001135c0       ??0?$TriangleCache@$0BA@@Gu@physx@@QAE@XZ 101145c0 f i GuPCMContactCapsuleHeightField.obj
 0001:001135f0       ??0PCMCapsuleVsHeightfieldContactGenerationCallback@physx@@QAE@ABVCapsuleV@Gu@1@ABT__m128@@1ABVPsTransformV@aos@shdfnd@1@2ABVPxTransform@1@AAVMultiplePersistentContactManifold@31@AAVContactBuffer@31@PAV?$InlineArray@I$0EEA@VNamedAllocator@shdfnd@physx@@@71@AAVHeightFieldUtil@31@@Z 101145f0 f i GuPCMContactCapsuleHeightField.obj
 0001:00113650       ??0PCMCapsuleVsMeshContactGeneration@Gu@physx@@QAE@ABVCapsuleV@12@ABT__m128@@1ABVPsTransformV@aos@shdfnd@2@2AAVMultiplePersistentContactManifold@12@AAVContactBuffer@12@PAV?$InlineArray@I$0EEA@VNamedAllocator@shdfnd@physx@@@72@PAVRenderOutput@Cm@2@@Z 10114650 f i GuPCMContactCapsuleHeightField.obj
 0001:00113700       ??0PCMContactPatch@Gu@physx@@QAE@XZ 10114700 f i GuPCMContactCapsuleHeightField.obj
 0001:00113760       ??0PCMMeshContactGeneration@Gu@physx@@QAE@ABT__m128@@0ABVPsTransformV@aos@shdfnd@2@1AAVMultiplePersistentContactManifold@12@AAVContactBuffer@12@PAV?$InlineArray@I$0EEA@VNamedAllocator@shdfnd@physx@@@62@PAVRenderOutput@Cm@2@@Z 10114760 f i GuPCMContactCapsuleHeightField.obj
 0001:00113920       ??1?$PCMHeightfieldContactGenerationCallback@UPCMCapsuleVsHeightfieldContactGenerationCallback@physx@@@Gu@physx@@UAE@XZ 10114920 f i GuPCMContactCapsuleHeightField.obj
 0001:00113940       ??1PCMCapsuleVsHeightfieldContactGenerationCallback@physx@@UAE@XZ 10114940 f i GuPCMContactCapsuleHeightField.obj
 0001:00113960       ??_E?$PCMHeightfieldContactGenerationCallback@UPCMCapsuleVsHeightfieldContactGenerationCallback@physx@@@Gu@physx@@UAEPAXI@Z 10114960 f i GuPCMContactCapsuleHeightField.obj
 0001:00113960       ??_G?$PCMHeightfieldContactGenerationCallback@UPCMCapsuleVsHeightfieldContactGenerationCallback@physx@@@Gu@physx@@UAEPAXI@Z 10114960 f i GuPCMContactCapsuleHeightField.obj
 0001:00113990       ??_EPCMCapsuleVsHeightfieldContactGenerationCallback@physx@@UAEPAXI@Z 10114990 f i GuPCMContactCapsuleHeightField.obj
 0001:00113990       ??_GPCMCapsuleVsHeightfieldContactGenerationCallback@physx@@UAEPAXI@Z 10114990 f i GuPCMContactCapsuleHeightField.obj
 0001:001139d0       ?addTriangle@?$TriangleCache@$0BA@@Gu@physx@@QAEXPBVPxVec3@3@PBIIE@Z 101149d0 f i GuPCMContactCapsuleHeightField.obj
 0001:00113b10       ?getMultipleManifold@Cache@Gu@physx@@QAEAAVMultiplePersistentContactManifold@23@XZ 10114b10 f i GuPCMContactCapsuleHeightField.obj
 0001:00113be0       ?onEvent@?$PCMHeightfieldContactGenerationCallback@UPCMCapsuleVsHeightfieldContactGenerationCallback@physx@@@Gu@physx@@UAE_NIPAI@Z 10114be0 f i GuPCMContactCapsuleHeightField.obj
 0001:00113fc0       ?prioritizeContactPatches@PCMMeshContactGeneration@Gu@physx@@QAEXXZ 10114fc0 f i GuPCMContactCapsuleHeightField.obj
 0001:00114100       ?processContacts@PCMMeshContactGeneration@Gu@physx@@QAEXE_N@Z 10115100 f i GuPCMContactCapsuleHeightField.obj
 0001:00114240       ?pcmContactCapsuleMesh@Gu@physx@@YA_NABVGeometryUnion@12@0ABVPxTransform@2@1ABUNarrowPhaseParams@12@AAUCache@12@AAVContactBuffer@12@PAVRenderOutput@Cm@2@@Z 10115240 f   GuPCMContactCapsuleMesh.obj
 0001:00114770       ??$processTriangleCache@$0BA@@PCMCapsuleVsMeshContactGenerationCallback@physx@@QAEXAAU?$TriangleCache@$0BA@@Gu@1@@Z 10115770 f i GuPCMContactCapsuleMesh.obj
 0001:00114790       ??0?$PCMMeshContactGenerationCallback@UPCMCapsuleVsMeshContactGenerationCallback@physx@@@Gu@physx@@QAE@ABVFastVertex2ShapeScaling@Cm@2@PBE_N@Z 10115790 f i GuPCMContactCapsuleMesh.obj
 0001:001147e0       ??0PCMCapsuleVsMeshContactGenerationCallback@physx@@QAE@ABVCapsuleV@Gu@1@ABT__m128@@1ABVPsTransformV@aos@shdfnd@1@2AAVMultiplePersistentContactManifold@31@AAVContactBuffer@31@PBEABVFastVertex2ShapeScaling@Cm@1@_NPAV?$InlineArray@I$0EEA@VNamedAllocator@shdfnd@physx@@@71@PAVRenderOutput@Cm@1@@Z 101157e0 f i GuPCMContactCapsuleMesh.obj
 0001:00114840       ??1?$PCMMeshContactGenerationCallback@UPCMCapsuleVsMeshContactGenerationCallback@physx@@@Gu@physx@@UAE@XZ 10115840 f i GuPCMContactCapsuleMesh.obj
 0001:00114860       ??1PCMCapsuleVsMeshContactGenerationCallback@physx@@UAE@XZ 10115860 f i GuPCMContactCapsuleMesh.obj
 0001:00114880       ??_G?$PCMMeshContactGenerationCallback@UPCMCapsuleVsMeshContactGenerationCallback@physx@@@Gu@physx@@UAEPAXI@Z 10115880 f i GuPCMContactCapsuleMesh.obj
 0001:00114880       ??_E?$PCMMeshContactGenerationCallback@UPCMCapsuleVsMeshContactGenerationCallback@physx@@@Gu@physx@@UAEPAXI@Z 10115880 f i GuPCMContactCapsuleMesh.obj
 0001:001148c0       ??_GPCMCapsuleVsMeshContactGenerationCallback@physx@@UAEPAXI@Z 101158c0 f i GuPCMContactCapsuleMesh.obj
 0001:001148c0       ??_EPCMCapsuleVsMeshContactGenerationCallback@physx@@UAEPAXI@Z 101158c0 f i GuPCMContactCapsuleMesh.obj
 0001:00114900       ?doTest@PCMCapsuleVsMeshContactGenerationCallback@physx@@QAE_NABVPxVec3@2@00@Z 10115900 f i GuPCMContactCapsuleMesh.obj
 0001:00114910       ?flushCache@?$PCMMeshContactGenerationCallback@UPCMCapsuleVsMeshContactGenerationCallback@physx@@@Gu@physx@@QAEXXZ 10115910 f i GuPCMContactCapsuleMesh.obj
 0001:00114950       ?isEmpty@?$TriangleCache@$0BA@@Gu@physx@@QBE_NXZ 10115950 f i GuPCMContactCapsuleMesh.obj
 0001:00114980       ?isFull@?$TriangleCache@$0BA@@Gu@physx@@QBE_NXZ 10115980 f i GuPCMContactCapsuleMesh.obj
 0001:001149b0       ?processHit@?$PCMMeshContactGenerationCallback@UPCMCapsuleVsMeshContactGenerationCallback@physx@@@Gu@physx@@UAE_NABUPxRaycastHit@3@ABVPxVec3@3@11AAMPBI@Z 101159b0 f i GuPCMContactCapsuleMesh.obj
 0001:00114b50       ?reset@?$TriangleCache@$0BA@@Gu@physx@@QAEXXZ 10115b50 f i GuPCMContactCapsuleMesh.obj
 0001:00114b70       ?generateLastContacts@PCMConvexVsMeshContactGeneration@Gu@physx@@QAEXXZ 10115b70 f   GuPCMContactConvexCommon.obj
 0001:00114fd0       ?addContactsToPatch@PCMConvexVsMeshContactGeneration@Gu@physx@@QAEXABT__m128@@I@Z 10115fd0 f   GuPCMContactConvexCommon.obj
 0001:00115310       ?processTriangle@PCMConvexVsMeshContactGeneration@Gu@physx@@QAE_NPBVPxVec3@3@IEPBI@Z 10116310 f   GuPCMContactConvexCommon.obj
 0001:001157a0       ?processTriangle@PCMConvexVsMeshContactGeneration@Gu@physx@@SA_NABUPolygonalData@23@PAVSupportLocal@23@PBVPxVec3@3@IEABT__m128@@_NABVPsTransformV@aos@shdfnd@3@ABVPsMatTransformV@9shdfnd@3@PAVMeshPersistentContact@23@AAI@Z 101167a0 f   GuPCMContactConvexCommon.obj
 0001:00115a40       ?processTriangle@PCMSphereVsMeshContactGeneration@Gu@physx@@QAE_NPBVPxVec3@3@IEPBI@Z 10116a40 f   GuPCMContactConvexCommon.obj
 0001:00115f60       ?generateLastContacts@PCMSphereVsMeshContactGeneration@Gu@physx@@QAEXXZ 10116f60 f   GuPCMContactConvexCommon.obj
 0001:001161c0       ?addToPatch@PCMSphereVsMeshContactGeneration@Gu@physx@@QAEXABT__m128@@0T4@I@Z 101171c0 f   GuPCMContactConvexCommon.obj
 0001:00116580       ?generateEEContacts@PCMCapsuleVsMeshContactGeneration@Gu@physx@@QAEXABT__m128@@000I000PAVMeshPersistentContact@23@AAI@Z 10117580 f   GuPCMContactConvexCommon.obj
 0001:00116620       ?generateEE@PCMCapsuleVsMeshContactGeneration@Gu@physx@@QAEXABT__m128@@000I00PAVMeshPersistentContact@23@AAI@Z 10117620 f   GuPCMContactConvexCommon.obj
 0001:00116ae0       ?generateContacts@PCMCapsuleVsMeshContactGeneration@Gu@physx@@SA_NABT__m128@@0000I000PAVMeshPersistentContact@23@AAI@Z 10117ae0 f   GuPCMContactConvexCommon.obj
 0001:00117370       ?generateEEContactsMTD@PCMCapsuleVsMeshContactGeneration@Gu@physx@@SAXABT__m128@@000I000PAVMeshPersistentContact@23@AAI@Z 10118370 f   GuPCMContactConvexCommon.obj
 0001:00117400       ?generateEEMTD@PCMCapsuleVsMeshContactGeneration@Gu@physx@@SAXABT__m128@@000I00PAVMeshPersistentContact@23@AAI@Z 10118400 f   GuPCMContactConvexCommon.obj
 0001:00117830       ?processTriangle@PCMCapsuleVsMeshContactGeneration@Gu@physx@@QAE_NPBVPxVec3@3@IEPBI@Z 10118830 f   GuPCMContactConvexCommon.obj
 0001:00118010       ?processTriangle@PCMCapsuleVsMeshContactGeneration@Gu@physx@@SA_NABVTriangleV@23@IABVCapsuleV@23@ABT__m128@@EPAVMeshPersistentContact@23@AAI@Z 10119010 f   GuPCMContactConvexCommon.obj
 0001:00118f90       ?pcmDistanceSegmentTriangleSquared@Gu@physx@@YA?AT__m128@@ABT3@0000AAT3@11@Z 10119f90 f   GuPCMContactConvexCommon.obj
 0001:0011a060       ??$PX_UNUSED@PBI@@YAXABQBI@Z 1011b060 f i GuPCMContactConvexCommon.obj
 0001:0011a070       ??$median3@USortedTriangle@Gu@physx@@$$CBU?$Less@USortedTriangle@Gu@physx@@@shdfnd@3@@internal@shdfnd@physx@@YAXPAUSortedTriangle@Gu@2@HHABU?$Less@USortedTriangle@Gu@physx@@@12@@Z 1011b070 f i GuPCMContactConvexCommon.obj
 0001:0011a170       ??$partition@USortedTriangle@Gu@physx@@$$CBU?$Less@USortedTriangle@Gu@physx@@@shdfnd@3@@internal@shdfnd@physx@@YAHPAUSortedTriangle@Gu@2@HHABU?$Less@USortedTriangle@Gu@physx@@@12@@Z 1011b170 f i GuPCMContactConvexCommon.obj
 0001:0011a2e0       ??$smallSort@USortedTriangle@Gu@physx@@$$CBU?$Less@USortedTriangle@Gu@physx@@@shdfnd@3@@internal@shdfnd@physx@@YAXPAUSortedTriangle@Gu@2@HHABU?$Less@USortedTriangle@Gu@physx@@@12@@Z 1011b2e0 f i GuPCMContactConvexCommon.obj
 0001:0011a380       ??$sort@USortedTriangle@Gu@physx@@U?$Less@USortedTriangle@Gu@physx@@@shdfnd@3@@shdfnd@physx@@YAXPAUSortedTriangle@Gu@1@IABU?$Less@USortedTriangle@Gu@physx@@@01@@Z 1011b380 f i GuPCMContactConvexCommon.obj
 0001:0011a3c0       ??$sort@USortedTriangle@Gu@physx@@U?$Less@USortedTriangle@Gu@physx@@@shdfnd@3@VNamedAllocator@53@@shdfnd@physx@@YAXPAUSortedTriangle@Gu@1@IABU?$Less@USortedTriangle@Gu@physx@@@01@ABVNamedAllocator@01@I@Z 1011b3c0 f i GuPCMContactConvexCommon.obj
 0001:0011a600       ??$swap@USortedTriangle@Gu@physx@@@shdfnd@physx@@YAXAAUSortedTriangle@Gu@1@0@Z 1011b600 f i GuPCMContactConvexCommon.obj
 0001:0011a650       ??0?$Stack@VNamedAllocator@shdfnd@physx@@@internal@shdfnd@physx@@QAE@PAHIABVNamedAllocator@23@@Z 1011b650 f i GuPCMContactConvexCommon.obj
 0001:0011a690       ??0?$SupportLocalImpl@VTriangleV@Gu@physx@@@Gu@physx@@QAE@ABVTriangleV@12@ABVPsTransformV@aos@shdfnd@2@ABUMat33V@562@2_N@Z 1011b690 f i GuPCMContactConvexCommon.obj
 0001:0011a6d0       ??0TriangleV@Gu@physx@@QAE@PBVPxVec3@2@@Z 1011b6d0 f i GuPCMContactConvexCommon.obj
 0001:0011a850       ??1?$Stack@VNamedAllocator@shdfnd@physx@@@internal@shdfnd@physx@@QAE@XZ 1011b850 f i GuPCMContactConvexCommon.obj
 0001:0011a880       ??1?$SupportLocalImpl@VTriangleV@Gu@physx@@@Gu@physx@@UAE@XZ 1011b880 f i GuPCMContactConvexCommon.obj
 0001:0011a8a0       ??A?$Array@USortedTriangle@Gu@physx@@V?$InlineAllocator@$0IAA@VNamedAllocator@shdfnd@physx@@@shdfnd@3@@shdfnd@physx@@QAEAAUSortedTriangle@Gu@2@I@Z 1011b8a0 f i GuPCMContactConvexCommon.obj
 0001:0011a910       ??MSortedTriangle@Gu@physx@@QBE_NABU012@@Z 1011b910 f i GuPCMContactConvexCommon.obj
 0001:0011a950       ??R?$Less@USortedTriangle@Gu@physx@@@shdfnd@physx@@QBE_NABUSortedTriangle@Gu@2@0@Z 1011b950 f i GuPCMContactConvexCommon.obj
 0001:0011a970       ??_G?$SupportLocalImpl@VTriangleV@Gu@physx@@@Gu@physx@@UAEPAXI@Z 1011b970 f i GuPCMContactConvexCommon.obj
 0001:0011a970       ??_E?$SupportLocalImpl@VTriangleV@Gu@physx@@@Gu@physx@@UAEPAXI@Z 1011b970 f i GuPCMContactConvexCommon.obj
 0001:0011a9a0       ?V4PermXZXZ@aos@shdfnd@physx@@YA?AT__m128@@T4@@Z 1011b9a0 f i GuPCMContactConvexCommon.obj
 0001:0011a9e0       ?V4PermYWYW@aos@shdfnd@physx@@YA?AT__m128@@T4@@Z 1011b9e0 f i GuPCMContactConvexCommon.obj
 0001:0011aa20       ?V4PermYXWZ@aos@shdfnd@physx@@YA?AT__m128@@T4@@Z 1011ba20 f i GuPCMContactConvexCommon.obj
 0001:0011aa60       ?addManifoldPointToPatch@PCMMeshContactGeneration@Gu@physx@@QAEXABT__m128@@0I@Z 1011ba60 f i GuPCMContactConvexCommon.obj
 0001:0011ad40       ?allocate@?$Array@USortedTriangle@Gu@physx@@V?$InlineAllocator@$0IAA@VNamedAllocator@shdfnd@physx@@@shdfnd@3@@shdfnd@physx@@IAEPAUSortedTriangle@Gu@3@I@Z 1011bd40 f i GuPCMContactConvexCommon.obj
 0001:0011adb0       ?allocate@?$InlineAllocator@$0IAA@VNamedAllocator@shdfnd@physx@@@shdfnd@physx@@QAEPAXIPBDH@Z 1011bdb0 f i GuPCMContactConvexCommon.obj
 0001:0011ae00       ?begin@?$Array@USortedTriangle@Gu@physx@@V?$InlineAllocator@$0IAA@VNamedAllocator@shdfnd@physx@@@shdfnd@3@@shdfnd@physx@@QAEPAUSortedTriangle@Gu@3@XZ 1011be00 f i GuPCMContactConvexCommon.obj
 0001:0011ae20       ?capacity@?$Array@USortedTriangle@Gu@physx@@V?$InlineAllocator@$0IAA@VNamedAllocator@shdfnd@physx@@@shdfnd@3@@shdfnd@physx@@QBEIXZ 1011be20 f i GuPCMContactConvexCommon.obj
 0001:0011ae40       ?capacityIncrement@?$Array@USortedTriangle@Gu@physx@@V?$InlineAllocator@$0IAA@VNamedAllocator@shdfnd@physx@@@shdfnd@3@@shdfnd@physx@@IBEIXZ 1011be40 f i GuPCMContactConvexCommon.obj
 0001:0011ae80       ?copy@?$Array@USortedTriangle@Gu@physx@@V?$InlineAllocator@$0IAA@VNamedAllocator@shdfnd@physx@@@shdfnd@3@@shdfnd@physx@@KAXPAUSortedTriangle@Gu@3@0PBU453@@Z 1011be80 f i GuPCMContactConvexCommon.obj
 0001:0011aee0       ?deallocate@?$Array@USortedTriangle@Gu@physx@@V?$InlineAllocator@$0IAA@VNamedAllocator@shdfnd@physx@@@shdfnd@3@@shdfnd@physx@@IAEXPAX@Z 1011bee0 f i GuPCMContactConvexCommon.obj
 0001:0011af00       ?deallocate@?$InlineAllocator@$0IAA@VNamedAllocator@shdfnd@physx@@@shdfnd@physx@@QAEXPAX@Z 1011bf00 f i GuPCMContactConvexCommon.obj
 0001:0011af30       ?destroy@?$Array@USortedTriangle@Gu@physx@@V?$InlineAllocator@$0IAA@VNamedAllocator@shdfnd@physx@@@shdfnd@3@@shdfnd@physx@@KAXPAUSortedTriangle@Gu@3@0@Z 1011bf30 f i GuPCMContactConvexCommon.obj
 0001:0011af50       ?doSupport@?$SupportLocalImpl@VTriangleV@Gu@physx@@@Gu@physx@@UBE?AT__m128@@ABT4@@Z 1011bf50 f i GuPCMContactConvexCommon.obj
 0001:0011af80       ?doSupport@?$SupportLocalImpl@VTriangleV@Gu@physx@@@Gu@physx@@UBEXABT__m128@@AAT4@1@Z 1011bf80 f i GuPCMContactConvexCommon.obj
 0001:0011afb0       ?empty@?$Stack@VNamedAllocator@shdfnd@physx@@@internal@shdfnd@physx@@QAE_NXZ 1011bfb0 f i GuPCMContactConvexCommon.obj
 0001:0011afe0       ?get@?$CacheMap@UCachedEdge@Gu@physx@@$0IA@@Gu@physx@@QBEPBUCachedEdge@23@ABU423@@Z 1011bfe0 f i GuPCMContactConvexCommon.obj
 0001:0011b060       ?grow@?$Stack@VNamedAllocator@shdfnd@physx@@@internal@shdfnd@physx@@QAEXXZ 1011c060 f i GuPCMContactConvexCommon.obj
 0001:0011b0f0       ?growAndPushBack@?$Array@USortedTriangle@Gu@physx@@V?$InlineAllocator@$0IAA@VNamedAllocator@shdfnd@physx@@@shdfnd@3@@shdfnd@physx@@IAEAAUSortedTriangle@Gu@3@ABU453@@Z 1011c0f0 f i GuPCMContactConvexCommon.obj
 0001:0011b250       ?isInUserMemory@?$Array@USortedTriangle@Gu@physx@@V?$InlineAllocator@$0IAA@VNamedAllocator@shdfnd@physx@@@shdfnd@3@@shdfnd@physx@@QBEIXZ 1011c250 f i GuPCMContactConvexCommon.obj
 0001:0011b270       ?isValidTriangleBarycentricCoord2@Gu@physx@@YA?AT__m128@@ABT3@@Z 1011c270 f i GuPCMContactConvexCommon.obj
 0001:0011b450       ?pcmDistanceSegmentSegmentSquared4@Gu@physx@@YA?AT__m128@@ABT3@000000000AAT3@1@Z 1011c450 f i GuPCMContactConvexCommon.obj
 0001:0011c0d0       ?pop@?$Stack@VNamedAllocator@shdfnd@physx@@@internal@shdfnd@physx@@QAEXAAH0@Z 1011d0d0 f i GuPCMContactConvexCommon.obj
 0001:0011c170       ?populateVerts@?$SupportLocalImpl@VTriangleV@Gu@physx@@@Gu@physx@@UBEXPBEIPBVPxVec3@3@PAT__m128@@@Z 1011d170 f i GuPCMContactConvexCommon.obj
 0001:0011c1a0       ?populateVerts@TriangleV@Gu@physx@@QBEXPBEIPBVPxVec3@3@PAT__m128@@@Z 1011d1a0 f i GuPCMContactConvexCommon.obj
 0001:0011c210       ?push@?$Stack@VNamedAllocator@shdfnd@physx@@@internal@shdfnd@physx@@QAEXHH@Z 1011d210 f i GuPCMContactConvexCommon.obj
 0001:0011c280       ?pushBack@?$Array@USortedTriangle@Gu@physx@@V?$InlineAllocator@$0IAA@VNamedAllocator@shdfnd@physx@@@shdfnd@3@@shdfnd@physx@@QAEAAUSortedTriangle@Gu@3@ABU453@@Z 1011d280 f i GuPCMContactConvexCommon.obj
 0001:0011c320       ?size@?$Array@USortedTriangle@Gu@physx@@V?$InlineAllocator@$0IAA@VNamedAllocator@shdfnd@physx@@@shdfnd@3@@shdfnd@physx@@QBEIXZ 1011d320 f i GuPCMContactConvexCommon.obj
 0001:0011c340       ?supportLocal@TriangleV@Gu@physx@@QBEXABT__m128@@AAT4@1@Z 1011d340 f i GuPCMContactConvexCommon.obj
 0001:0011c470       ?pcmContactConvexConvex@Gu@physx@@YA_NABVGeometryUnion@12@0ABVPxTransform@2@1ABUNarrowPhaseParams@12@AAUCache@12@AAVContactBuffer@12@PAVRenderOutput@Cm@2@@Z 1011d470 f   GuPCMContactConvexConvex.obj
 0001:0011d310       ??$gjkPenetration@U?$RelativeConvex@VConvexHullNoScaleV@Gu@physx@@@Gu@physx@@U?$LocalConvex@VConvexHullNoScaleV@Gu@physx@@@23@@Gu@physx@@YA?AW4GjkStatus@01@ABU?$RelativeConvex@VConvexHullNoScaleV@Gu@physx@@@01@ABU?$LocalConvex@VConvexHullNoScaleV@Gu@physx@@@01@ABT__m128@@2_NPIAE4AAEAAUGjkOutput@01@@Z 1011e310 f i GuPCMContactConvexConvex.obj
 0001:0011dde0       ??$gjkPenetration@U?$RelativeConvex@VConvexHullNoScaleV@Gu@physx@@@Gu@physx@@U?$LocalConvex@VConvexHullV@Gu@physx@@@23@@Gu@physx@@YA?AW4GjkStatus@01@ABU?$RelativeConvex@VConvexHullNoScaleV@Gu@physx@@@01@ABU?$LocalConvex@VConvexHullV@Gu@physx@@@01@ABT__m128@@2_NPIAE4AAEAAUGjkOutput@01@@Z 1011ede0 f i GuPCMContactConvexConvex.obj
 0001:0011e8b0       ??$gjkPenetration@U?$RelativeConvex@VConvexHullV@Gu@physx@@@Gu@physx@@U?$LocalConvex@VConvexHullNoScaleV@Gu@physx@@@23@@Gu@physx@@YA?AW4GjkStatus@01@ABU?$RelativeConvex@VConvexHullV@Gu@physx@@@01@ABU?$LocalConvex@VConvexHullNoScaleV@Gu@physx@@@01@ABT__m128@@2_NPIAE4AAEAAUGjkOutput@01@@Z 1011f8b0 f i GuPCMContactConvexConvex.obj
 0001:0011f380       ??0?$RelativeConvex@VConvexHullNoScaleV@Gu@physx@@@Gu@physx@@QAE@ABVConvexHullNoScaleV@12@ABVPsMatTransformV@aos@shdfnd@2@@Z 10120380 f i GuPCMContactConvexConvex.obj
 0001:0011f3e0       ??1?$RelativeConvex@VConvexHullNoScaleV@Gu@physx@@@Gu@physx@@UAE@XZ 101203e0 f i GuPCMContactConvexConvex.obj
 0001:0011f400       ??_G?$RelativeConvex@VConvexHullNoScaleV@Gu@physx@@@Gu@physx@@UAEPAXI@Z 10120400 f i GuPCMContactConvexConvex.obj
 0001:0011f400       ??_E?$RelativeConvex@VConvexHullNoScaleV@Gu@physx@@@Gu@physx@@UAEPAXI@Z 10120400 f i GuPCMContactConvexConvex.obj
 0001:0011f430       ?getCenter@?$RelativeConvex@VConvexHullNoScaleV@Gu@physx@@@Gu@physx@@UBE?AT__m128@@XZ 10120430 f i GuPCMContactConvexConvex.obj
 0001:0011f480       ?getSweepMargin@?$RelativeConvex@VConvexHullNoScaleV@Gu@physx@@@Gu@physx@@UBE?AT__m128@@XZ 10120480 f i GuPCMContactConvexConvex.obj
 0001:0011f4b0       ?support@?$RelativeConvex@VConvexHullNoScaleV@Gu@physx@@@Gu@physx@@UBE?AT__m128@@ABT4@@Z 101204b0 f i GuPCMContactConvexConvex.obj
 0001:0011f4f0       ?support@?$RelativeConvex@VConvexHullNoScaleV@Gu@physx@@@Gu@physx@@UBE?AT__m128@@ABT4@AAH@Z 101204f0 f i GuPCMContactConvexConvex.obj
 0001:0011f530       ?supportPoint@?$RelativeConvex@VConvexHullNoScaleV@Gu@physx@@@Gu@physx@@UBE?AT__m128@@H@Z 10120530 f i GuPCMContactConvexConvex.obj
 0001:0011f580       ?supportRelative@ConvexHullNoScaleV@Gu@physx@@QBE?AT__m128@@ABT4@ABVPsMatTransformV@aos@shdfnd@3@1@Z 10120580 f i GuPCMContactConvexConvex.obj
 0001:0011f5e0       ?supportRelative@ConvexHullNoScaleV@Gu@physx@@QBE?AT__m128@@ABT4@ABVPsMatTransformV@aos@shdfnd@3@1AAH@Z 101205e0 f i GuPCMContactConvexConvex.obj
 0001:0011f640       ?pcmContactBoxHeightField@Gu@physx@@YA_NABVGeometryUnion@12@0ABVPxTransform@2@1ABUNarrowPhaseParams@12@AAUCache@12@AAVContactBuffer@12@PAVRenderOutput@Cm@2@@Z 10120640 f   GuPCMContactConvexHeightField.obj
 0001:0011f880       ?pcmContactConvexHeightField@Gu@physx@@YA_NABVGeometryUnion@12@0ABVPxTransform@2@1ABUNarrowPhaseParams@12@AAUCache@12@AAVContactBuffer@12@PAVRenderOutput@Cm@2@@Z 10120880 f   GuPCMContactConvexHeightField.obj
 0001:0011fb80       ?PCMContactConvexHeightfield@Gu@physx@@YA_NABUPolygonalData@12@PAVSupportLocal@12@ABT__m128@@ABVPxBounds3@2@ABVPxHeightFieldGeometry@2@ABVPxTransform@2@5MAAVContactBuffer@12@ABVFastVertex2ShapeScaling@Cm@2@_NAAVMultiplePersistentContactManifold@12@PAVRenderOutput@Cm@2@@Z 10120b80 f   GuPCMContactConvexHeightField.obj
 0001:0011ff90       ??$processTriangleCache@$0BA@@PCMConvexVsHeightfieldContactGenerationCallback@physx@@QAEXAAU?$TriangleCache@$0BA@@Gu@1@@Z 10120f90 f i GuPCMContactConvexHeightField.obj
 0001:0011ffb0       ??$processTriangleCache@$0BA@VPCMConvexVsMeshContactGeneration@Gu@physx@@@PCMMeshContactGeneration@Gu@physx@@QAE_NAAU?$TriangleCache@$0BA@@12@@Z 10120fb0 f i GuPCMContactConvexHeightField.obj
 0001:00120050       ??0?$PCMHeightfieldContactGenerationCallback@UPCMConvexVsHeightfieldContactGenerationCallback@physx@@@Gu@physx@@QAE@ABVHeightFieldUtil@12@ABVPxTransform@2@@Z 10121050 f i GuPCMContactConvexHeightField.obj
 0001:001200e0       ??0PCMConvexVsHeightfieldContactGenerationCallback@physx@@QAE@ABT__m128@@0ABUPolygonalData@Gu@1@PAVSupportLocal@41@ABVFastVertex2ShapeScaling@Cm@1@_NABVPsTransformV@aos@shdfnd@1@5ABVPxTransform@1@AAVMultiplePersistentContactManifold@41@AAVContactBuffer@41@AAVHeightFieldUtil@41@PAV?$InlineArray@I$0EEA@VNamedAllocator@shdfnd@physx@@@shdfnd@1@4PAVRenderOutput@71@@Z 101210e0 f i GuPCMContactConvexHeightField.obj
 0001:00120150       ??0PCMConvexVsMeshContactGeneration@Gu@physx@@QAE@ABT__m128@@0ABVPsTransformV@aos@shdfnd@2@1AAVMultiplePersistentContactManifold@12@AAVContactBuffer@12@ABUPolygonalData@12@PAVSupportLocal@12@PAV?$InlineArray@I$0EEA@VNamedAllocator@shdfnd@physx@@@62@ABVFastVertex2ShapeScaling@Cm@2@_N8PAVRenderOutput@Cm@2@@Z 10121150 f i GuPCMContactConvexHeightField.obj
 0001:00120230       ??1?$PCMHeightfieldContactGenerationCallback@UPCMConvexVsHeightfieldContactGenerationCallback@physx@@@Gu@physx@@UAE@XZ 10121230 f i GuPCMContactConvexHeightField.obj
 0001:00120250       ??1PCMConvexVsHeightfieldContactGenerationCallback@physx@@UAE@XZ 10121250 f i GuPCMContactConvexHeightField.obj
 0001:00120270       ??_G?$PCMHeightfieldContactGenerationCallback@UPCMConvexVsHeightfieldContactGenerationCallback@physx@@@Gu@physx@@UAEPAXI@Z 10121270 f i GuPCMContactConvexHeightField.obj
 0001:00120270       ??_E?$PCMHeightfieldContactGenerationCallback@UPCMConvexVsHeightfieldContactGenerationCallback@physx@@@Gu@physx@@UAEPAXI@Z 10121270 f i GuPCMContactConvexHeightField.obj
 0001:001202a0       ??_GPCMConvexVsHeightfieldContactGenerationCallback@physx@@UAEPAXI@Z 101212a0 f i GuPCMContactConvexHeightField.obj
 0001:001202a0       ??_EPCMConvexVsHeightfieldContactGenerationCallback@physx@@UAEPAXI@Z 101212a0 f i GuPCMContactConvexHeightField.obj
 0001:001202e0       ?onEvent@?$PCMHeightfieldContactGenerationCallback@UPCMConvexVsHeightfieldContactGenerationCallback@physx@@@Gu@physx@@UAE_NIPAI@Z 101212e0 f i GuPCMContactConvexHeightField.obj
 0001:001206c0       ?pcmContactBoxMesh@Gu@physx@@YA_NABVGeometryUnion@12@0ABVPxTransform@2@1ABUNarrowPhaseParams@12@AAUCache@12@AAVContactBuffer@12@PAVRenderOutput@Cm@2@@Z 101216c0 f   GuPCMContactConvexMesh.obj
 0001:001208e0       ?pcmContactConvexMesh@Gu@physx@@YA_NABVGeometryUnion@12@0ABVPxTransform@2@1ABUNarrowPhaseParams@12@AAUCache@12@AAVContactBuffer@12@PAVRenderOutput@Cm@2@@Z 101218e0 f   GuPCMContactConvexMesh.obj
 0001:00120be0       ?PCMContactConvexMesh@Gu@physx@@YA_NABUPolygonalData@12@PAVSupportLocal@12@ABT__m128@@ABVPxBounds3@2@ABUPxTriangleMeshGeometryLL@2@ABVPxTransform@2@5MAAVContactBuffer@12@ABVFastVertex2ShapeScaling@Cm@2@7_N8AAVMultiplePersistentContactManifold@12@PAVRenderOutput@Cm@2@@Z 10121be0 f   GuPCMContactConvexMesh.obj
 0001:00121000       ??$processTriangleCache@$0BA@@PCMConvexVsMeshContactGenerationCallback@physx@@QAEXAAU?$TriangleCache@$0BA@@Gu@1@@Z 10122000 f i GuPCMContactConvexMesh.obj
 0001:00121020       ??0?$PCMMeshContactGenerationCallback@UPCMConvexVsMeshContactGenerationCallback@physx@@@Gu@physx@@QAE@ABVFastVertex2ShapeScaling@Cm@2@PBE_N@Z 10122020 f i GuPCMContactConvexMesh.obj
 0001:00121070       ??0PCMConvexVsMeshContactGenerationCallback@physx@@QAE@ABT__m128@@0ABVPsTransformV@aos@shdfnd@1@1AAVMultiplePersistentContactManifold@Gu@1@AAVContactBuffer@71@ABUPolygonalData@71@PAVSupportLocal@71@PAV?$InlineArray@I$0EEA@VNamedAllocator@shdfnd@physx@@@51@ABVFastVertex2ShapeScaling@Cm@1@_N7PBE88ABVBoxPadded@71@PAVRenderOutput@Cm@1@@Z 10122070 f i GuPCMContactConvexMesh.obj
 0001:001210f0       ??1?$PCMMeshContactGenerationCallback@UPCMConvexVsMeshContactGenerationCallback@physx@@@Gu@physx@@UAE@XZ 101220f0 f i GuPCMContactConvexMesh.obj
 0001:00121110       ??1PCMConvexVsMeshContactGenerationCallback@physx@@UAE@XZ 10122110 f i GuPCMContactConvexMesh.obj
 0001:00121130       ??_E?$PCMMeshContactGenerationCallback@UPCMConvexVsMeshContactGenerationCallback@physx@@@Gu@physx@@UAEPAXI@Z 10122130 f i GuPCMContactConvexMesh.obj
 0001:00121130       ??_G?$PCMMeshContactGenerationCallback@UPCMConvexVsMeshContactGenerationCallback@physx@@@Gu@physx@@UAEPAXI@Z 10122130 f i GuPCMContactConvexMesh.obj
 0001:00121170       ??_GPCMConvexVsMeshContactGenerationCallback@physx@@UAEPAXI@Z 10122170 f i GuPCMContactConvexMesh.obj
 0001:00121170       ??_EPCMConvexVsMeshContactGenerationCallback@physx@@UAEPAXI@Z 10122170 f i GuPCMContactConvexMesh.obj
 0001:001211b0       ?doTest@PCMConvexVsMeshContactGenerationCallback@physx@@QAEHABVPxVec3@2@00@Z 101221b0 f i GuPCMContactConvexMesh.obj
 0001:001211e0       ?flushCache@?$PCMMeshContactGenerationCallback@UPCMConvexVsMeshContactGenerationCallback@physx@@@Gu@physx@@QAEXXZ 101221e0 f i GuPCMContactConvexMesh.obj
 0001:00121220       ?processHit@?$PCMMeshContactGenerationCallback@UPCMConvexVsMeshContactGenerationCallback@physx@@@Gu@physx@@UAE_NABUPxRaycastHit@3@ABVPxVec3@3@11AAMPBI@Z 10122220 f i GuPCMContactConvexMesh.obj
 0001:001213e0       ?generateFullContactManifold@Gu@physx@@YA_NAAUPolygonalData@12@0PAVSupportLocal@12@1PAVPersistentContact@12@AAIABT__m128@@444MM_NPAVRenderOutput@Cm@2@M@Z 101223e0 f   GuPCMContactGenBoxConvex.obj
 0001:00121be0       ?addGJKEPAContacts@Gu@physx@@YA_NPBUGjkConvex@12@0ABVPsMatTransformV@aos@shdfnd@2@W4GjkStatus@12@PAVPersistentContact@12@T__m128@@4AAUGjkOutput@12@AAVPersistentContactManifold@12@@Z 10122be0 f   GuPCMContactGenBoxConvex.obj
 0001:00121e20       ?computeMTD@Gu@physx@@YA_NAAUPolygonalData@12@0PAVSupportLocal@12@1AAT__m128@@2@Z 10122e20 f   GuPCMContactGenBoxConvex.obj
 0001:00122050       ?buildPartialHull@Gu@physx@@YAXABUPolygonalData@12@PAVSupportLocal@12@AAVSeparatingAxes@12@ABT__m128@@3@Z 10123050 f   GuPCMContactGenBoxConvex.obj
 0001:00123320       ?generatedContacts@Gu@physx@@YAXAAUPolygonalData@12@0ABUHullPolygonData@12@1PAVSupportLocal@12@2ABVPsMatTransformV@aos@shdfnd@2@PAVPersistentContact@12@AAIABT__m128@@PAVRenderOutput@Cm@2@@Z 10124320 f   GuPCMContactGenBoxConvex.obj
 0001:001242d0       ??$PX_UNUSED@UPolygonalData@Gu@physx@@@@YAXABUPolygonalData@Gu@physx@@@Z 101252d0 f i GuPCMContactGenBoxConvex.obj
 0001:001242e0       ??4PxPlane@physx@@QAEAAV01@ABV01@@Z 101252e0 f i GuPCMContactGenBoxConvex.obj
 0001:00124310       ?getPolygonIndex@Gu@physx@@YAHABUPolygonalData@12@PAVSupportLocal@12@ABT__m128@@@Z 10125310 f i GuPCMContactGenBoxConvex.obj
 0001:001247a0       ?getWitnessPolygonIndex@Gu@physx@@YAIABUPolygonalData@12@PAVSupportLocal@12@ABT__m128@@2M@Z 101257a0 f i GuPCMContactGenBoxConvex.obj
 0001:00124b50       ?signed2DTriArea@Gu@physx@@YA?AT__m128@@ABT3@00@Z 10125b50 f i GuPCMContactGenBoxConvex.obj
 0001:00124c50       ?generateFullContactManifold@Gu@physx@@YA_NABVCapsuleV@12@AAUPolygonalData@12@PAVSupportLocal@12@ABVPsMatTransformV@aos@shdfnd@2@PAVPersistentContact@12@AAIABT__m128@@AAT__m128@@6M_NM@Z 10125c50 f   GuPCMContactGenSphereCapsule.obj
 0001:00124e60       ?generateCapsuleBoxFullContactManifold@Gu@physx@@YA_NABVCapsuleV@12@AAUPolygonalData@12@PAVSupportLocal@12@ABVPsMatTransformV@aos@shdfnd@2@PAVPersistentContact@12@AAIABT__m128@@AAT__m128@@6M_NMPAVRenderOutput@Cm@2@@Z 10125e60 f   GuPCMContactGenSphereCapsule.obj
 0001:00125010       ?computeMTD@Gu@physx@@YA_NABVCapsuleV@12@AAUPolygonalData@12@PAVSupportLocal@12@AAT__m128@@3@Z 10126010 f   GuPCMContactGenSphereCapsule.obj
 0001:001250a0       ?generateSphereFullContactManifold@Gu@physx@@YA_NABVCapsuleV@12@AAUPolygonalData@12@PAVSupportLocal@12@PAVPersistentContact@12@AAIABT__m128@@AAT7@_N@Z 101260a0 f   GuPCMContactGenSphereCapsule.obj
 0001:001257a0       ?generatedCapsuleBoxFaceContacts@Gu@physx@@YAXABVCapsuleV@12@AAUPolygonalData@12@ABUHullPolygonData@12@PAVSupportLocal@12@ABVPsMatTransformV@aos@shdfnd@2@PAVPersistentContact@12@AAIABT__m128@@7@Z 101267a0 f   GuPCMContactGenSphereCapsule.obj
 0001:00126560       ?generatedContactsEEContacts@Gu@physx@@YAXABVCapsuleV@12@AAUPolygonalData@12@ABUHullPolygonData@12@PAVSupportLocal@12@ABVPsMatTransformV@aos@shdfnd@2@PAVPersistentContact@12@AAIABT__m128@@7@Z 10127560 f   GuPCMContactGenSphereCapsule.obj
 0001:00126670       ?BAndNot@aos@shdfnd@physx@@YA?AT__m128@@T4@0@Z 10127670 f i GuPCMContactGenSphereCapsule.obj
 0001:001266b0       ?intersectSegmentPolyhedron@Gu@physx@@YA_NABT__m128@@0ABUPolygonalData@12@AAT3@2@Z 101276b0 f i GuPCMContactGenSphereCapsule.obj
 0001:001269b0       ?testPolyDataAxis@Gu@physx@@YA_NABVCapsuleV@12@ABUPolygonalData@12@PAVSupportLocal@12@ABT__m128@@AAT6@4@Z 101279b0 f i GuPCMContactGenSphereCapsule.obj
 0001:00126d70       ?pcmContactPlaneBox@Gu@physx@@YA_NABVGeometryUnion@12@0ABVPxTransform@2@1ABUNarrowPhaseParams@12@AAUCache@12@AAVContactBuffer@12@PAVRenderOutput@Cm@2@@Z 10127d70 f   GuPCMContactPlaneBox.obj
 0001:00127ce0       ?invalidate_PrimitivesPlane@PersistentContactManifold@Gu@physx@@QAEIABVPsTransformV@aos@shdfnd@3@ABT__m128@@1@Z 10128ce0 f i GuPCMContactPlaneBox.obj
 0001:00127de0       ?pcmContactPlaneCapsule@Gu@physx@@YA_NABVGeometryUnion@12@0ABVPxTransform@2@1ABUNarrowPhaseParams@12@AAUCache@12@AAVContactBuffer@12@PAVRenderOutput@Cm@2@@Z 10128de0 f   GuPCMContactPlaneCapsule.obj
 0001:001283b0       ?pcmContactPlaneConvex@Gu@physx@@YA_NABVGeometryUnion@12@0ABVPxTransform@2@1ABUNarrowPhaseParams@12@AAUCache@12@AAVContactBuffer@12@PAVRenderOutput@Cm@2@@Z 101293b0 f   GuPCMContactPlaneConvex.obj
 0001:00128940       ?ConstructVertex2ShapeMatrix@Gu@physx@@YA?AUMat33V@aos@shdfnd@2@ABT__m128@@0@Z 10129940 f i GuPCMContactPlaneConvex.obj
 0001:00128a40       ?pcmContactSphereBox@Gu@physx@@YA_NABVGeometryUnion@12@0ABVPxTransform@2@1ABUNarrowPhaseParams@12@AAUCache@12@AAVContactBuffer@12@PAVRenderOutput@Cm@2@@Z 10129a40 f   GuPCMContactSphereBox.obj
 0001:00129290       ?BAllTrue3@aos@shdfnd@physx@@YA?AT__m128@@T4@@Z 1012a290 f i GuPCMContactSphereBox.obj
 0001:00129310       ?V3Clamp@aos@shdfnd@physx@@YA?AT__m128@@T4@00@Z 1012a310 f i GuPCMContactSphereBox.obj
 0001:00129440       ?pcmContactSphereCapsule@Gu@physx@@YA_NABVGeometryUnion@12@0ABVPxTransform@2@1ABUNarrowPhaseParams@12@AAUCache@12@AAVContactBuffer@12@PAVRenderOutput@Cm@2@@Z 1012a440 f   GuPCMContactSphereCapsule.obj
 0001:001298b0       ?PxcDistancePointSegmentSquared@Gu@physx@@YA?AT__m128@@ABT3@00AAT3@@Z 1012a8b0 f i GuPCMContactSphereCapsule.obj
 0001:00129a50       ?pcmContactSphereConvex@Gu@physx@@YA_NABVGeometryUnion@12@0ABVPxTransform@2@1ABUNarrowPhaseParams@12@AAUCache@12@AAVContactBuffer@12@PAVRenderOutput@Cm@2@@Z 1012aa50 f   GuPCMContactSphereConvex.obj
 0001:0012a820       ?getContactPoint@PersistentContactManifold@Gu@physx@@QAEAAVPersistentContact@23@I@Z 1012b820 f i GuPCMContactSphereConvex.obj
 0001:0012a880       ?pcmContactSphereHeightField@Gu@physx@@YA_NABVGeometryUnion@12@0ABVPxTransform@2@1ABUNarrowPhaseParams@12@AAUCache@12@AAVContactBuffer@12@PAVRenderOutput@Cm@2@@Z 1012b880 f   GuPCMContactSphereHeightField.obj
 0001:0012ad30       ??$processTriangleCache@$0BA@@PCMSphereVsHeightfieldContactGenerationCallback@physx@@QAEXAAU?$TriangleCache@$0BA@@Gu@1@@Z 1012bd30 f i GuPCMContactSphereHeightField.obj
 0001:0012ad50       ??$processTriangleCache@$0BA@VPCMSphereVsMeshContactGeneration@Gu@physx@@@PCMMeshContactGeneration@Gu@physx@@QAE_NAAU?$TriangleCache@$0BA@@12@@Z 1012bd50 f i GuPCMContactSphereHeightField.obj
 0001:0012adf0       ??0?$Array@USortedTriangle@Gu@physx@@V?$InlineAllocator@$0IAA@VNamedAllocator@shdfnd@physx@@@shdfnd@3@@shdfnd@physx@@QAE@ABV?$InlineAllocator@$0IAA@VNamedAllocator@shdfnd@physx@@@12@@Z 1012bdf0 f i GuPCMContactSphereHeightField.obj
 0001:0012ae40       ??0?$InlineAllocator@$0IAA@VNamedAllocator@shdfnd@physx@@@shdfnd@physx@@QAE@ABV012@@Z 1012be40 f i GuPCMContactSphereHeightField.obj
 0001:0012ae70       ??0?$InlineAllocator@$0IAA@VNamedAllocator@shdfnd@physx@@@shdfnd@physx@@QAE@ABVNamedAllocator@12@@Z 1012be70 f i GuPCMContactSphereHeightField.obj
 0001:0012aea0       ??0?$InlineArray@USortedTriangle@Gu@physx@@$0EA@VNamedAllocator@shdfnd@3@@shdfnd@physx@@QAE@ABVNamedAllocator@12@@Z 1012bea0 f i GuPCMContactSphereHeightField.obj
 0001:0012af00       ??0?$PCMHeightfieldContactGenerationCallback@UPCMSphereVsHeightfieldContactGenerationCallback@physx@@@Gu@physx@@QAE@ABVHeightFieldUtil@12@ABVPxTransform@2@@Z 1012bf00 f i GuPCMContactSphereHeightField.obj
 0001:0012af90       ??0PCMSphereVsHeightfieldContactGenerationCallback@physx@@QAE@ABT__m128@@000ABVPsTransformV@aos@shdfnd@1@1ABVPxTransform@1@AAVMultiplePersistentContactManifold@Gu@1@AAVContactBuffer@81@PAV?$InlineArray@I$0EEA@VNamedAllocator@shdfnd@physx@@@51@AAVHeightFieldUtil@81@@Z 1012bf90 f i GuPCMContactSphereHeightField.obj
 0001:0012aff0       ??0PCMSphereVsMeshContactGeneration@Gu@physx@@QAE@ABT__m128@@000ABVPsTransformV@aos@shdfnd@2@1AAVMultiplePersistentContactManifold@12@AAVContactBuffer@12@PAV?$InlineArray@I$0EEA@VNamedAllocator@shdfnd@physx@@@62@PAVRenderOutput@Cm@2@@Z 1012bff0 f i GuPCMContactSphereHeightField.obj
 0001:0012b0c0       ??1?$Array@USortedTriangle@Gu@physx@@V?$InlineAllocator@$0IAA@VNamedAllocator@shdfnd@physx@@@shdfnd@3@@shdfnd@physx@@QAE@XZ 1012c0c0 f i GuPCMContactSphereHeightField.obj
 0001:0012b130       ??1?$InlineAllocator@$0IAA@VNamedAllocator@shdfnd@physx@@@shdfnd@physx@@QAE@XZ 1012c130 f i GuPCMContactSphereHeightField.obj
 0001:0012b150       ??1?$InlineArray@USortedTriangle@Gu@physx@@$0EA@VNamedAllocator@shdfnd@3@@shdfnd@physx@@QAE@XZ 1012c150 f i GuPCMContactSphereHeightField.obj
 0001:0012b170       ??1?$PCMHeightfieldContactGenerationCallback@UPCMSphereVsHeightfieldContactGenerationCallback@physx@@@Gu@physx@@UAE@XZ 1012c170 f i GuPCMContactSphereHeightField.obj
 0001:0012b190       ??1PCMSphereVsHeightfieldContactGenerationCallback@physx@@UAE@XZ 1012c190 f i GuPCMContactSphereHeightField.obj
 0001:0012b1b0       ??1PCMSphereVsMeshContactGeneration@Gu@physx@@QAE@XZ 1012c1b0 f i GuPCMContactSphereHeightField.obj
 0001:0012b1d0       ??_G?$PCMHeightfieldContactGenerationCallback@UPCMSphereVsHeightfieldContactGenerationCallback@physx@@@Gu@physx@@UAEPAXI@Z 1012c1d0 f i GuPCMContactSphereHeightField.obj
 0001:0012b1d0       ??_E?$PCMHeightfieldContactGenerationCallback@UPCMSphereVsHeightfieldContactGenerationCallback@physx@@@Gu@physx@@UAEPAXI@Z 1012c1d0 f i GuPCMContactSphereHeightField.obj
 0001:0012b200       ??_EPCMSphereVsHeightfieldContactGenerationCallback@physx@@UAEPAXI@Z 1012c200 f i GuPCMContactSphereHeightField.obj
 0001:0012b200       ??_GPCMSphereVsHeightfieldContactGenerationCallback@physx@@UAEPAXI@Z 1012c200 f i GuPCMContactSphereHeightField.obj
 0001:0012b240       ?onEvent@?$PCMHeightfieldContactGenerationCallback@UPCMSphereVsHeightfieldContactGenerationCallback@physx@@@Gu@physx@@UAE_NIPAI@Z 1012c240 f i GuPCMContactSphereHeightField.obj
 0001:0012b620       ?pcmContactSphereMesh@Gu@physx@@YA_NABVGeometryUnion@12@0ABVPxTransform@2@1ABUNarrowPhaseParams@12@AAUCache@12@AAVContactBuffer@12@PAVRenderOutput@Cm@2@@Z 1012c620 f   GuPCMContactSphereMesh.obj
 0001:0012bb40       ??$processTriangleCache@$0BA@@PCMSphereVsMeshContactGenerationCallback@physx@@QAEXAAU?$TriangleCache@$0BA@@Gu@1@@Z 1012cb40 f i GuPCMContactSphereMesh.obj
 0001:0012bb60       ??0?$PCMMeshContactGenerationCallback@UPCMSphereVsMeshContactGenerationCallback@physx@@@Gu@physx@@QAE@ABVFastVertex2ShapeScaling@Cm@2@PBE_N@Z 1012cb60 f i GuPCMContactSphereMesh.obj
 0001:0012bbb0       ??0PCMSphereVsMeshContactGenerationCallback@physx@@QAE@ABT__m128@@000ABVPsTransformV@aos@shdfnd@1@1AAVMultiplePersistentContactManifold@Gu@1@AAVContactBuffer@71@PBEABVFastVertex2ShapeScaling@Cm@1@_NPAV?$InlineArray@I$0EEA@VNamedAllocator@shdfnd@physx@@@51@PAVRenderOutput@Cm@1@@Z 1012cbb0 f i GuPCMContactSphereMesh.obj
 0001:0012bc20       ??1?$PCMMeshContactGenerationCallback@UPCMSphereVsMeshContactGenerationCallback@physx@@@Gu@physx@@UAE@XZ 1012cc20 f i GuPCMContactSphereMesh.obj
 0001:0012bc40       ??1PCMSphereVsMeshContactGenerationCallback@physx@@UAE@XZ 1012cc40 f i GuPCMContactSphereMesh.obj
 0001:0012bc70       ??_E?$PCMMeshContactGenerationCallback@UPCMSphereVsMeshContactGenerationCallback@physx@@@Gu@physx@@UAEPAXI@Z 1012cc70 f i GuPCMContactSphereMesh.obj
 0001:0012bc70       ??_G?$PCMMeshContactGenerationCallback@UPCMSphereVsMeshContactGenerationCallback@physx@@@Gu@physx@@UAEPAXI@Z 1012cc70 f i GuPCMContactSphereMesh.obj
 0001:0012bcb0       ??_GPCMSphereVsMeshContactGenerationCallback@physx@@UAEPAXI@Z 1012ccb0 f i GuPCMContactSphereMesh.obj
 0001:0012bcb0       ??_EPCMSphereVsMeshContactGenerationCallback@physx@@UAEPAXI@Z 1012ccb0 f i GuPCMContactSphereMesh.obj
 0001:0012bcf0       ?doTest@PCMSphereVsMeshContactGenerationCallback@physx@@QAE_NABVPxVec3@2@00@Z 1012ccf0 f i GuPCMContactSphereMesh.obj
 0001:0012bd00       ?flushCache@?$PCMMeshContactGenerationCallback@UPCMSphereVsMeshContactGenerationCallback@physx@@@Gu@physx@@QAEXXZ 1012cd00 f i GuPCMContactSphereMesh.obj
 0001:0012bd40       ?processHit@?$PCMMeshContactGenerationCallback@UPCMSphereVsMeshContactGenerationCallback@physx@@@Gu@physx@@UAE_NABUPxRaycastHit@3@ABVPxVec3@3@11AAMPBI@Z 1012cd40 f i GuPCMContactSphereMesh.obj
 0001:0012bee0       ?pcmContactSpherePlane@Gu@physx@@YA_NABVGeometryUnion@12@0ABVPxTransform@2@1ABUNarrowPhaseParams@12@AAUCache@12@AAVContactBuffer@12@PAVRenderOutput@Cm@2@@Z 1012cee0 f   GuPCMContactSpherePlane.obj
 0001:0012c130       ?pcmContactSphereSphere@Gu@physx@@YA_NABVGeometryUnion@12@0ABVPxTransform@2@1ABUNarrowPhaseParams@12@AAUCache@12@AAVContactBuffer@12@PAVRenderOutput@Cm@2@@Z 1012d130 f   GuPCMContactSphereSphere.obj
 0001:0012c4e0       ??0PCMPolygonalBox@Gu@physx@@QAE@ABVPxVec3@2@@Z 1012d4e0 f   GuPCMShapeConvex.obj
 0001:0012ccc0       ?getPolygonalData@PCMPolygonalBox@Gu@physx@@QBEXPIAUPolygonalData@23@@Z 1012dcc0 f   GuPCMShapeConvex.obj
 0001:0012cda0       ?getPCMConvexData@Gu@physx@@YAXABVConvexHullV@12@_NAAUPolygonalData@12@@Z 1012dda0 f   GuPCMShapeConvex.obj
 0001:0012ce30       ?getPCMConvexData@Gu@physx@@YA_NABVGeometryUnion@12@AAVFastVertex2ShapeScaling@Cm@2@AAVPxBounds3@2@AAUPolygonalData@12@@Z 1012de30 f   GuPCMShapeConvex.obj
 0001:0012d160       ?getVerticesByEdges16@ConvexHullData@Gu@physx@@QBEPBGXZ 1012e160 f i GuPCMShapeConvex.obj
 0001:0012d1e0       ?generateTriangleFullContactManifold@PCMConvexVsMeshContactGeneration@Gu@physx@@QAE_NAAVTriangleV@23@IPBIEABUPolygonalData@23@PAV?$SupportLocalImpl@VTriangleV@Gu@physx@@@23@PAVSupportLocal@23@PAVMeshPersistentContact@23@AAIABT__m128@@AAT9@@Z 1012e1e0 f   GuPCMTriangleContactGen.obj
 0001:0012d670       ?generatePolyDataContactManifold@PCMConvexVsMeshContactGeneration@Gu@physx@@QAE_NAAVTriangleV@23@IIEPAVMeshPersistentContact@23@AAIABT__m128@@AAT6@@Z 1012e670 f   GuPCMTriangleContactGen.obj
 0001:0012d760       ?generateTriangleFullContactManifold@PCMConvexVsMeshContactGeneration@Gu@physx@@SA_NAAVTriangleV@23@IEABUPolygonalData@23@PAV?$SupportLocalImpl@VTriangleV@Gu@physx@@@23@PAVSupportLocal@23@PAVMeshPersistentContact@23@AAIABT__m128@@AAT9@PAVRenderOutput@Cm@3@@Z 1012e760 f   GuPCMTriangleContactGen.obj
 0001:001305e0       ??$PX_UNUSED@E@@YAXABE@Z   101315e0 f i GuPCMTriangleContactGen.obj
 0001:001305f0       ??$PX_UNUSED@PAV?$SupportLocalImpl@VTriangleV@Gu@physx@@@Gu@physx@@@@YAXABQAV?$SupportLocalImpl@VTriangleV@Gu@physx@@@Gu@physx@@@Z 101315f0 f i GuPCMTriangleContactGen.obj
 0001:00130600       ?FRsqrtFast@aos@shdfnd@physx@@YA?AT__m128@@T4@@Z 10131600 f i GuPCMTriangleContactGen.obj
 0001:00130680       ?V3AllGrtr@aos@shdfnd@physx@@YAIT__m128@@0@Z 10131680 f i GuPCMTriangleContactGen.obj
 0001:00130750       ?V3LengthSq@aos@shdfnd@physx@@YA?AT__m128@@T4@@Z 10131750 f i GuPCMTriangleContactGen.obj
 0001:001307d0       ?findRotationMatrixFromZAxis@Gu@physx@@YA?AUMat33V@aos@shdfnd@2@ABT__m128@@@Z 101317d0 f   GuPersistentContactManifold.obj
 0001:00130ff0       ?replaceManifoldPoint@PersistentContactManifold@Gu@physx@@QAE_NABT__m128@@000@Z 10131ff0 f   GuPersistentContactManifold.obj
 0001:00131170       ?addManifoldPoint@PersistentContactManifold@Gu@physx@@QAEIABT__m128@@000@Z 10132170 f   GuPersistentContactManifold.obj
 0001:00131250       ?addManifoldPoint2@PersistentContactManifold@Gu@physx@@QAEIABT__m128@@000@Z 10132250 f   GuPersistentContactManifold.obj
 0001:00131360       ?addBatchManifoldContactsCluster@PersistentContactManifold@Gu@physx@@QAEXPBVPersistentContact@23@I@Z 10132360 f   GuPersistentContactManifold.obj
 0001:00131410       ?addBatchManifoldContacts2@PersistentContactManifold@Gu@physx@@QAEXPBVPersistentContact@23@I@Z 10132410 f   GuPersistentContactManifold.obj
 0001:001314c0       ?addBatchManifoldContacts@PersistentContactManifold@Gu@physx@@QAEXPBVPersistentContact@23@IM@Z 101324c0 f   GuPersistentContactManifold.obj
 0001:00131580       ?reduceBatchContactsCluster@PersistentContactManifold@Gu@physx@@QAEXPBVPersistentContact@23@I@Z 10132580 f   GuPersistentContactManifold.obj
 0001:00131d80       ?reduceBatchContacts2@PersistentContactManifold@Gu@physx@@QAEXPBVPersistentContact@23@I@Z 10132d80 f   GuPersistentContactManifold.obj
 0001:00132150       ?reduceBatchContacts@PersistentContactManifold@Gu@physx@@QAEXPBVPersistentContact@23@IM@Z 10133150 f   GuPersistentContactManifold.obj
 0001:00132a70       ?reduceContactsForPCM@PersistentContactManifold@Gu@physx@@QAEIABT__m128@@00@Z 10133a70 f   GuPersistentContactManifold.obj
 0001:00133080       ?reduceContactSegment@PersistentContactManifold@Gu@physx@@QAEIABT__m128@@00@Z 10134080 f   GuPersistentContactManifold.obj
 0001:00133210       ?addManifoldContactsToContactBuffer@PersistentContactManifold@Gu@physx@@QAEXAAVContactBuffer@23@ABT__m128@@ABVPsMatTransformV@aos@shdfnd@3@@Z 10134210 f   GuPersistentContactManifold.obj
 0001:00133450       ?addManifoldContactsToContactBuffer@PersistentContactManifold@Gu@physx@@QAEXAAVContactBuffer@23@ABT__m128@@ABVPsTransformV@aos@shdfnd@3@1@Z 10134450 f   GuPersistentContactManifold.obj
 0001:00133680       ?addManifoldContactsToContactBuffer@PersistentContactManifold@Gu@physx@@QAEXAAVContactBuffer@23@ABT__m128@@1ABVPsTransformV@aos@shdfnd@3@11@Z 10134680 f   GuPersistentContactManifold.obj
 0001:00133810       ?recordWarmStart@PersistentContactManifold@Gu@physx@@QAEXPAE0AAE@Z 10134810 f   GuPersistentContactManifold.obj
 0001:00133880       ?setWarmStart@PersistentContactManifold@Gu@physx@@QAEXPBE0E@Z 10134880 f   GuPersistentContactManifold.obj
 0001:001338f0       ?drawManifold@PersistentContactManifold@Gu@physx@@QAEXAAVRenderOutput@Cm@3@ABVPsTransformV@aos@shdfnd@3@1@Z 101348f0 f   GuPersistentContactManifold.obj
 0001:00133990       ?drawManifold@PersistentContactManifold@Gu@physx@@QAEXAAVRenderOutput@Cm@3@ABVPsTransformV@aos@shdfnd@3@1ABT__m128@@@Z 10134990 f   GuPersistentContactManifold.obj
 0001:00133a30       ?drawManifold@PersistentContactManifold@Gu@physx@@QAEXABVPersistentContact@23@AAVRenderOutput@Cm@3@ABVPsTransformV@aos@shdfnd@3@2@Z 10134a30 f   GuPersistentContactManifold.obj
 0001:00133a70       ?drawPoint@PersistentContactManifold@Gu@physx@@SAXAAVRenderOutput@Cm@3@ABT__m128@@MI@Z 10134a70 f   GuPersistentContactManifold.obj
 0001:00133c10       ?drawLine@PersistentContactManifold@Gu@physx@@SAXAAVRenderOutput@Cm@3@ABT__m128@@1I@Z 10134c10 f   GuPersistentContactManifold.obj
 0001:00133cb0       ?drawTriangle@PersistentContactManifold@Gu@physx@@SAXAAVRenderOutput@Cm@3@ABT__m128@@11I@Z 10134cb0 f   GuPersistentContactManifold.obj
 0001:00133d80       ?drawPolygon@PersistentContactManifold@Gu@physx@@SAXAAVRenderOutput@Cm@3@ABVPsTransformV@aos@shdfnd@3@PAT__m128@@II@Z 10134d80 f   GuPersistentContactManifold.obj
 0001:00133e30       ?drawPolygon@PersistentContactManifold@Gu@physx@@SAXAAVRenderOutput@Cm@3@ABVPsMatTransformV@aos@shdfnd@3@PAT__m128@@II@Z 10134e30 f   GuPersistentContactManifold.obj
 0001:00133ee0       ?reduceBatchContactsConvex@SinglePersistentContactManifold@Gu@physx@@QAE?AT__m128@@PBVMeshPersistentContact@23@IAAUPCMContactPatch@23@@Z 10134ee0 f   GuPersistentContactManifold.obj
 0001:00134810       ?reduceBatchContactsSphere@SinglePersistentContactManifold@Gu@physx@@QAE?AT__m128@@PBVMeshPersistentContact@23@IAAUPCMContactPatch@23@@Z 10135810 f   GuPersistentContactManifold.obj
 0001:00134940       ?reduceBatchContactsCapsule@SinglePersistentContactManifold@Gu@physx@@QAE?AT__m128@@PBVMeshPersistentContact@23@IAAUPCMContactPatch@23@@Z 10135940 f   GuPersistentContactManifold.obj
 0001:00134d30       ?addBatchManifoldContactsConvex@SinglePersistentContactManifold@Gu@physx@@QAE?AT__m128@@PBVMeshPersistentContact@23@IAAUPCMContactPatch@23@ABT4@@Z 10135d30 f   GuPersistentContactManifold.obj
 0001:00134e30       ?addBatchManifoldContactsSphere@SinglePersistentContactManifold@Gu@physx@@QAE?AT__m128@@PBVMeshPersistentContact@23@IAAUPCMContactPatch@23@ABT4@@Z 10135e30 f   GuPersistentContactManifold.obj
 0001:00134ea0       ?addBatchManifoldContactsCapsule@SinglePersistentContactManifold@Gu@physx@@QAE?AT__m128@@PBVMeshPersistentContact@23@IAAUPCMContactPatch@23@ABT4@@Z 10135ea0 f   GuPersistentContactManifold.obj
 0001:00134fa0       ?reduceContacts@SinglePersistentContactManifold@Gu@physx@@SAIPAVMeshPersistentContact@23@I@Z 10135fa0 f   GuPersistentContactManifold.obj
 0001:00135800       ?refreshContactPoints@SinglePersistentContactManifold@Gu@physx@@QAE?AT__m128@@ABVPsMatTransformV@aos@shdfnd@3@ABT4@1@Z 10136800 f   GuPersistentContactManifold.obj
 0001:00135a30       ?drawManifold@SinglePersistentContactManifold@Gu@physx@@QAEXAAVRenderOutput@Cm@3@ABVPsTransformV@aos@shdfnd@3@1@Z 10136a30 f   GuPersistentContactManifold.obj
 0001:00135ad0       ?addManifoldContactPoints@MultiplePersistentContactManifold@Gu@physx@@QAEXPAVMeshPersistentContact@23@IPAPAUPCMContactPatch@23@IABT__m128@@2E@Z 10136ad0 f   GuPersistentContactManifold.obj
 0001:00136080       ?addManifoldContactsToContactBuffer@MultiplePersistentContactManifold@Gu@physx@@QAE_NAAVContactBuffer@23@ABVPsTransformV@aos@shdfnd@3@@Z 10137080 f   GuPersistentContactManifold.obj
 0001:001362e0       ?addManifoldContactsToContactBuffer@MultiplePersistentContactManifold@Gu@physx@@QAE_NAAVContactBuffer@23@ABVPsTransformV@aos@shdfnd@3@1ABT__m128@@@Z 101372e0 f   GuPersistentContactManifold.obj
 0001:00136580       ?drawManifold@MultiplePersistentContactManifold@Gu@physx@@QAEXAAVRenderOutput@Cm@3@ABVPsTransformV@aos@shdfnd@3@1@Z 10137580 f   GuPersistentContactManifold.obj
 0001:001365e0       ?fromBuffer@MultiplePersistentContactManifold@Gu@physx@@QAEXPIAE@Z 101375e0 f   GuPersistentContactManifold.obj
 0001:001368c0       ?drawLine@MultiplePersistentContactManifold@Gu@physx@@SAXAAVRenderOutput@Cm@3@ABT__m128@@1I@Z 101378c0 f   GuPersistentContactManifold.obj
 0001:00136960       ?drawLine@MultiplePersistentContactManifold@Gu@physx@@SAXAAVRenderOutput@Cm@3@VPxVec3@3@1I@Z 10137960 f   GuPersistentContactManifold.obj
 0001:001369c0       ?drawPoint@MultiplePersistentContactManifold@Gu@physx@@SAXAAVRenderOutput@Cm@3@ABT__m128@@MI@Z 101379c0 f   GuPersistentContactManifold.obj
 0001:00136b60       ?drawPolygon@MultiplePersistentContactManifold@Gu@physx@@SAXAAVRenderOutput@Cm@3@ABVPsTransformV@aos@shdfnd@3@PAT__m128@@II@Z 10137b60 f   GuPersistentContactManifold.obj
 0001:00136c10       ?addManifoldPoint@Gu@physx@@YAXPAVPersistentContact@12@AAVPersistentContactManifold@12@AAUGjkOutput@12@ABVPsMatTransformV@aos@shdfnd@2@T__m128@@@Z 10137c10 f   GuPersistentContactManifold.obj
 0001:00138570       ?BTFTT@aos@shdfnd@physx@@YA?AT__m128@@XZ 10139570 f i GuPersistentContactManifold.obj
 0001:001385b0       ?V3SetY@aos@shdfnd@physx@@YA?AT__m128@@T4@0@Z 101395b0 f i GuPersistentContactManifold.obj
 0001:00138690       ?getContactPoint@SinglePersistentContactManifold@Gu@physx@@QAEAAVMeshPersistentContact@23@I@Z 10139690 f i GuPersistentContactManifold.obj
 0001:001386f0       ?getLocalNormal@SinglePersistentContactManifold@Gu@physx@@QAE?AT__m128@@XZ 101396f0 f i GuPersistentContactManifold.obj
 0001:001387a0       ?getNumContacts@SinglePersistentContactManifold@Gu@physx@@QBEIXZ 101397a0 f i GuPersistentContactManifold.obj
 0001:001387c0       ?getWorldNormal@SinglePersistentContactManifold@Gu@physx@@QAE?AT__m128@@ABVPsTransformV@aos@shdfnd@3@@Z 101397c0 f i GuPersistentContactManifold.obj
 0001:00138880       ?removeContactPoint@SinglePersistentContactManifold@Gu@physx@@QAEXI@Z 10139880 f i GuPersistentContactManifold.obj
 0001:00138920       ?sweepBoxBox@Gu@physx@@YA_NABVBox@12@0ABVPxVec3@2@MV?$PxFlags@W4Enum@PxHitFlag@physx@@G@2@AAUPxSweepHit@2@@Z 10139920 f   GuSweepBoxBox.obj
 0001:00139160       ?sweepBoxSphere@Gu@physx@@YA_NABVBox@12@MABVPxVec3@2@1MAAMAAV42@V?$PxFlags@W4Enum@PxHitFlag@physx@@G@2@@Z 1013a160 f   GuSweepBoxSphere.obj
 0001:00139680       ?sweepBoxTriangle@Gu@physx@@YA_NABVPxTriangle@2@ABVPxBounds3@2@ABVPxVec3@2@2AAV52@3AAM_N@Z 1013a680 f   GuSweepBoxTriangle_FeatureBased.obj
 0001:0013a8d0       ??0PxTriangle@physx@@QAE@ABV01@@Z 1013b8d0 f i GuSweepBoxTriangle_FeatureBased.obj
 0001:0013b380       ?triBoxSweepTestBoxSpace@Gu@physx@@YAHABVPxTriangle@2@ABVPxVec3@2@11MAAM_N@Z 1013c380 f   GuSweepBoxTriangle_SAT.obj
 0001:0013b3c0       ?sweepCapsuleBox@Gu@physx@@YA_NABVCapsule@12@ABVPxTransform@2@ABVPxVec3@2@2MAAV52@AAM3V?$PxFlags@W4Enum@PxHitFlag@physx@@G@2@@Z 1013c3c0 f   GuSweepCapsuleBox.obj
 0001:0013bee0       ??0?$ScopedPointer@VPxTriangle@physx@@VTempAllocator@shdfnd@2@@shdfnd@physx@@QAE@XZ 1013cee0 f i GuSweepCapsuleBox.obj
 0001:0013bf00       ??1?$ScopedPointer@VPxTriangle@physx@@VTempAllocator@shdfnd@2@@shdfnd@physx@@QAE@XZ 1013cf00 f i GuSweepCapsuleBox.obj
 0001:0013bf30       ??B?$ScopedPointer@VPxTriangle@physx@@VTempAllocator@shdfnd@2@@shdfnd@physx@@QBEPAVPxTriangle@2@XZ 1013cf30 f i GuSweepCapsuleBox.obj
 0001:0013bf90       ?sweepCapsuleCapsule@Gu@physx@@YA_NABVCapsule@12@0ABVPxVec3@2@MAAMAAV42@3IAAG@Z 1013cf90 f   GuSweepCapsuleCapsule.obj
 0001:0013ccb0       ??B?$PxFlags@W4Enum@PxHitFlag@physx@@G@physx@@QBEGXZ 1013dcb0 f i GuSweepCapsuleCapsule.obj
 0001:0013cd20       ?sweepCapsuleTriangles_Precise@Gu@physx@@YA_NIPIBVPxTriangle@2@ABVCapsule@12@ABVPxVec3@2@MPIBIAAUPxSweepHit@2@AAV52@V?$PxFlags@W4Enum@PxHitFlag@physx@@G@2@_NPBVBoxPadded@12@@Z 1013dd20 f   GuSweepCapsuleTriangle.obj
 0001:0013e1e0       ?computeSphereTriangleImpactData@Gu@physx@@YA_NAAUPxSweepHit@2@AAVPxVec3@2@IMABV42@22PIBVPxTriangle@2@_N4@Z 1013f1e0 f i GuSweepCapsuleTriangle.obj
 0001:0013e2d0       ?getInitIndex@Gu@physx@@YAIPIBII@Z 1013f2d0 f i GuSweepCapsuleTriangle.obj
 0001:0013e390       ?sweepSphereCapsule@Gu@physx@@YA_NABVSphere@12@ABVCapsule@12@ABVPxVec3@2@MAAMAAV52@4V?$PxFlags@W4Enum@PxHitFlag@physx@@G@2@@Z 1013f390 f   GuSweepSphereCapsule.obj
 0001:0013e680       ?sweepSphereSphere@Gu@physx@@YA_NABVPxVec3@2@M0M0AAMAAV32@@Z 1013f680 f   GuSweepSphereSphere.obj
 0001:0013ea10       ?sweepSphereVSTri@Gu@physx@@YA_NPIBVPxVec3@2@ABV32@1M1AAMAA_N_N@Z 1013fa10 f   GuSweepSphereTriangle.obj
 0001:0013eee0       ?sweepSphereVSQuad@Gu@physx@@YA_NPIBVPxVec3@2@ABV32@1M1AAM@Z 1013fee0 f   GuSweepSphereTriangle.obj
 0001:0013f540       ?sweepSphereTriangles@Gu@physx@@YA_NIPIBVPxTriangle@2@ABVPxVec3@2@M1MPIBIAAUPxSweepHit@2@AAV42@_N555@Z 10140540 f   GuSweepSphereTriangle.obj
 0001:0013fc10       ?computeSphereTriImpactData@Gu@physx@@YAXAAVPxVec3@2@0ABV32@1MABVPxTriangle@2@@Z 10140c10 f   GuSweepTriangleUtils.obj
 0001:0013fce0       ?computeBoxTriImpactData@Gu@physx@@YAXAAVPxVec3@2@0ABV32@1ABVPxTriangle@2@M@Z 10140ce0 f   GuSweepTriangleUtils.obj
 0001:0013ff20       ?computeEdgeEdgeNormal@Gu@physx@@YAXAAVPxVec3@2@ABV32@1111M@Z 10140f20 f   GuSweepTriangleUtils.obj
 0001:001404e0       ??$gjk@U?$LocalConvex@VTriangleV@Gu@physx@@@Gu@physx@@U?$LocalConvex@VBoxV@Gu@physx@@@23@@Gu@physx@@YA?AW4GjkStatus@01@ABU?$LocalConvex@VTriangleV@Gu@physx@@@01@ABU?$LocalConvex@VBoxV@Gu@physx@@@01@ABT__m128@@2AAT5@333@Z 101414e0 f i GuSweepTriangleUtils.obj
 0001:00140e9c       __imp_load_?PxGetAssertHandler@physx@@YAAAVPxAssertHandler@1@XZ 10141e9c f   PhysXFoundation_32:PhysXFoundation_32.dll
 0001:00140ea6       ?PxGetAssertHandler@physx@@YAAAVPxAssertHandler@1@XZ 10141ea6 f   PhysXFoundation_32:PhysXFoundation_32.dll
 0001:00140eac       __tailMerge_physxfoundation_32_dll 10141eac     PhysXFoundation_32:PhysXFoundation_32.dll
 0001:00140ebd       __imp_load__PxGetFoundation 10141ebd f   PhysXFoundation_32:PhysXFoundation_32.dll
 0001:00140ec7       _PxGetFoundation           10141ec7 f   PhysXFoundation_32:PhysXFoundation_32.dll
 0001:00140ecd       __imp_load_?getAllocator@shdfnd@physx@@YAAAVPxAllocatorCallback@2@XZ 10141ecd f   PhysXFoundation_32:PhysXFoundation_32.dll
 0001:00140ed7       ?getAllocator@shdfnd@physx@@YAAAVPxAllocatorCallback@2@XZ 10141ed7 f   PhysXFoundation_32:PhysXFoundation_32.dll
 0001:00140edd       __imp_load_?getInstance@Foundation@shdfnd@physx@@SAAAV123@XZ 10141edd f   PhysXFoundation_32:PhysXFoundation_32.dll
 0001:00140ee7       ?getInstance@Foundation@shdfnd@physx@@SAAAV123@XZ 10141ee7 f   PhysXFoundation_32:PhysXFoundation_32.dll
 0001:00140eed       __imp_load_?error@Foundation@shdfnd@physx@@QAAXW4Enum@PxErrorCode@3@PBDH1ZZ 10141eed f   PhysXFoundation_32:PhysXFoundation_32.dll
 0001:00140ef7       ?error@Foundation@shdfnd@physx@@QAAXW4Enum@PxErrorCode@3@PBDH1ZZ 10141ef7 f   PhysXFoundation_32:PhysXFoundation_32.dll
 0001:00140efd       __imp_load_??0NamedAllocator@shdfnd@physx@@QAE@PBD@Z 10141efd f   PhysXFoundation_32:PhysXFoundation_32.dll
 0001:00140f07       ??0NamedAllocator@shdfnd@physx@@QAE@PBD@Z 10141f07 f   PhysXFoundation_32:PhysXFoundation_32.dll
 0001:00140f0d       __imp_load_??1NamedAllocator@shdfnd@physx@@QAE@XZ 10141f0d f   PhysXFoundation_32:PhysXFoundation_32.dll
 0001:00140f17       ??1NamedAllocator@shdfnd@physx@@QAE@XZ 10141f17 f   PhysXFoundation_32:PhysXFoundation_32.dll
 0001:00140f1d       __imp_load_?allocate@NamedAllocator@shdfnd@physx@@QAEPAXIPBDH@Z 10141f1d f   PhysXFoundation_32:PhysXFoundation_32.dll
 0001:00140f27       ?allocate@NamedAllocator@shdfnd@physx@@QAEPAXIPBDH@Z 10141f27 f   PhysXFoundation_32:PhysXFoundation_32.dll
 0001:00140f2d       __imp_load_?deallocate@NamedAllocator@shdfnd@physx@@QAEXPAX@Z 10141f2d f   PhysXFoundation_32:PhysXFoundation_32.dll
 0001:00140f37       ?deallocate@NamedAllocator@shdfnd@physx@@QAEXPAX@Z 10141f37 f   PhysXFoundation_32:PhysXFoundation_32.dll
 0001:00140f3d       __imp_load_?vsnprintf@shdfnd@physx@@YAHPADIPBD0@Z 10141f3d f   PhysXFoundation_32:PhysXFoundation_32.dll
 0001:00140f47       ?vsnprintf@shdfnd@physx@@YAHPADIPBD0@Z 10141f47 f   PhysXFoundation_32:PhysXFoundation_32.dll
 0001:00140f4d       __imp_load_??0NamedAllocator@shdfnd@physx@@QAE@ABV012@@Z 10141f4d f   PhysXFoundation_32:PhysXFoundation_32.dll
 0001:00140f57       ??0NamedAllocator@shdfnd@physx@@QAE@ABV012@@Z 10141f57 f   PhysXFoundation_32:PhysXFoundation_32.dll
 0001:00140f5d       __imp_load_??0MutexImpl@shdfnd@physx@@QAE@XZ 10141f5d f   PhysXFoundation_32:PhysXFoundation_32.dll
 0001:00140f67       ??0MutexImpl@shdfnd@physx@@QAE@XZ 10141f67 f   PhysXFoundation_32:PhysXFoundation_32.dll
 0001:00140f6d       __imp_load_??1MutexImpl@shdfnd@physx@@QAE@XZ 10141f6d f   PhysXFoundation_32:PhysXFoundation_32.dll
 0001:00140f77       ??1MutexImpl@shdfnd@physx@@QAE@XZ 10141f77 f   PhysXFoundation_32:PhysXFoundation_32.dll
 0001:00140f7d       __imp_load_?lock@MutexImpl@shdfnd@physx@@QAEXXZ 10141f7d f   PhysXFoundation_32:PhysXFoundation_32.dll
 0001:00140f87       ?lock@MutexImpl@shdfnd@physx@@QAEXXZ 10141f87 f   PhysXFoundation_32:PhysXFoundation_32.dll
 0001:00140f8d       __imp_load_?unlock@MutexImpl@shdfnd@physx@@QAEXXZ 10141f8d f   PhysXFoundation_32:PhysXFoundation_32.dll
 0001:00140f97       ?unlock@MutexImpl@shdfnd@physx@@QAEXXZ 10141f97 f   PhysXFoundation_32:PhysXFoundation_32.dll
 0001:00140f9d       __imp_load_?getSize@MutexImpl@shdfnd@physx@@SAIXZ 10141f9d f   PhysXFoundation_32:PhysXFoundation_32.dll
 0001:00140fa7       ?getSize@MutexImpl@shdfnd@physx@@SAIXZ 10141fa7 f   PhysXFoundation_32:PhysXFoundation_32.dll
 0001:00140fad       __imp_load_?atomicDecrement@shdfnd@physx@@YAHPCH@Z 10141fad f   PhysXFoundation_32:PhysXFoundation_32.dll
 0001:00140fb7       ?atomicDecrement@shdfnd@physx@@YAHPCH@Z 10141fb7 f   PhysXFoundation_32:PhysXFoundation_32.dll
 0001:00140fbd       __imp_load_?PxTransformFromSegment@physx@@YA?AVPxTransform@1@ABVPxVec3@1@0PAM@Z 10141fbd f   PhysXFoundation_32:PhysXFoundation_32.dll
 0001:00140fc7       ?PxTransformFromSegment@physx@@YA?AVPxTransform@1@ABVPxVec3@1@0PAM@Z 10141fc7 f   PhysXFoundation_32:PhysXFoundation_32.dll
 0001:00140fcd       __imp_load_?optimizeBoundingBox@shdfnd@physx@@YA?AVPxVec3@2@AAVPxMat33@2@@Z 10141fcd f   PhysXFoundation_32:PhysXFoundation_32.dll
 0001:00140fd7       ?optimizeBoundingBox@shdfnd@physx@@YA?AVPxVec3@2@AAVPxMat33@2@@Z 10141fd7 f   PhysXFoundation_32:PhysXFoundation_32.dll
 0001:00140fdd       __imp_load_?allocate@TempAllocator@shdfnd@physx@@QAEPAXIPBDH@Z 10141fdd f   PhysXFoundation_32:PhysXFoundation_32.dll
 0001:00140fe7       ?allocate@TempAllocator@shdfnd@physx@@QAEPAXIPBDH@Z 10141fe7 f   PhysXFoundation_32:PhysXFoundation_32.dll
 0001:00140fed       __imp_load_?deallocate@TempAllocator@shdfnd@physx@@QAEXPAX@Z 10141fed f   PhysXFoundation_32:PhysXFoundation_32.dll
 0001:00140ff7       ?deallocate@TempAllocator@shdfnd@physx@@QAEXPAX@Z 10141ff7 f   PhysXFoundation_32:PhysXFoundation_32.dll
 0001:00140fff       __imp_load_?atomicIncrement@shdfnd@physx@@YAHPCH@Z 10141fff f   PhysXFoundation_32:PhysXFoundation_32.dll
 0001:00141009       ?atomicIncrement@shdfnd@physx@@YAHPCH@Z 10142009 f   PhysXFoundation_32:PhysXFoundation_32.dll
 0001:0014100f       __imp_load__PxGetProfilerCallback 1014200f f   PhysXFoundation_32:PhysXFoundation_32.dll
 0001:00141019       _PxGetProfilerCallback     10142019 f   PhysXFoundation_32:PhysXFoundation_32.dll
 0001:0014101f       _FreeLibrary@4             1014201f f   kernel32:KERNEL32.dll
 0001:00141025       _GetProcAddress@8          10142025 f   kernel32:KERNEL32.dll
 0001:0014102b       _LoadLibraryA@4            1014202b f   kernel32:KERNEL32.dll
 0001:00141031       ??$PFromRva@PAP6GHXZ@@YGPAP6GHXZK@Z 10142031 f i Delayimp:delayhlp.obj
 0001:00141043       ??$PFromRva@PAPAUHINSTANCE__@@@@YGPAPAUHINSTANCE__@@K@Z 10142043 f i Delayimp:delayhlp.obj
 0001:00141055       ??$PFromRva@PAU_IMAGE_IMPORT_BY_NAME@@@@YGPAU_IMAGE_IMPORT_BY_NAME@@K@Z 10142055 f i Delayimp:delayhlp.obj
 0001:00141067       ??$PFromRva@PAU_IMAGE_THUNK_DATA32@@@@YGPAU_IMAGE_THUNK_DATA32@@K@Z 10142067 f i Delayimp:delayhlp.obj
 0001:00141079       ??$PFromRva@PBD@@YGPBDK@Z  10142079 f i Delayimp:delayhlp.obj
 0001:0014108b       ??$PFromRva@PBUImgDelayDescr@@@@YGPBUImgDelayDescr@@K@Z 1014208b f i Delayimp:delayhlp.obj
 0001:0014109d       ??$PFromRva@PBU_IMAGE_THUNK_DATA32@@@@YGPBU_IMAGE_THUNK_DATA32@@K@Z 1014209d f i Delayimp:delayhlp.obj
 0001:001410af       ?CountOfImports@@YGIPBU_IMAGE_THUNK_DATA32@@@Z 101420af f i Delayimp:delayhlp.obj
 0001:001410ca       ?DloadAcquireSectionWriteAccess@@YGXXZ 101420ca f i Delayimp:delayhlp.obj
 0001:001410fd       ?DloadGetSRWLockFunctionPointers@@YGEXZ 101420fd f i Delayimp:delayhlp.obj
 0001:00141170       ?DloadLock@@YGXXZ          10142170 f i Delayimp:delayhlp.obj
 0001:001411af       ?DloadMakePermanentImageCommit@@YGXPAXK@Z 101421af f i Delayimp:delayhlp.obj
 0001:0014121e       ?DloadObtainSection@@YGPAXPAK0@Z 1014221e f i Delayimp:delayhlp.obj
 0001:00141299       ?DloadProtectSection@@YGXKPAK@Z 10142299 f i Delayimp:delayhlp.obj
 0001:00141307       ?DloadReleaseSectionWriteAccess@@YGXXZ 10142307 f i Delayimp:delayhlp.obj
 0001:0014133d       ?DloadUnlock@@YGXXZ        1014233d f i Delayimp:delayhlp.obj
 0001:0014137e       ?IndexFromPImgThunkData@@YGIPBU_IMAGE_THUNK_DATA32@@0@Z 1014237e f i Delayimp:delayhlp.obj
 0001:001414de       _HRESULT_FROM_WIN32@4      101424de f i Delayimp:delayhlp.obj
 0001:001414f6       _ReadAcquire@4             101424f6 f i Delayimp:delayhlp.obj
 0001:00141504       _ReadPointerAcquire@4      10142504 f i Delayimp:delayhlp.obj
 0001:00141512       _WritePointerRelease@8     10142512 f i Delayimp:delayhlp.obj
 0001:00141523       _WriteRelease@8            10142523 f i Delayimp:delayhlp.obj
 0001:00141534       __InlineInterlockedCompareExchangePointer@12 10142534 f i Delayimp:delayhlp.obj
 0001:0014154a       ___FUnloadDelayLoadedDLL2@4 1014254a f   Delayimp:delayhlp.obj
 0001:001415ce       ___HrLoadAllImportsForDll@4 101425ce f   Delayimp:delayhlp.obj
 0001:0014162f       ___delayLoadHelper2@8      1014262f f   Delayimp:delayhlp.obj
 0001:001418a0       ??3@YAXPAXI@Z              101428a0 f   LIBCMTD:delete_scalar_size.obj
 0001:001418c0       __CRT_RTC_INIT             101428c0 f   LIBCMTD:init.obj
 0001:001418d0       __CRT_RTC_INITW            101428d0 f   LIBCMTD:init.obj
 0001:001418e0       __RTC_InitBase             101428e0 f   LIBCMTD:init.obj
 0001:00141910       __RTC_Shutdown             10142910 f   LIBCMTD:init.obj
 0001:00141930       __allshl                   10142930 f   LIBCMTD:llshl.obj
 0001:00141950       __aullshr                  10142950 f   LIBCMTD:ullshr.obj
 0001:00141970       __ftoui3                   10142970 f   LIBCMTD:ftol3.obj
 0001:001419c0       __ftoul3                   101429c0 f   LIBCMTD:ftol3.obj
 0001:00141a40       __ftol3                    10142a40 f   LIBCMTD:ftol3.obj
 0001:00141ab0       __dtoui3                   10142ab0 f   LIBCMTD:ftol3.obj
 0001:00141b30       __dtoul3                   10142b30 f   LIBCMTD:ftol3.obj
 0001:00141be0       __dtol3                    10142be0 f   LIBCMTD:ftol3.obj
 0001:00141c90       __ultod3                   10142c90 f   LIBCMTD:ftol3.obj
 0001:00141cf0       __ltod3                    10142cf0 f   LIBCMTD:ftol3.obj
 0001:00141d40       ??1type_info@@UAE@XZ       10142d40 f   LIBCMTD:std_type_info_static.obj
 0001:00141d60       ??_Etype_info@@UAEPAXI@Z   10142d60 f i LIBCMTD:std_type_info_static.obj
 0001:00141d60       ??_Gtype_info@@UAEPAXI@Z   10142d60 f i LIBCMTD:std_type_info_static.obj
 0001:00141d90       ?__scrt_initialize_type_info@@YAXXZ 10142d90 f   LIBCMTD:tncleanup.obj
 0001:00141da0       ?__scrt_uninitialize_type_info@@YAXXZ 10142da0 f   LIBCMTD:tncleanup.obj
 0001:00141dc0       ??_V@YAXPAXI@Z             10142dc0 f   LIBCMTD:delete_array_size.obj
 0001:00141de0       __chkstk                   10142de0 f   LIBCMTD:chkstk.obj
 0001:00141de0       __alloca_probe             10142de0 f   LIBCMTD:chkstk.obj
 0001:00141e10       ??3@YAXPAX@Z               10142e10 f   LIBCMTD:delete_scalar.obj
 0001:00141e30       ??_V@YAXPAX@Z              10142e30 f   LIBCMTD:delete_array.obj
 0001:00141e50       __ftol2_sse_excpt          10142e50 f   LIBCMTD:ftol2.obj
 0001:00141e60       __ftol2_sse                10142e60 f   LIBCMTD:ftol2.obj
 0001:00141e70       __ftoi2                    10142e70 f   LIBCMTD:ftol2.obj
 0001:00141ef0       __ftoui2                   10142ef0 f   LIBCMTD:ftol2.obj
 0001:00141fa0       __ftol2                    10142fa0 f   LIBCMTD:ftol2.obj
 0001:00142050       __ftoul2                   10143050 f   LIBCMTD:ftol2.obj
 0001:00142110       __alloca_probe_16          10143110 f   LIBCMTD:alloca16.obj
 0001:00142126       __alloca_probe_8           10143126     LIBCMTD:alloca16.obj
 0001:00142610       __CRT_INIT@12              10143610 f   LIBCMTD:dll_dllmain.obj
 0001:00142630       __DllMainCRTStartup@12     10143630 f   LIBCMTD:dll_dllmain.obj
 0001:00142660       @_guard_check_icall_nop@4  10143660 f i LIBCMTD:guard_support.obj
 0001:00142670       _ReadNoFence               10143670 f i LIBCMTD:guard_support.obj
 0001:00142690       _ReadPointerNoFence        10143690 f i LIBCMTD:guard_support.obj
 0001:001426b0       ___castguard_check_failure_debugbreak 101436b0 f i LIBCMTD:guard_support.obj
 0001:001426d0       ___castguard_check_failure_fastfail 101436d0 f i LIBCMTD:guard_support.obj
 0001:001426f0       ___castguard_check_failure_nop 101436f0 f i LIBCMTD:guard_support.obj
 0001:00142700       ___castguard_check_failure_os_handled 10143700 f i LIBCMTD:guard_support.obj
 0001:00142780       ___castguard_slow_path_check_debugbreak 10143780 f i LIBCMTD:guard_support.obj
 0001:001427b0       ___castguard_slow_path_check_fastfail 101437b0 f i LIBCMTD:guard_support.obj
 0001:001427f0       ___castguard_slow_path_check_nop 101437f0 f i LIBCMTD:guard_support.obj
 0001:00142800       ___castguard_slow_path_check_os_handled 10143800 f i LIBCMTD:guard_support.obj
 0001:001428a0       __guard_icall_checks_enforced 101438a0 f i LIBCMTD:guard_support.obj
 0001:001428d0       ?_RTC_GetErrorFunc@@YAP6AHHPBDH00ZZPBX@Z 101438d0 f   LIBCMTD:userapi.obj
 0001:001428e0       ?_RTC_GetErrorFuncW@@YAP6AHHPB_WH00ZZPBX@Z 101438e0 f   LIBCMTD:userapi.obj
 0001:001428f0       __RTC_GetErrDesc           101438f0 f   LIBCMTD:userapi.obj
 0001:00142910       __RTC_NumErrors            10143910 f   LIBCMTD:userapi.obj
 0001:00142920       __RTC_SetErrorFunc         10143920 f   LIBCMTD:userapi.obj
 0001:00142940       __RTC_SetErrorFuncW        10143940 f   LIBCMTD:userapi.obj
 0001:00142960       __RTC_SetErrorType         10143960 f   LIBCMTD:userapi.obj
 0001:00142990       ___isa_available_init      10143990 f   LIBCMTD:cpu_disp.obj
 0001:00142d40       ___security_init_cookie    10143d40 f   LIBCMTD:gs_support.obj
 0001:00142dc0       _DllMain@12                10143dc0 f   LIBCMTD:dll_dllmain_stub.obj
 0001:00142dd0       ___local_stdio_printf_options 10143dd0 f i LIBCMTD:default_local_stdio_options.obj
 0001:00142de0       ___local_stdio_scanf_options 10143de0 f i LIBCMTD:default_local_stdio_options.obj
 0001:00142df0       ___scrt_initialize_default_local_stdio_options 10143df0 f   LIBCMTD:default_local_stdio_options.obj
 0001:00142e30       ?configure_argv@__scrt_narrow_argv_policy@@SAHXZ 10143e30 f i LIBCMTD:utility.obj
 0001:00142ee0       ?initialize_environment@__scrt_narrow_environment_policy@@SAHXZ 10143ee0 f i LIBCMTD:utility.obj
 0001:00142f60       _NtCurrentTeb              10143f60 f i LIBCMTD:utility.obj
 0001:00142f70       ___scrt_acquire_startup_lock 10143f70 f   LIBCMTD:utility.obj
 0001:00142fc0       ___scrt_dllmain_after_initialize_c 10143fc0 f   LIBCMTD:utility.obj
 0001:00142ff0       ___scrt_dllmain_before_initialize_c 10143ff0 f   LIBCMTD:utility.obj
 0001:00143010       ___scrt_dllmain_crt_thread_attach 10144010 f   LIBCMTD:utility.obj
 0001:00143040       ___scrt_dllmain_crt_thread_detach 10144040 f   LIBCMTD:utility.obj
 0001:00143060       ___scrt_dllmain_exception_filter 10144060 f   LIBCMTD:utility.obj
 0001:001430b0       ___scrt_dllmain_uninitialize_c 101440b0 f   LIBCMTD:utility.obj
 0001:001430e0       ___scrt_dllmain_uninitialize_critical 101440e0 f   LIBCMTD:utility.obj
 0001:00143100       ___scrt_initialize_crt     10144100 f   LIBCMTD:utility.obj
 0001:00143150       ___scrt_initialize_onexit_tables 10144150 f   LIBCMTD:utility.obj
 0001:00143230       ___scrt_is_nonwritable_in_current_image 10144230 f   LIBCMTD:utility.obj
 0001:00143360       ___scrt_release_startup_lock 10144360 f   LIBCMTD:utility.obj
 0001:00143390       ___scrt_uninitialize_crt   10144390 f   LIBCMTD:utility.obj
 0001:001433d0       __onexit                   101443d0 f   LIBCMTD:utility.obj
 0001:00143440       _at_quick_exit             10144440 f   LIBCMTD:utility.obj
 0001:00143480       _atexit                    10144480 f   LIBCMTD:utility.obj
 0001:001434b0       ___scrt_get_dyn_tls_init_callback 101444b0 f   LIBCMTD:dyn_tls_init.obj
 0001:001434c0       ___scrt_fastfail           101444c0 f   LIBCMTD:utility_desktop.obj
 0001:00143600       ___scrt_get_show_window_mode 10144600 f   LIBCMTD:utility_desktop.obj
 0001:00143640       ___scrt_initialize_mta     10144640 f   LIBCMTD:utility_desktop.obj
 0001:00143650       ___scrt_initialize_winrt   10144650 f   LIBCMTD:utility_desktop.obj
 0001:00143660       ___scrt_is_managed_app     10144660 f   LIBCMTD:utility_desktop.obj
 0001:001436f0       ___scrt_set_unhandled_exception_filter 101446f0 f   LIBCMTD:utility_desktop.obj
 0001:00143700       ___scrt_stub_for_initialize_mta 10144700 f   LIBCMTD:utility_desktop.obj
 0001:00143700       ___scrt_exe_initialize_mta 10144700 f   LIBCMTD:utility_desktop.obj
 0001:00143710       ___scrt_unhandled_exception_filter@4 10144710 f   LIBCMTD:utility_desktop.obj
 0001:00143790       __crt_debugger_hook        10144790 f   LIBCMTD:utility_desktop.obj
 0001:001437a0       __RTC_Initialize           101447a0 f   LIBCMTD:initsect.obj
 0001:001437d0       __RTC_Terminate            101447d0 f   LIBCMTD:initsect.obj
 0001:00143890       ?_RTC_AllocaFailure@@YAXPAXPAU_RTC_ALLOCA_NODE@@H@Z 10144890 f   LIBCMTD:error.obj
 0001:00143980       ?_RTC_Failure@@YAXPAXH@Z   10144980 f   LIBCMTD:error.obj
 0001:001439d0       ?_RTC_StackFailure@@YAXPAXPBD@Z 101449d0 f   LIBCMTD:error.obj
 0001:00143d90       __RTC_UninitUse            10144d90 f   LIBCMTD:error.obj
 0001:00143e40       __vsprintf_s_l             10144e40 f i LIBCMTD:error.obj
 0001:00143e70       _sprintf_s                 10144e70 f i LIBCMTD:error.obj
 0001:00143e90       @__security_check_cookie@4 10144e90 f   LIBCMTD:secchk.obj
 0001:00143ea0       __get_startup_argv_mode    10144ea0 f   LIBCMTD:argv_mode.obj
 0001:00143eb0       ___scrt_is_ucrt_dll_in_use 10144eb0 f   LIBCMTD:ucrt_detection.obj
 0001:00144360       ?_RTC_GetSrcLine@@YAHPAEPA_WKPAH1K@Z 10145360 f   LIBCMTD:pdblkup.obj
 0001:001446e0       __except_handler4_noexcept 101456e0 f   LIBCMTD:chandler4_noexcept.obj
 0001:00144740       ___raise_securityfailure   10145740 f   LIBCMTD:gs_report.obj
 0001:00144770       ___report_gsfailure        10145770 f   LIBCMTD:gs_report.obj
 0001:00144880       ___report_rangecheckfailure 10145880 f   LIBCMTD:gs_report.obj
 0001:00144890       ___report_securityfailure  10145890 f   LIBCMTD:gs_report.obj
 0001:00144970       ___report_securityfailureEx 10145970 f   LIBCMTD:gs_report.obj
 0001:00144aa0       ??$__crt_interlocked_exchange_pointer@$$A6AXXZP6AXXZ@@YAP6AXXZPDS6AXXZQ6AXXZ@Z 10145aa0 f i libvcruntimed:purevirt.obj
 0001:00144ab0       ??$__crt_interlocked_read_pointer@$$A6AXXZ@@YAP6AXXZPDS6AXXZ@Z 10145ab0 f i libvcruntimed:purevirt.obj
 0001:00144ad0       ?__crt_interlocked_read_32@@YAHPDH@Z 10145ad0 f i libvcruntimed:purevirt.obj
 0001:00144af0       __get_purecall_handler     10145af0 f   libvcruntimed:purevirt.obj
 0001:00144b10       __purecall                 10145b10 f   libvcruntimed:purevirt.obj
 0001:00144b40       __set_purecall_handler     10145b40 f   libvcruntimed:purevirt.obj
 0001:00144b80       ??$?RD@__crt_internal_free_policy@@QBEXQBD@Z 10145b80 f i libvcruntimed:std_type_info.obj
 0001:00144ba0       ??$?RX@__crt_internal_free_policy@@QBEXQBX@Z 10145ba0 f i libvcruntimed:std_type_info.obj
 0001:00144bc0       ??$__crt_interlocked_compare_exchange_pointer@$$CBDPAD$$T@@YAPBDPDSBDQAD$$T@Z 10145bc0 f i libvcruntimed:std_type_info.obj
 0001:00144be0       ??$__crt_interlocked_read_pointer@$$CBD@@YAPBDPDSBD@Z 10145be0 f i libvcruntimed:std_type_info.obj
 0001:00144c00       ??0?$__crt_unique_heap_ptr@DU__crt_internal_free_policy@@@@QAE@QAD@Z 10145c00 f i libvcruntimed:std_type_info.obj
 0001:00144c20       ??0?$__crt_unique_heap_ptr@XU__crt_internal_free_policy@@@@QAE@QAX@Z 10145c20 f i libvcruntimed:std_type_info.obj
 0001:00144c40       ??1?$__crt_unique_heap_ptr@DU__crt_internal_free_policy@@@@QAE@XZ 10145c40 f i libvcruntimed:std_type_info.obj
 0001:00144c60       ??1?$__crt_unique_heap_ptr@XU__crt_internal_free_policy@@@@QAE@XZ 10145c60 f i libvcruntimed:std_type_info.obj
 0001:00144c80       ??B?$__crt_unique_heap_ptr@DU__crt_internal_free_policy@@@@QBE_NXZ 10145c80 f i libvcruntimed:std_type_info.obj
 0001:00144ca0       ??B?$__crt_unique_heap_ptr@XU__crt_internal_free_policy@@@@QBE_NXZ 10145ca0 f i libvcruntimed:std_type_info.obj
 0001:00144d30       ?detach@?$__crt_unique_heap_ptr@XU__crt_internal_free_policy@@@@QAEPAXXZ 10145d30 f i libvcruntimed:std_type_info.obj
 0001:00144d60       ?get@?$__crt_unique_heap_ptr@DU__crt_internal_free_policy@@@@QBEPADXZ 10145d60 f i libvcruntimed:std_type_info.obj
 0001:00144d70       ?get@?$__crt_unique_heap_ptr@XU__crt_internal_free_policy@@@@QBEPAXXZ 10145d70 f i libvcruntimed:std_type_info.obj
 0001:00144d80       ?is_valid@?$__crt_unique_heap_ptr@DU__crt_internal_free_policy@@@@QBE_NXZ 10145d80 f i libvcruntimed:std_type_info.obj
 0001:00144db0       ?is_valid@?$__crt_unique_heap_ptr@XU__crt_internal_free_policy@@@@QBE_NXZ 10145db0 f i libvcruntimed:std_type_info.obj
 0001:00144de0       ?release@?$__crt_unique_heap_ptr@DU__crt_internal_free_policy@@@@QAEXXZ 10145de0 f i libvcruntimed:std_type_info.obj
 0001:00144e10       ?release@?$__crt_unique_heap_ptr@XU__crt_internal_free_policy@@@@QAEXXZ 10145e10 f i libvcruntimed:std_type_info.obj
 0001:00144e40       ___std_type_info_compare   10145e40 f   libvcruntimed:std_type_info.obj
 0001:00144e70       ___std_type_info_destroy_list 10145e70 f   libvcruntimed:std_type_info.obj
 0001:00144eb0       ___std_type_info_hash      10145eb0 f   libvcruntimed:std_type_info.obj
 0001:00144f10       ___std_type_info_name      10145f10 f   libvcruntimed:std_type_info.obj
 0001:001450f0       _memcpy                    101460f0 f   libvcruntimed:memcpy.obj
 0001:00145670       _memset                    10146670 f   libvcruntimed:memset.obj
 0001:001457d0       _strstr                    101467d0 f   libvcruntimed:strstr.obj
 0001:00145aa0       __except_handler4          10146aa0 f   libvcruntimed:chandler4.obj
 0001:00145c90       ___vcrt_initialize         10146c90 f   libvcruntimed:initialization.obj
 0001:00145cd0       ___vcrt_thread_attach      10146cd0 f   libvcruntimed:initialization.obj
 0001:00145cf0       ___vcrt_thread_detach      10146cf0 f   libvcruntimed:initialization.obj
 0001:00145d10       ___vcrt_uninitialize       10146d10 f   libvcruntimed:initialization.obj
 0001:00145d30       ___vcrt_uninitialize_critical 10146d30 f   libvcruntimed:initialization.obj
 0001:00145d50       ___DestructExceptionObject 10146d50 f   libvcruntimed:ehhelpers.obj
 0001:00145e70       ?_CallMemberFunction0@@YGXQAX0@Z 10146e70 f i libvcruntimed:ehhelpers.obj
 0001:00145f10       ?raw_name@type_info@@QBEPBDXZ 10146f10 f i libvcruntimed:ehhelpers.obj
 0001:00145f30       __IsExceptionObjectToBeDestroyed 10146f30 f   libvcruntimed:ehhelpers.obj
 0001:00145f70       __SetWinRTOutOfMemoryExceptionCallback 10146f70 f   libvcruntimed:ehhelpers.obj
 0001:00145f80       ___AdjustPointer           10146f80 f   libvcruntimed:ehhelpers.obj
 0001:00145fd0       ___FrameUnwindFilter       10146fd0 f   libvcruntimed:ehhelpers.obj
 0001:00146060       ___GetPlatformExceptionInfo 10147060 f   libvcruntimed:ehhelpers.obj
 0001:001460e0       ___current_exception       101470e0 f   libvcruntimed:ehhelpers.obj
 0001:001460f0       ___current_exception_context 101470f0 f   libvcruntimed:ehhelpers.obj
 0001:00146100       ___processing_throw        10147100 f   libvcruntimed:ehhelpers.obj
 0001:00146110       ___std_terminate           10147110 f   libvcruntimed:ehhelpers.obj
 0001:00146120       __is_exception_typeof      10147120 f   libvcruntimed:ehhelpers.obj
 0001:00146200       ___vcrt_GetModuleFileNameW 10147200 f   libvcruntimed:winapi_thunks.obj
 0001:00146220       ___vcrt_GetModuleHandleW   10147220 f   libvcruntimed:winapi_thunks.obj
 0001:00146230       ___vcrt_LoadLibraryExW     10147230 f   libvcruntimed:winapi_thunks.obj
 0001:00146250       ??$?0$00@DName@@QAE@PBDU?$StringLifeSelector@$00@@@Z 10147250 f i libvcruntimed:undname.obj
 0001:001462a0       ??$?0$00@pcharNode@@QAE@PBDHU?$StringLifeSelector@$00@@@Z 101472a0 f i libvcruntimed:undname.obj
 0001:001462e0       ??$?0$01@DName@@QAE@PBDU?$StringLifeSelector@$01@@@Z 101472e0 f i libvcruntimed:undname.obj
 0001:00146330       ??$?0$01@pcharNode@@QAE@PBDHU?$StringLifeSelector@$01@@@Z 10147330 f i libvcruntimed:undname.obj
 0001:001463b0       ??$?0$0A@@DName@@QAE@PBDU?$StringLifeSelector@$0A@@@@Z 101473b0 f i libvcruntimed:undname.obj
 0001:00146400       ??$?0$0A@@pcharNode@@QAE@PBDHU?$StringLifeSelector@$0A@@@@Z 10147400 f i libvcruntimed:undname.obj
 0001:00146480       ??$?0_K$0A@@?$optional@_K@std@@QAE@$$QA_K@Z 10147480 f i libvcruntimed:undname.obj
 0001:001464c0       ??$?0_K@?$_Optional_construct_base@_K@std@@QAE@Uin_place_t@1@$$QA_K@Z 101474c0 f i libvcruntimed:undname.obj
 0001:001464f0       ??$?0_K@?$_Optional_destruct_base@_K$00@std@@QAE@Uin_place_t@1@$$QA_K@Z 101474f0 f i libvcruntimed:undname.obj
 0001:00146520       ??$append@VDNameNode@@@DName@@AAEXPBVDNameNode@@@Z 10147520 f i libvcruntimed:undname.obj
 0001:001465b0       ??$append@VDNameStatusNode@@@DName@@AAEXPBVDNameStatusNode@@@Z 101475b0 f i libvcruntimed:undname.obj
 0001:00146640       ??$append@VcharNode@@@DName@@AAEXPBVcharNode@@@Z 10147640 f i libvcruntimed:undname.obj
 0001:001466d0       ??$append@VpDNameNode@@@DName@@AAEXPBVpDNameNode@@@Z 101476d0 f i libvcruntimed:undname.obj
 0001:00146760       ??$append@VpcharNode@@@DName@@AAEXPBVpcharNode@@@Z 10147760 f i libvcruntimed:undname.obj
 0001:001467f0       ??$doPchar@$00@DName@@AAEXPBDH@Z 101477f0 f i libvcruntimed:undname.obj
 0001:00146900       ??$doPchar@$01@DName@@AAEXPBDH@Z 10147900 f i libvcruntimed:undname.obj
 0001:00146a10       ??$doPchar@$0A@@DName@@AAEXPBDH@Z 10147a10 f i libvcruntimed:undname.obj
 0001:00146b20       ??$forward@_K@std@@YA$$QA_KAA_K@Z 10147b20 f i libvcruntimed:undname.obj
 0001:00146b30       ??$size@D$04@std@@YAIAAY04$$CBD@Z 10147b30 f i libvcruntimed:undname.obj
 0001:00146b40       ??$size@D$0EB@@std@@YAIAAY0EB@$$CBD@Z 10147b40 f i libvcruntimed:undname.obj
 0001:00146b50       ??0?$_Optional_construct_base@_K@std@@QAE@XZ 10147b50 f i libvcruntimed:undname.obj
 0001:00146b70       ??0?$_Optional_destruct_base@_K$00@std@@QAE@XZ 10147b70 f i libvcruntimed:undname.obj
 0001:00146b90       ??0?$optional@_K@std@@QAE@XZ 10147b90 f i libvcruntimed:undname.obj
 0001:00146bb0       ??0Block@_HeapManager@@QAE@XZ 10147bb0 f i libvcruntimed:undname.obj
 0001:00146bd0       ??0DName@@QAE@AAPBDD@Z     10147bd0 f   libvcruntimed:undname.obj
 0001:00146d40       ??0DName@@QAE@ABUStringLiteral@@@Z 10147d40 f   libvcruntimed:undname.obj
 0001:00146d90       ??0DName@@QAE@ABV0@@Z      10147d90 f i libvcruntimed:undname.obj
 0001:00146dc0       ??0DName@@QAE@D@Z          10147dc0 f   libvcruntimed:undname.obj
 0001:00146df0       ??0DName@@QAE@PAV0@@Z      10147df0 f   libvcruntimed:undname.obj
 0001:00146ea0       ??0DName@@QAE@W4DNameStatus@@@Z 10147ea0 f   libvcruntimed:undname.obj
 0001:00146f40       ??0DName@@QAE@XZ           10147f40 f i libvcruntimed:undname.obj
 0001:00146f70       ??0DName@@QAE@_J@Z         10147f70 f   libvcruntimed:undname.obj
 0001:00147060       ??0DName@@QAE@_K@Z         10148060 f   libvcruntimed:undname.obj
 0001:00147110       ??0DNameNode@@IAE@XZ       10148110 f i libvcruntimed:undname.obj
 0001:00147130       ??0Replicator@@QAE@XZ      10148130 f i libvcruntimed:undname.obj
 0001:00147170       ??0UnDecorator@@QAE@PBDP6APADJ@ZK@Z 10148170 f i libvcruntimed:undname.obj
 0001:001471f0       ??0_Nontrivial_dummy_type@std@@QAE@XZ 101481f0 f i libvcruntimed:undname.obj
 0001:00147200       ??0charNode@@QAE@D@Z       10148200 f i libvcruntimed:undname.obj
 0001:00147230       ??0pDNameNode@@QAE@PAVDName@@@Z 10148230 f   libvcruntimed:undname.obj
 0001:00147290       ??0pairNode@@QAE@PBVDNameNode@@0@Z 10148290 f i libvcruntimed:undname.obj
 0001:001472f0       ??2@YAPAXIAAV_HeapManager@@H@Z 101482f0 f   libvcruntimed:undname.obj
 0001:00147330       ??4DName@@QAEAAV0@ABUStringLiteral@@@Z 10148330 f   libvcruntimed:undname.obj
 0001:00147370       ??4DName@@QAEAAV0@ABV0@@Z  10148370 f   libvcruntimed:undname.obj
 0001:001473a0       ??4DName@@QAEAAV0@D@Z      101483a0 f i libvcruntimed:undname.obj
 0001:001473d0       ??4DName@@QAEAAV0@PAV0@@Z  101483d0 f   libvcruntimed:undname.obj
 0001:00147470       ??4DName@@QAEAAV0@W4DNameStatus@@@Z 10148470 f   libvcruntimed:undname.obj
 0001:001474f0       ??AReplicator@@QBE?AVDName@@H@Z 101484f0 f   libvcruntimed:undname.obj
 0001:00147560       ??B?$optional@_K@std@@QBE_NXZ 10148560 f i libvcruntimed:undname.obj
 0001:00147580       ??D?$optional@_K@std@@QGAEAA_KXZ 10148580 f i libvcruntimed:undname.obj
 0001:001475f0       ??H@YA?AVDName@@ABUStringLiteral@@ABV0@@Z 101485f0 f i libvcruntimed:undname.obj
 0001:00147620       ??H@YA?AVDName@@DABV0@@Z   10148620 f i libvcruntimed:undname.obj
 0001:00147650       ??H@YA?AVDName@@W4DNameStatus@@ABV0@@Z 10148650 f i libvcruntimed:undname.obj
 0001:00147680       ??HDName@@QBE?AV0@ABUStringLiteral@@@Z 10148680 f   libvcruntimed:undname.obj
 0001:001476c0       ??HDName@@QBE?AV0@ABV0@@Z  101486c0 f   libvcruntimed:undname.obj
 0001:00147700       ??HDName@@QBE?AV0@D@Z      10148700 f   libvcruntimed:undname.obj
 0001:00147740       ??HDName@@QBE?AV0@PAV0@@Z  10148740 f   libvcruntimed:undname.obj
 0001:00147780       ??HDName@@QBE?AV0@W4DNameStatus@@@Z 10148780 f   libvcruntimed:undname.obj
 0001:001477c0       ??HStringLiteral@@QBE?AU0@H@Z 101487c0 f i libvcruntimed:undname.obj
 0001:001477f0       ??YDName@@QAEAAV0@ABUStringLiteral@@@Z 101487f0 f   libvcruntimed:undname.obj
 0001:00147890       ??YDName@@QAEAAV0@ABV0@@Z  10148890 f   libvcruntimed:undname.obj
 0001:00147930       ??YDName@@QAEAAV0@D@Z      10148930 f   libvcruntimed:undname.obj
 0001:001479b0       ??YDName@@QAEAAV0@PAV0@@Z  101489b0 f   libvcruntimed:undname.obj
 0001:00147a60       ??YDName@@QAEAAV0@W4DNameStatus@@@Z 10148a60 f   libvcruntimed:undname.obj
 0001:00147ac0       ??YReplicator@@QAEAAV0@ABVDName@@@Z 10148ac0 f   libvcruntimed:undname.obj
 0001:00147b50       ??_5DName@@QAEAAV0@ABV0@@Z 10148b50 f   libvcruntimed:undname.obj
 0001:00147bb0       ??__K_l@@YA?AUStringLiteral@@PBDI@Z 10148bb0 f i libvcruntimed:undname.obj
 0001:00147bd0       ?Constructor@_HeapManager@@QAEXP6APAXI@ZP6AXPAX@Z@Z 10148bd0 f i libvcruntimed:undname.obj
 0001:00147c10       ?Destructor@_HeapManager@@QAEXXZ 10148c10 f i libvcruntimed:undname.obj
 0001:00147c80       ?UScore@UnDecorator@@SA?AUStringLiteral@@W4Tokens@@@Z 10148c80 f   libvcruntimed:undname.obj
 0001:00147cd0       ?composeDeclaration@UnDecorator@@CA?AVDName@@ABV2@@Z 10148cd0 f i libvcruntimed:undname.obj
 0001:00149c40       ?dbGetString@DName@@QBEPADXZ 1014ac40 f   libvcruntimed:undname.obj
 0001:00149c60       ?doAccessSpecifiers@UnDecorator@@SAHXZ 1014ac60 f i libvcruntimed:undname.obj
 0001:00149c90       ?doAllocationLanguage@UnDecorator@@SAHXZ 1014ac90 f i libvcruntimed:undname.obj
 0001:00149cc0       ?doAllocationModel@UnDecorator@@SAHXZ 1014acc0 f i libvcruntimed:undname.obj
 0001:00149cf0       ?doEcsu@UnDecorator@@SAHXZ 1014acf0 f i libvcruntimed:undname.obj
 0001:00149d20       ?doEllipsis@UnDecorator@@SAHXZ 1014ad20 f i libvcruntimed:undname.obj
 0001:00149d50       ?doFunctionReturns@UnDecorator@@SAHXZ 1014ad50 f i libvcruntimed:undname.obj
 0001:00149d80       ?doMSKeywords@UnDecorator@@SAHXZ 1014ad80 f i libvcruntimed:undname.obj
 0001:00149db0       ?doMemberTypes@UnDecorator@@SAHXZ 1014adb0 f i libvcruntimed:undname.obj
 0001:00149de0       ?doNameOnly@UnDecorator@@SAHXZ 1014ade0 f i libvcruntimed:undname.obj
 0001:00149df0       ?doNoIdentCharCheck@UnDecorator@@SAHXZ 1014adf0 f i libvcruntimed:undname.obj
 0001:00149e00       ?doPchar@DName@@AAEXD@Z    1014ae00 f   libvcruntimed:undname.obj
 0001:00149e70       ?doPtr64@UnDecorator@@SAHXZ 1014ae70 f i libvcruntimed:undname.obj
 0001:00149ea0       ?doRestrictionSpec@UnDecorator@@SAHXZ 1014aea0 f i libvcruntimed:undname.obj
 0001:00149ed0       ?doThisTypes@UnDecorator@@SAHXZ 1014aed0 f i libvcruntimed:undname.obj
 0001:00149f00       ?doThrowTypes@UnDecorator@@SAHXZ 1014af00 f i libvcruntimed:undname.obj
 0001:00149f30       ?doTypeOnly@UnDecorator@@SAHXZ 1014af30 f i libvcruntimed:undname.obj
 0001:00149f40       ?doUnderScore@UnDecorator@@SAHXZ 1014af40 f i libvcruntimed:undname.obj
 0001:00149f70       ?getAddressOf@UnDecorator@@CA?AVDName@@XZ 1014af70 f   libvcruntimed:undname.obj
 0001:00149ff0       ?getArgumentList@UnDecorator@@CA?AVDName@@XZ 1014aff0 f   libvcruntimed:undname.obj
 0001:0014a140       ?getArgumentTypes@UnDecorator@@CA?AVDName@@XZ 1014b140 f   libvcruntimed:undname.obj
 0001:0014a350       ?getArrayAccess@UnDecorator@@CA?AVDName@@XZ 1014b350 f   libvcruntimed:undname.obj
 0001:0014a3f0       ?getArrayObject@UnDecorator@@CA?AVDName@@XZ 1014b3f0 f   libvcruntimed:undname.obj
 0001:0014a4d0       ?getArrayType@UnDecorator@@CA?AVDName@@ABV2@@Z 1014b4d0 f i libvcruntimed:undname.obj
 0001:0014a770       ?getBasedType@UnDecorator@@CA?AVDName@@XZ 1014b770 f   libvcruntimed:undname.obj
 0001:0014a860       ?getBasicDataType@UnDecorator@@CA?AVDName@@ABV2@@Z 1014b860 f   libvcruntimed:undname.obj
 0001:0014b1d0       ?getCHPEName@UnDecorator@@QAEPADPADH@Z 1014c1d0 f i libvcruntimed:undname.obj
 0001:0014b330       ?getCallIndex@UnDecorator@@CA?AVDName@@XZ 1014c330 f i libvcruntimed:undname.obj
 0001:0014b350       ?getCallingConvention@UnDecorator@@CA?AVDName@@XZ 1014c350 f   libvcruntimed:undname.obj
 0001:0014b590       ?getDataIndirectType@UnDecorator@@CA?AVDName@@ABV2@W4IndirectionKind@@0H@Z 1014c590 f   libvcruntimed:undname.obj
 0001:0014beb0       ?getDataIndirectType@UnDecorator@@CA?AVDName@@XZ 1014ceb0 f i libvcruntimed:undname.obj
 0001:0014bef0       ?getDataType@UnDecorator@@CA?AVDName@@PAV2@@Z 1014cef0 f   libvcruntimed:undname.obj
 0001:0014c030       ?getDecoratedName@UnDecorator@@CA?AVDName@@XZ 1014d030 f   libvcruntimed:undname.obj
 0001:0014c470       ?getDimension@UnDecorator@@CA?AVDName@@_N@Z 1014d470 f   libvcruntimed:undname.obj
 0001:0014c6d0       ?getDispatchTarget@UnDecorator@@CA?AVDName@@XZ 1014d6d0 f   libvcruntimed:undname.obj
 0001:0014c770       ?getDisplacement@UnDecorator@@CA?AVDName@@XZ 1014d770 f i libvcruntimed:undname.obj
 0001:0014c790       ?getECSUDataType@UnDecorator@@CA?AVDName@@XZ 1014d790 f   libvcruntimed:undname.obj
 0001:0014c9f0       ?getECSUName@UnDecorator@@CA?AVDName@@XZ 1014d9f0 f i libvcruntimed:undname.obj
 0001:0014ca10       ?getEnumType@UnDecorator@@CA?AVDName@@XZ 1014da10 f i libvcruntimed:undname.obj
 0001:0014cbd0       ?getExtendedDataIndirectType@UnDecorator@@CA?AVDName@@AAW4IndirectionKind@@AA_NH@Z 1014dbd0 f   libvcruntimed:undname.obj
 0001:0014ce20       ?getExternalDataType@UnDecorator@@CA?AVDName@@ABV2@@Z 1014de20 f i libvcruntimed:undname.obj
 0001:0014cec0       ?getFloatingPoint@UnDecorator@@CA?AVDName@@H@Z 1014dec0 f   libvcruntimed:undname.obj
 0001:0014d080       ?getFunctionIndirectType@UnDecorator@@CA?AVDName@@ABV2@@Z 1014e080 f   libvcruntimed:undname.obj
 0001:0014d560       ?getGuardNumber@UnDecorator@@CA?AVDName@@XZ 1014e560 f i libvcruntimed:undname.obj
 0001:0014d580       ?getLastChar@DName@@QBEDXZ 1014e580 f i libvcruntimed:undname.obj
 0001:0014d5c0       ?getLastChar@DNameStatusNode@@UBEDXZ 1014e5c0 f i libvcruntimed:undname.obj
 0001:0014d5f0       ?getLastChar@charNode@@UBEDXZ 1014e5f0 f i libvcruntimed:undname.obj
 0001:0014d610       ?getLastChar@pDNameNode@@UBEDXZ 1014e610 f i libvcruntimed:undname.obj
 0001:0014d640       ?getLastChar@pairNode@@UBEDXZ 1014e640 f i libvcruntimed:undname.obj
 0001:0014d6b0       ?getLastChar@pcharNode@@UBEDXZ 1014e6b0 f i libvcruntimed:undname.obj
 0001:0014d6f0       ?getLexicalFrame@UnDecorator@@CA?AVDName@@XZ 1014e6f0 f i libvcruntimed:undname.obj
 0001:0014d730       ?getMemberAccess@UnDecorator@@CA?AVDName@@XZ 1014e730 f   libvcruntimed:undname.obj
 0001:0014d7c0       ?getMemoryWithBuffer@_HeapManager@@QAEPAXI@Z 1014e7c0 f   libvcruntimed:undname.obj
 0001:0014d8b0       ?getMemoryWithoutBuffer@_HeapManager@@QAEPAXI@Z 1014e8b0 f   libvcruntimed:undname.obj
 0001:0014d8f0       ?getNoexcept@UnDecorator@@CA?AVDName@@XZ 1014e8f0 f   libvcruntimed:undname.obj
 0001:0014d970       ?getNumberOfDimensions@UnDecorator@@CAHXZ 1014e970 f   libvcruntimed:undname.obj
 0001:0014da70       ?getOperatorName@UnDecorator@@CA?AVDName@@_NPA_N@Z 1014ea70 f i libvcruntimed:undname.obj
 0001:0014e570       ?getPointerToMember@UnDecorator@@CA?AVDName@@XZ 1014f570 f   libvcruntimed:undname.obj
 0001:0014e660       ?getPointerType@UnDecorator@@CA?AVDName@@ABV2@0@Z 1014f660 f i libvcruntimed:undname.obj
 0001:0014e680       ?getPointerTypeArray@UnDecorator@@CA?AVDName@@ABV2@0@Z 1014f680 f i libvcruntimed:undname.obj
 0001:0014e6a0       ?getPrimaryDataType@UnDecorator@@CA?AVDName@@ABV2@@Z 1014f6a0 f   libvcruntimed:undname.obj
 0001:0014eb30       ?getPtrRefDataType@UnDecorator@@CA?AVDName@@ABV2@H@Z 1014fb30 f   libvcruntimed:undname.obj
 0001:0014ede0       ?getPtrRefType@UnDecorator@@CA?AVDName@@ABV2@0W4IndirectionKind@@@Z 1014fde0 f   libvcruntimed:undname.obj
 0001:0014ef60       ?getReferenceType@UnDecorator@@CA?AVDName@@ABV2@0W4IndirectionKind@@@Z 1014ff60 f i libvcruntimed:undname.obj
 0001:0014ef80       ?getRestrictionSpec@UnDecorator@@CA?AVDName@@XZ 1014ff80 f   libvcruntimed:undname.obj
 0001:0014f140       ?getReturnType@UnDecorator@@CA?AVDName@@PAV2@@Z 10150140 f   libvcruntimed:undname.obj
 0001:0014f190       ?getScope@UnDecorator@@CA?AVDName@@XZ 10150190 f   libvcruntimed:undname.obj
 0001:0014f720       ?getScopedName@UnDecorator@@CA?AVDName@@XZ 10150720 f   libvcruntimed:undname.obj
 0001:0014f870       ?getSignedDimension@UnDecorator@@CA?AVDName@@XZ 10150870 f   libvcruntimed:undname.obj
 0001:0014f8f0       ?getStorageConvention@UnDecorator@@CA?AVDName@@XZ 101508f0 f i libvcruntimed:undname.obj
 0001:0014f910       ?getString@DName@@QBEPADPAD0@Z 10150910 f i libvcruntimed:undname.obj
 0001:0014f970       ?getString@DName@@QBEPADPADH@Z 10150970 f i libvcruntimed:undname.obj
 0001:0014fa00       ?getString@DNameStatusNode@@UBEPADPAD0@Z 10150a00 f i libvcruntimed:undname.obj
 0001:0014fa40       ?getString@charNode@@UBEPADPAD0@Z 10150a40 f i libvcruntimed:undname.obj
 0001:0014fa70       ?getString@pDNameNode@@UBEPADPAD0@Z 10150a70 f i libvcruntimed:undname.obj
 0001:0014fab0       ?getString@pairNode@@UBEPADPAD0@Z 10150ab0 f i libvcruntimed:undname.obj
 0001:0014fb40       ?getString@pcharNode@@UBEPADPAD0@Z 10150b40 f i libvcruntimed:undname.obj
 0001:0014fb70       ?getStringEncoding@UnDecorator@@CA?AVDName@@W4PrefixKind@@H@Z 10150b70 f   libvcruntimed:undname.obj
 0001:0014fc80       ?getStringHelper@@YAPADPADPBD1H@Z 10150c80 f i libvcruntimed:undname.obj
 0001:0014fcc0       ?getStringObject@UnDecorator@@CA?AVDName@@XZ 10150cc0 f   libvcruntimed:undname.obj
 0001:0014fd70       ?getSymbolName@UnDecorator@@CA?AVDName@@XZ 10150d70 f i libvcruntimed:undname.obj
 0001:0014fe10       ?getTemplateArgumentList@UnDecorator@@CA?AVDName@@XZ 10150e10 f   libvcruntimed:undname.obj
 0001:00150100       ?getTemplateName@UnDecorator@@CA?AVDName@@_N@Z 10151100 f   libvcruntimed:undname.obj
 0001:001502c0       ?getTemplateNonTypeArgument@UnDecorator@@CA?AVDName@@XZ 101512c0 f   libvcruntimed:undname.obj
 0001:001508c0       ?getTemplateTypeArgument@UnDecorator@@CA?AVDName@@XZ 101518c0 f   libvcruntimed:undname.obj
 0001:00150a60       ?getThisType@UnDecorator@@CA?AVDName@@XZ 10151a60 f i libvcruntimed:undname.obj
 0001:00150aa0       ?getThrowTypes@UnDecorator@@CA?AVDName@@XZ 10151aa0 f   libvcruntimed:undname.obj
 0001:00150ae0       ?getTypeEncoding@UnDecorator@@CAHXZ 10151ae0 f i libvcruntimed:undname.obj
 0001:001515a0       ?getUndecoratedName@UnDecorator@@QAEPADPADH@Z 101525a0 f i libvcruntimed:undname.obj
 0001:00151700       ?getUnionObject@UnDecorator@@CA?AVDName@@XZ 10152700 f   libvcruntimed:undname.obj
 0001:001517d0       ?getVCallThunkType@UnDecorator@@CA?AVDName@@XZ 101527d0 f i libvcruntimed:undname.obj
 0001:00151850       ?getValue@UnDecorator@@CA?AV?$optional@_K@std@@XZ 10152850 f   libvcruntimed:undname.obj
 0001:00151910       ?getValueObject@UnDecorator@@CA?AVDName@@XZ 10152910 f   libvcruntimed:undname.obj
 0001:00151af0       ?getVbTableType@UnDecorator@@CA?AVDName@@ABV2@@Z 10152af0 f i libvcruntimed:undname.obj
 0001:00151b10       ?getVdispMapType@UnDecorator@@CA?AVDName@@ABV2@@Z 10152b10 f i libvcruntimed:undname.obj
 0001:00151ba0       ?getVfTableType@UnDecorator@@CA?AVDName@@ABV2@@Z 10152ba0 f i libvcruntimed:undname.obj
 0001:00151da0       ?getZName@UnDecorator@@CA?AVDName@@_N0@Z 10152da0 f   libvcruntimed:undname.obj
 0001:001520e0       ?haveTemplateParameters@UnDecorator@@SAHXZ 101530e0 f i libvcruntimed:undname.obj
 0001:001520f0       ?isArray@DName@@QBEHXZ     101530f0 f i libvcruntimed:undname.obj
 0001:00152110       ?isComArray@DName@@QBEHXZ  10153110 f i libvcruntimed:undname.obj
 0001:00152130       ?isEmpty@DName@@QBEHXZ     10153130 f i libvcruntimed:undname.obj
 0001:00152160       ?isFull@Replicator@@QBEHXZ 10153160 f i libvcruntimed:undname.obj
 0001:00152190       ?isNoTE@DName@@QBEHXZ      10153190 f i libvcruntimed:undname.obj
 0001:001521b0       ?isPinPtr@DName@@QBEHXZ    101531b0 f i libvcruntimed:undname.obj
 0001:001521d0       ?isPtrRef@DName@@QBEHXZ    101531d0 f i libvcruntimed:undname.obj
 0001:001521f0       ?isUDC@DName@@QBEHXZ       101531f0 f i libvcruntimed:undname.obj
 0001:00152230       ?isUDTThunk@DName@@QBEHXZ  10153230 f i libvcruntimed:undname.obj
 0001:00152270       ?isVCallThunk@DName@@QBEHXZ 10153270 f i libvcruntimed:undname.obj
 0001:00152290       ?isValid@DName@@QBEHXZ     10153290 f i libvcruntimed:undname.obj
 0001:001522d0       ?length@DName@@QBEHXZ      101532d0 f i libvcruntimed:undname.obj
 0001:00152310       ?length@DNameStatusNode@@UBEHXZ 10153310 f i libvcruntimed:undname.obj
 0001:00152330       ?length@charNode@@UBEHXZ   10153330 f i libvcruntimed:undname.obj
 0001:00152340       ?length@pDNameNode@@UBEHXZ 10153340 f i libvcruntimed:undname.obj
 0001:00152370       ?length@pairNode@@UBEHXZ   10153370 f i libvcruntimed:undname.obj
 0001:001523e0       ?length@pcharNode@@UBEHXZ  101533e0 f i libvcruntimed:undname.obj
 0001:00152400       ?make@DNameStatusNode@@SAPBV1@W4DNameStatus@@@Z 10153400 f i libvcruntimed:undname.obj
 0001:00152430       ?parseDecoratedName@UnDecorator@@CA?AVDName@@XZ 10153430 f   libvcruntimed:undname.obj
 0001:001525c0       ?raw_length@DNameStatusNode@@UBEHXZ 101535c0 f i libvcruntimed:undname.obj
 0001:001525e0       ?raw_length@charNode@@UBEHXZ 101535e0 f i libvcruntimed:undname.obj
 0001:00152600       ?raw_length@pDNameNode@@UBEHXZ 10153600 f i libvcruntimed:undname.obj
 0001:00152610       ?raw_length@pairNode@@UBEHXZ 10153610 f i libvcruntimed:undname.obj
 0001:00152630       ?raw_length@pcharNode@@UBEHXZ 10153630 f i libvcruntimed:undname.obj
 0001:00152650       ?setIsArray@DName@@QAEXXZ  10153650 f i libvcruntimed:undname.obj
 0001:00152670       ?setIsComArray@DName@@QAEXXZ 10153670 f i libvcruntimed:undname.obj
 0001:00152690       ?setIsNoTE@DName@@QAEXXZ   10153690 f i libvcruntimed:undname.obj
 0001:001526b0       ?setIsPinPtr@DName@@QAEXXZ 101536b0 f i libvcruntimed:undname.obj
 0001:001526d0       ?setIsUDC@DName@@QAEXXZ    101536d0 f i libvcruntimed:undname.obj
 0001:00152700       ?setIsVCallThunk@DName@@QAEXXZ 10153700 f i libvcruntimed:undname.obj
 0001:00152720       ?setPtrRef@DName@@QAEAAV1@XZ 10153720 f i libvcruntimed:undname.obj
 0001:00152740       ?status@DName@@QBE?AW4DNameStatus@@XZ 10153740 f i libvcruntimed:undname.obj
 0001:00152840       ___unDName                 10153840 f   libvcruntimed:undname.obj
 0001:00152870       ___unDNameEx               10153870 f   libvcruntimed:undname.obj
 0001:00152940       _unDNameGenerateCHPE       10153940 f   libvcruntimed:undname.obj
 0001:001529a0       _strchr                    101539a0 f   libvcruntimed:strchr.obj
 0001:00152a0e       ___from_strstr_to_strchr   10153a0e     libvcruntimed:strchr.obj
 0001:00152ad0       __local_unwind4            10153ad0 f   libvcruntimed:exsup4.obj
 0001:00152bc0       __seh_longjmp_unwind4@4    10153bc0 f   libvcruntimed:exsup4.obj
 0001:00152bf0       @_EH4_CallFilterFunc@8     10153bf0 f   libvcruntimed:exsup4.obj
 0001:00152c10       @_EH4_TransferToHandler@8  10153c10 f   libvcruntimed:exsup4.obj
 0001:00152c30       @_EH4_GlobalUnwind2@8      10153c30 f   libvcruntimed:exsup4.obj
 0001:00152c50       @_EH4_LocalUnwind@16       10153c50 f   libvcruntimed:exsup4.obj
 0001:00152c80       ___except_validate_context_record 10153c80 f   libvcruntimed:jbcxrval.obj
 0001:00152cd0       ___except_validate_jump_buffer 10153cd0 f   libvcruntimed:jbcxrval.obj
 0001:00152cf0       ___except_validate_jump_buffer_common 10153cf0 f i libvcruntimed:jbcxrval.obj
 0001:00152d50       ??$?RU__vcrt_ptd@@@__crt_internal_free_policy@@QBEXQBU__vcrt_ptd@@@Z 10153d50 f i libvcruntimed:per_thread_data.obj
 0001:00152d70       ??0?$__crt_unique_heap_ptr@U__vcrt_ptd@@U__crt_internal_free_policy@@@@QAE@QAU__vcrt_ptd@@@Z 10153d70 f i libvcruntimed:per_thread_data.obj
 0001:00152db0       ??1?$__crt_unique_heap_ptr@U__vcrt_ptd@@U__crt_internal_free_policy@@@@QAE@XZ 10153db0 f i libvcruntimed:per_thread_data.obj
 0001:00152df0       ??B?$__crt_unique_heap_ptr@U__vcrt_ptd@@U__crt_internal_free_policy@@@@QBE_NXZ 10153df0 f i libvcruntimed:per_thread_data.obj
 0001:00152e10       ?detach@?$__crt_unique_heap_ptr@U__vcrt_ptd@@U__crt_internal_free_policy@@@@QAEPAU__vcrt_ptd@@XZ 10153e10 f i libvcruntimed:per_thread_data.obj
 0001:00152e40       ?get@?$__crt_unique_heap_ptr@U__vcrt_ptd@@U__crt_internal_free_policy@@@@QBEPAU__vcrt_ptd@@XZ 10153e40 f i libvcruntimed:per_thread_data.obj
 0001:00152e50       ?is_valid@?$__crt_unique_heap_ptr@U__vcrt_ptd@@U__crt_internal_free_policy@@@@QBE_NXZ 10153e50 f i libvcruntimed:per_thread_data.obj
 0001:00152e80       ?release@?$__crt_unique_heap_ptr@U__vcrt_ptd@@U__crt_internal_free_policy@@@@QAEXXZ 10153e80 f i libvcruntimed:per_thread_data.obj
 0001:00152ee0       ___vcrt_freefls@4          10153ee0 f   libvcruntimed:per_thread_data.obj
 0001:00152f10       ___vcrt_freeptd            10153f10 f   libvcruntimed:per_thread_data.obj
 0001:00152f70       ___vcrt_getptd             10153f70 f   libvcruntimed:per_thread_data.obj
 0001:00152f90       ___vcrt_getptd_noexit      10153f90 f   libvcruntimed:per_thread_data.obj
 0001:001530f0       ___vcrt_getptd_noinit      101540f0 f   libvcruntimed:per_thread_data.obj
 0001:00153150       ___vcrt_initialize_ptd     10154150 f   libvcruntimed:per_thread_data.obj
 0001:001531a0       ___vcrt_uninitialize_ptd   101541a0 f   libvcruntimed:per_thread_data.obj
 0001:001531d0       ___vcrt_initialize_locks   101541d0 f   libvcruntimed:locks.obj
 0001:00153230       ___vcrt_lock               10154230 f   libvcruntimed:locks.obj
 0001:00153250       ___vcrt_uninitialize_locks 10154250 f   libvcruntimed:locks.obj
 0001:001532a0       ___vcrt_unlock             101542a0 f   libvcruntimed:locks.obj
 0001:001532c0       ??$?0AAViterator@TryBlockMap@__FrameHandler3@@AAV012@$0A@@?$pair@Viterator@TryBlockMap@__FrameHandler3@@V123@@std@@QAE@AAViterator@TryBlockMap@__FrameHandler3@@0@Z 101542c0 f i libvcruntimed:trnsctrl.obj
 0001:00153310       ??$forward@AAViterator@TryBlockMap@__FrameHandler3@@@std@@YAAAViterator@TryBlockMap@__FrameHandler3@@AAV123@@Z 10154310 f i libvcruntimed:trnsctrl.obj
 0001:00153320       ??0iterator@TryBlockMap@__FrameHandler3@@QAE@AAV12@I@Z 10154320 f i libvcruntimed:trnsctrl.obj
 0001:00153350       ?GetRangeOfTrysToCheck@__FrameHandler3@@SA?AU?$pair@Viterator@TryBlockMap@__FrameHandler3@@V123@@std@@AAVTryBlockMap@1@HPAXPBU_s_FuncInfo@@H@Z 10154350 f   libvcruntimed:trnsctrl.obj
 0001:00153430       ?_CallCatchBlock2@@YAPAXPAUEHRegistrationNode@@PBU_s_FuncInfo@@PAXHK@Z 10154430 f   libvcruntimed:trnsctrl.obj
 0001:001534a0       ?_CallSETranslator@@YAHPAUEHExceptionRecord@@PAUEHRegistrationNode@@PAX2PBU_s_FuncInfo@@H1@Z 101544a0 f   libvcruntimed:trnsctrl.obj
 0001:001535b0       ?_JumpToContinuation@@YGXPAXPAUEHRegistrationNode@@@Z 101545b0 f   libvcruntimed:trnsctrl.obj
 0001:001535f0       ?_UnwindNestedFrames@@YGXPAUEHRegistrationNode@@PAUEHExceptionRecord@@@Z 101545f0 f   libvcruntimed:trnsctrl.obj
 0001:00153650       __CatchGuardHandler        10154650 f   libvcruntimed:trnsctrl.obj
 0001:001536a0       __CreateFrameInfo          101546a0 f   libvcruntimed:trnsctrl.obj
 0001:001536d0       __FindAndUnlinkFrame       101546d0 f   libvcruntimed:trnsctrl.obj
 0001:00153740       __TranslatorGuardHandler   10154740 f   libvcruntimed:trnsctrl.obj
 0001:001537f0       ___CxxFrameHandler         101547f0 f   libvcruntimed:trnsctrl.obj
 0001:00153830       ___CxxFrameHandler2        10154830 f   libvcruntimed:trnsctrl.obj
 0001:00153870       ___CxxFrameHandler3        10154870 f   libvcruntimed:trnsctrl.obj
 0001:001538b0       ___CxxLongjmpUnwind@4      101548b0 f   libvcruntimed:trnsctrl.obj
 0001:001538f0       __global_unwind2           101548f0 f   libvcruntimed:exsup.obj
 0001:00153970       __local_unwind2            10154970 f   libvcruntimed:exsup.obj
 0001:00153a10       __abnormal_termination     10154a10 f   libvcruntimed:exsup.obj
 0001:00153a40       __NLG_Notify1              10154a40 f   libvcruntimed:exsup.obj
 0001:00153a50       __NLG_Notify               10154a50 f   libvcruntimed:exsup.obj
 0001:00153a67       __NLG_Dispatch             10154a67     libvcruntimed:exsup.obj
 0001:00153a67       __NLG_Dispatch2            10154a67     libvcruntimed:exsup.obj
 0001:00153a70       __NLG_Call                 10154a70 f   libvcruntimed:exsup.obj
 0001:00153a72       __NLG_Return2              10154a72     libvcruntimed:exsup.obj
 0001:00153a80       ??$__crt_interlocked_exchange_pointer@UHINSTANCE__@@PAU1@@@YAPAUHINSTANCE__@@PDSAU0@QAU0@@Z 10154a80 f i libvcruntimed:winapi_downlevel.obj
 0001:00153a90       ??$__crt_interlocked_exchange_pointer@UHINSTANCE__@@PAX@@YAPAUHINSTANCE__@@PDSAU0@QAX@Z 10154a90 f i libvcruntimed:winapi_downlevel.obj
 0001:00153aa0       ??$__crt_interlocked_exchange_pointer@XPAX@@YAPAXPDSAXQAX@Z 10154aa0 f i libvcruntimed:winapi_downlevel.obj
 0001:00153ab0       ??$__crt_interlocked_read_pointer@UHINSTANCE__@@@@YAPAUHINSTANCE__@@PDSAU0@@Z 10154ab0 f i libvcruntimed:winapi_downlevel.obj
 0001:00153ad0       ??$__crt_interlocked_read_pointer@X@@YAPAXPDSAX@Z 10154ad0 f i libvcruntimed:winapi_downlevel.obj
 0001:00153ea0       ___vcrt_FlsAlloc           10154ea0 f   libvcruntimed:winapi_downlevel.obj
 0001:00153ee0       ___vcrt_FlsFree            10154ee0 f   libvcruntimed:winapi_downlevel.obj
 0001:00153f20       ___vcrt_FlsGetValue        10154f20 f   libvcruntimed:winapi_downlevel.obj
 0001:00153f60       ___vcrt_FlsSetValue        10154f60 f   libvcruntimed:winapi_downlevel.obj
 0001:00153fb0       ___vcrt_InitializeCriticalSectionEx 10154fb0 f   libvcruntimed:winapi_downlevel.obj
 0001:00154b50       ??$TypeMatchHelper@V__FrameHandler3@@@@YAHPBU_s_HandlerType@@PBU_s_CatchableType@@PBU_s_ThrowInfo@@@Z 10155b50 f i libvcruntimed:frame.obj
 0001:00154c30       ??$__InternalCxxFrameHandler@V__FrameHandler3@@@@YA?AW4_EXCEPTION_DISPOSITION@@PAUEHExceptionRecord@@PAUEHRegistrationNode@@PAU_CONTEXT@@PAXPBU_s_FuncInfo@@H1E@Z 10155c30 f i libvcruntimed:frame.obj
 0001:00154df0       ??0HandlerMap@__FrameHandler3@@QAE@PBU_s_TryBlockMapEntry@@II@Z 10155df0 f i libvcruntimed:frame.obj
 0001:00154e20       ??0TryBlockMap@__FrameHandler3@@QAE@PBU_s_FuncInfo@@I@Z 10155e20 f i libvcruntimed:frame.obj
 0001:00154e50       ??0bad_exception@std@@QAE@ABV01@@Z 10155e50 f i libvcruntimed:frame.obj
 0001:00154e80       ??0bad_exception@std@@QAE@XZ 10155e80 f i libvcruntimed:frame.obj
 0001:00154eb0       ??0exception@std@@QAE@ABV01@@Z 10155eb0 f i libvcruntimed:frame.obj
 0001:00154ef0       ??0exception@std@@QAE@QBDH@Z 10155ef0 f i libvcruntimed:frame.obj
 0001:00154f20       ??0iterator@HandlerMap@__FrameHandler3@@QAE@AAV12@I@Z 10155f20 f i libvcruntimed:frame.obj
 0001:00154f50       ??1bad_exception@std@@UAE@XZ 10155f50 f i libvcruntimed:frame.obj
 0001:00154f70       ??1exception@std@@UAE@XZ   10155f70 f i libvcruntimed:frame.obj
 0001:00154fa0       ??8iterator@HandlerMap@__FrameHandler3@@QBE_NABV012@@Z 10155fa0 f i libvcruntimed:frame.obj
 0001:00154fd0       ??8type_info@@QBE_NABV0@@Z 10155fd0 f i libvcruntimed:frame.obj
 0001:00155010       ??9iterator@HandlerMap@__FrameHandler3@@QBE_NABV012@@Z 10156010 f i libvcruntimed:frame.obj
 0001:00155050       ??Diterator@HandlerMap@__FrameHandler3@@QAE?BU_s_HandlerType@@XZ 10156050 f i libvcruntimed:frame.obj
 0001:00155090       ??Diterator@TryBlockMap@__FrameHandler3@@QAE?BU_s_TryBlockMapEntry@@XZ 10156090 f i libvcruntimed:frame.obj
 0001:001550e0       ??Eiterator@HandlerMap@__FrameHandler3@@QAEAAV012@XZ 101560e0 f i libvcruntimed:frame.obj
 0001:00155100       ??Eiterator@TryBlockMap@__FrameHandler3@@QAEAAV012@XZ 10156100 f i libvcruntimed:frame.obj
 0001:00155120       ??Miterator@TryBlockMap@__FrameHandler3@@QBE_NABV012@@Z 10156120 f i libvcruntimed:frame.obj
 0001:00155150       ??_Gbad_exception@std@@UAEPAXI@Z 10156150 f i libvcruntimed:frame.obj
 0001:00155150       ??_Ebad_exception@std@@UAEPAXI@Z 10156150 f i libvcruntimed:frame.obj
 0001:00155180       ??_Eexception@std@@UAEPAXI@Z 10156180 f i libvcruntimed:frame.obj
 0001:00155180       ??_Gexception@std@@UAEPAXI@Z 10156180 f i libvcruntimed:frame.obj
 0001:001551b0       ?BuildCatchObject@__FrameHandler3@@SAXPAUEHExceptionRecord@@PAXPBU_s_HandlerType@@PBU_s_CatchableType@@@Z 101561b0 f   libvcruntimed:frame.obj
 0001:001551d0       ?BuildCatchObjectHelper@__FrameHandler3@@SAHPAUEHExceptionRecord@@PAXPBU_s_HandlerType@@PBU_s_CatchableType@@@Z 101561d0 f   libvcruntimed:frame.obj
