 PhysXCooking_32

 Timestamp is 6446c897 (Mon Apr 24 20:21:11 2023)

 Preferred load address is 10000000

 Start         Length     Name                   Class
 0001:00000000 00001320H .text$di                CODE
 0001:00001320 000c5770H .text$mn                CODE
 0001:000c6a90 00000c8dH .text$x                 CODE
 0002:00000000 00000164H .idata$5                DATA
 0002:00000164 00000008H .00cfg                  DATA
 0002:0000016c 00000004H .CRT$XCA                DATA
 0002:00000170 000000f8H .CRT$XCU                DATA
 0002:00000268 00000004H .CRT$XCZ                DATA
 0002:0000026c 00000004H .CRT$XIA                DATA
 0002:00000270 0000000cH .CRT$XIC                DATA
 0002:0000027c 00000004H .CRT$XIZ                DATA
 0002:00000280 00000004H .CRT$XPA                DATA
 0002:00000284 00000008H .CRT$XPX                DATA
 0002:0000028c 00000004H .CRT$XPXA               DATA
 0002:00000290 00000004H .CRT$XPZ                DATA
 0002:00000294 00000004H .CRT$XTA                DATA
 0002:00000298 00000008H .CRT$XTZ                DATA
 0002:0000029c 00000000H .gfids$y                DATA
 0002:000002a0 00025c20H .rdata                  DATA
 0002:00025ec0 00000004H .rdata$CastGuardVftablesA DATA
 0002:00025ec4 00000004H .rdata$CastGuardVftablesC DATA
 0002:00025ec8 000002a0H .rdata$r                DATA
 0002:00026168 0000019cH .rdata$sxdata           DATA
 0002:00026304 00000508H .rdata$voltmd           DATA
 0002:0002680c 00000458H .rdata$zzzdbg           DATA
 0002:00026c64 00000004H .rtc$IAA                DATA
 0002:00026c68 00000050H .rtc$IMZ                DATA
 0002:00026cb8 00000004H .rtc$IZZ                DATA
 0002:00026cbc 00000004H .rtc$TAA                DATA
 0002:00026cc0 00000050H .rtc$TMZ                DATA
 0002:00026d10 00000008H .rtc$TZZ                DATA
 0002:00026d18 0000187cH .xdata$x                DATA
 0002:00028594 00000040H .didat$2                DATA
 0002:000285d4 00000020H .didat$3                DATA
 0002:000285f4 000000e8H .didat$4                DATA
 0002:000286dc 00000ad8H .didat$6                DATA
 0002:000291b4 000000ecH .didat$7                DATA
 0002:000292a0 00001c68H .edata                  DATA
 0002:0002af08 00000014H .idata$2                DATA
 0002:0002af1c 00000014H .idata$3                DATA
 0002:0002af30 00000164H .idata$4                DATA
 0002:0002b094 00000678H .idata$6                DATA
 0003:00000000 00000910H .data                   DATA
 0003:00000910 00000294H .data$r                 DATA
 0003:00000ba4 000000b4H .data$rs                DATA
 0003:00000c58 000000e8H .didat$5                DATA
 0003:00000d40 000018dcH .bss                    DATA
 0004:00000000 000000a0H .rsrc$01                DATA
 0004:000000a0 000004b0H .rsrc$02                DATA

  Address         Publics by Value              Rva+Base       Lib:Object

 0000:00000000       ___arm64x_extra_rfe_table_size 00000000     <absolute>
 0000:00000000       ___guard_iat_count         00000000     <absolute>
 0000:00000000       ___dynamic_value_reloc_table 00000000     <absolute>
 0000:00000000       ___hybrid_auxiliary_iat    00000000     <absolute>
 0000:00000000       ___arm64x_native_entrypoint 00000000     <absolute>
 0000:00000000       ___arm64x_extra_rfe_table  00000000     <absolute>
 0000:00000000       ___guard_longjmp_table     00000000     <absolute>
 0000:00000000       ___arm64x_redirection_metadata 00000000     <absolute>
 0000:00000000       ___hybrid_code_map_count   00000000     <absolute>
 0000:00000000       __except_list              00000000     <absolute>
 0000:00000000       ___guard_fids_table        00000000     <absolute>
 0000:00000000       ___guard_eh_cont_table     00000000     <absolute>
 0000:00000000       ___hybrid_auxiliary_iat_copy 00000000     <absolute>
 0000:00000000       ___x64_code_ranges_to_entry_points_count 00000000     <absolute>
 0000:00000000       ___x64_code_ranges_to_entry_points 00000000     <absolute>
 0000:00000000       ___guard_iat_table         00000000     <absolute>
 0000:00000000       ___enclave_config          00000000     <absolute>
 0000:00000000       ___guard_eh_cont_count     00000000     <absolute>
 0000:00000000       ___guard_longjmp_count     00000000     <absolute>
 0000:00000000       ___AbsoluteZero            00000000     <absolute>
 0000:00000000       ___guard_check_icall_a64n_fptr 00000000     <absolute>
 0000:00000000       ___guard_fids_count        00000000     <absolute>
 0000:00000000       ___arm64x_redirection_metadata_count 00000000     <absolute>
 0000:00000000       ___hybrid_code_map         00000000     <absolute>
 0000:00000067       ___safe_se_handler_count   00000067     <absolute>
 0000:00000100       ___guard_flags             00000100     <absolute>
 0000:00000000       ___ImageBase               10000000     <linker-defined>
 0001:00001320       ?ComputeNbBoundaryEdges@AdjTriangle@physx@@QBEIXZ 10002320 f   Adjacencies.obj
 0001:000013b0       ?ComputeNbNeighbors@AdjTriangle@physx@@QBEIXZ 100023b0 f   Adjacencies.obj
 0001:00001440       ?HasNeighbor@AdjTriangle@physx@@QBE_NIPAI@Z 10002440 f   Adjacencies.obj
 0001:00001530       ?Flip@AdjTriangle@physx@@QAEXXZ 10002530 f   Adjacencies.obj
 0001:00001560       ??0Adjacencies@physx@@QAE@XZ 10002560 f   Adjacencies.obj
 0001:00001590       ??1Adjacencies@physx@@QAE@XZ 10002590 f   Adjacencies.obj
 0001:000015d0       ?Load@Adjacencies@physx@@QAE_NAAVPxInputStream@2@@Z 100025d0 f   Adjacencies.obj
 0001:000016d0       ?ComputeNbBoundaryEdges@Adjacencies@physx@@QBEIXZ 100026d0 f   Adjacencies.obj
 0001:00001730       ?GetBoundaryVertices@Adjacencies@physx@@QBE_NIPA_NPBU?$TriangleT@I@Gu@2@@Z 10002730 f   Adjacencies.obj
 0001:00001940       ?MakeLastRef@Adjacencies@physx@@QAE_NAAVAdjTriangle@2@IPAU?$TriangleT@I@Gu@2@@Z 10002940 f   Adjacencies.obj
 0001:00001bc0       ?AssignNewEdgeCode@Adjacencies@physx@@AAEXIE@Z 10002bc0 f   Adjacencies.obj
 0001:00001c40       ??0AdjacenciesBuilder@physx@@QAE@XZ 10002c40 f   Adjacencies.obj
 0001:00001c60       ??1AdjacenciesBuilder@physx@@QAE@XZ 10002c60 f   Adjacencies.obj
 0001:00001c80       ?Init@AdjacenciesBuilder@physx@@QAE_NABUADJACENCIESCREATE@2@@Z 10002c80 f   Adjacencies.obj
 0001:00002940       ??$?_UI@@YAPAXIV?$ReflectionAllocator@I@shdfnd@physx@@PBDH@Z 10003940 f i Adjacencies.obj
 0001:00002960       ??$?_UV?$ReflectionAllocator@VAdjEdge@@@shdfnd@physx@@@UserAllocated@shdfnd@physx@@SAPAXIV?$ReflectionAllocator@VAdjEdge@@@12@PBDH@Z 10003960 f i Adjacencies.obj
 0001:00002980       ??$?_UV?$ReflectionAllocator@VAdjTriangle@physx@@@shdfnd@physx@@@UserAllocated@shdfnd@physx@@SAPAXIV?$ReflectionAllocator@VAdjTriangle@physx@@@12@PBDH@Z 10003980 f i Adjacencies.obj
 0001:000029a0       ??$swap@I@shdfnd@physx@@YAXAAI0@Z 100039a0 f i Adjacencies.obj
 0001:000029d0       ??0?$ReflectionAllocator@I@shdfnd@physx@@QAE@PBD@Z 100039d0 f i Adjacencies.obj
 0001:000029e0       ??0?$ReflectionAllocator@VAdjEdge@@@shdfnd@physx@@QAE@PBD@Z 100039e0 f i Adjacencies.obj
 0001:000029f0       ??0?$ReflectionAllocator@VAdjTriangle@physx@@@shdfnd@physx@@QAE@PBD@Z 100039f0 f i Adjacencies.obj
 0001:00002a00       ??0?$TriangleT@I@Gu@physx@@QAE@XZ 10003a00 f i Adjacencies.obj
 0001:00002a10       ??0AdjEdge@@QAE@XZ         10003a10 f i Adjacencies.obj
 0001:00002a20       ??0AdjTriangle@physx@@QAE@XZ 10003a20 f i Adjacencies.obj
 0001:00002a30       ??0Allocator@shdfnd@physx@@QAE@PBD@Z 10003a30 f i Adjacencies.obj
 0001:00002a40       ??0EDGELISTCREATE@Gu@physx@@QAE@XZ 10003a40 f i Adjacencies.obj
 0001:00002aa0       ??0NonTrackingAllocator@shdfnd@physx@@QAE@PBD@Z 10003aa0 f i Adjacencies.obj
 0001:00002ab0       ??0PxFoundation@physx@@QAE@ABV01@@Z 10003ab0 f i Adjacencies.obj
 0001:00002ad0       ??0PxFoundation@physx@@QAE@XZ 10003ad0 f i Adjacencies.obj
 0001:00002af0       ??1AdjEdge@@QAE@XZ         10003af0 f i Adjacencies.obj
 0001:00002b00       ??1AdjTriangle@physx@@QAE@XZ 10003b00 f i Adjacencies.obj
 0001:00002b10       ??1PxFoundation@physx@@MAE@XZ 10003b10 f i Adjacencies.obj
 0001:00002b30       ??3UserAllocated@shdfnd@physx@@SAXPAX@Z 10003b30 f i Adjacencies.obj
 0001:00002b50       ??4Allocator@shdfnd@physx@@QAEAAV012@$$QAV012@@Z 10003b50 f i Adjacencies.obj
 0001:00002b60       ??4Allocator@shdfnd@physx@@QAEAAV012@ABV012@@Z 10003b60 f i Adjacencies.obj
 0001:00002b70       ??4MutexImpl@shdfnd@physx@@QAEAAV012@ABV012@@Z 10003b70 f i Adjacencies.obj
 0001:00002b80       ??4PxFoundation@physx@@QAEAAV01@ABV01@@Z 10003b80 f i Adjacencies.obj
 0001:00002b90       ??_EAdjEdge@@QAEPAXI@Z     10003b90 f i Adjacencies.obj
 0001:00002c40       ??_EAdjTriangle@physx@@QAEPAXI@Z 10003c40 f i Adjacencies.obj
 0001:00002cf0       ??_EPxFoundation@physx@@MAEPAXI@Z 10003cf0 f i Adjacencies.obj
 0001:00002d70       ??_FAllocator@shdfnd@physx@@QAEXXZ 10003d70 f i Adjacencies.obj
 0001:00002d90       ??_FNamedAllocator@shdfnd@physx@@QAEXXZ 10003d90 f i Adjacencies.obj
 0001:00002db0       ??_GPxFoundation@physx@@MAEPAXI@Z 10003db0 f i Adjacencies.obj
 0001:00002de0       ??_H@YGXPAXIIP6EPAX0@Z@Z   10003de0 f i Adjacencies.obj
 0001:00002e30       ??_I@YGXPAXIIP6EX0@Z@Z     10003e30 f i Adjacencies.obj
 0001:00002e90       ??_VUserAllocated@shdfnd@physx@@SAXPAX@Z 10003e90 f i Adjacencies.obj
 0001:00002eb0       ?GetNbHits@RadixSort@Cm@physx@@QBEIXZ 10003eb0 f i Adjacencies.obj
 0001:00002ed0       ?GetNbTotalCalls@RadixSort@Cm@physx@@QBEIXZ 10003ed0 f i Adjacencies.obj
 0001:00002ef0       ?GetRanks@RadixSort@Cm@physx@@QBEPBIXZ 10003ef0 f i Adjacencies.obj
 0001:00002f10       ?GetRecyclable@RadixSort@Cm@physx@@QBEPAIXZ 10003f10 f i Adjacencies.obj
 0001:00002f30       ?HasActiveEdge01@AdjTriangle@physx@@QBEHXZ 10003f30 f i Adjacencies.obj
 0001:00002f50       ?HasActiveEdge01@EdgeTriangleAC@Gu@physx@@SAHABUEdgeTriangleData@23@@Z 10003f50 f i Adjacencies.obj
 0001:00002f70       ?HasActiveEdge12@AdjTriangle@physx@@QBEHXZ 10003f70 f i Adjacencies.obj
 0001:00002f90       ?HasActiveEdge12@EdgeTriangleAC@Gu@physx@@SAHABUEdgeTriangleData@23@@Z 10003f90 f i Adjacencies.obj
 0001:00002fb0       ?HasActiveEdge20@AdjTriangle@physx@@QBEHXZ 10003fb0 f i Adjacencies.obj
 0001:00002fd0       ?HasActiveEdge20@EdgeTriangleAC@Gu@physx@@SAHABUEdgeTriangleData@23@@Z 10003fd0 f i Adjacencies.obj
 0001:00002ff0       ?PxMemZero@physx@@YAPAXPAXI@Z 10003ff0 f i Adjacencies.obj
 0001:00003010       ?__empty_global_delete@@YAXPAX@Z 10004010 f i Adjacencies.obj
 0001:00003020       ?__empty_global_delete@@YAXPAXI@Z 10004020 f i Adjacencies.obj
 0001:00003030       ?allocate@?$ReflectionAllocator@I@shdfnd@physx@@QAEPAXIPBDH@Z 10004030 f i Adjacencies.obj
 0001:00003080       ?allocate@?$ReflectionAllocator@VAdjEdge@@@shdfnd@physx@@QAEPAXIPBDH@Z 10004080 f i Adjacencies.obj
 0001:000030d0       ?allocate@?$ReflectionAllocator@VAdjTriangle@physx@@@shdfnd@physx@@QAEPAXIPBDH@Z 100040d0 f i Adjacencies.obj
 0001:00003120       ?deallocate@NonTrackingAllocator@shdfnd@physx@@QAEXPAX@Z 10004120 f i Adjacencies.obj
 0001:00003150       ?findEdge@?$TriangleT@I@Gu@physx@@QBEEII@Z 10004150 f i Adjacencies.obj
 0001:00003270       ?getAllocator@Foundation@shdfnd@physx@@QAEAAVPxAllocatorCallback@3@XZ 10004270 f i Adjacencies.obj
 0001:00003290       ?getAllocatorCallback@Foundation@shdfnd@physx@@UAEAAVPxAllocatorCallback@3@XZ 10004290 f i Adjacencies.obj
 0001:000032b0       ?getEdgeTriangle@EdgeList@Gu@physx@@QBEABUEdgeTriangleData@23@I@Z 100042b0 f i Adjacencies.obj
 0001:000032d0       ?getErrorCallback@Foundation@shdfnd@physx@@UAEAAVPxErrorCallback@3@XZ 100042d0 f i Adjacencies.obj
 0001:000032f0       ?getErrorLevel@Foundation@shdfnd@physx@@UBE?AW4Enum@PxErrorCode@3@XZ 100042f0 f i Adjacencies.obj
 0001:00003310       ?getFoundation@shdfnd@physx@@YAAAVFoundation@12@XZ 10004310 f i Adjacencies.obj
 0001:00003320       ?getInternalErrorCallback@Foundation@shdfnd@physx@@QAEAAVPxErrorCallback@3@XZ 10004320 f i Adjacencies.obj
 0001:00003340       ?getName@?$ReflectionAllocator@I@shdfnd@physx@@CAPBDXZ 10004340 f i Adjacencies.obj
 0001:00003380       ?getName@?$ReflectionAllocator@VAdjEdge@@@shdfnd@physx@@CAPBDXZ 10004380 f i Adjacencies.obj
 0001:000033c0       ?getName@?$ReflectionAllocator@VAdjTriangle@physx@@@shdfnd@physx@@CAPBDXZ 100043c0 f i Adjacencies.obj
 0001:00003400       ?getNamedAllocMap@Foundation@shdfnd@physx@@QAEAAV?$HashMap@PBVNamedAllocator@shdfnd@physx@@PBDU?$Hash@PBVNamedAllocator@shdfnd@physx@@@23@VNonTrackingAllocator@23@@23@XZ 10004400 f i Adjacencies.obj
 0001:00003420       ?getNamedAllocMutex@Foundation@shdfnd@physx@@QAEAAV?$MutexT@VAllocator@shdfnd@physx@@@23@XZ 10004420 f i Adjacencies.obj
 0001:00003440       ?getReportAllocationNames@Foundation@shdfnd@physx@@UBE_NXZ 10004440 f i Adjacencies.obj
 0001:00003460       ?getTempAllocFreeTable@Foundation@shdfnd@physx@@QAEAAV?$Array@PATTempAllocatorChunk@shdfnd@physx@@VAllocator@23@@23@XZ 10004460 f i Adjacencies.obj
 0001:00003480       ?getTempAllocMutex@Foundation@shdfnd@physx@@QAEAAV?$MutexT@VAllocator@shdfnd@physx@@@23@XZ 10004480 f i Adjacencies.obj
 0001:000034a0       ?invalidateRanks@RadixSort@Cm@physx@@QAEXXZ 100044a0 f i Adjacencies.obj
 0001:000034c0       ?memZero@intrinsics@physx@@YAPAXPAXI@Z 100044c0 f i Adjacencies.obj
 0001:000034e0       ?name@type_info@@QBEPBDXZ  100044e0 f i Adjacencies.obj
 0001:00003500       ?setErrorLevel@Foundation@shdfnd@physx@@UAEXW4Enum@PxErrorCode@3@@Z 10004500 f i Adjacencies.obj
 0001:00003520       ?setReportAllocationNames@Foundation@shdfnd@physx@@UAEX_N@Z 10004520 f i Adjacencies.obj
 0001:00003540       _PxCreateCooking           10004540 f   Cooking.obj
 0001:000035f0       ?release@Cooking@physx@@UAEXXZ 100045f0 f   Cooking.obj
 0001:00003630       ?setParams@Cooking@physx@@UAEXABUPxCookingParams@2@@Z 10004630 f   Cooking.obj
 0001:00003650       ?getParams@Cooking@physx@@UBEABUPxCookingParams@2@XZ 10004650 f   Cooking.obj
 0001:00003670       ?platformMismatch@Cooking@physx@@UBE_NXZ 10004670 f   Cooking.obj
 0001:000036b0       ?cookTriangleMesh@Cooking@physx@@UBE_NABVPxTriangleMeshDesc@2@AAVPxOutputStream@2@PAW4Enum@PxTriangleMeshCookingResult@2@@Z 100046b0 f   Cooking.obj
 0001:00003770       ?createTriangleMesh@Cooking@physx@@UBEPAVPxTriangleMesh@2@ABVPxTriangleMeshDesc@2@AAVPxPhysicsInsertionCallback@2@PAW4Enum@PxTriangleMeshCookingResult@2@@Z 10004770 f   Cooking.obj
 0001:00003830       ?validateTriangleMesh@Cooking@physx@@UBE_NABVPxTriangleMeshDesc@2@@Z 10004830 f   Cooking.obj
 0001:000038d0       ?cookConvexMesh@Cooking@physx@@UBE_NABVPxConvexMeshDesc@2@AAVPxOutputStream@2@PAW4Enum@PxConvexMeshCookingResult@2@@Z 100048d0 f   Cooking.obj
 0001:00003b00       ?createConvexMesh@Cooking@physx@@UBEPAVPxConvexMesh@2@ABVPxConvexMeshDesc@2@AAVPxPhysicsInsertionCallback@2@PAW4Enum@PxConvexMeshCookingResult@2@@Z 10004b00 f   Cooking.obj
 0001:00003d60       ?validateConvexMesh@Cooking@physx@@UBE_NABVPxConvexMeshDesc@2@@Z 10004d60 f   Cooking.obj
 0001:00003db0       ?computeHullPolygons@Cooking@physx@@UBE_NABVPxSimpleTriangleMesh@2@AAVPxAllocatorCallback@2@AAIAAPAVPxVec3@2@2AAPAI2AAPAUPxHullPolygon@2@@Z 10004db0 f   Cooking.obj
 0001:00003f70       ?cookHeightField@Cooking@physx@@UBE_NABVPxHeightFieldDesc@2@AAVPxOutputStream@2@@Z 10004f70 f   Cooking.obj
 0001:00004090       ?createHeightField@Cooking@physx@@UBEPAVPxHeightField@2@ABVPxHeightFieldDesc@2@AAVPxPhysicsInsertionCallback@2@@Z 10005090 f   Cooking.obj
 0001:00004270       ?cookBVHStructure@Cooking@physx@@UBE_NABVPxBVHStructureDesc@2@AAVPxOutputStream@2@@Z 10005270 f   Cooking.obj
 0001:00004330       ?createBVHStructure@Cooking@physx@@UBEPAVPxBVHStructure@2@ABVPxBVHStructureDesc@2@AAVPxPhysicsInsertionCallback@2@@Z 10005330 f   Cooking.obj
 0001:00004400       ?cookConvexMeshInternal@Cooking@physx@@ABE_NABVPxConvexMeshDesc@2@AAVConvexMeshBuilder@2@PAVConvexHullLib@2@PAW4Enum@PxConvexMeshCookingResult@2@@Z 10005400 f   Cooking.obj
 0001:00004630       ?cookTriangleMesh@Cooking@physx@@ABE_NAAVTriangleMeshBuilder@2@ABVPxTriangleMeshDesc@2@AAVPxOutputStream@2@PAW4Enum@PxTriangleMeshCookingResult@2@@Z 10005630 f   Cooking.obj
 0001:000046c0       ?createTriangleMesh@Cooking@physx@@ABEPAVPxTriangleMesh@2@AAVTriangleMeshBuilder@2@ABVPxTriangleMeshDesc@2@AAVPxPhysicsInsertionCallback@2@PAW4Enum@PxTriangleMeshCookingResult@2@@Z 100056c0 f   Cooking.obj
 0001:00004820       ??$?2V?$ReflectionAllocator@VCooking@physx@@@shdfnd@physx@@@UserAllocated@shdfnd@physx@@SAPAXIV?$ReflectionAllocator@VCooking@physx@@@12@PBDH@Z 10005820 f i Cooking.obj
 0001:00004840       ??$?2V?$ReflectionAllocator@VQuickHullConvexHullLib@physx@@@shdfnd@physx@@@UserAllocated@shdfnd@physx@@SAPAXIV?$ReflectionAllocator@VQuickHullConvexHullLib@physx@@@12@PBDH@Z 10005840 f i Cooking.obj
 0001:00004860       ??$PX_UNUSED@VPxFoundation@physx@@@@YAXABVPxFoundation@physx@@@Z 10005860 f i Cooking.obj
 0001:00004870       ??$PX_UNUSED@W4PxIDENTITY@physx@@@@YAXABW4PxIDENTITY@physx@@@Z 10005870 f i Cooking.obj
 0001:00004880       ??$PxMax@I@physx@@YAIII@Z  10005880 f i Cooking.obj
 0001:000048b0       ??$PxMin@G@physx@@YAGGG@Z  100058b0 f i Cooking.obj
 0001:000048e0       ??0?$PxBitAndDataT@G$0IAAA@@physx@@QAE@XZ 100058e0 f i Cooking.obj
 0001:00004900       ??0?$PxFlags@W4Enum@PxBaseFlag@physx@@G@physx@@QAE@ABV01@@Z 10005900 f i Cooking.obj
 0001:00004920       ??0?$PxFlags@W4Enum@PxConvexFlag@physx@@G@physx@@QAE@ABV01@@Z 10005920 f i Cooking.obj
 0001:00004940       ??0?$PxFlags@W4Enum@PxConvexFlag@physx@@G@physx@@QAE@W4Enum@PxConvexFlag@1@@Z 10005940 f i Cooking.obj
 0001:00004960       ??0?$PxFlags@W4Enum@PxConvexFlag@physx@@G@physx@@QAE@XZ 10005960 f i Cooking.obj
 0001:00004980       ??0?$PxFlags@W4Enum@PxHeightFieldFlag@physx@@G@physx@@QAE@ABV01@@Z 10005980 f i Cooking.obj
 0001:000049a0       ??0?$PxFlags@W4Enum@PxHeightFieldFlag@physx@@G@physx@@QAE@W4PxEMPTY@1@@Z 100059a0 f i Cooking.obj
 0001:000049b0       ??0?$PxFlags@W4Enum@PxHeightFieldFlag@physx@@G@physx@@QAE@XZ 100059b0 f i Cooking.obj
 0001:000049d0       ??0?$PxFlags@W4Enum@PxMeshFlag@physx@@G@physx@@QAE@ABV01@@Z 100059d0 f i Cooking.obj
 0001:000049f0       ??0?$PxFlags@W4Enum@PxMeshPreprocessingFlag@physx@@I@physx@@QAE@ABV01@@Z 100059f0 f i Cooking.obj
 0001:00004a10       ??0?$ReflectionAllocator@VCooking@physx@@@shdfnd@physx@@QAE@PBD@Z 10005a10 f i Cooking.obj
 0001:00004a20       ??0?$ReflectionAllocator@VHeightField@Gu@physx@@@shdfnd@physx@@QAE@PBD@Z 10005a20 f i Cooking.obj
 0001:00004a30       ??0?$ReflectionAllocator@VQuickHullConvexHullLib@physx@@@shdfnd@physx@@QAE@PBD@Z 10005a30 f i Cooking.obj
 0001:00004a40       ??0CenterExtents@Gu@physx@@QAE@ABV012@@Z 10005a40 f i Cooking.obj
 0001:00004a70       ??0CenterExtents@Gu@physx@@QAE@XZ 10005a70 f i Cooking.obj
 0001:00004aa0       ??0ConvexHullData@Gu@physx@@QAE@XZ 10005aa0 f i Cooking.obj
 0001:00004ad0       ??0ConvexHullInitData@Gu@physx@@QAE@XZ 10005ad0 f i Cooking.obj
 0001:00004b00       ??0Cooking@physx@@QAE@ABUPxCookingParams@1@@Z 10005b00 f i Cooking.obj
 0001:00004b30       ??0DebugText@Cm@physx@@QAE@$$QAU012@@Z 10005b30 f i Cooking.obj
 0001:00004b80       ??0DebugText@Cm@physx@@QAE@ABU012@@Z 10005b80 f i Cooking.obj
 0001:00004bd0       ??0HeightFieldData@Gu@physx@@QAE@$$QAU012@@Z 10005bd0 f i Cooking.obj
 0001:00004c60       ??0HeightFieldData@Gu@physx@@QAE@ABU012@@Z 10005c60 f i Cooking.obj
 0001:00004cf0       ??0HeightFieldData@Gu@physx@@QAE@W4PxEMPTY@2@@Z 10005cf0 f i Cooking.obj
 0001:00004d20       ??0HeightFieldData@Gu@physx@@QAE@XZ 10005d20 f i Cooking.obj
 0001:00004d50       ??0PxConvexMeshDesc@physx@@QAE@ABV01@@Z 10005d50 f i Cooking.obj
 0001:00004de0       ??0PxCooking@physx@@QAE@XZ 10005de0 f i Cooking.obj
 0001:00004e00       ??0PxCookingParams@physx@@QAE@ABU01@@Z 10005e00 f i Cooking.obj
 0001:00004eb0       ??0PxDebugLine@physx@@QAE@ABU01@@Z 10005eb0 f i Cooking.obj
 0001:00004f00       ??0PxMat33@physx@@QAE@XZ   10005f00 f i Cooking.obj
 0001:00004f30       ??0PxMat44@physx@@QAE@ABV01@@Z 10005f30 f i Cooking.obj
 0001:00004f90       ??0PxMat44@physx@@QAE@W4PxIDENTITY@1@@Z 10005f90 f i Cooking.obj
 0001:00005080       ??0PxVec3@physx@@QAE@ABV01@@Z 10006080 f i Cooking.obj
 0001:000050c0       ??0PxVec3@physx@@QAE@M@Z   100060c0 f i Cooking.obj
 0001:00005100       ??0PxVec3@physx@@QAE@MMM@Z 10006100 f i Cooking.obj
 0001:00005140       ??0PxVec3@physx@@QAE@XZ    10006140 f i Cooking.obj
 0001:00005150       ??0PxVec4@physx@@QAE@ABV01@@Z 10006150 f i Cooking.obj
 0001:00005190       ??0PxVec4@physx@@QAE@MMMM@Z 10006190 f i Cooking.obj
 0001:000051e0       ??0RenderOutput@Cm@physx@@QAE@AAVRenderBuffer@12@@Z 100061e0 f i Cooking.obj
 0001:00005250       ??0RenderOutput@Cm@physx@@QAE@ABV012@@Z 10006250 f i Cooking.obj
 0001:000052d0       ??1CenterExtents@Gu@physx@@QAE@XZ 100062d0 f i Cooking.obj
 0001:000052e0       ??1ConvexHullData@Gu@physx@@QAE@XZ 100062e0 f i Cooking.obj
 0001:00005300       ??1ConvexHullInitData@Gu@physx@@QAE@XZ 10006300 f i Cooking.obj
 0001:00005320       ??1Cooking@physx@@UAE@XZ   10006320 f i Cooking.obj
 0001:00005340       ??1HeightFieldData@Gu@physx@@QAE@XZ 10006340 f i Cooking.obj
 0001:00005360       ??1PxBase@physx@@MAE@XZ    10006360 f i Cooking.obj
 0001:00005380       ??1PxConvexMesh@physx@@MAE@XZ 10006380 f i Cooking.obj
 0001:000053a0       ??1PxCooking@physx@@MAE@XZ 100063a0 f i Cooking.obj
 0001:000053c0       ??1PxHeightField@physx@@MAE@XZ 100063c0 f i Cooking.obj
 0001:000053e0       ??2@YAPAXIPAX@Z            100063e0 f i Cooking.obj
 0001:000053f0       ??2UserAllocated@shdfnd@physx@@SAPAXIPAX@Z 100063f0 f i Cooking.obj
 0001:00005400       ??4?$PxFlags@W4Enum@PxHeightFieldFlag@physx@@G@physx@@QAEAAV01@ABV01@@Z 10006400 f i Cooking.obj
 0001:00005420       ??4?$PxFlags@W4Enum@PxMeshPreprocessingFlag@physx@@I@physx@@QAEAAV01@ABV01@@Z 10006420 f i Cooking.obj
 0001:00005440       ??4CenterExtents@Gu@physx@@QAEAAV012@ABV012@@Z 10006440 f i Cooking.obj
 0001:00005470       ??4DebugText@Cm@physx@@QAEAAU012@$$QAU012@@Z 10006470 f i Cooking.obj
 0001:000054e0       ??4DebugText@Cm@physx@@QAEAAU012@ABU012@@Z 100064e0 f i Cooking.obj
 0001:00005550       ??4FPUGuard@shdfnd@physx@@QAEAAV012@ABV012@@Z 10006550 f i Cooking.obj
 0001:00005580       ??4HeightFieldData@Gu@physx@@QAEAAU012@$$QAU012@@Z 10006580 f i Cooking.obj
 0001:00005610       ??4HeightFieldData@Gu@physx@@QAEAAU012@ABU012@@Z 10006610 f i Cooking.obj
 0001:000056a0       ??4PxCookingParams@physx@@QAEAAU01@ABU01@@Z 100066a0 f i Cooking.obj
 0001:00005750       ??4PxVec3@physx@@QAEAAV01@ABV01@@Z 10006750 f i Cooking.obj
 0001:00005790       ??9?$PxFlags@W4Enum@PxHeightFieldFlag@physx@@G@physx@@QBE_NABV01@@Z 10006790 f i Cooking.obj
 0001:000057d0       ??B?$PxBitAndDataT@E$0IA@@physx@@QBEEXZ 100067d0 f i Cooking.obj
 0001:000057f0       ??B?$PxBitAndDataT@G$0IAAA@@physx@@QBEGXZ 100067f0 f i Cooking.obj
 0001:00005810       ??B?$PxFlags@W4Enum@PxBaseFlag@physx@@G@physx@@QBE_NXZ 10006810 f i Cooking.obj
 0001:00005840       ??B?$PxFlags@W4Enum@PxConvexFlag@physx@@G@physx@@QBE_NXZ 10006840 f i Cooking.obj
 0001:00005870       ??B?$PxFlags@W4Enum@PxMeshFlag@physx@@G@physx@@QBE_NXZ 10006870 f i Cooking.obj
 0001:000058a0       ??B?$PxFlags@W4Enum@PxMeshPreprocessingFlag@physx@@I@physx@@QBE_NXZ 100068a0 f i Cooking.obj
 0001:000058d0       ??I?$PxFlags@W4Enum@PxBaseFlag@physx@@G@physx@@QBE?AV01@W4Enum@PxBaseFlag@1@@Z 100068d0 f i Cooking.obj
 0001:00005910       ??I?$PxFlags@W4Enum@PxConvexFlag@physx@@G@physx@@QBE?AV01@W4Enum@PxConvexFlag@1@@Z 10006910 f i Cooking.obj
 0001:00005950       ??I?$PxFlags@W4Enum@PxHeightFieldFlag@physx@@G@physx@@QBE?AV01@W4Enum@PxHeightFieldFlag@1@@Z 10006950 f i Cooking.obj
 0001:00005990       ??I?$PxFlags@W4Enum@PxMeshFlag@physx@@G@physx@@QBE?AV01@W4Enum@PxMeshFlag@1@@Z 10006990 f i Cooking.obj
 0001:000059d0       ??I?$PxFlags@W4Enum@PxMeshPreprocessingFlag@physx@@I@physx@@QBE?AV01@W4Enum@PxMeshPreprocessingFlag@1@@Z 100069d0 f i Cooking.obj
 0001:00005a10       ??S?$PxFlags@W4Enum@PxConvexFlag@physx@@G@physx@@QBE?AV01@XZ 10006a10 f i Cooking.obj
 0001:00005a50       ??Sphysx@@YA?AV?$PxFlags@W4Enum@PxConvexFlag@physx@@G@0@W4Enum@PxConvexFlag@0@@Z 10006a50 f i Cooking.obj
 0001:00005a80       ??_4?$PxFlags@W4Enum@PxConvexFlag@physx@@G@physx@@QAEAAV01@ABV01@@Z 10006a80 f i Cooking.obj
 0001:00005ab0       ??_EPxConvexMesh@physx@@MAEPAXI@Z 10006ab0 f i Cooking.obj
 0001:00005b30       ??_EPxHeightField@physx@@MAEPAXI@Z 10006b30 f i Cooking.obj
 0001:00005bb0       ??_GCooking@physx@@UAEPAXI@Z 10006bb0 f i Cooking.obj
 0001:00005bb0       ??_ECooking@physx@@UAEPAXI@Z 10006bb0 f i Cooking.obj
 0001:00005c00       ??_GPxBase@physx@@MAEPAXI@Z 10006c00 f i Cooking.obj
 0001:00005c00       ??_EPxBase@physx@@MAEPAXI@Z 10006c00 f i Cooking.obj
 0001:00005c30       ??_GPxCooking@physx@@MAEPAXI@Z 10006c30 f i Cooking.obj
 0001:00005c30       ??_EPxCooking@physx@@MAEPAXI@Z 10006c30 f i Cooking.obj
 0001:00005c60       ?FLoad@aos@shdfnd@physx@@YA?AT__m128@@M@Z 10006c60 f i Cooking.obj
 0001:00005ca0       ?PxMemCopy@physx@@YAPAXPAXPBXI@Z 10006ca0 f i Cooking.obj
 0001:00005cc0       ?V3Load@aos@shdfnd@physx@@YA?AT__m128@@M@Z 10006cc0 f i Cooking.obj
 0001:00005d10       ?V4Load@aos@shdfnd@physx@@YA?AT__m128@@M@Z 10006d10 f i Cooking.obj
 0001:00005d50       ?allocate@?$Array@UPxDebugLine@physx@@VNamedAllocator@shdfnd@2@@shdfnd@physx@@IAEPAUPxDebugLine@3@I@Z 10006d50 f i Cooking.obj
 0001:00005dc0       ?allocate@?$ReflectionAllocator@VCooking@physx@@@shdfnd@physx@@QAEPAXIPBDH@Z 10006dc0 f i Cooking.obj
 0001:00005e10       ?allocate@?$ReflectionAllocator@VHeightField@Gu@physx@@@shdfnd@physx@@QAEPAXIPBDH@Z 10006e10 f i Cooking.obj
 0001:00005e60       ?allocate@?$ReflectionAllocator@VQuickHullConvexHullLib@physx@@@shdfnd@physx@@QAEPAXIPBDH@Z 10006e60 f i Cooking.obj
 0001:00005eb0       ?capacity@?$Array@UPxDebugLine@physx@@VNamedAllocator@shdfnd@2@@shdfnd@physx@@QBEIXZ 10006eb0 f i Cooking.obj
 0001:00005ed0       ?copy@?$Array@UPxDebugLine@physx@@VNamedAllocator@shdfnd@2@@shdfnd@physx@@KAXPAUPxDebugLine@3@0PBU43@@Z 10006ed0 f i Cooking.obj
 0001:00005f20       ?deallocate@?$Array@UPxDebugLine@physx@@VNamedAllocator@shdfnd@2@@shdfnd@physx@@IAEXPAX@Z 10006f20 f i Cooking.obj
 0001:00005f40       ?destroy@?$Array@UPxDebugLine@physx@@VNamedAllocator@shdfnd@2@@shdfnd@physx@@KAXPAUPxDebugLine@3@0@Z 10006f40 f i Cooking.obj
 0001:00005f60       ?end@?$Array@UPxDebugLine@physx@@VNamedAllocator@shdfnd@2@@shdfnd@physx@@QAEPAUPxDebugLine@3@XZ 10006f60 f i Cooking.obj
 0001:00005f80       ?forceSize_Unsafe@?$Array@UPxDebugLine@physx@@VNamedAllocator@shdfnd@2@@shdfnd@physx@@QAEXI@Z 10006f80 f i Cooking.obj
 0001:00005fe0       ?fsel@intrinsics@physx@@YAMMMM@Z 10006fe0 f i Cooking.obj
 0001:00006010       ?gatherStrided@Cooking@physx@@SAXPBXPAXIII@Z 10007010 f i Cooking.obj
 0001:00006070       ?getConcreteTypeName@PxConvexMesh@physx@@UBEPBDXZ 10007070 f i Cooking.obj
 0001:00006080       ?getConcreteTypeName@PxHeightField@physx@@UBEPBDXZ 10007080 f i Cooking.obj
 0001:00006090       ?getConvexEdgeThreshold@HeightField@Gu@physx@@UBEMXZ 10007090 f i Cooking.obj
 0001:000060b0       ?getFlags@HeightField@Gu@physx@@UBE?AV?$PxFlags@W4Enum@PxHeightFieldFlag@physx@@G@3@XZ 100070b0 f i Cooking.obj
 0001:000060d0       ?getFormat@HeightField@Gu@physx@@UBE?AW4Enum@PxHeightFieldFormat@3@XZ 100070d0 f i Cooking.obj
 0001:000060f0       ?getHeight@HeightField@Gu@physx@@QBEMI@Z 100070f0 f i Cooking.obj
 0001:00006120       ?getHeight@HeightField@Gu@physx@@UBEMMM@Z 10007120 f i Cooking.obj
 0001:00006150       ?getHeightInternal2@HeightField@Gu@physx@@QBEMIMM@Z 10007150 f i Cooking.obj
 0001:00006320       ?getHeightInternal@HeightField@Gu@physx@@QBEMMM@Z 10007320 f i Cooking.obj
 0001:00006380       ?getHullVertices@ConvexHullData@Gu@physx@@QBEPBVPxVec3@3@XZ 10007380 f i Cooking.obj
 0001:000063b0       ?getIndexBuffer@ConvexMesh@Gu@physx@@UBEPBEXZ 100073b0 f i Cooking.obj
 0001:000063d0       ?getMaterialIndex0@HeightField@Gu@physx@@QBEGI@Z 100073d0 f i Cooking.obj
 0001:00006400       ?getMaterialIndex1@HeightField@Gu@physx@@QBEGI@Z 10007400 f i Cooking.obj
 0001:00006430       ?getMeshData@TriangleMeshBuilder@physx@@QAEAAVTriangleMeshData@Gu@2@XZ 10007430 f i Cooking.obj
 0001:00006450       ?getName@?$ReflectionAllocator@VCooking@physx@@@shdfnd@physx@@CAPBDXZ 10007450 f i Cooking.obj
 0001:00006490       ?getName@?$ReflectionAllocator@VHeightField@Gu@physx@@@shdfnd@physx@@CAPBDXZ 10007490 f i Cooking.obj
 0001:000064d0       ?getName@?$ReflectionAllocator@VQuickHullConvexHullLib@physx@@@shdfnd@physx@@CAPBDXZ 100074d0 f i Cooking.obj
 0001:00006510       ?getNbColumns@HeightField@Gu@physx@@UBEIXZ 10007510 f i Cooking.obj
 0001:00006530       ?getNbColumnsFast@HeightField@Gu@physx@@QBEIXZ 10007530 f i Cooking.obj
 0001:00006550       ?getNbPolygons@ConvexMesh@Gu@physx@@UBEIXZ 10007550 f i Cooking.obj
 0001:00006570       ?getNbRows@HeightField@Gu@physx@@UBEIXZ 10007570 f i Cooking.obj
 0001:00006590       ?getNbVertices@ConvexMesh@Gu@physx@@UBEIXZ 10007590 f i Cooking.obj
 0001:000065b0       ?getPaddedBounds@HeightFieldData@Gu@physx@@QBEABVCenterExtentsPadded@23@XZ 100075b0 f i Cooking.obj
 0001:000065c0       ?getSample@HeightField@Gu@physx@@QBEABUPxHeightFieldSample@3@I@Z 100075c0 f i Cooking.obj
 0001:00006630       ?getSample@HeightField@Gu@physx@@UBEABUPxHeightFieldSample@3@II@Z 10007630 f i Cooking.obj
 0001:00006660       ?getSampleStride@HeightField@Gu@physx@@UBEIXZ 10007660 f i Cooking.obj
 0001:00006670       ?getTimestamp@HeightField@Gu@physx@@UBEIXZ 10007670 f i Cooking.obj
 0001:00006690       ?getTriangleMaterial@HeightField@Gu@physx@@QBEGI@Z 10007690 f i Cooking.obj
 0001:000066e0       ?getTriangleMaterialIndex@HeightField@Gu@physx@@UBEGI@Z 100076e0 f i Cooking.obj
 0001:00006700       ?getTriangleNormal@HeightField@Gu@physx@@UBE?AVPxVec3@3@I@Z 10007700 f i Cooking.obj
 0001:00006720       ?getTriangleNormalInternal@HeightField@Gu@physx@@QBE?AVPxVec3@3@I@Z 10007720 f i Cooking.obj
 0001:00006910       ?getTriangleVertexIndices@HeightField@Gu@physx@@QBEXIAAI00@Z 10007910 f i Cooking.obj
 0001:00006a00       ?getType@PxMidphaseDesc@physx@@QBE?AW4Enum@PxMeshMidPhase@2@XZ 10007a00 f i Cooking.obj
 0001:00006a20       ?getVertexData8@ConvexHullData@Gu@physx@@QBEPBEXZ 10007a20 f i Cooking.obj
 0001:00006ab0       ?getVertices@ConvexMesh@Gu@physx@@UBEPBVPxVec3@3@XZ 10007ab0 f i Cooking.obj
 0001:00006ad0       ?grow@?$Array@UPxDebugLine@physx@@VNamedAllocator@shdfnd@2@@shdfnd@physx@@IAEXI@Z 10007ad0 f i Cooking.obj
 0001:00006b30       ?isBitSet@?$PxBitAndDataT@E$0IA@@physx@@QBEEXZ 10007b30 f i Cooking.obj
 0001:00006b50       ?isBitSet@?$PxBitAndDataT@G$0IAAA@@physx@@QBEGXZ 10007b50 f i Cooking.obj
 0001:00006b70       ?isFirstTriangle@HeightField@Gu@physx@@QBE_NI@Z 10007b70 f i Cooking.obj
 0001:00006ba0       ?isInUserMemory@?$Array@UPxDebugLine@physx@@VNamedAllocator@shdfnd@2@@shdfnd@physx@@QBEIXZ 10007ba0 f i Cooking.obj
 0001:00006bc0       ?isKindOf@PxBase@physx@@MBE_NPBD@Z 10007bc0 f i Cooking.obj
 0001:00006c00       ?isKindOf@PxConvexMesh@physx@@MBE_NPBD@Z 10007c00 f i Cooking.obj
 0001:00006c50       ?isKindOf@PxHeightField@physx@@MBE_NPBD@Z 10007c50 f i Cooking.obj
 0001:00006ca0       ?isReleasable@PxBase@physx@@UBE_NXZ 10007ca0 f i Cooking.obj
 0001:00006cd0       ?isValid@PxBVHStructureDesc@physx@@QBE_NXZ 10007cd0 f i Cooking.obj
 0001:00006d10       ?isValid@PxConvexMeshDesc@physx@@QBE_NXZ 10007d10 f i Cooking.obj
 0001:00006eb0       ?isValid@PxHeightFieldDesc@physx@@QBE_NXZ 10007eb0 f i Cooking.obj
 0001:00006f30       ?isValid@PxSimpleTriangleMesh@physx@@QBE_NXZ 10007f30 f i Cooking.obj
 0001:00006fe0       ?isValid@PxTriangleMeshDesc@physx@@QBE_NXZ 10007fe0 f i Cooking.obj
 0001:00007040       ?isValidVertex@HeightField@Gu@physx@@QBE_NI@Z 10008040 f i Cooking.obj
 0001:00007080       ?isZerothVertexShared@HeightField@Gu@physx@@QBE_NI@Z 10008080 f i Cooking.obj
 0001:000070c0       ?littleEndian@shdfnd@physx@@YADXZ 100080c0 f i Cooking.obj
 0001:000070e0       ?markSerializedMem@Cm@physx@@YAXPAXI@Z 100080e0 f i Cooking.obj
 0001:00007110       ?memCopy@intrinsics@physx@@YAPAXPAXPBXI@Z 10008110 f i Cooking.obj
 0001:00007130       ?outputSegment@RenderOutput@Cm@physx@@QAEXABVPxVec3@3@0@Z 10008130 f i Cooking.obj
 0001:00007180       ?preExportDataReset@ConvexMesh@Gu@physx@@QAEXXZ 10008180 f i Cooking.obj
 0001:000071a0       ?preExportDataReset@HeightField@Gu@physx@@QAEXXZ 100081a0 f i Cooking.obj
 0001:000071c0       ?preExportDataReset@RefCountable@Cm@physx@@QAEXXZ 100081c0 f i Cooking.obj
 0001:000071e0       ?recreate@?$Array@UPxDebugLine@physx@@VNamedAllocator@shdfnd@2@@shdfnd@physx@@IAEXI@Z 100081e0 f i Cooking.obj
 0001:000072b0       ?reserve@?$Array@UPxDebugLine@physx@@VNamedAllocator@shdfnd@2@@shdfnd@physx@@QAEXI@Z 100082b0 f i Cooking.obj
 0001:000072e0       ?reserveSegments@RenderOutput@Cm@physx@@QAEPAUPxDebugLine@3@I@Z 100082e0 f i Cooking.obj
 0001:00007310       ?size@?$Array@UPxDebugLine@physx@@VNamedAllocator@shdfnd@2@@shdfnd@physx@@QBEIXZ 10008310 f i Cooking.obj
 0001:00007330       ?tessFlag@PxHeightFieldSample@physx@@QBEEXZ 10008330 f i Cooking.obj
 0001:00007370       ??0ReducedVertexCloud@physx@@QAE@PBVPxVec3@1@I@Z 10008370 f   CookingUtils.obj
 0001:000073b0       ??1ReducedVertexCloud@physx@@QAE@XZ 100083b0 f   CookingUtils.obj
 0001:000073d0       ?Clean@ReducedVertexCloud@physx@@QAEAAV12@XZ 100083d0 f   CookingUtils.obj
 0001:00007430       ?Reduce@ReducedVertexCloud@physx@@QAE_NPAUREDUCEDCLOUD@2@@Z 10008430 f   CookingUtils.obj
 0001:00007750       ??$?_UM@@YAPAXIV?$ReflectionAllocator@M@shdfnd@physx@@PBDH@Z 10008750 f i CookingUtils.obj
 0001:00007770       ??0?$ReflectionAllocator@M@shdfnd@physx@@QAE@PBD@Z 10008770 f i CookingUtils.obj
 0001:00007780       ?allocate@?$ReflectionAllocator@M@shdfnd@physx@@QAEPAXIPBDH@Z 10008780 f i CookingUtils.obj
 0001:000077d0       ?getName@?$ReflectionAllocator@M@shdfnd@physx@@CAPBDXZ 100087d0 f i CookingUtils.obj
 0001:00007810       ??0EdgeList@Gu@physx@@QAE@XZ 10008810 f   EdgeList.obj
 0001:00007850       ??1EdgeList@Gu@physx@@QAE@XZ 10008850 f   EdgeList.obj
 0001:000078f0       ?load@EdgeList@Gu@physx@@QAE_NAAVPxInputStream@3@@Z 100088f0 f   EdgeList.obj
 0001:00007ab0       ??0EdgeListBuilder@Gu@physx@@QAE@XZ 10008ab0 f   EdgeList.obj
 0001:00007ad0       ??1EdgeListBuilder@Gu@physx@@QAE@XZ 10008ad0 f   EdgeList.obj
 0001:00007af0       ?init@EdgeListBuilder@Gu@physx@@QAE_NABUEDGELISTCREATE@23@@Z 10008af0 f   EdgeList.obj
 0001:00007c70       ?createFacesToEdges@EdgeListBuilder@Gu@physx@@AAE_NIPBIPBG@Z 10008c70 f   EdgeList.obj
 0001:00008150       ?createEdgesToFaces@EdgeListBuilder@Gu@physx@@AAE_NIPBIPBG@Z 10009150 f   EdgeList.obj
 0001:00008550       ?computeActiveEdges@EdgeListBuilder@Gu@physx@@AAE_NIPBIPBGPBVPxVec3@3@M@Z 10009550 f   EdgeList.obj
 0001:000097e0       ??$?_UUEdgeData@Gu@physx@@@@YAPAXIV?$ReflectionAllocator@UEdgeData@Gu@physx@@@shdfnd@physx@@PBDH@Z 1000a7e0 f i EdgeList.obj
 0001:00009800       ??$?_UUEdgeTriangleData@Gu@physx@@@@YAPAXIV?$ReflectionAllocator@UEdgeTriangleData@Gu@physx@@@shdfnd@physx@@PBDH@Z 1000a800 f i EdgeList.obj
 0001:00009820       ??0?$ReflectionAllocator@UEdgeData@Gu@physx@@@shdfnd@physx@@QAE@PBD@Z 1000a820 f i EdgeList.obj
 0001:00009830       ??0?$ReflectionAllocator@UEdgeTriangleData@Gu@physx@@@shdfnd@physx@@QAE@PBD@Z 1000a830 f i EdgeList.obj
 0001:00009840       ??0PxPlane@physx@@QAE@ABVPxVec3@1@00@Z 1000a840 f i EdgeList.obj
 0001:000098c0       ??0PxTriangle@physx@@QAE@ABVPxVec3@1@00@Z 1000a8c0 f i EdgeList.obj
 0001:00009920       ??1PxTriangle@physx@@QAE@XZ 1000a920 f i EdgeList.obj
 0001:00009930       ??DPxVec3@physx@@QBE?AV01@M@Z 1000a930 f i EdgeList.obj
 0001:00009980       ??GPxVec3@physx@@QBE?AV01@ABV01@@Z 1000a980 f i EdgeList.obj
 0001:000099e0       ??_0PxVec3@physx@@QAEAAV01@M@Z 1000a9e0 f i EdgeList.obj
 0001:00009a40       ?PxAtan2@physx@@YAMMM@Z    1000aa40 f i EdgeList.obj
 0001:00009a70       ?PxRecipSqrt@physx@@YAMM@Z 1000aa70 f i EdgeList.obj
 0001:00009a90       ?PxSqrt@physx@@YAMM@Z      1000aa90 f i EdgeList.obj
 0001:00009ab0       ?allocate@?$ReflectionAllocator@UEdgeData@Gu@physx@@@shdfnd@physx@@QAEPAXIPBDH@Z 1000aab0 f i EdgeList.obj
 0001:00009b00       ?allocate@?$ReflectionAllocator@UEdgeTriangleData@Gu@physx@@@shdfnd@physx@@QAEPAXIPBDH@Z 1000ab00 f i EdgeList.obj
 0001:00009b50       ?angle@shdfnd@physx@@YAMABVPxVec3@2@0@Z 1000ab50 f i EdgeList.obj
 0001:00009bb0       ?cross@PxVec3@physx@@QBE?AV12@ABV12@@Z 1000abb0 f i EdgeList.obj
 0001:00009c50       ?distance@PxPlane@physx@@QBEMABVPxVec3@2@@Z 1000ac50 f i EdgeList.obj
 0001:00009c90       ?dot@PxVec3@physx@@QBEMABV12@@Z 1000ac90 f i EdgeList.obj
 0001:00009ce0       ?getEdgeToTriangles@EdgeList@Gu@physx@@QBEPBUEdgeDescData@23@XZ 1000ace0 f i EdgeList.obj
 0001:00009d00       ?getEdges@EdgeList@Gu@physx@@QBEPBUEdgeData@23@XZ 1000ad00 f i EdgeList.obj
 0001:00009d20       ?getFacesByEdges@EdgeList@Gu@physx@@QBEPBIXZ 1000ad20 f i EdgeList.obj
 0001:00009d40       ?getName@?$ReflectionAllocator@UEdgeData@Gu@physx@@@shdfnd@physx@@CAPBDXZ 1000ad40 f i EdgeList.obj
 0001:00009d80       ?getName@?$ReflectionAllocator@UEdgeTriangleData@Gu@physx@@@shdfnd@physx@@CAPBDXZ 1000ad80 f i EdgeList.obj
 0001:00009dc0       ?getNbEdges@EdgeList@Gu@physx@@QBEIXZ 1000adc0 f i EdgeList.obj
 0001:00009dd0       ?getNormalized@PxVec3@physx@@QBE?AV12@XZ 1000add0 f i EdgeList.obj
 0001:00009e60       ?magnitude@PxVec3@physx@@QBEMXZ 1000ae60 f i EdgeList.obj
 0001:00009e80       ?magnitudeSquared@PxVec3@physx@@QBEMXZ 1000ae80 f i EdgeList.obj
 0001:00009ed0       ?normal@PxTriangle@physx@@QBEXAAVPxVec3@2@@Z 1000aed0 f i EdgeList.obj
 0001:00009f40       ?normalize@PxVec3@physx@@QAEMXZ 1000af40 f i EdgeList.obj
 0001:00009f80       ?recipSqrt@intrinsics@physx@@YAMM@Z 1000af80 f i EdgeList.obj
 0001:00009fc0       ?sqrt@intrinsics@physx@@YAMM@Z 1000afc0 f i EdgeList.obj
 0001:00009fe0       _atan2f                    1000afe0 f i EdgeList.obj
 0001:0000a010       _fabsf                     1000b010 f i EdgeList.obj
 0001:0000a040       _sqrtf                     1000b040 f i EdgeList.obj
 0001:0000a070       ??0MeshCleaner@physx@@QAE@IPBVPxVec3@1@IPBIM@Z 1000b070 f   MeshCleaner.obj
 0001:0000a8a0       ??1MeshCleaner@physx@@QAE@XZ 1000b8a0 f   MeshCleaner.obj
 0001:0000aad0       ??9Indices@@QBE_NABU0@@Z   1000bad0 f i MeshCleaner.obj
 0001:0000ab50       ??9PxVec3@physx@@QBE_NABV01@@Z 1000bb50 f i MeshCleaner.obj
 0001:0000abb0       ?PxFloor@physx@@YAMM@Z     1000bbb0 f i MeshCleaner.obj
 0001:0000abd0       ?nextPowerOfTwo@shdfnd@physx@@YAII@Z 1000bbd0 f i MeshCleaner.obj
 0001:0000ac20       _floorf                    1000bc20 f i MeshCleaner.obj
 0001:0000ac50       ?createQuantizer@physx@@YAPAVQuantizer@1@XZ 1000bc50 f   Quantizer.obj
 0001:0000acb0       ?kmeans_cluster3d@@YAIPBVPxVec3@physx@@IIPAV12@PAIMM@Z 1000bcb0 f   Quantizer.obj
 0001:0000acf0       ??$?2V?$ReflectionAllocator@VQuantizerImpl@@@shdfnd@physx@@@UserAllocated@shdfnd@physx@@SAPAXIV?$ReflectionAllocator@VQuantizerImpl@@@12@PBDH@Z 1000bcf0 f i Quantizer.obj
 0001:0000ad10       ??$PX_UNUSED@W4PxZERO@physx@@@@YAXABW4PxZERO@physx@@@Z 1000bd10 f i Quantizer.obj
 0001:0000ad20       ??$PxMax@M@physx@@YAMMM@Z  1000bd20 f i Quantizer.obj
 0001:0000ad50       ??$PxMin@M@physx@@YAMMM@Z  1000bd50 f i Quantizer.obj
 0001:0000ad80       ??$kmeans_cluster@VPxVec3@physx@@M@@YAIPBVPxVec3@physx@@IIPAV01@PAIMM@Z 1000bd80 f i Quantizer.obj
 0001:0000b240       ??0?$Array@VPxVec3@physx@@VNamedAllocator@shdfnd@2@@shdfnd@physx@@QAE@ABVNamedAllocator@12@@Z 1000c240 f i Quantizer.obj
 0001:0000b280       ??0?$ReflectionAllocator@VQuantizerImpl@@@shdfnd@physx@@QAE@PBD@Z 1000c280 f i Quantizer.obj
 0001:0000b290       ??0PxBounds3@physx@@QAE@XZ 1000c290 f i Quantizer.obj
 0001:0000b2c0       ??0PxVec3@physx@@QAE@W4PxZERO@1@@Z 1000c2c0 f i Quantizer.obj
 0001:0000b300       ??0Quantizer@physx@@QAE@XZ 1000c300 f i Quantizer.obj
 0001:0000b320       ??0QuantizerImpl@@QAE@XZ   1000c320 f i Quantizer.obj
 0001:0000b400       ??1?$Array@VPxVec3@physx@@VNamedAllocator@shdfnd@2@@shdfnd@physx@@QAE@XZ 1000c400 f i Quantizer.obj
 0001:0000b460       ??1Quantizer@physx@@MAE@XZ 1000c460 f i Quantizer.obj
 0001:0000b480       ??1QuantizerImpl@@EAE@XZ   1000c480 f i Quantizer.obj
 0001:0000b4c0       ??A?$Array@VPxVec3@physx@@VNamedAllocator@shdfnd@2@@shdfnd@physx@@QAEAAVPxVec3@2@I@Z 1000c4c0 f i Quantizer.obj
 0001:0000b520       ??APxVec3@physx@@QAEAAMI@Z 1000c520 f i Quantizer.obj
 0001:0000b550       ??HPxVec3@physx@@QBE?AV01@ABV01@@Z 1000c550 f i Quantizer.obj
 0001:0000b5b0       ??XPxVec3@physx@@QAEAAV01@M@Z 1000c5b0 f i Quantizer.obj
 0001:0000b600       ??YPxVec3@physx@@QAEAAV01@ABV01@@Z 1000c600 f i Quantizer.obj
 0001:0000b660       ??_EQuantizer@physx@@MAEPAXI@Z 1000c660 f i Quantizer.obj
 0001:0000b660       ??_GQuantizer@physx@@MAEPAXI@Z 1000c660 f i Quantizer.obj
 0001:0000b690       ??_GQuantizerImpl@@EAEPAXI@Z 1000c690 f i Quantizer.obj
 0001:0000b690       ??_EQuantizerImpl@@EAEPAXI@Z 1000c690 f i Quantizer.obj
 0001:0000b6e0       ?PxAbs@physx@@YAMM@Z       1000c6e0 f i Quantizer.obj
 0001:0000b700       ?PxIsFinite@physx@@YA_NM@Z 1000c700 f i Quantizer.obj
 0001:0000b720       ?abs@intrinsics@physx@@YAMM@Z 1000c720 f i Quantizer.obj
 0001:0000b740       ?allocate@?$Array@VPxVec3@physx@@VNamedAllocator@shdfnd@2@@shdfnd@physx@@IAEPAVPxVec3@3@I@Z 1000c740 f i Quantizer.obj
 0001:0000b7b0       ?allocate@?$ReflectionAllocator@VQuantizerImpl@@@shdfnd@physx@@QAEPAXIPBDH@Z 1000c7b0 f i Quantizer.obj
 0001:0000b800       ?capacity@?$Array@VPxVec3@physx@@VNamedAllocator@shdfnd@2@@shdfnd@physx@@QBEIXZ 1000c800 f i Quantizer.obj
 0001:0000b820       ?capacityIncrement@?$Array@VPxVec3@physx@@VNamedAllocator@shdfnd@2@@shdfnd@physx@@IBEIXZ 1000c820 f i Quantizer.obj
 0001:0000b860       ?clear@?$Array@VPxVec3@physx@@VNamedAllocator@shdfnd@2@@shdfnd@physx@@QAEXXZ 1000c860 f i Quantizer.obj
 0001:0000b890       ?copy@?$Array@VPxVec3@physx@@VNamedAllocator@shdfnd@2@@shdfnd@physx@@KAXPAVPxVec3@3@0PBV43@@Z 1000c890 f i Quantizer.obj
 0001:0000b8e0       ?deallocate@?$Array@VPxVec3@physx@@VNamedAllocator@shdfnd@2@@shdfnd@physx@@IAEXPAX@Z 1000c8e0 f i Quantizer.obj
 0001:0000b900       ?destroy@?$Array@VPxVec3@physx@@VNamedAllocator@shdfnd@2@@shdfnd@physx@@KAXPAVPxVec3@3@0@Z 1000c900 f i Quantizer.obj
 0001:0000b920       ?getCenter@PxBounds3@physx@@QBE?AVPxVec3@2@XZ 1000c920 f i Quantizer.obj
 0001:0000b990       ?getDenormalizeCenter@QuantizerImpl@@UBEABVPxVec3@physx@@XZ 1000c990 f i Quantizer.obj
 0001:0000b9b0       ?getDenormalizeScale@QuantizerImpl@@UBEABVPxVec3@physx@@XZ 1000c9b0 f i Quantizer.obj
 0001:0000b9d0       ?getDimensions@PxBounds3@physx@@QBE?AVPxVec3@2@XZ 1000c9d0 f i Quantizer.obj
 0001:0000ba20       ?getName@?$ReflectionAllocator@VQuantizerImpl@@@shdfnd@physx@@CAPBDXZ 1000ca20 f i Quantizer.obj
 0001:0000ba60       ?growAndPushBack@?$Array@VPxVec3@physx@@VNamedAllocator@shdfnd@2@@shdfnd@physx@@IAEAAVPxVec3@3@ABV43@@Z 1000ca60 f i Quantizer.obj
 0001:0000bb80       ?include@PxBounds3@physx@@QAEXABVPxVec3@2@@Z 1000cb80 f i Quantizer.obj
 0001:0000bbf0       ?isFinite@PxBounds3@physx@@QBE_NXZ 1000cbf0 f i Quantizer.obj
 0001:0000bc40       ?isFinite@PxVec3@physx@@QBE_NXZ 1000cc40 f i Quantizer.obj
 0001:0000bcc0       ?isFinite@intrinsics@physx@@YA_NM@Z 1000ccc0 f i Quantizer.obj
 0001:0000bd00       ?isInUserMemory@?$Array@VPxVec3@physx@@VNamedAllocator@shdfnd@2@@shdfnd@physx@@QBEIXZ 1000cd00 f i Quantizer.obj
 0001:0000bd20       ?isValid@PxBounds3@physx@@QBE_NXZ 1000cd20 f i Quantizer.obj
 0001:0000be10       ?kmeansQuantize3D@QuantizerImpl@@UAEPBVPxVec3@physx@@IPBV23@I_NIAAI@Z 1000ce10 f i Quantizer.obj
 0001:0000c000       ?maximum@PxVec3@physx@@QBE?AV12@ABV12@@Z 1000d000 f i Quantizer.obj
 0001:0000c090       ?minimum@PxVec3@physx@@QBE?AV12@ABV12@@Z 1000d090 f i Quantizer.obj
 0001:0000c120       ?multiply@PxVec3@physx@@QBE?AV12@ABV12@@Z 1000d120 f i Quantizer.obj
 0001:0000c180       ?normalizeInput@QuantizerImpl@@AAEXIPBVPxVec3@physx@@I@Z 1000d180 f i Quantizer.obj
 0001:0000c370       ?pushBack@?$Array@VPxVec3@physx@@VNamedAllocator@shdfnd@2@@shdfnd@physx@@QAEAAVPxVec3@3@ABV43@@Z 1000d370 f i Quantizer.obj
 0001:0000c3f0       ?release@QuantizerImpl@@UAEXXZ 1000d3f0 f i Quantizer.obj
 0001:0000c430       ?selectMax@intrinsics@physx@@YAMMM@Z 1000d430 f i Quantizer.obj
 0001:0000c460       ?selectMin@intrinsics@physx@@YAMMM@Z 1000d460 f i Quantizer.obj
 0001:0000c490       ?setEmpty@PxBounds3@physx@@QAEXXZ 1000d490 f i Quantizer.obj
 0001:0000c4e0       ??0BVHStructureBuilder@physx@@QAE@XZ 1000d4e0 f   BVHStructureBuilder.obj
 0001:0000c520       ??1BVHStructureBuilder@physx@@QAE@XZ 1000d520 f   BVHStructureBuilder.obj
 0001:0000c5a0       ?loadFromDesc@BVHStructureBuilder@physx@@QAE_NABVPxBVHStructureDesc@2@@Z 1000d5a0 f   BVHStructureBuilder.obj
 0001:0000c7d0       ?save@BVHStructureBuilder@physx@@QBE_NAAVPxOutputStream@2@_N@Z 1000d7d0 f   BVHStructureBuilder.obj
 0001:0000c960       ?moveData@BVHStructureBuilder@physx@@QAEXAAUBVHStructureData@Gu@2@@Z 1000d960 f   BVHStructureBuilder.obj
 0001:0000c9e0       ?flatten@@YAXABVNodeAllocator@Gu@physx@@PAUBVHNode@23@@Z 1000d9e0 f   BVHStructureBuilder.obj
 0001:0000cc30       ??$?4VNamedAllocator@shdfnd@physx@@@?$Array@USlab@NodeAllocator@Gu@physx@@VNamedAllocator@shdfnd@4@@shdfnd@physx@@QAEAAV012@ABV012@@Z 1000dc30 f i BVHStructureBuilder.obj
 0001:0000cca0       ??$PX_UNUSED@_N@@YAXAB_N@Z 1000dca0 f i BVHStructureBuilder.obj
 0001:0000ccb0       ??$copy@VNamedAllocator@shdfnd@physx@@@?$Array@USlab@NodeAllocator@Gu@physx@@VNamedAllocator@shdfnd@4@@shdfnd@physx@@IAEXABV012@@Z 1000dcb0 f i BVHStructureBuilder.obj
 0001:0000cd40       ??0?$Array@USlab@NodeAllocator@Gu@physx@@VNamedAllocator@shdfnd@4@@shdfnd@physx@@QAE@ABV012@ABVNamedAllocator@12@@Z 1000dd40 f i BVHStructureBuilder.obj
 0001:0000cd70       ??0AABBTreeBuildNode@Gu@physx@@QAE@ABV012@@Z 1000dd70 f i BVHStructureBuilder.obj
 0001:0000cdb0       ??0AABBTreeBuildNode@Gu@physx@@QAE@XZ 1000ddb0 f i BVHStructureBuilder.obj
 0001:0000cdd0       ??0AABBTreeBuildParams@Gu@physx@@QAE@IIPBVPxBounds3@2@@Z 1000ddd0 f i BVHStructureBuilder.obj
 0001:0000ce10       ??0BuildStats@Gu@physx@@QAE@XZ 1000de10 f i BVHStructureBuilder.obj
 0001:0000ce40       ??0NodeAllocator@Gu@physx@@QAE@ABV012@@Z 1000de40 f i BVHStructureBuilder.obj
 0001:0000cea0       ??0PxBounds3@physx@@QAE@ABV01@@Z 1000dea0 f i BVHStructureBuilder.obj
 0001:0000ced0       ??0PxVec4@physx@@QAE@XZ    1000ded0 f i BVHStructureBuilder.obj
 0001:0000cee0       ??1AABBTreeBuildNode@Gu@physx@@QAE@XZ 1000dee0 f i BVHStructureBuilder.obj
 0001:0000cef0       ??1AABBTreeBuildParams@Gu@physx@@QAE@XZ 1000def0 f i BVHStructureBuilder.obj
 0001:0000cf10       ??4?$Array@USlab@NodeAllocator@Gu@physx@@VNamedAllocator@shdfnd@4@@shdfnd@physx@@QAEAAV012@ABV012@@Z 1000df10 f i BVHStructureBuilder.obj
 0001:0000cf30       ??4AABBTreeBuildNode@Gu@physx@@QAEAAV012@ABV012@@Z 1000df30 f i BVHStructureBuilder.obj
 0001:0000cf70       ??4AABBTreeBuildParams@Gu@physx@@QAEAAV012@ABV012@@Z 1000df70 f i BVHStructureBuilder.obj
 0001:0000cfa0       ??4BuildStats@Gu@physx@@QAEAAU012@$$QAU012@@Z 1000dfa0 f i BVHStructureBuilder.obj
 0001:0000cfd0       ??4BuildStats@Gu@physx@@QAEAAU012@ABU012@@Z 1000dfd0 f i BVHStructureBuilder.obj
 0001:0000cff0       ??4NodeAllocator@Gu@physx@@QAEAAV012@ABV012@@Z 1000dff0 f i BVHStructureBuilder.obj
 0001:0000d040       ??4PxBounds3@physx@@QAEAAV01@ABV01@@Z 1000e040 f i BVHStructureBuilder.obj
 0001:0000d070       ??A?$Array@USlab@NodeAllocator@Gu@physx@@VNamedAllocator@shdfnd@4@@shdfnd@physx@@QBEABUSlab@NodeAllocator@Gu@2@I@Z 1000e070 f i BVHStructureBuilder.obj
 0001:0000d0d0       ??_FAABBTreeBuildParams@Gu@physx@@QAEXXZ 1000e0d0 f i BVHStructureBuilder.obj
 0001:0000d0f0       ?V4Add@aos@shdfnd@physx@@YA?AT__m128@@T4@0@Z 1000e0f0 f i BVHStructureBuilder.obj
 0001:0000d130       ?V4LoadU@aos@shdfnd@physx@@YA?AT__m128@@QBM@Z 1000e130 f i BVHStructureBuilder.obj
 0001:0000d160       ?V4Scale@aos@shdfnd@physx@@YA?AT__m128@@T4@0@Z 1000e160 f i BVHStructureBuilder.obj
 0001:0000d1a0       ?V4StoreA@aos@shdfnd@physx@@YAXT__m128@@PAM@Z 1000e1a0 f i BVHStructureBuilder.obj
 0001:0000d220       ?V4StoreU@aos@shdfnd@physx@@YAXT__m128@@PAM@Z 1000e220 f i BVHStructureBuilder.obj
 0001:0000d250       ?V4Sub@aos@shdfnd@physx@@YA?AT__m128@@T4@0@Z 1000e250 f i BVHStructureBuilder.obj
 0001:0000d290       ?__global_array_delete@@YAXPAX@Z 1000e290 f i BVHStructureBuilder.obj
 0001:0000d2b0       ?__global_array_delete@@YAXPAXI@Z 1000e2b0 f i BVHStructureBuilder.obj
 0001:0000d2d0       ?__global_delete@@YAXPAX@Z 1000e2d0 f i BVHStructureBuilder.obj
 0001:0000d2f0       ?__global_delete@@YAXPAXI@Z 1000e2f0 f i BVHStructureBuilder.obj
 0001:0000d310       ?allocate@?$Array@USlab@NodeAllocator@Gu@physx@@VNamedAllocator@shdfnd@4@@shdfnd@physx@@IAEPAUSlab@NodeAllocator@Gu@3@I@Z 1000e310 f i BVHStructureBuilder.obj
 0001:0000d380       ?begin@?$Array@USlab@NodeAllocator@Gu@physx@@VNamedAllocator@shdfnd@4@@shdfnd@physx@@QBEPBUSlab@NodeAllocator@Gu@3@XZ 1000e380 f i BVHStructureBuilder.obj
 0001:0000d390       ?capacity@?$Array@USlab@NodeAllocator@Gu@physx@@VNamedAllocator@shdfnd@4@@shdfnd@physx@@QBEIXZ 1000e390 f i BVHStructureBuilder.obj
 0001:0000d3b0       ?clear@?$Array@USlab@NodeAllocator@Gu@physx@@VNamedAllocator@shdfnd@4@@shdfnd@physx@@QAEXXZ 1000e3b0 f i BVHStructureBuilder.obj
 0001:0000d3e0       ?copy@?$Array@USlab@NodeAllocator@Gu@physx@@VNamedAllocator@shdfnd@4@@shdfnd@physx@@KAXPAUSlab@NodeAllocator@Gu@3@0PBU4563@@Z 1000e3e0 f i BVHStructureBuilder.obj
 0001:0000d440       ?deallocate@?$Array@USlab@NodeAllocator@Gu@physx@@VNamedAllocator@shdfnd@4@@shdfnd@physx@@IAEXPAX@Z 1000e440 f i BVHStructureBuilder.obj
 0001:0000d460       ?destroy@?$Array@USlab@NodeAllocator@Gu@physx@@VNamedAllocator@shdfnd@4@@shdfnd@physx@@KAXPAUSlab@NodeAllocator@Gu@3@0@Z 1000e460 f i BVHStructureBuilder.obj
 0001:0000d480       ?empty@?$Array@USlab@NodeAllocator@Gu@physx@@VNamedAllocator@shdfnd@4@@shdfnd@physx@@QBE_NXZ 1000e480 f i BVHStructureBuilder.obj
 0001:0000d4b0       ?getAABB@AABBTreeBuildNode@Gu@physx@@QBEABVPxBounds3@3@XZ 1000e4b0 f i BVHStructureBuilder.obj
 0001:0000d4c0       ?getCount@BuildStats@Gu@physx@@QBEIXZ 1000e4c0 f i BVHStructureBuilder.obj
 0001:0000d4d0       ?getNbPrimitives@AABBTreeBuildNode@Gu@physx@@QBEIXZ 1000e4d0 f i BVHStructureBuilder.obj
 0001:0000d4f0       ?getNbRuntimePrimitives@AABBTreeBuildNode@Gu@physx@@QBEIXZ 1000e4f0 f i BVHStructureBuilder.obj
 0001:0000d510       ?getNeg@AABBTreeBuildNode@Gu@physx@@QBEPBV123@XZ 1000e510 f i BVHStructureBuilder.obj
 0001:0000d550       ?getPos@AABBTreeBuildNode@Gu@physx@@QBEPBV123@XZ 1000e550 f i BVHStructureBuilder.obj
 0001:0000d570       ?getPrimitives@AABBTreeBuildNode@Gu@physx@@QAEPAIPAI@Z 1000e570 f i BVHStructureBuilder.obj
 0001:0000d590       ?getPrimitives@AABBTreeBuildNode@Gu@physx@@QBEPBIPBI@Z 1000e590 f i BVHStructureBuilder.obj
 0001:0000d5b0       ?grow@?$Array@USlab@NodeAllocator@Gu@physx@@VNamedAllocator@shdfnd@4@@shdfnd@physx@@IAEXI@Z 1000e5b0 f i BVHStructureBuilder.obj
 0001:0000d610       ?increaseCount@BuildStats@Gu@physx@@QAEXI@Z 1000e610 f i BVHStructureBuilder.obj
 0001:0000d630       ?inflateBounds@@YAXAAVPxBounds3@physx@@ABV12@@Z 1000e630 f i BVHStructureBuilder.obj
 0001:0000d760       ?isAligned16@aos@shdfnd@physx@@YA_NPAX@Z 1000e760 f i BVHStructureBuilder.obj
 0001:0000d790       ?isInUserMemory@?$Array@USlab@NodeAllocator@Gu@physx@@VNamedAllocator@shdfnd@4@@shdfnd@physx@@QBEIXZ 1000e790 f i BVHStructureBuilder.obj
 0001:0000d7b0       ?isLeaf@AABBTreeBuildNode@Gu@physx@@QBE_NXZ 1000e7b0 f i BVHStructureBuilder.obj
 0001:0000d7e0       ?recreate@?$Array@USlab@NodeAllocator@Gu@physx@@VNamedAllocator@shdfnd@4@@shdfnd@physx@@IAEXI@Z 1000e7e0 f i BVHStructureBuilder.obj
 0001:0000d8b0       ?reserve@?$Array@USlab@NodeAllocator@Gu@physx@@VNamedAllocator@shdfnd@4@@shdfnd@physx@@QAEXI@Z 1000e8b0 f i BVHStructureBuilder.obj
 0001:0000d8e0       ?reset@AABBTreeBuildParams@Gu@physx@@QAEXXZ 1000e8e0 f i BVHStructureBuilder.obj
 0001:0000d930       ?reset@BuildStats@Gu@physx@@QAEXXZ 1000e930 f i BVHStructureBuilder.obj
 0001:0000d950       ?setCount@BuildStats@Gu@physx@@QAEXI@Z 1000e950 f i BVHStructureBuilder.obj
 0001:0000d970       ?setNbRunTimePrimitives@AABBTreeBuildNode@Gu@physx@@QAEXI@Z 1000e970 f i BVHStructureBuilder.obj
 0001:0000d990       ?size@?$Array@USlab@NodeAllocator@Gu@physx@@VNamedAllocator@shdfnd@4@@shdfnd@physx@@QBEIXZ 1000e990 f i BVHStructureBuilder.obj
 0001:0000d9b0       ?saveHeightField@physx@@YA_NABVHeightField@Gu@1@AAVPxOutputStream@1@_N@Z 1000e9b0 f   HeightFieldCooking.obj
 0001:0000dc90       ??APxVec3@physx@@QBEABMI@Z 1000ec90 f i HeightFieldCooking.obj
 0001:0000dcc0       ??B?$PxFlags@W4Enum@PxHeightFieldFlag@physx@@G@physx@@QBEGXZ 1000ecc0 f i HeightFieldCooking.obj
 0001:0000dce0       ?getData@HeightField@Gu@physx@@QBEABUHeightFieldData@23@XZ 1000ece0 f i HeightFieldCooking.obj
 0001:0000dd00       ?getMax@CenterExtents@Gu@physx@@QBEMI@Z 1000ed00 f i HeightFieldCooking.obj
 0001:0000dd40       ?getMin@CenterExtents@Gu@physx@@QBEMI@Z 1000ed40 f i HeightFieldCooking.obj
 0001:0000dd80       ?buildFromTriangles@RTreeCooker@physx@@SAXAAURTree@Gu@2@PBVPxVec3@2@IPBGPBIIAAV?$Array@IVNamedAllocator@shdfnd@physx@@@shdfnd@2@PAURemapCallback@12@MW4Enum@PxMeshCookingHint@2@@Z 1000ed80 f   RTreeCooking.obj
 0001:0000ed00       ??$PX_UNUSED@I@@YAXABI@Z   1000fd00 f i RTreeCooking.obj
 0001:0000ed10       ??$PX_UNUSED@M@@YAXABM@Z   1000fd10 f i RTreeCooking.obj
 0001:0000ed20       ??$PX_UNUSED@PAURTreeNodeNQ@physx@@@@YAXABQAURTreeNodeNQ@physx@@@Z 1000fd20 f i RTreeCooking.obj
 0001:0000ed30       ??$PX_UNUSED@URTreeNodeNQ@physx@@@@YAXABURTreeNodeNQ@physx@@@Z 1000fd30 f i RTreeCooking.obj
 0001:0000ed40       ??$PxMax@H@physx@@YAHHH@Z  1000fd40 f i RTreeCooking.obj
 0001:0000ed70       ??$PxMin@I@physx@@YAIII@Z  1000fd70 f i RTreeCooking.obj
 0001:0000eda0       ??$median3@I$$CBU?$Less@I@shdfnd@physx@@@internal@shdfnd@physx@@YAXPAIHHABU?$Less@I@12@@Z 1000fda0 f i RTreeCooking.obj
 0001:0000ee90       ??$median3@I$$CBUSortBoundsPredicate@physx@@@internal@shdfnd@physx@@YAXPAIHHABUSortBoundsPredicate@2@@Z 1000fe90 f i RTreeCooking.obj
 0001:0000ef80       ??$partition@I$$CBU?$Less@I@shdfnd@physx@@@internal@shdfnd@physx@@YAHPAIHHABU?$Less@I@12@@Z 1000ff80 f i RTreeCooking.obj
 0001:0000f0e0       ??$partition@I$$CBUSortBoundsPredicate@physx@@@internal@shdfnd@physx@@YAHPAIHHABUSortBoundsPredicate@2@@Z 100100e0 f i RTreeCooking.obj
 0001:0000f240       ??$partition@UBoundsLTE@physx@@@quickSelect@physx@@YAIPIAIIIIABUBoundsLTE@1@@Z 10010240 f i RTreeCooking.obj
 0001:0000f450       ??$quickSelectFirstK@UBoundsLTE@physx@@@quickSelect@physx@@YAXPIAIIIIABUBoundsLTE@1@@Z 10010450 f i RTreeCooking.obj
 0001:0000f540       ??$smallSort@I$$CBU?$Less@I@shdfnd@physx@@@internal@shdfnd@physx@@YAXPAIHHABU?$Less@I@12@@Z 10010540 f i RTreeCooking.obj
 0001:0000f5e0       ??$smallSort@I$$CBUSortBoundsPredicate@physx@@@internal@shdfnd@physx@@YAXPAIHHABUSortBoundsPredicate@2@@Z 100105e0 f i RTreeCooking.obj
 0001:0000f680       ??$sort@I@shdfnd@physx@@YAXPAII@Z 10010680 f i RTreeCooking.obj
 0001:0000f6c0       ??$sort@IU?$Less@I@shdfnd@physx@@VNamedAllocator@23@@shdfnd@physx@@YAXPAIIABU?$Less@I@01@ABVNamedAllocator@01@I@Z 100106c0 f i RTreeCooking.obj
 0001:0000f8f0       ??$sort@IUSortBoundsPredicate@physx@@@shdfnd@physx@@YAXPAIIABUSortBoundsPredicate@1@@Z 100108f0 f i RTreeCooking.obj
 0001:0000f930       ??$sort@IUSortBoundsPredicate@physx@@VNamedAllocator@shdfnd@2@@shdfnd@physx@@YAXPAIIABUSortBoundsPredicate@1@ABVNamedAllocator@01@I@Z 10010930 f i RTreeCooking.obj
 0001:0000fb60       ??0?$AlignedAllocator@$0IA@VNonTrackingAllocator@shdfnd@physx@@@shdfnd@physx@@QAE@ABVNonTrackingAllocator@12@@Z 10010b60 f i RTreeCooking.obj
 0001:0000fb70       ??0?$Array@IVNamedAllocator@shdfnd@physx@@@shdfnd@physx@@QAE@IABIABVNamedAllocator@12@@Z 10010b70 f i RTreeCooking.obj
 0001:0000fbc0       ??0?$Array@UInterval@physx@@V?$InlineAllocator@$0CAAA@VNamedAllocator@shdfnd@physx@@@shdfnd@2@@shdfnd@physx@@QAE@ABV?$InlineAllocator@$0CAAA@VNamedAllocator@shdfnd@physx@@@12@@Z 10010bc0 f i RTreeCooking.obj
 0001:0000fc10       ??0?$Array@UPxBounds3V@physx@@VNamedAllocator@shdfnd@2@@shdfnd@physx@@QAE@ABVNamedAllocator@12@@Z 10010c10 f i RTreeCooking.obj
 0001:0000fc50       ??0?$Array@URTreeNodeNQ@physx@@VNamedAllocator@shdfnd@2@@shdfnd@physx@@QAE@ABVNamedAllocator@12@@Z 10010c50 f i RTreeCooking.obj
 0001:0000fc90       ??0?$Array@URTreeNodeQ@Gu@physx@@VNamedAllocator@shdfnd@3@@shdfnd@physx@@QAE@ABVNamedAllocator@12@@Z 10010c90 f i RTreeCooking.obj
 0001:0000fcd0       ??0?$InlineAllocator@$0CAAA@VNamedAllocator@shdfnd@physx@@@shdfnd@physx@@QAE@ABV012@@Z 10010cd0 f i RTreeCooking.obj
 0001:0000fd00       ??0?$InlineAllocator@$0CAAA@VNamedAllocator@shdfnd@physx@@@shdfnd@physx@@QAE@ABVNamedAllocator@12@@Z 10010d00 f i RTreeCooking.obj
 0001:0000fd30       ??0?$InlineArray@UInterval@physx@@$0EAA@VNamedAllocator@shdfnd@2@@shdfnd@physx@@QAE@ABVNamedAllocator@12@@Z 10010d30 f i RTreeCooking.obj
 0001:0000fda0       ??0?$ScopedPointer@HVTempAllocator@shdfnd@physx@@@shdfnd@physx@@QAE@XZ 10010da0 f i RTreeCooking.obj
 0001:0000fdc0       ??0?$Stack@VNamedAllocator@shdfnd@physx@@@internal@shdfnd@physx@@QAE@PAHIABVNamedAllocator@23@@Z 10010dc0 f i RTreeCooking.obj
 0001:0000fe00       ??0BoundsLTE@physx@@QAE@IPBVPxVec3@1@@Z 10010e00 f i RTreeCooking.obj
 0001:0000fe30       ??0Interval@physx@@QAE@II@Z 10010e30 f i RTreeCooking.obj
 0001:0000fe60       ??0PxBounds3@physx@@QAE@ABVPxVec3@1@0@Z 10010e60 f i RTreeCooking.obj
 0001:0000fe90       ??0PxBounds3V@physx@@QAE@AAT__m128@@0@Z 10010e90 f i RTreeCooking.obj
 0001:0000fec0       ??0PxBounds3V@physx@@QAE@UU@01@@Z 10010ec0 f i RTreeCooking.obj
 0001:0000fed0       ??0PxVec4@physx@@QAE@ABVPxVec3@1@M@Z 10010ed0 f i RTreeCooking.obj
 0001:0000ff10       ??0PxVec4@physx@@QAE@M@Z   10010f10 f i RTreeCooking.obj
 0001:0000ff60       ??0RTreeNodeNQ@physx@@QAE@ABU01@@Z 10010f60 f i RTreeCooking.obj
 0001:0000ffa0       ??0RTreeNodeNQ@physx@@QAE@XZ 10010fa0 f i RTreeCooking.obj
 0001:0000ffd0       ??0SortBoundsPredicate@physx@@QAE@IPBUPxBounds3V@1@@Z 10010fd0 f i RTreeCooking.obj
 0001:00010000       ??0SubSortQuick@physx@@QAE@PAIPBUPxBounds3V@1@IM@Z 10011000 f i RTreeCooking.obj
 0001:00010120       ??0SubSortSAH@physx@@QAE@PAIPBUPxBounds3V@1@IPBI22222M@Z 10011120 f i RTreeCooking.obj
 0001:000102a0       ??0TempAllocator@shdfnd@physx@@QAE@PBD@Z 100112a0 f i RTreeCooking.obj
 0001:000102b0       ??1?$Array@IVNamedAllocator@shdfnd@physx@@@shdfnd@physx@@QAE@XZ 100112b0 f i RTreeCooking.obj
 0001:00010310       ??1?$Array@UInterval@physx@@V?$InlineAllocator@$0CAAA@VNamedAllocator@shdfnd@physx@@@shdfnd@2@@shdfnd@physx@@QAE@XZ 10011310 f i RTreeCooking.obj
 0001:00010380       ??1?$Array@UPxBounds3V@physx@@VNamedAllocator@shdfnd@2@@shdfnd@physx@@QAE@XZ 10011380 f i RTreeCooking.obj
 0001:000103e0       ??1?$Array@URTreeNodeNQ@physx@@VNamedAllocator@shdfnd@2@@shdfnd@physx@@QAE@XZ 100113e0 f i RTreeCooking.obj
 0001:00010440       ??1?$Array@URTreeNodeQ@Gu@physx@@VNamedAllocator@shdfnd@3@@shdfnd@physx@@QAE@XZ 10011440 f i RTreeCooking.obj
 0001:000104a0       ??1?$InlineAllocator@$0CAAA@VNamedAllocator@shdfnd@physx@@@shdfnd@physx@@QAE@XZ 100114a0 f i RTreeCooking.obj
 0001:000104c0       ??1?$InlineArray@UInterval@physx@@$0EAA@VNamedAllocator@shdfnd@2@@shdfnd@physx@@QAE@XZ 100114c0 f i RTreeCooking.obj
 0001:000104e0       ??1?$ScopedPointer@HVTempAllocator@shdfnd@physx@@@shdfnd@physx@@QAE@XZ 100114e0 f i RTreeCooking.obj
 0001:00010510       ??1?$Stack@VNamedAllocator@shdfnd@physx@@@internal@shdfnd@physx@@QAE@XZ 10011510 f i RTreeCooking.obj
 0001:00010540       ??1SubSortQuick@physx@@QAE@XZ 10011540 f i RTreeCooking.obj
 0001:00010560       ??1SubSortSAH@physx@@QAE@XZ 10011560 f i RTreeCooking.obj
 0001:00010600       ??4PxVec4@physx@@QAEAAV01@ABV01@@Z 10011600 f i RTreeCooking.obj
 0001:00010640       ??A?$Array@IVNamedAllocator@shdfnd@physx@@@shdfnd@physx@@QAEAAII@Z 10011640 f i RTreeCooking.obj
 0001:000106a0       ??A?$Array@UInterval@physx@@V?$InlineAllocator@$0CAAA@VNamedAllocator@shdfnd@physx@@@shdfnd@2@@shdfnd@physx@@QAEAAUInterval@2@I@Z 100116a0 f i RTreeCooking.obj
 0001:00010700       ??A?$Array@URTreeNodeNQ@physx@@VNamedAllocator@shdfnd@2@@shdfnd@physx@@QAEAAURTreeNodeNQ@2@I@Z 10011700 f i RTreeCooking.obj
 0001:00010760       ??A?$Array@URTreeNodeQ@Gu@physx@@VNamedAllocator@shdfnd@3@@shdfnd@physx@@QAEAAURTreeNodeQ@Gu@2@I@Z 10011760 f i RTreeCooking.obj
 0001:000107c0       ??B?$ScopedPointer@HVTempAllocator@shdfnd@physx@@@shdfnd@physx@@QBEPAHXZ 100117c0 f i RTreeCooking.obj
 0001:000107d0       ??GPxVec4@physx@@QBE?AV01@ABV01@@Z 100117d0 f i RTreeCooking.obj
 0001:00010840       ??KPxVec4@physx@@QBE?AV01@M@Z 10011840 f i RTreeCooking.obj
 0001:000108c0       ??R?$Less@I@shdfnd@physx@@QBE_NABI0@Z 100118c0 f i RTreeCooking.obj
 0001:000108f0       ??RBoundsLTE@physx@@QBE_NABI0@Z 100118f0 f i RTreeCooking.obj
 0001:00010960       ??RSortBoundsPredicate@physx@@QBE_NABI0@Z 10011960 f i RTreeCooking.obj
 0001:00010a50       ?FMax@aos@shdfnd@physx@@YA?AT__m128@@XZ 10011a50 f i RTreeCooking.obj
 0001:00010a90       ?FNegMax@aos@shdfnd@physx@@YA?AT__m128@@XZ 10011a90 f i RTreeCooking.obj
 0001:00010ad0       ?FStore@aos@shdfnd@physx@@YAXT__m128@@PIAM@Z 10011ad0 f i RTreeCooking.obj
 0001:00010b50       ?PxAbs@physx@@YAHH@Z       10011b50 f i RTreeCooking.obj
 0001:00010b70       ?V3Add@aos@shdfnd@physx@@YA?AT__m128@@T4@0@Z 10011b70 f i RTreeCooking.obj
 0001:00010c30       ?V3Dot@aos@shdfnd@physx@@YA?AT__m128@@T4@0@Z 10011c30 f i RTreeCooking.obj
 0001:00010d60       ?V3LoadU@aos@shdfnd@physx@@YA?AT__m128@@ABVPxVec3@3@@Z 10011d60 f i RTreeCooking.obj
 0001:00010db0       ?V3Max@aos@shdfnd@physx@@YA?AT__m128@@T4@0@Z 10011db0 f i RTreeCooking.obj
 0001:00010e70       ?V3Min@aos@shdfnd@physx@@YA?AT__m128@@T4@0@Z 10011e70 f i RTreeCooking.obj
 0001:00010f30       ?V3PermZXY@aos@shdfnd@physx@@YA?AT__m128@@T4@@Z 10011f30 f i RTreeCooking.obj
 0001:00010fb0       ?V3ReadXYZ@aos@shdfnd@physx@@YAABVPxVec3@3@ABT__m128@@@Z 10011fb0 f i RTreeCooking.obj
 0001:00010fc0       ?V3Splat@aos@shdfnd@physx@@YA?AT__m128@@T4@@Z 10011fc0 f i RTreeCooking.obj
 0001:00011070       ?V3StoreA@aos@shdfnd@physx@@YAXT__m128@@AAVPxVec3@3@@Z 10012070 f i RTreeCooking.obj
 0001:00011130       ?V3StoreU@aos@shdfnd@physx@@YAXT__m128@@AAVPxVec3@3@@Z 10012130 f i RTreeCooking.obj
 0001:000111b0       ?V3Sub@aos@shdfnd@physx@@YA?AT__m128@@T4@0@Z 100121b0 f i RTreeCooking.obj
 0001:00011270       ?V3Zero@aos@shdfnd@physx@@YA?AT__m128@@XZ 10012270 f i RTreeCooking.obj
 0001:000112a0       ?V4ClearW@aos@shdfnd@physx@@YA?AT__m128@@T4@@Z 100122a0 f i RTreeCooking.obj
 0001:000112e0       ?V4ReadW@aos@shdfnd@physx@@YAMABT__m128@@@Z 100122e0 f i RTreeCooking.obj
 0001:000112f0       ?V4ReadX@aos@shdfnd@physx@@YAMABT__m128@@@Z 100122f0 f i RTreeCooking.obj
 0001:00011300       ?V4ReadY@aos@shdfnd@physx@@YAMABT__m128@@@Z 10012300 f i RTreeCooking.obj
 0001:00011310       ?V4ReadZ@aos@shdfnd@physx@@YAMABT__m128@@@Z 10012310 f i RTreeCooking.obj
 0001:00011320       ?Vec3V_From_FloatV@aos@shdfnd@physx@@YA?AT__m128@@T4@@Z 10012320 f i RTreeCooking.obj
 0001:00011370       ?Vec3V_From_Vec4V@aos@shdfnd@physx@@YA?AT__m128@@T4@@Z 10012370 f i RTreeCooking.obj
 0001:000113b0       ?Vec4V_From_FloatV@aos@shdfnd@physx@@YA?AT__m128@@T4@@Z 100123b0 f i RTreeCooking.obj
 0001:000113e0       ?allocate@?$AlignedAllocator@$0IA@VNonTrackingAllocator@shdfnd@physx@@@shdfnd@physx@@QAEPAXIPBDH@Z 100123e0 f i RTreeCooking.obj
 0001:00011440       ?allocate@?$Array@IVNamedAllocator@shdfnd@physx@@@shdfnd@physx@@IAEPAII@Z 10012440 f i RTreeCooking.obj
 0001:000114b0       ?allocate@?$Array@UInterval@physx@@V?$InlineAllocator@$0CAAA@VNamedAllocator@shdfnd@physx@@@shdfnd@2@@shdfnd@physx@@IAEPAUInterval@3@I@Z 100124b0 f i RTreeCooking.obj
 0001:00011520       ?allocate@?$Array@UPxBounds3V@physx@@VNamedAllocator@shdfnd@2@@shdfnd@physx@@IAEPAUPxBounds3V@3@I@Z 10012520 f i RTreeCooking.obj
 0001:00011590       ?allocate@?$Array@URTreeNodeNQ@physx@@VNamedAllocator@shdfnd@2@@shdfnd@physx@@IAEPAURTreeNodeNQ@3@I@Z 10012590 f i RTreeCooking.obj
 0001:00011600       ?allocate@?$Array@URTreeNodeQ@Gu@physx@@VNamedAllocator@shdfnd@3@@shdfnd@physx@@IAEPAURTreeNodeQ@Gu@3@I@Z 10012600 f i RTreeCooking.obj
 0001:00011670       ?allocate@?$InlineAllocator@$0CAAA@VNamedAllocator@shdfnd@physx@@@shdfnd@physx@@QAEPAXIPBDH@Z 10012670 f i RTreeCooking.obj
 0001:000116c0       ?allocate@NonTrackingAllocator@shdfnd@physx@@QAEPAXIPBDH@Z 100126c0 f i RTreeCooking.obj
 0001:00011710       ?begin@?$Array@IVNamedAllocator@shdfnd@physx@@@shdfnd@physx@@QAEPAIXZ 10012710 f i RTreeCooking.obj
 0001:00011720       ?begin@?$Array@UPxBounds3V@physx@@VNamedAllocator@shdfnd@2@@shdfnd@physx@@QAEPAUPxBounds3V@3@XZ 10012720 f i RTreeCooking.obj
 0001:00011730       ?begin@?$Array@VPxVec3@physx@@VNamedAllocator@shdfnd@2@@shdfnd@physx@@QAEPAVPxVec3@3@XZ 10012730 f i RTreeCooking.obj
 0001:00011740       ?capacity@?$Array@IVNamedAllocator@shdfnd@physx@@@shdfnd@physx@@QBEIXZ 10012740 f i RTreeCooking.obj
 0001:00011760       ?capacity@?$Array@UInterval@physx@@V?$InlineAllocator@$0CAAA@VNamedAllocator@shdfnd@physx@@@shdfnd@2@@shdfnd@physx@@QBEIXZ 10012760 f i RTreeCooking.obj
 0001:00011780       ?capacity@?$Array@UPxBounds3V@physx@@VNamedAllocator@shdfnd@2@@shdfnd@physx@@QBEIXZ 10012780 f i RTreeCooking.obj
 0001:000117a0       ?capacity@?$Array@URTreeNodeNQ@physx@@VNamedAllocator@shdfnd@2@@shdfnd@physx@@QBEIXZ 100127a0 f i RTreeCooking.obj
 0001:000117c0       ?capacity@?$Array@URTreeNodeQ@Gu@physx@@VNamedAllocator@shdfnd@3@@shdfnd@physx@@QBEIXZ 100127c0 f i RTreeCooking.obj
 0001:000117e0       ?capacityIncrement@?$Array@IVNamedAllocator@shdfnd@physx@@@shdfnd@physx@@IBEIXZ 100127e0 f i RTreeCooking.obj
 0001:00011820       ?capacityIncrement@?$Array@UInterval@physx@@V?$InlineAllocator@$0CAAA@VNamedAllocator@shdfnd@physx@@@shdfnd@2@@shdfnd@physx@@IBEIXZ 10012820 f i RTreeCooking.obj
 0001:00011860       ?capacityIncrement@?$Array@UPxBounds3V@physx@@VNamedAllocator@shdfnd@2@@shdfnd@physx@@IBEIXZ 10012860 f i RTreeCooking.obj
 0001:000118a0       ?capacityIncrement@?$Array@URTreeNodeNQ@physx@@VNamedAllocator@shdfnd@2@@shdfnd@physx@@IBEIXZ 100128a0 f i RTreeCooking.obj
 0001:000118e0       ?capacityIncrement@?$Array@URTreeNodeQ@Gu@physx@@VNamedAllocator@shdfnd@3@@shdfnd@physx@@IBEIXZ 100128e0 f i RTreeCooking.obj
 0001:00011920       ?computeSA@SubSortSAH@physx@@QAEMPBIABUInterval@2@@Z 10012920 f i RTreeCooking.obj
 0001:00011a50       ?copy@?$Array@IVNamedAllocator@shdfnd@physx@@@shdfnd@physx@@KAXPAI0PBI@Z 10012a50 f i RTreeCooking.obj
 0001:00011aa0       ?copy@?$Array@UInterval@physx@@V?$InlineAllocator@$0CAAA@VNamedAllocator@shdfnd@physx@@@shdfnd@2@@shdfnd@physx@@KAXPAUInterval@3@0PBU43@@Z 10012aa0 f i RTreeCooking.obj
 0001:00011b00       ?copy@?$Array@UPxBounds3V@physx@@VNamedAllocator@shdfnd@2@@shdfnd@physx@@KAXPAUPxBounds3V@3@0PBU43@@Z 10012b00 f i RTreeCooking.obj
 0001:00011b60       ?copy@?$Array@URTreeNodeNQ@physx@@VNamedAllocator@shdfnd@2@@shdfnd@physx@@KAXPAURTreeNodeNQ@3@0PBU43@@Z 10012b60 f i RTreeCooking.obj
 0001:00011bb0       ?copy@?$Array@URTreeNodeQ@Gu@physx@@VNamedAllocator@shdfnd@3@@shdfnd@physx@@KAXPAURTreeNodeQ@Gu@3@0PBU453@@Z 10012bb0 f i RTreeCooking.obj
 0001:00011c10       ?create@?$Array@IVNamedAllocator@shdfnd@physx@@@shdfnd@physx@@KAXPAI0ABI@Z 10012c10 f i RTreeCooking.obj
 0001:00011c50       ?deallocate@?$Array@IVNamedAllocator@shdfnd@physx@@@shdfnd@physx@@IAEXPAX@Z 10012c50 f i RTreeCooking.obj
 0001:00011c70       ?deallocate@?$Array@UInterval@physx@@V?$InlineAllocator@$0CAAA@VNamedAllocator@shdfnd@physx@@@shdfnd@2@@shdfnd@physx@@IAEXPAX@Z 10012c70 f i RTreeCooking.obj
 0001:00011c90       ?deallocate@?$Array@UPxBounds3V@physx@@VNamedAllocator@shdfnd@2@@shdfnd@physx@@IAEXPAX@Z 10012c90 f i RTreeCooking.obj
 0001:00011cb0       ?deallocate@?$Array@URTreeNodeNQ@physx@@VNamedAllocator@shdfnd@2@@shdfnd@physx@@IAEXPAX@Z 10012cb0 f i RTreeCooking.obj
 0001:00011cd0       ?deallocate@?$Array@URTreeNodeQ@Gu@physx@@VNamedAllocator@shdfnd@3@@shdfnd@physx@@IAEXPAX@Z 10012cd0 f i RTreeCooking.obj
 0001:00011cf0       ?deallocate@?$InlineAllocator@$0CAAA@VNamedAllocator@shdfnd@physx@@@shdfnd@physx@@QAEXPAX@Z 10012cf0 f i RTreeCooking.obj
 0001:00011d20       ?destroy@?$Array@IVNamedAllocator@shdfnd@physx@@@shdfnd@physx@@KAXPAI0@Z 10012d20 f i RTreeCooking.obj
 0001:00011d40       ?destroy@?$Array@UInterval@physx@@V?$InlineAllocator@$0CAAA@VNamedAllocator@shdfnd@physx@@@shdfnd@2@@shdfnd@physx@@KAXPAUInterval@3@0@Z 10012d40 f i RTreeCooking.obj
 0001:00011d60       ?destroy@?$Array@UPxBounds3V@physx@@VNamedAllocator@shdfnd@2@@shdfnd@physx@@KAXPAUPxBounds3V@3@0@Z 10012d60 f i RTreeCooking.obj
 0001:00011d80       ?destroy@?$Array@URTreeNodeNQ@physx@@VNamedAllocator@shdfnd@2@@shdfnd@physx@@KAXPAURTreeNodeNQ@3@0@Z 10012d80 f i RTreeCooking.obj
 0001:00011da0       ?destroy@?$Array@URTreeNodeQ@Gu@physx@@VNamedAllocator@shdfnd@3@@shdfnd@physx@@KAXPAURTreeNodeQ@Gu@3@0@Z 10012da0 f i RTreeCooking.obj
 0001:00011dc0       ?empty@?$Stack@VNamedAllocator@shdfnd@physx@@@internal@shdfnd@physx@@QAE_NXZ 10012dc0 f i RTreeCooking.obj
 0001:00011df0       ?empty@PxBounds3@physx@@SA?AV12@XZ 10012df0 f i RTreeCooking.obj
 0001:00011e40       ?getExtents@PxBounds3V@physx@@QBE?AT__m128@@XZ 10012e40 f i RTreeCooking.obj
 0001:00011e90       ?getMaxVec3@PxBounds3V@physx@@QBE?BVPxVec3@2@XZ 10012e90 f i RTreeCooking.obj
 0001:00011ed0       ?getMinVec3@PxBounds3V@physx@@QBE?BVPxVec3@2@XZ 10012ed0 f i RTreeCooking.obj
 0001:00011f10       ?grow@?$Array@IVNamedAllocator@shdfnd@physx@@@shdfnd@physx@@IAEXI@Z 10012f10 f i RTreeCooking.obj
 0001:00011f70       ?grow@?$Array@UPxBounds3V@physx@@VNamedAllocator@shdfnd@2@@shdfnd@physx@@IAEXI@Z 10012f70 f i RTreeCooking.obj
 0001:00011fd0       ?grow@?$Array@URTreeNodeNQ@physx@@VNamedAllocator@shdfnd@2@@shdfnd@physx@@IAEXI@Z 10012fd0 f i RTreeCooking.obj
 0001:00012030       ?grow@?$Array@URTreeNodeQ@Gu@physx@@VNamedAllocator@shdfnd@3@@shdfnd@physx@@IAEXI@Z 10013030 f i RTreeCooking.obj
 0001:00012090       ?grow@?$Array@VPxVec3@physx@@VNamedAllocator@shdfnd@2@@shdfnd@physx@@IAEXI@Z 10013090 f i RTreeCooking.obj
 0001:000120f0       ?grow@?$Stack@VNamedAllocator@shdfnd@physx@@@internal@shdfnd@physx@@QAEXXZ 100130f0 f i RTreeCooking.obj
 0001:00012180       ?growAndPushBack@?$Array@IVNamedAllocator@shdfnd@physx@@@shdfnd@physx@@IAEAAIABI@Z 10013180 f i RTreeCooking.obj
 0001:000122b0       ?growAndPushBack@?$Array@UInterval@physx@@V?$InlineAllocator@$0CAAA@VNamedAllocator@shdfnd@physx@@@shdfnd@2@@shdfnd@physx@@IAEAAUInterval@3@ABU43@@Z 100132b0 f i RTreeCooking.obj
 0001:00012410       ?growAndPushBack@?$Array@UPxBounds3V@physx@@VNamedAllocator@shdfnd@2@@shdfnd@physx@@IAEAAUPxBounds3V@3@ABU43@@Z 10013410 f i RTreeCooking.obj
 0001:00012540       ?growAndPushBack@?$Array@URTreeNodeNQ@physx@@VNamedAllocator@shdfnd@2@@shdfnd@physx@@IAEAAURTreeNodeNQ@3@ABU43@@Z 10013540 f i RTreeCooking.obj
 0001:00012670       ?growAndPushBack@?$Array@URTreeNodeQ@Gu@physx@@VNamedAllocator@shdfnd@3@@shdfnd@physx@@IAEAAURTreeNodeQ@Gu@3@ABU453@@Z 10013670 f i RTreeCooking.obj
 0001:00012790       ?include@PxBounds3V@physx@@QAEXABU12@@Z 10013790 f i RTreeCooking.obj
 0001:00012800       ?isInUserMemory@?$Array@IVNamedAllocator@shdfnd@physx@@@shdfnd@physx@@QBEIXZ 10013800 f i RTreeCooking.obj
 0001:00012820       ?isInUserMemory@?$Array@UInterval@physx@@V?$InlineAllocator@$0CAAA@VNamedAllocator@shdfnd@physx@@@shdfnd@2@@shdfnd@physx@@QBEIXZ 10013820 f i RTreeCooking.obj
 0001:00012840       ?isInUserMemory@?$Array@UPxBounds3V@physx@@VNamedAllocator@shdfnd@2@@shdfnd@physx@@QBEIXZ 10013840 f i RTreeCooking.obj
 0001:00012860       ?isInUserMemory@?$Array@URTreeNodeNQ@physx@@VNamedAllocator@shdfnd@2@@shdfnd@physx@@QBEIXZ 10013860 f i RTreeCooking.obj
 0001:00012880       ?isInUserMemory@?$Array@URTreeNodeQ@Gu@physx@@VNamedAllocator@shdfnd@3@@shdfnd@physx@@QBEIXZ 10013880 f i RTreeCooking.obj
 0001:000128a0       ?isInside@PxBounds3@physx@@QBE_NABV12@@Z 100138a0 f i RTreeCooking.obj
 0001:00012960       ?isLeaf@RTreeNodeQ@Gu@physx@@QBEIXZ 10013960 f i RTreeCooking.obj
 0001:00012980       ?isValidFloatV@aos@shdfnd@physx@@YA_NT__m128@@@Z 10013980 f i RTreeCooking.obj
 0001:00012b00       ?isValidVec3V@aos@shdfnd@physx@@YA_NT__m128@@@Z 10013b00 f i RTreeCooking.obj
 0001:00012b70       ?pop@?$Stack@VNamedAllocator@shdfnd@physx@@@internal@shdfnd@physx@@QAEXAAH0@Z 10013b70 f i RTreeCooking.obj
 0001:00012c10       ?popBack@?$Array@IVNamedAllocator@shdfnd@physx@@@shdfnd@physx@@QAEIXZ 10013c10 f i RTreeCooking.obj
 0001:00012c90       ?push@?$Stack@VNamedAllocator@shdfnd@physx@@@internal@shdfnd@physx@@QAEXHH@Z 10013c90 f i RTreeCooking.obj
 0001:00012d00       ?pushBack@?$Array@IVNamedAllocator@shdfnd@physx@@@shdfnd@physx@@QAEAAIABI@Z 10013d00 f i RTreeCooking.obj
 0001:00012d80       ?pushBack@?$Array@UInterval@physx@@V?$InlineAllocator@$0CAAA@VNamedAllocator@shdfnd@physx@@@shdfnd@2@@shdfnd@physx@@QAEAAUInterval@3@ABU43@@Z 10013d80 f i RTreeCooking.obj
 0001:00012e20       ?pushBack@?$Array@UPxBounds3V@physx@@VNamedAllocator@shdfnd@2@@shdfnd@physx@@QAEAAUPxBounds3V@3@ABU43@@Z 10013e20 f i RTreeCooking.obj
 0001:00012ea0       ?pushBack@?$Array@URTreeNodeNQ@physx@@VNamedAllocator@shdfnd@2@@shdfnd@physx@@QAEAAURTreeNodeNQ@3@ABU43@@Z 10013ea0 f i RTreeCooking.obj
 0001:00012f20       ?pushBack@?$Array@URTreeNodeQ@Gu@physx@@VNamedAllocator@shdfnd@3@@shdfnd@physx@@QAEAAURTreeNodeQ@Gu@3@ABU453@@Z 10013f20 f i RTreeCooking.obj
 0001:00012fa0       ?recreate@?$Array@IVNamedAllocator@shdfnd@physx@@@shdfnd@physx@@IAEXI@Z 10013fa0 f i RTreeCooking.obj
 0001:00013070       ?recreate@?$Array@UPxBounds3V@physx@@VNamedAllocator@shdfnd@2@@shdfnd@physx@@IAEXI@Z 10014070 f i RTreeCooking.obj
 0001:00013140       ?recreate@?$Array@URTreeNodeNQ@physx@@VNamedAllocator@shdfnd@2@@shdfnd@physx@@IAEXI@Z 10014140 f i RTreeCooking.obj
 0001:00013210       ?recreate@?$Array@URTreeNodeQ@Gu@physx@@VNamedAllocator@shdfnd@3@@shdfnd@physx@@IAEXI@Z 10014210 f i RTreeCooking.obj
 0001:000132e0       ?recreate@?$Array@VPxVec3@physx@@VNamedAllocator@shdfnd@2@@shdfnd@physx@@IAEXI@Z 100142e0 f i RTreeCooking.obj
 0001:000133b0       ?replaceWithLast@?$Array@UInterval@physx@@V?$InlineAllocator@$0CAAA@VNamedAllocator@shdfnd@physx@@@shdfnd@2@@shdfnd@physx@@QAEXI@Z 100143b0 f i RTreeCooking.obj
 0001:00013450       ?reserve@?$Array@IVNamedAllocator@shdfnd@physx@@@shdfnd@physx@@QAEXI@Z 10014450 f i RTreeCooking.obj
 0001:00013480       ?reserve@?$Array@UPxBounds3V@physx@@VNamedAllocator@shdfnd@2@@shdfnd@physx@@QAEXI@Z 10014480 f i RTreeCooking.obj
 0001:000134b0       ?reserve@?$Array@URTreeNodeNQ@physx@@VNamedAllocator@shdfnd@2@@shdfnd@physx@@QAEXI@Z 100144b0 f i RTreeCooking.obj
 0001:000134e0       ?reserve@?$Array@URTreeNodeQ@Gu@physx@@VNamedAllocator@shdfnd@3@@shdfnd@physx@@QAEXI@Z 100144e0 f i RTreeCooking.obj
 0001:00013510       ?reserve@?$Array@VPxVec3@physx@@VNamedAllocator@shdfnd@2@@shdfnd@physx@@QAEXI@Z 10014510 f i RTreeCooking.obj
 0001:00013540       ?resize@?$Array@IVNamedAllocator@shdfnd@physx@@@shdfnd@physx@@QAEXIABI@Z 10014540 f i RTreeCooking.obj
 0001:000135b0       ?resizeUninitialized@?$Array@URTreeNodeNQ@physx@@VNamedAllocator@shdfnd@2@@shdfnd@physx@@QAEXI@Z 100145b0 f i RTreeCooking.obj
 0001:000135e0       ?setLeaf@RTreeNodeQ@Gu@physx@@QAEX_N@Z 100145e0 f i RTreeCooking.obj
 0001:00013620       ?size@?$Array@IVNamedAllocator@shdfnd@physx@@@shdfnd@physx@@QBEIXZ 10014620 f i RTreeCooking.obj
 0001:00013640       ?size@?$Array@UInterval@physx@@V?$InlineAllocator@$0CAAA@VNamedAllocator@shdfnd@physx@@@shdfnd@2@@shdfnd@physx@@QBEIXZ 10014640 f i RTreeCooking.obj
 0001:00013660       ?size@?$Array@URTreeNodeNQ@physx@@VNamedAllocator@shdfnd@2@@shdfnd@physx@@QBEIXZ 10014660 f i RTreeCooking.obj
 0001:00013680       ?size@?$Array@URTreeNodeQ@Gu@physx@@VNamedAllocator@shdfnd@3@@shdfnd@physx@@QBEIXZ 10014680 f i RTreeCooking.obj
 0001:000136a0       ?size@?$Array@VPxVec3@physx@@VNamedAllocator@shdfnd@2@@shdfnd@physx@@QBEIXZ 100146a0 f i RTreeCooking.obj
 0001:000136c0       ?sort4@SubSortQuick@physx@@QAEXPIAIIAAV?$Array@URTreeNodeNQ@physx@@VNamedAllocator@shdfnd@2@@shdfnd@2@AAIAAUPxBounds3V@2@I@Z 100146c0 f i RTreeCooking.obj
 0001:00013d80       ?sort4@SubSortSAH@physx@@QAEXPAIIAAV?$Array@URTreeNodeNQ@physx@@VNamedAllocator@shdfnd@2@@shdfnd@2@AAIIPAURTreeNodeNQ@2@@Z 10014d80 f i RTreeCooking.obj
 0001:00014860       ?split@SubSortSAH@physx@@QAEIPAII@Z 10015860 f i RTreeCooking.obj
 0001:00015250       ?computeLocalBounds@MeshBulider@physx@@IAEXAAVMeshDataBase@Gu@2@@Z 10016250 f   MeshBuilder.obj
 0001:00015350       _powf                      10016350 f i MeshBuilder.obj
 0001:00015380       ??0TriangleMeshBuilder@physx@@QAE@AAVTriangleMeshData@Gu@1@ABUPxCookingParams@1@@Z 10016380 f   TriangleMeshBuilder.obj
 0001:000153c0       ??1TriangleMeshBuilder@physx@@UAE@XZ 100163c0 f   TriangleMeshBuilder.obj
 0001:000153e0       ?cleanMesh@TriangleMeshBuilder@physx@@QAE_N_NPAW4Enum@PxTriangleMeshCookingResult@2@@Z 100163e0 f   TriangleMeshBuilder.obj
 0001:00015970       ?remapTopology@TriangleMeshBuilder@physx@@QAEXPBI@Z 10016970 f   TriangleMeshBuilder.obj
 0001:00015c10       ?createSharedEdgeData@TriangleMeshBuilder@physx@@QAEX_N0@Z 10016c10 f   TriangleMeshBuilder.obj
 0001:000161f0       ?recordTriangleIndices@TriangleMeshBuilder@physx@@QAEXXZ 100171f0 f   TriangleMeshBuilder.obj
 0001:00016340       ?createGRBMidPhaseAndData@TriangleMeshBuilder@physx@@QAEXI@Z 10017340 f   TriangleMeshBuilder.obj
 0001:00016590       ?createGRBData@TriangleMeshBuilder@physx@@QAEXXZ 10017590 f   TriangleMeshBuilder.obj
 0001:000166a0       ?loadFromDesc@TriangleMeshBuilder@physx@@QAE_NABVPxTriangleMeshDesc@2@PAW4Enum@PxTriangleMeshCookingResult@2@_N@Z 100176a0 f   TriangleMeshBuilder.obj
 0001:000168a0       ?save@TriangleMeshBuilder@physx@@QBE_NAAVPxOutputStream@2@_NABUPxCookingParams@2@@Z 100178a0 f   TriangleMeshBuilder.obj
 0001:00016f10       ?checkMeshIndicesSize@TriangleMeshBuilder@physx@@QAEXXZ 10017f10 f   TriangleMeshBuilder.obj
 0001:000170a0       ?importMesh@TriangleMeshBuilder@physx@@IAE_NABVPxTriangleMeshDesc@2@ABUPxCookingParams@2@PAW4Enum@PxTriangleMeshCookingResult@2@_N@Z 100180a0 f   TriangleMeshBuilder.obj
 0001:00017510       ?releaseEdgeList@TriangleMeshBuilder@physx@@IAEXXZ 10018510 f   TriangleMeshBuilder.obj
 0001:00017550       ?createEdgeList@TriangleMeshBuilder@physx@@IAEXXZ 10018550 f   TriangleMeshBuilder.obj
 0001:00017650       ??0RTreeTriangleMeshBuilder@physx@@QAE@ABUPxCookingParams@1@@Z 10018650 f   TriangleMeshBuilder.obj
 0001:00017690       ??1RTreeTriangleMeshBuilder@physx@@UAE@XZ 10018690 f   TriangleMeshBuilder.obj
 0001:000176c0       ?createMidPhaseStructure@RTreeTriangleMeshBuilder@physx@@UAEXXZ 100186c0 f   TriangleMeshBuilder.obj
 0001:00017820       ?saveMidPhaseStructure@RTreeTriangleMeshBuilder@physx@@UBEXAAVPxOutputStream@2@_N@Z 10018820 f   TriangleMeshBuilder.obj
 0001:00017a80       ??0BV4TriangleMeshBuilder@physx@@QAE@ABUPxCookingParams@1@@Z 10018a80 f   TriangleMeshBuilder.obj
 0001:00017ac0       ??1BV4TriangleMeshBuilder@physx@@UAE@XZ 10018ac0 f   TriangleMeshBuilder.obj
 0001:00017af0       ?createMidPhaseStructure@BV4TriangleMeshBuilder@physx@@UAEXXZ 10018af0 f   TriangleMeshBuilder.obj
 0001:00017e00       ?saveMidPhaseStructure@BV4TriangleMeshBuilder@physx@@UBEXAAVPxOutputStream@2@_N@Z 10018e00 f   TriangleMeshBuilder.obj
 0001:00018050       ?onMeshIndexFormatChange@BV4TriangleMeshBuilder@physx@@UAEXXZ 10019050 f   TriangleMeshBuilder.obj
 0001:000180c0       ?createMidPhaseStructure@BV32TriangleMeshBuilder@physx@@SAXABUPxCookingParams@2@AAVTriangleMeshData@Gu@2@AAVBV32Tree@52@@Z 100190c0 f   TriangleMeshBuilder.obj
 0001:000182c0       ?saveMidPhaseStructure@BV32TriangleMeshBuilder@physx@@SAXPAVBV32Tree@Gu@2@AAVPxOutputStream@2@_N@Z 100192c0 f   TriangleMeshBuilder.obj
 0001:00018a10       ?findSharpVertices@GrbTrimeshCookerHelper@physx@@YAXAAV?$Array@USortedNeighbor@GrbTrimeshCookerHelper@physx@@VNamedAllocator@shdfnd@3@@shdfnd@2@AAV?$Array@USharpEdgeRange@GrbTrimeshCookerHelper@physx@@VNamedAllocator@shdfnd@3@@42@PBUuint3@2@PBUuint4@2@II@Z 10019a10 f   TriangleMeshBuilder.obj
 0001:00018da0       ?buildVertexConnectionNew_p1@GrbTrimeshCookerHelper@physx@@YAIAAV?$Array@USortedNeighbor@GrbTrimeshCookerHelper@physx@@VNamedAllocator@shdfnd@3@@shdfnd@2@AAV?$Array@USharpEdgeRange@GrbTrimeshCookerHelper@physx@@VNamedAllocator@shdfnd@3@@42@PBUuint3@2@PBUuint4@2@II@Z 10019da0 f   TriangleMeshBuilder.obj
 0001:00018e10       ?buildVertexConnectionNew_p2@GrbTrimeshCookerHelper@physx@@YAXPAI00AAV?$Array@USortedNeighbor@GrbTrimeshCookerHelper@physx@@VNamedAllocator@shdfnd@3@@shdfnd@2@AAV?$Array@USharpEdgeRange@GrbTrimeshCookerHelper@physx@@VNamedAllocator@shdfnd@3@@42@I@Z 10019e10 f   TriangleMeshBuilder.obj
 0001:00018eb0       ??$?2V?$ReflectionAllocator@VBV32Tree@Gu@physx@@@shdfnd@physx@@@UserAllocated@shdfnd@physx@@SAPAXIV?$ReflectionAllocator@VBV32Tree@Gu@physx@@@12@PBDH@Z 10019eb0 f i TriangleMeshBuilder.obj
 0001:00018ed0       ??$?2V?$ReflectionAllocator@VEdgeListBuilder@Gu@physx@@@shdfnd@physx@@@UserAllocated@shdfnd@physx@@SAPAXIV?$ReflectionAllocator@VEdgeListBuilder@Gu@physx@@@12@PBDH@Z 10019ed0 f i TriangleMeshBuilder.obj
 0001:00018ef0       ??$?_UE@@YAPAXIV?$ReflectionAllocator@E@shdfnd@physx@@PBDH@Z 10019ef0 f i TriangleMeshBuilder.obj
 0001:00018f10       ??$?_UG@@YAPAXIV?$ReflectionAllocator@G@shdfnd@physx@@PBDH@Z 10019f10 f i TriangleMeshBuilder.obj
 0001:00018f30       ??$PX_UNUSED@U?$TriangleT@I@Gu@physx@@@@YAXABU?$TriangleT@I@Gu@physx@@@Z 10019f30 f i TriangleMeshBuilder.obj
 0001:00018f40       ??$median3@UEdgeTriLookup@physx@@$$CBU?$Less@UEdgeTriLookup@physx@@@shdfnd@2@@internal@shdfnd@physx@@YAXPAUEdgeTriLookup@2@HHABU?$Less@UEdgeTriLookup@physx@@@12@@Z 10019f40 f i TriangleMeshBuilder.obj
 0001:00019020       ??$median3@USortedNeighbor@GrbTrimeshCookerHelper@physx@@$$CBU?$Less@USortedNeighbor@GrbTrimeshCookerHelper@physx@@@shdfnd@3@@internal@shdfnd@physx@@YAXPAUSortedNeighbor@GrbTrimeshCookerHelper@2@HHABU?$Less@USortedNeighbor@GrbTrimeshCookerHelper@physx@@@12@@Z 1001a020 f i TriangleMeshBuilder.obj
 0001:00019100       ??$partition@UEdgeTriLookup@physx@@$$CBU?$Less@UEdgeTriLookup@physx@@@shdfnd@2@@internal@shdfnd@physx@@YAHPAUEdgeTriLookup@2@HHABU?$Less@UEdgeTriLookup@physx@@@12@@Z 1001a100 f i TriangleMeshBuilder.obj
 0001:00019260       ??$partition@USortedNeighbor@GrbTrimeshCookerHelper@physx@@$$CBU?$Less@USortedNeighbor@GrbTrimeshCookerHelper@physx@@@shdfnd@3@@internal@shdfnd@physx@@YAHPAUSortedNeighbor@GrbTrimeshCookerHelper@2@HHABU?$Less@USortedNeighbor@GrbTrimeshCookerHelper@physx@@@12@@Z 1001a260 f i TriangleMeshBuilder.obj
 0001:000193c0       ??$smallSort@UEdgeTriLookup@physx@@$$CBU?$Less@UEdgeTriLookup@physx@@@shdfnd@2@@internal@shdfnd@physx@@YAXPAUEdgeTriLookup@2@HHABU?$Less@UEdgeTriLookup@physx@@@12@@Z 1001a3c0 f i TriangleMeshBuilder.obj
 0001:00019450       ??$smallSort@USortedNeighbor@GrbTrimeshCookerHelper@physx@@$$CBU?$Less@USortedNeighbor@GrbTrimeshCookerHelper@physx@@@shdfnd@3@@internal@shdfnd@physx@@YAXPAUSortedNeighbor@GrbTrimeshCookerHelper@2@HHABU?$Less@USortedNeighbor@GrbTrimeshCookerHelper@physx@@@12@@Z 1001a450 f i TriangleMeshBuilder.obj
 0001:000194e0       ??$sort@UEdgeTriLookup@physx@@@shdfnd@physx@@YAXPAUEdgeTriLookup@1@I@Z 1001a4e0 f i TriangleMeshBuilder.obj
 0001:00019520       ??$sort@UEdgeTriLookup@physx@@U?$Less@UEdgeTriLookup@physx@@@shdfnd@2@VNamedAllocator@42@@shdfnd@physx@@YAXPAUEdgeTriLookup@1@IABU?$Less@UEdgeTriLookup@physx@@@01@ABVNamedAllocator@01@I@Z 1001a520 f i TriangleMeshBuilder.obj
 0001:00019750       ??$sort@USortedNeighbor@GrbTrimeshCookerHelper@physx@@@shdfnd@physx@@YAXPAUSortedNeighbor@GrbTrimeshCookerHelper@1@I@Z 1001a750 f i TriangleMeshBuilder.obj
 0001:00019790       ??$sort@USortedNeighbor@GrbTrimeshCookerHelper@physx@@U?$Less@USortedNeighbor@GrbTrimeshCookerHelper@physx@@@shdfnd@3@VNamedAllocator@53@@shdfnd@physx@@YAXPAUSortedNeighbor@GrbTrimeshCookerHelper@1@IABU?$Less@USortedNeighbor@GrbTrimeshCookerHelper@physx@@@01@ABVNamedAllocator@01@I@Z 1001a790 f i TriangleMeshBuilder.obj
 0001:000199c0       ??$swap@UEdgeTriLookup@physx@@@shdfnd@physx@@YAXAAUEdgeTriLookup@1@0@Z 1001a9c0 f i TriangleMeshBuilder.obj
 0001:00019a10       ??$swap@USortedNeighbor@GrbTrimeshCookerHelper@physx@@@shdfnd@physx@@YAXAAUSortedNeighbor@GrbTrimeshCookerHelper@1@0@Z 1001aa10 f i TriangleMeshBuilder.obj
 0001:00019a60       ??0?$Array@IVNamedAllocator@shdfnd@physx@@@shdfnd@physx@@QAE@ABVNamedAllocator@12@@Z 1001aa60 f i TriangleMeshBuilder.obj
 0001:00019aa0       ??0?$PxFlags@W4Enum@PxMeshFlag@physx@@G@physx@@QAE@W4Enum@PxMeshFlag@1@@Z 1001aaa0 f i TriangleMeshBuilder.obj
 0001:00019ac0       ??0?$PxFlags@W4Enum@PxMeshFlag@physx@@G@physx@@QAE@XZ 1001aac0 f i TriangleMeshBuilder.obj
 0001:00019ae0       ??0?$ReflectionAllocator@E@shdfnd@physx@@QAE@PBD@Z 1001aae0 f i TriangleMeshBuilder.obj
 0001:00019af0       ??0?$ReflectionAllocator@G@shdfnd@physx@@QAE@PBD@Z 1001aaf0 f i TriangleMeshBuilder.obj
 0001:00019b00       ??0?$ReflectionAllocator@VBV32Tree@Gu@physx@@@shdfnd@physx@@QAE@PBD@Z 1001ab00 f i TriangleMeshBuilder.obj
 0001:00019b10       ??0?$ReflectionAllocator@VEdgeListBuilder@Gu@physx@@@shdfnd@physx@@QAE@PBD@Z 1001ab10 f i TriangleMeshBuilder.obj
 0001:00019b20       ??0BV4TriangleData@Gu@physx@@QAE@XZ 1001ab20 f i TriangleMeshBuilder.obj
 0001:00019b60       ??0MeshDataBase@Gu@physx@@QAE@XZ 1001ab60 f i TriangleMeshBuilder.obj
 0001:00019be0       ??0PxPlane@physx@@QAE@ABVPxVec3@1@0@Z 1001abe0 f i TriangleMeshBuilder.obj
 0001:00019c30       ??0PxSimpleTriangleMesh@physx@@QAE@ABV01@@Z 1001ac30 f i TriangleMeshBuilder.obj
 0001:00019c90       ??0PxTriangleMeshDesc@physx@@QAE@ABV01@@Z 1001ac90 f i TriangleMeshBuilder.obj
 0001:00019cc0       ??0RTree@Gu@physx@@QAE@XZ  1001acc0 f i TriangleMeshBuilder.obj
 0001:00019d30       ??0RTreeCookerRemap@physx@@QAE@I@Z 1001ad30 f i TriangleMeshBuilder.obj
 0001:00019d60       ??0RTreeTriangleData@Gu@physx@@QAE@XZ 1001ad60 f i TriangleMeshBuilder.obj
 0001:00019da0       ??0RemapCallback@RTreeCooker@physx@@QAE@XZ 1001ada0 f i TriangleMeshBuilder.obj
 0001:00019dc0       ??0SharpEdgeRange@GrbTrimeshCookerHelper@physx@@QAE@II@Z 1001adc0 f i TriangleMeshBuilder.obj
 0001:00019df0       ??0SharpEdgeRange@GrbTrimeshCookerHelper@physx@@QAE@XZ 1001adf0 f i TriangleMeshBuilder.obj
 0001:00019e20       ??0SortedNeighbor@GrbTrimeshCookerHelper@physx@@QAE@II_N@Z 1001ae20 f i TriangleMeshBuilder.obj
 0001:00019e50       ??0TriangleMeshData@Gu@physx@@QAE@XZ 1001ae50 f i TriangleMeshBuilder.obj
 0001:00019eb0       ??1BV4TriangleData@Gu@physx@@UAE@XZ 1001aeb0 f i TriangleMeshBuilder.obj
 0001:00019ef0       ??1MeshDataBase@Gu@physx@@UAE@XZ 1001aef0 f i TriangleMeshBuilder.obj
 0001:0001a000       ??1RTree@Gu@physx@@QAE@XZ  1001b000 f i TriangleMeshBuilder.obj
 0001:0001a020       ??1RTreeCookerRemap@physx@@UAE@XZ 1001b020 f i TriangleMeshBuilder.obj
 0001:0001a040       ??1RTreeTriangleData@Gu@physx@@UAE@XZ 1001b040 f i TriangleMeshBuilder.obj
 0001:0001a070       ??1RemapCallback@RTreeCooker@physx@@UAE@XZ 1001b070 f i TriangleMeshBuilder.obj
 0001:0001a090       ??1TriangleMeshData@Gu@physx@@UAE@XZ 1001b090 f i TriangleMeshBuilder.obj
 0001:0001a170       ??A?$Array@USharpEdgeRange@GrbTrimeshCookerHelper@physx@@VNamedAllocator@shdfnd@3@@shdfnd@physx@@QAEAAUSharpEdgeRange@GrbTrimeshCookerHelper@2@I@Z 1001b170 f i TriangleMeshBuilder.obj
 0001:0001a1d0       ??A?$Array@USortedNeighbor@GrbTrimeshCookerHelper@physx@@VNamedAllocator@shdfnd@3@@shdfnd@physx@@QAEAAUSortedNeighbor@GrbTrimeshCookerHelper@2@I@Z 1001b1d0 f i TriangleMeshBuilder.obj
 0001:0001a230       ??MEdgeTriLookup@physx@@QBE_NABU01@@Z 1001b230 f i TriangleMeshBuilder.obj
 0001:0001a280       ??MSortedNeighbor@GrbTrimeshCookerHelper@physx@@QBE_NABU012@@Z 1001b280 f i TriangleMeshBuilder.obj
 0001:0001a300       ??NEdgeTriLookup@physx@@QBE_NABU01@@Z 1001b300 f i TriangleMeshBuilder.obj
 0001:0001a350       ??R?$Less@UEdgeTriLookup@physx@@@shdfnd@physx@@QBE_NABUEdgeTriLookup@2@0@Z 1001b350 f i TriangleMeshBuilder.obj
 0001:0001a370       ??R?$Less@USortedNeighbor@GrbTrimeshCookerHelper@physx@@@shdfnd@physx@@QBE_NABUSortedNeighbor@GrbTrimeshCookerHelper@2@0@Z 1001b370 f i TriangleMeshBuilder.obj
 0001:0001a390       ??S?$PxFlags@W4Enum@PxMeshFlag@physx@@G@physx@@QBE?AV01@XZ 1001b390 f i TriangleMeshBuilder.obj
 0001:0001a3d0       ??Sphysx@@YA?AV?$PxFlags@W4Enum@PxMeshFlag@physx@@G@0@W4Enum@PxMeshFlag@0@@Z 1001b3d0 f i TriangleMeshBuilder.obj
 0001:0001a400       ??_4?$PxFlags@W4Enum@PxMeshFlag@physx@@G@physx@@QAEAAV01@ABV01@@Z 1001b400 f i TriangleMeshBuilder.obj
 0001:0001a430       ??_GBV32Tree@Gu@physx@@QAEPAXI@Z 1001b430 f i TriangleMeshBuilder.obj
 0001:0001a480       ??_GBV4TriangleData@Gu@physx@@UAEPAXI@Z 1001b480 f i TriangleMeshBuilder.obj
 0001:0001a480       ??_EBV4TriangleData@Gu@physx@@UAEPAXI@Z 1001b480 f i TriangleMeshBuilder.obj
 0001:0001a4d0       ??_EBV4TriangleMeshBuilder@physx@@UAEPAXI@Z 1001b4d0 f i TriangleMeshBuilder.obj
 0001:0001a4d0       ??_GBV4TriangleMeshBuilder@physx@@UAEPAXI@Z 1001b4d0 f i TriangleMeshBuilder.obj
 0001:0001a510       ??_GEdgeListBuilder@Gu@physx@@QAEPAXI@Z 1001b510 f i TriangleMeshBuilder.obj
 0001:0001a560       ??_GMeshDataBase@Gu@physx@@UAEPAXI@Z 1001b560 f i TriangleMeshBuilder.obj
 0001:0001a560       ??_EMeshDataBase@Gu@physx@@UAEPAXI@Z 1001b560 f i TriangleMeshBuilder.obj
 0001:0001a5b0       ??_GRTreeCookerRemap@physx@@UAEPAXI@Z 1001b5b0 f i TriangleMeshBuilder.obj
 0001:0001a5b0       ??_ERTreeCookerRemap@physx@@UAEPAXI@Z 1001b5b0 f i TriangleMeshBuilder.obj
 0001:0001a5e0       ??_GRTreeTriangleData@Gu@physx@@UAEPAXI@Z 1001b5e0 f i TriangleMeshBuilder.obj
 0001:0001a5e0       ??_ERTreeTriangleData@Gu@physx@@UAEPAXI@Z 1001b5e0 f i TriangleMeshBuilder.obj
 0001:0001a630       ??_ERTreeTriangleMeshBuilder@physx@@UAEPAXI@Z 1001b630 f i TriangleMeshBuilder.obj
 0001:0001a630       ??_GRTreeTriangleMeshBuilder@physx@@UAEPAXI@Z 1001b630 f i TriangleMeshBuilder.obj
 0001:0001a670       ??_ERemapCallback@RTreeCooker@physx@@UAEPAXI@Z 1001b670 f i TriangleMeshBuilder.obj
 0001:0001a670       ??_GRemapCallback@RTreeCooker@physx@@UAEPAXI@Z 1001b670 f i TriangleMeshBuilder.obj
 0001:0001a6a0       ??_ETriangleMeshBuilder@physx@@UAEPAXI@Z 1001b6a0 f i TriangleMeshBuilder.obj
 0001:0001a6a0       ??_GTriangleMeshBuilder@physx@@UAEPAXI@Z 1001b6a0 f i TriangleMeshBuilder.obj
 0001:0001a6d0       ??_ETriangleMeshData@Gu@physx@@UAEPAXI@Z 1001b6d0 f i TriangleMeshBuilder.obj
 0001:0001a6d0       ??_GTriangleMeshData@Gu@physx@@UAEPAXI@Z 1001b6d0 f i TriangleMeshBuilder.obj
 0001:0001a720       ?LeafSetData@Gu@physx@@YAIII@Z 1001b720 f i TriangleMeshBuilder.obj
 0001:0001a7c0       ?SetData@LeafTriangles@Gu@physx@@QAEXII@Z 1001b7c0 f i TriangleMeshBuilder.obj
 0001:0001a7f0       ?WriteDwordBuffer@physx@@YAXPBII_NAAVPxOutputStream@1@@Z 1001b7f0 f i TriangleMeshBuilder.obj
 0001:0001a810       ?allocate@?$Array@USharpEdgeRange@GrbTrimeshCookerHelper@physx@@VNamedAllocator@shdfnd@3@@shdfnd@physx@@IAEPAUSharpEdgeRange@GrbTrimeshCookerHelper@3@I@Z 1001b810 f i TriangleMeshBuilder.obj
 0001:0001a880       ?allocate@?$Array@USortedNeighbor@GrbTrimeshCookerHelper@physx@@VNamedAllocator@shdfnd@3@@shdfnd@physx@@IAEPAUSortedNeighbor@GrbTrimeshCookerHelper@3@I@Z 1001b880 f i TriangleMeshBuilder.obj
 0001:0001a8f0       ?allocate@?$ReflectionAllocator@E@shdfnd@physx@@QAEPAXIPBDH@Z 1001b8f0 f i TriangleMeshBuilder.obj
 0001:0001a940       ?allocate@?$ReflectionAllocator@G@shdfnd@physx@@QAEPAXIPBDH@Z 1001b940 f i TriangleMeshBuilder.obj
 0001:0001a990       ?allocate@?$ReflectionAllocator@VBV32Tree@Gu@physx@@@shdfnd@physx@@QAEPAXIPBDH@Z 1001b990 f i TriangleMeshBuilder.obj
 0001:0001a9e0       ?allocate@?$ReflectionAllocator@VEdgeListBuilder@Gu@physx@@@shdfnd@physx@@QAEPAXIPBDH@Z 1001b9e0 f i TriangleMeshBuilder.obj
 0001:0001aa30       ?allocateMaterials@TriangleMeshData@Gu@physx@@QAEPAGXZ 1001ba30 f i TriangleMeshBuilder.obj
 0001:0001ab10       ?allocateTriangles@TriangleMeshData@Gu@physx@@QAEPAXI_NI@Z 1001bb10 f i TriangleMeshBuilder.obj
 0001:0001ac90       ?allocateVertices@MeshDataBase@Gu@physx@@QAEPAVPxVec3@3@I@Z 1001bc90 f i TriangleMeshBuilder.obj
 0001:0001ad30       ?begin@?$Array@USortedNeighbor@GrbTrimeshCookerHelper@physx@@VNamedAllocator@shdfnd@3@@shdfnd@physx@@QAEPAUSortedNeighbor@GrbTrimeshCookerHelper@3@XZ 1001bd30 f i TriangleMeshBuilder.obj
 0001:0001ad40       ?capacity@?$Array@USharpEdgeRange@GrbTrimeshCookerHelper@physx@@VNamedAllocator@shdfnd@3@@shdfnd@physx@@QBEIXZ 1001bd40 f i TriangleMeshBuilder.obj
 0001:0001ad60       ?capacity@?$Array@USortedNeighbor@GrbTrimeshCookerHelper@physx@@VNamedAllocator@shdfnd@3@@shdfnd@physx@@QBEIXZ 1001bd60 f i TriangleMeshBuilder.obj
 0001:0001ad80       ?capacityIncrement@?$Array@USortedNeighbor@GrbTrimeshCookerHelper@physx@@VNamedAllocator@shdfnd@3@@shdfnd@physx@@IBEIXZ 1001bd80 f i TriangleMeshBuilder.obj
 0001:0001adc0       ?copy@?$Array@USharpEdgeRange@GrbTrimeshCookerHelper@physx@@VNamedAllocator@shdfnd@3@@shdfnd@physx@@KAXPAUSharpEdgeRange@GrbTrimeshCookerHelper@3@0PBU453@@Z 1001bdc0 f i TriangleMeshBuilder.obj
 0001:0001ae20       ?copy@?$Array@USortedNeighbor@GrbTrimeshCookerHelper@physx@@VNamedAllocator@shdfnd@3@@shdfnd@physx@@KAXPAUSortedNeighbor@GrbTrimeshCookerHelper@3@0PBU453@@Z 1001be20 f i TriangleMeshBuilder.obj
 0001:0001ae80       ?create@?$Array@USharpEdgeRange@GrbTrimeshCookerHelper@physx@@VNamedAllocator@shdfnd@3@@shdfnd@physx@@KAXPAUSharpEdgeRange@GrbTrimeshCookerHelper@3@0ABU453@@Z 1001be80 f i TriangleMeshBuilder.obj
 0001:0001aec0       ?deallocate@?$AlignedAllocator@$0IA@VNonTrackingAllocator@shdfnd@physx@@@shdfnd@physx@@QAEXPAX@Z 1001bec0 f i TriangleMeshBuilder.obj
 0001:0001af00       ?deallocate@?$Array@USharpEdgeRange@GrbTrimeshCookerHelper@physx@@VNamedAllocator@shdfnd@3@@shdfnd@physx@@IAEXPAX@Z 1001bf00 f i TriangleMeshBuilder.obj
 0001:0001af20       ?deallocate@?$Array@USortedNeighbor@GrbTrimeshCookerHelper@physx@@VNamedAllocator@shdfnd@3@@shdfnd@physx@@IAEXPAX@Z 1001bf20 f i TriangleMeshBuilder.obj
 0001:0001af40       ?destroy@?$Array@USharpEdgeRange@GrbTrimeshCookerHelper@physx@@VNamedAllocator@shdfnd@3@@shdfnd@physx@@KAXPAUSharpEdgeRange@GrbTrimeshCookerHelper@3@0@Z 1001bf40 f i TriangleMeshBuilder.obj
 0001:0001af60       ?destroy@?$Array@USortedNeighbor@GrbTrimeshCookerHelper@physx@@VNamedAllocator@shdfnd@3@@shdfnd@physx@@KAXPAUSortedNeighbor@GrbTrimeshCookerHelper@3@0@Z 1001bf60 f i TriangleMeshBuilder.obj
 0001:0001af80       ?findEdgeCCW@?$TriangleT@I@Gu@physx@@QBEEII@Z 1001bf80 f i TriangleMeshBuilder.obj
 0001:0001b0a0       ?getMidphaseID@BV4TriangleMeshBuilder@physx@@UBE?AW4Enum@PxMeshMidPhase@2@XZ 1001c0a0 f i TriangleMeshBuilder.obj
 0001:0001b0b0       ?getMidphaseID@RTreeTriangleMeshBuilder@physx@@UBE?AW4Enum@PxMeshMidPhase@2@XZ 1001c0b0 f i TriangleMeshBuilder.obj
 0001:0001b0c0       ?getName@?$ReflectionAllocator@E@shdfnd@physx@@CAPBDXZ 1001c0c0 f i TriangleMeshBuilder.obj
 0001:0001b100       ?getName@?$ReflectionAllocator@G@shdfnd@physx@@CAPBDXZ 1001c100 f i TriangleMeshBuilder.obj
 0001:0001b140       ?getName@?$ReflectionAllocator@VBV32Tree@Gu@physx@@@shdfnd@physx@@CAPBDXZ 1001c140 f i TriangleMeshBuilder.obj
 0001:0001b180       ?getName@?$ReflectionAllocator@VEdgeListBuilder@Gu@physx@@@shdfnd@physx@@CAPBDXZ 1001c180 f i TriangleMeshBuilder.obj
 0001:0001b1c0       ?getNbFaces@EdgeList@Gu@physx@@QBEIXZ 1001c1c0 f i TriangleMeshBuilder.obj
 0001:0001b1e0       ?getRemap@SourceMeshBase@Gu@physx@@QBEPBIXZ 1001c1e0 f i TriangleMeshBuilder.obj
 0001:0001b200       ?grow@?$Array@USharpEdgeRange@GrbTrimeshCookerHelper@physx@@VNamedAllocator@shdfnd@3@@shdfnd@physx@@IAEXI@Z 1001c200 f i TriangleMeshBuilder.obj
 0001:0001b260       ?grow@?$Array@USortedNeighbor@GrbTrimeshCookerHelper@physx@@VNamedAllocator@shdfnd@3@@shdfnd@physx@@IAEXI@Z 1001c260 f i TriangleMeshBuilder.obj
 0001:0001b2c0       ?growAndPushBack@?$Array@USortedNeighbor@GrbTrimeshCookerHelper@physx@@VNamedAllocator@shdfnd@3@@shdfnd@physx@@IAEAAUSortedNeighbor@GrbTrimeshCookerHelper@3@ABU453@@Z 1001c2c0 f i TriangleMeshBuilder.obj
 0001:0001b3f0       ?has16BitIndices@MeshDataBase@Gu@physx@@QBE_NXZ 1001c3f0 f i TriangleMeshBuilder.obj
 0001:0001b420       ?initRemap@SourceMeshBase@Gu@physx@@QAEXXZ 1001c420 f i TriangleMeshBuilder.obj
 0001:0001b440       ?isInUserMemory@?$Array@USharpEdgeRange@GrbTrimeshCookerHelper@physx@@VNamedAllocator@shdfnd@3@@shdfnd@physx@@QBEIXZ 1001c440 f i TriangleMeshBuilder.obj
 0001:0001b460       ?isInUserMemory@?$Array@USortedNeighbor@GrbTrimeshCookerHelper@physx@@VNamedAllocator@shdfnd@3@@shdfnd@physx@@QBEIXZ 1001c460 f i TriangleMeshBuilder.obj
 0001:0001b480       ?isValid@PxBVH33MidphaseDesc@physx@@QBE_NXZ 1001c480 f i TriangleMeshBuilder.obj
 0001:0001b4b0       ?isValid@PxBVH34MidphaseDesc@physx@@QBE_NXZ 1001c4b0 f i TriangleMeshBuilder.obj
 0001:0001b4e0       ?isValid@PxMidphaseDesc@physx@@QBE_NXZ 1001c4e0 f i TriangleMeshBuilder.obj
 0001:0001b520       ?onMeshIndexFormatChange@TriangleMeshBuilder@physx@@UAEXXZ 1001c520 f i TriangleMeshBuilder.obj
 0001:0001b530       ?pushBack@?$Array@USortedNeighbor@GrbTrimeshCookerHelper@physx@@VNamedAllocator@shdfnd@3@@shdfnd@physx@@QAEAAUSortedNeighbor@GrbTrimeshCookerHelper@3@ABU453@@Z 1001c530 f i TriangleMeshBuilder.obj
 0001:0001b5b0       ?recreate@?$Array@USharpEdgeRange@GrbTrimeshCookerHelper@physx@@VNamedAllocator@shdfnd@3@@shdfnd@physx@@IAEXI@Z 1001c5b0 f i TriangleMeshBuilder.obj
 0001:0001b680       ?recreate@?$Array@USortedNeighbor@GrbTrimeshCookerHelper@physx@@VNamedAllocator@shdfnd@3@@shdfnd@physx@@IAEXI@Z 1001c680 f i TriangleMeshBuilder.obj
 0001:0001b750       ?release@RTree@Gu@physx@@QAEXXZ 1001c750 f i TriangleMeshBuilder.obj
 0001:0001b7a0       ?releaseRemap@SourceMeshBase@Gu@physx@@QAEXXZ 1001c7a0 f i TriangleMeshBuilder.obj
 0001:0001b7d0       ?remap@RTreeCookerRemap@physx@@UAEXPAIII@Z 1001c7d0 f i TriangleMeshBuilder.obj
 0001:0001b930       ?reserve@?$Array@USharpEdgeRange@GrbTrimeshCookerHelper@physx@@VNamedAllocator@shdfnd@3@@shdfnd@physx@@QAEXI@Z 1001c930 f i TriangleMeshBuilder.obj
 0001:0001b960       ?reserve@?$Array@USortedNeighbor@GrbTrimeshCookerHelper@physx@@VNamedAllocator@shdfnd@3@@shdfnd@physx@@QAEXI@Z 1001c960 f i TriangleMeshBuilder.obj
 0001:0001b990       ?resize@?$Array@USharpEdgeRange@GrbTrimeshCookerHelper@physx@@VNamedAllocator@shdfnd@3@@shdfnd@physx@@QAEXIABUSharpEdgeRange@GrbTrimeshCookerHelper@3@@Z 1001c990 f i TriangleMeshBuilder.obj
 0001:0001ba00       ?resizeUninitialized@?$Array@USortedNeighbor@GrbTrimeshCookerHelper@physx@@VNamedAllocator@shdfnd@3@@shdfnd@physx@@QAEXI@Z 1001ca00 f i TriangleMeshBuilder.obj
 0001:0001ba30       ?setNbTriangles@SourceMesh@Gu@physx@@QAEXI@Z 1001ca30 f i TriangleMeshBuilder.obj
 0001:0001ba50       ?setNbVertices@SourceMeshBase@Gu@physx@@QAEXI@Z 1001ca50 f i TriangleMeshBuilder.obj
 0001:0001ba70       ?setPointers@SourceMesh@Gu@physx@@QAEXPAVIndTri32@23@PAVIndTri16@23@PBVPxVec3@3@@Z 1001ca70 f i TriangleMeshBuilder.obj
 0001:0001baa0       ?setTriangleAdjacency@TriangleMeshData@Gu@physx@@QAEXIII@Z 1001caa0 f i TriangleMeshBuilder.obj
 0001:0001bb00       ?size@?$Array@USortedNeighbor@GrbTrimeshCookerHelper@physx@@VNamedAllocator@shdfnd@3@@shdfnd@physx@@QBEIXZ 1001cb00 f i TriangleMeshBuilder.obj
 0001:0001bb20       ?to16@shdfnd@physx@@YAGI@Z 1001cb20 f i TriangleMeshBuilder.obj
 0001:0001bb70       ?writeChunk@physx@@YAXCCCCAAVPxOutputStream@1@@Z 1001cb70 f i TriangleMeshBuilder.obj
 0001:0001bbc0       ?writeIntBuffer@physx@@YAXPBII_NAAVPxOutputStream@1@@Z 1001cbc0 f i TriangleMeshBuilder.obj
 0001:0001bbe0       ??0BigConvexDataBuilder@physx@@QAE@PBUConvexHullData@Gu@1@PAVBigConvexData@1@PBVPxVec3@1@@Z 1001cbe0 f   BigConvexDataBuilder.obj
 0001:0001bc10       ??1BigConvexDataBuilder@physx@@QAE@XZ 1001cc10 f   BigConvexDataBuilder.obj
 0001:0001bc20       ?precompute@BigConvexDataBuilder@physx@@QAE_NI@Z 1001cc20 f   BigConvexDataBuilder.obj
 0001:0001c1f0       ?initialize@BigConvexDataBuilder@physx@@QAE_NXZ 1001d1f0 f   BigConvexDataBuilder.obj
 0001:0001c240       ?save@BigConvexDataBuilder@physx@@QBE_NAAVPxOutputStream@2@_N@Z 1001d240 f   BigConvexDataBuilder.obj
 0001:0001c320       ?computeValencies@BigConvexDataBuilder@physx@@QAE_NABVConvexHullBuilder@2@@Z 1001d320 f   BigConvexDataBuilder.obj
 0001:0001c8b0       ?saveValencies@BigConvexDataBuilder@physx@@QBE_NAAVPxOutputStream@2@_N@Z 1001d8b0 f   BigConvexDataBuilder.obj
 0001:0001ca40       ??0BigConvexData@physx@@QAE@W4PxEMPTY@1@@Z 1001da40 f i BigConvexDataBuilder.obj
 0001:0001ca50       ??4BigConvexData@physx@@QAEAAV01@ABV01@@Z 1001da50 f i BigConvexDataBuilder.obj
 0001:0001ca80       ?GetAdjacentVerts@BigConvexData@physx@@QBEPBEXZ 1001da80 f i BigConvexDataBuilder.obj
 0001:0001caa0       ?GetNbNeighbors@BigConvexData@physx@@QBEGI@Z 1001daa0 f i BigConvexDataBuilder.obj
 0001:0001cac0       ?GetNbSamples@BigConvexData@physx@@QBEIXZ 1001dac0 f i BigConvexDataBuilder.obj
 0001:0001cae0       ?GetNbVerts@BigConvexData@physx@@QBEIXZ 1001dae0 f i BigConvexDataBuilder.obj
 0001:0001cb00       ?GetNeighbors@BigConvexData@physx@@QBEPBEI@Z 1001db00 f i BigConvexDataBuilder.obj
 0001:0001cb30       ?GetOffset@BigConvexData@physx@@QBEGI@Z 1001db30 f i BigConvexDataBuilder.obj
 0001:0001cb50       ?GetSubdiv@BigConvexData@physx@@QBEIXZ 1001db50 f i BigConvexDataBuilder.obj
 0001:0001cb70       ?GetValencies@BigConvexData@physx@@QBEPBUValency@Gu@2@XZ 1001db70 f i BigConvexDataBuilder.obj
 0001:0001cb90       ?GetValency@BigConvexData@physx@@QBEGI@Z 1001db90 f i BigConvexDataBuilder.obj
 0001:0001cbb0       ?precomputeSample@BigConvexDataBuilder@physx@@IAEXABVPxVec3@2@AAEM@Z 1001dbb0 f i BigConvexDataBuilder.obj
 0001:0001ce10       ??0ConvexHullBuilder@physx@@QAE@PAUConvexHullData@Gu@1@_N@Z 1001de10 f   ConvexHullBuilder.obj
 0001:0001ce80       ??1ConvexHullBuilder@physx@@QAE@XZ 1001de80 f   ConvexHullBuilder.obj
 0001:0001cf80       ?init@ConvexHullBuilder@physx@@QAE_NIPBVPxVec3@2@PBIIIPBUPxHullPolygon@2@_NPAVConvexHullLib@2@@Z 1001df80 f   ConvexHullBuilder.obj
 0001:0001d530       ?save@ConvexHullBuilder@physx@@QBE_NAAVPxOutputStream@2@_N@Z 1001e530 f   ConvexHullBuilder.obj
 0001:0001d7c0       ?copy@ConvexHullBuilder@physx@@QAE_NAAUConvexHullData@Gu@2@AAI@Z 1001e7c0 f   ConvexHullBuilder.obj
 0001:0001dca0       ?createEdgeList@ConvexHullBuilder@physx@@QAE_N_NI@Z 1001eca0 f   ConvexHullBuilder.obj
 0001:0001e680       ?checkHullPolygons@ConvexHullBuilder@physx@@QBE_NXZ 1001f680 f   ConvexHullBuilder.obj
 0001:0001ee30       ?calculateVertexMapTable@ConvexHullBuilder@physx@@QAE_NI_N@Z 1001fe30 f   ConvexHullBuilder.obj
 0001:0001f040       ?computeGeomCenter@ConvexHullBuilder@physx@@IBE_NAAVPxVec3@2@IPAUHullTriangleData@2@@Z 10020040 f   ConvexHullBuilder.obj
 0001:0001f170       ??$?_UUEdgeDescData@Gu@physx@@@@YAPAXIV?$ReflectionAllocator@UEdgeDescData@Gu@physx@@@shdfnd@physx@@PBDH@Z 10020170 f i ConvexHullBuilder.obj
 0001:0001f190       ??$?_U_N@@YAPAXIV?$ReflectionAllocator@_N@shdfnd@physx@@PBDH@Z 10020190 f i ConvexHullBuilder.obj
 0001:0001f1b0       ??0?$PxBitAndDataT@G$0IAAA@@physx@@QAE@G_N@Z 100201b0 f i ConvexHullBuilder.obj
 0001:0001f1f0       ??0?$ReflectionAllocator@UEdgeDescData@Gu@physx@@@shdfnd@physx@@QAE@PBD@Z 100201f0 f i ConvexHullBuilder.obj
 0001:0001f200       ??0?$ReflectionAllocator@_N@shdfnd@physx@@QAE@PBD@Z 10020200 f i ConvexHullBuilder.obj
 0001:0001f210       ??0?$TriangleT@I@Gu@physx@@QAE@III@Z 10020210 f i ConvexHullBuilder.obj
 0001:0001f260       ??0HullPolygonData@Gu@physx@@QAE@ABU012@@Z 10020260 f i ConvexHullBuilder.obj
 0001:0001f2b0       ??0PxPlane@physx@@QAE@ABV01@@Z 100202b0 f i ConvexHullBuilder.obj
 0001:0001f2e0       ??0PxPlane@physx@@QAE@MMMM@Z 100202e0 f i ConvexHullBuilder.obj
 0001:0001f330       ??4PxPlane@physx@@QAEAAV01@$$QAV01@@Z 10020330 f i ConvexHullBuilder.obj
 0001:0001f360       ?PxMemSet@physx@@YAPAXPAXHI@Z 10020360 f i ConvexHullBuilder.obj
 0001:0001f380       ?allocate@?$ReflectionAllocator@UEdgeDescData@Gu@physx@@@shdfnd@physx@@QAEPAXIPBDH@Z 10020380 f i ConvexHullBuilder.obj
 0001:0001f3d0       ?allocate@?$ReflectionAllocator@_N@shdfnd@physx@@QAEPAXIPBDH@Z 100203d0 f i ConvexHullBuilder.obj
 0001:0001f420       ?area@?$TriangleT@I@Gu@physx@@QBEMPBVPxVec3@3@@Z 10020420 f i ConvexHullBuilder.obj
 0001:0001f4c0       ?center@?$TriangleT@I@Gu@physx@@QBEXPBVPxVec3@3@AAV43@@Z 100204c0 f i ConvexHullBuilder.obj
 0001:0001f550       ?computeBufferSize@Gu@physx@@YAIABUConvexHullData@12@I@Z 10020550 f i ConvexHullBuilder.obj
 0001:0001f610       ?computeNbPolygons@ConvexHullBuilder@physx@@QBEIXZ 10020610 f i ConvexHullBuilder.obj
 0001:0001f670       ?flip@physx@@YAXAAG@Z      10020670 f i ConvexHullBuilder.obj
 0001:0001f6c0       ?flip@physx@@YAXAAM@Z      100206c0 f i ConvexHullBuilder.obj
 0001:0001f750       ?flipData@Gu@physx@@YAXAAUHullPolygonData@12@@Z 10020750 f i ConvexHullBuilder.obj
 0001:0001f7a0       ?getName@?$ReflectionAllocator@UEdgeDescData@Gu@physx@@@shdfnd@physx@@CAPBDXZ 100207a0 f i ConvexHullBuilder.obj
 0001:0001f7e0       ?getName@?$ReflectionAllocator@_N@shdfnd@physx@@CAPBDXZ 100207e0 f i ConvexHullBuilder.obj
 0001:0001f820       ?memSet@intrinsics@physx@@YAPAXPAXHI@Z 10020820 f i ConvexHullBuilder.obj
 0001:0001f840       ?to8@shdfnd@physx@@YAEI@Z  10020840 f i ConvexHullBuilder.obj
 0001:0001f890       ??1ConvexHullLib@physx@@UAE@XZ 10020890 f   ConvexHullLib.obj
 0001:0001f8f0       ?cleanupVertices@ConvexHullLib@physx@@IAE_NIPBVPxVec3@2@IAAIPAV32@AAV32@3@Z 100208f0 f   ConvexHullLib.obj
 0001:0001fd70       ?shiftAndcleanupVertices@ConvexHullLib@physx@@IAE_NIPBVPxVec3@2@IAAIPAV32@AAV32@3@Z 10020d70 f   ConvexHullLib.obj
 0001:0001fe90       ?swapLargestFace@ConvexHullLib@physx@@IAEXAAVPxConvexMeshDesc@2@@Z 10020e90 f   ConvexHullLib.obj
 0001:00020160       ?shiftConvexMeshDesc@ConvexHullLib@physx@@IAEXAAVPxConvexMeshDesc@2@@Z 10021160 f   ConvexHullLib.obj
 0001:00020720       ??_GConvexHullLib@physx@@UAEPAXI@Z 10021720 f i ConvexHullLib.obj
 0001:00020720       ??_EConvexHullLib@physx@@UAEPAXI@Z 10021720 f i ConvexHullLib.obj
 0001:00020750       ??0ConvexHull@physx@@QAE@ABVPxVec3@1@0ABV?$Array@VPxPlane@physx@@VNamedAllocator@shdfnd@2@@shdfnd@1@@Z 10021750 f   ConvexHullUtils.obj
 0001:00020e10       ??0ConvexHull@physx@@QAE@ABVPxVec3@1@ABVPxTransform@1@ABV?$Array@VPxPlane@physx@@VNamedAllocator@shdfnd@2@@shdfnd@1@@Z 10021e10 f   ConvexHullUtils.obj
 0001:00021630       ?findCandidatePlane@ConvexHull@physx@@QBEHMM@Z 10022630 f   ConvexHullUtils.obj
 0001:00021950       ?assertIntact@ConvexHull@physx@@QBE_NM@Z 10022950 f   ConvexHullUtils.obj
 0001:00021ed0       ?maxNumVertsPerFace@ConvexHull@physx@@QBEIXZ 10022ed0 f   ConvexHullUtils.obj
 0001:00021f70       ?convexHullCrop@physx@@YAPAVConvexHull@1@ABV21@ABVPxPlane@1@M@Z 10022f70 f   ConvexHullUtils.obj
 0001:00023040       ?computeOBBFromConvex@physx@@YA_NABVPxConvexMeshDesc@1@AAVPxVec3@1@AAVPxTransform@1@@Z 10024040 f   ConvexHullUtils.obj
 0001:00023740       ?computeOBBSIMD@local@@YAXIPBT__m128@@AAT2@ABT2@1@Z 10024740 f   ConvexHullUtils.obj
 0001:00023ac0       ??$?2V?$ReflectionAllocator@VConvexHull@physx@@@shdfnd@physx@@@UserAllocated@shdfnd@physx@@SAPAXIV?$ReflectionAllocator@VConvexHull@physx@@@12@PBDH@Z 10024ac0 f i ConvexHullUtils.obj
 0001:00023ae0       ??0?$Array@VHalfEdge@ConvexHull@physx@@VNamedAllocator@shdfnd@3@@shdfnd@physx@@QAE@ABVNamedAllocator@12@@Z 10024ae0 f i ConvexHullUtils.obj
 0001:00023b20       ??0?$Array@VPxPlane@physx@@VNamedAllocator@shdfnd@2@@shdfnd@physx@@QAE@ABVNamedAllocator@12@@Z 10024b20 f i ConvexHullUtils.obj
 0001:00023b60       ??0?$ReflectionAllocator@VConvexHull@physx@@@shdfnd@physx@@QAE@PBD@Z 10024b60 f i ConvexHullUtils.obj
 0001:00023b70       ??0Box@Gu@physx@@QAE@ABV012@@Z 10024b70 f i ConvexHullUtils.obj
 0001:00023bb0       ??0Box@Gu@physx@@QAE@ABVPxVec3@2@0ABVPxMat33@2@@Z 10024bb0 f i ConvexHullUtils.obj
 0001:00023bf0       ??0Box@Gu@physx@@QAE@XZ    10024bf0 f i ConvexHullUtils.obj
 0001:00023c20       ??0ConvexHull@physx@@QAE@ABV01@@Z 10024c20 f i ConvexHullUtils.obj
 0001:00023cb0       ??0ConvexHull@physx@@QAE@ABV?$Array@VPxPlane@physx@@VNamedAllocator@shdfnd@2@@shdfnd@1@@Z 10024cb0 f i ConvexHullUtils.obj
 0001:00023d30       ??0HalfEdge@ConvexHull@physx@@QAE@FEE@Z 10024d30 f i ConvexHullUtils.obj
 0001:00023d60       ??0HalfEdge@ConvexHull@physx@@QAE@XZ 10024d60 f i ConvexHullUtils.obj
 0001:00023d70       ??0Mat33V@aos@shdfnd@physx@@QAE@XZ 10024d70 f i ConvexHullUtils.obj
 0001:00023d80       ??0PxBoundedData@physx@@QAE@XZ 10024d80 f i ConvexHullUtils.obj
 0001:00023da0       ??0PxConvexMeshDesc@physx@@QAE@XZ 10024da0 f i ConvexHullUtils.obj
 0001:00023df0       ??0PxIntegrals@physx@@QAE@XZ 10024df0 f i ConvexHullUtils.obj
 0001:00023e10       ??0PxMat33@physx@@QAE@ABV01@@Z 10024e10 f i ConvexHullUtils.obj
 0001:00023e50       ??0PxMat33@physx@@QAE@ABVPxQuat@1@@Z 10024e50 f i ConvexHullUtils.obj
 0001:00024050       ??0PxMat33@physx@@QAE@ABVPxVec3@1@00@Z 10025050 f i ConvexHullUtils.obj
 0001:00024090       ??0PxMat33@physx@@QAE@W4PxIDENTITY@1@@Z 10025090 f i ConvexHullUtils.obj
 0001:00024130       ??0PxPlane@physx@@QAE@ABVPxVec3@1@M@Z 10025130 f i ConvexHullUtils.obj
 0001:00024160       ??0PxPlane@physx@@QAE@XZ   10025160 f i ConvexHullUtils.obj
 0001:00024180       ??0PxQuat@physx@@QAE@ABV01@@Z 10025180 f i ConvexHullUtils.obj
 0001:000241c0       ??0PxQuat@physx@@QAE@ABVPxMat33@1@@Z 100251c0 f i ConvexHullUtils.obj
 0001:00024510       ??0PxQuat@physx@@QAE@MABVPxVec3@1@@Z 10025510 f i ConvexHullUtils.obj
 0001:000245f0       ??0PxQuat@physx@@QAE@MMMM@Z 100255f0 f i ConvexHullUtils.obj
 0001:00024640       ??0PxQuat@physx@@QAE@XZ    10025640 f i ConvexHullUtils.obj
 0001:00024650       ??0PxStridedData@physx@@QAE@XZ 10025650 f i ConvexHullUtils.obj
 0001:00024680       ??0PxTransform@physx@@QAE@ABVPxVec3@1@ABVPxQuat@1@@Z 10025680 f i ConvexHullUtils.obj
 0001:000246d0       ??1Box@Gu@physx@@QAE@XZ    100256d0 f i ConvexHullUtils.obj
 0001:000246e0       ??4Box@Gu@physx@@QAEABV012@ABV012@@Z 100256e0 f i ConvexHullUtils.obj
 0001:00024720       ??4PxMat33@physx@@QAEAAV01@ABV01@@Z 10025720 f i ConvexHullUtils.obj
 0001:00024760       ??4PxPlane@physx@@QAEAAV01@ABV01@@Z 10025760 f i ConvexHullUtils.obj
 0001:00024790       ??4PxQuat@physx@@QAEAAV01@ABV01@@Z 10025790 f i ConvexHullUtils.obj
 0001:000247d0       ??8PxPlane@physx@@QBE_NABV01@@Z 100257d0 f i ConvexHullUtils.obj
 0001:00024820       ??8PxVec3@physx@@QBE_NABV01@@Z 10025820 f i ConvexHullUtils.obj
 0001:00024880       ??A?$Array@VHalfEdge@ConvexHull@physx@@VNamedAllocator@shdfnd@3@@shdfnd@physx@@QAEAAVHalfEdge@ConvexHull@2@I@Z 10025880 f i ConvexHullUtils.obj
 0001:000248e0       ??A?$Array@VHalfEdge@ConvexHull@physx@@VNamedAllocator@shdfnd@3@@shdfnd@physx@@QBEABVHalfEdge@ConvexHull@2@I@Z 100258e0 f i ConvexHullUtils.obj
 0001:00024940       ??A?$Array@VPxPlane@physx@@VNamedAllocator@shdfnd@2@@shdfnd@physx@@QBEABVPxPlane@2@I@Z 10025940 f i ConvexHullUtils.obj
 0001:000249a0       ??A?$Array@VPxVec3@physx@@VNamedAllocator@shdfnd@2@@shdfnd@physx@@QBEABVPxVec3@2@I@Z 100259a0 f i ConvexHullUtils.obj
 0001:00024a00       ??APxMat33@physx@@QAEAAVPxVec3@1@I@Z 10025a00 f i ConvexHullUtils.obj
 0001:00024a20       ??APxMat33@physx@@QBEABVPxVec3@1@I@Z 10025a20 f i ConvexHullUtils.obj
 0001:00024a40       ??DPxMat33@physx@@QBE?BVPxVec3@1@ABV21@@Z 10025a40 f i ConvexHullUtils.obj
 0001:00024a60       ??DPxQuat@physx@@QBE?AV01@M@Z 10025a60 f i ConvexHullUtils.obj
 0001:00024ad0       ??GPxVec3@physx@@QBE?AV01@XZ 10025ad0 f i ConvexHullUtils.obj
 0001:00024b30       ??RPxMat33@physx@@QAEAAMII@Z 10025b30 f i ConvexHullUtils.obj
 0001:00024b60       ?FAdd@aos@shdfnd@physx@@YA?AT__m128@@T4@0@Z 10025b60 f i ConvexHullUtils.obj
 0001:00024c20       ?FMul@aos@shdfnd@physx@@YA?AT__m128@@T4@0@Z 10025c20 f i ConvexHullUtils.obj
 0001:00024ce0       ?FScaleAdd@aos@shdfnd@physx@@YA?AT__m128@@T4@00@Z 10025ce0 f i ConvexHullUtils.obj
 0001:00024e00       ?PxCos@physx@@YAMM@Z       10025e00 f i ConvexHullUtils.obj
 0001:00024e20       ?PxSin@physx@@YAMM@Z       10025e20 f i ConvexHullUtils.obj
 0001:00024e40       ?QuatGetMat33V@aos@shdfnd@physx@@YAXABT__m128@@AAT4@11@Z 10025e40 f i ConvexHullUtils.obj
 0001:00025040       ?QuatRotateInv@aos@shdfnd@physx@@YA?AT__m128@@T4@0@Z 10026040 f i ConvexHullUtils.obj
 0001:000251c0       ?QuatVLoadU@aos@shdfnd@physx@@YA?AT__m128@@PBM@Z 100261c0 f i ConvexHullUtils.obj
 0001:00025200       ?V3Cross@aos@shdfnd@physx@@YA?AT__m128@@T4@0@Z 10026200 f i ConvexHullUtils.obj
 0001:00025360       ?V3NegScaleSub@aos@shdfnd@physx@@YA?AT__m128@@T4@00@Z 10026360 f i ConvexHullUtils.obj
 0001:00025480       ?V3Scale@aos@shdfnd@physx@@YA?AT__m128@@T4@0@Z 10026480 f i ConvexHullUtils.obj
 0001:00025540       ?V3ScaleAdd@aos@shdfnd@physx@@YA?AT__m128@@T4@00@Z 10026540 f i ConvexHullUtils.obj
 0001:00025660       ?V4GetW@aos@shdfnd@physx@@YA?AT__m128@@T4@@Z 10026660 f i ConvexHullUtils.obj
 0001:000256a0       ?V4GetX@aos@shdfnd@physx@@YA?AT__m128@@T4@@Z 100266a0 f i ConvexHullUtils.obj
 0001:000256e0       ?V4GetY@aos@shdfnd@physx@@YA?AT__m128@@T4@@Z 100266e0 f i ConvexHullUtils.obj
 0001:00025720       ?V4GetZ@aos@shdfnd@physx@@YA?AT__m128@@T4@@Z 10026720 f i ConvexHullUtils.obj
 0001:00025760       ?V4Max@aos@shdfnd@physx@@YA?AT__m128@@T4@0@Z 10026760 f i ConvexHullUtils.obj
 0001:000257a0       ?V4Min@aos@shdfnd@physx@@YA?AT__m128@@T4@0@Z 100267a0 f i ConvexHullUtils.obj
 0001:000257e0       ?V4Mul@aos@shdfnd@physx@@YA?AT__m128@@T4@0@Z 100267e0 f i ConvexHullUtils.obj
 0001:00025820       ?V4MulAdd@aos@shdfnd@physx@@YA?AT__m128@@T4@00@Z 10026820 f i ConvexHullUtils.obj
 0001:00025880       ?V4Neg@aos@shdfnd@physx@@YA?AT__m128@@T4@@Z 10026880 f i ConvexHullUtils.obj
 0001:000258c0       ?Vec4V_From_Vec3V@aos@shdfnd@physx@@YA?AT__m128@@T4@@Z 100268c0 f i ConvexHullUtils.obj
 0001:000258f0       ?allocate@?$Array@VHalfEdge@ConvexHull@physx@@VNamedAllocator@shdfnd@3@@shdfnd@physx@@IAEPAVHalfEdge@ConvexHull@3@I@Z 100268f0 f i ConvexHullUtils.obj
 0001:00025960       ?allocate@?$Array@VPxPlane@physx@@VNamedAllocator@shdfnd@2@@shdfnd@physx@@IAEPAVPxPlane@3@I@Z 10026960 f i ConvexHullUtils.obj
 0001:000259d0       ?allocate@?$ReflectionAllocator@VConvexHull@physx@@@shdfnd@physx@@QAEPAXIPBDH@Z 100269d0 f i ConvexHullUtils.obj
 0001:00025a20       ?begin@?$Array@VHalfEdge@ConvexHull@physx@@VNamedAllocator@shdfnd@3@@shdfnd@physx@@QAEPAVHalfEdge@ConvexHull@3@XZ 10026a20 f i ConvexHullUtils.obj
 0001:00025a30       ?begin@?$Array@VHalfEdge@ConvexHull@physx@@VNamedAllocator@shdfnd@3@@shdfnd@physx@@QBEPBVHalfEdge@ConvexHull@3@XZ 10026a30 f i ConvexHullUtils.obj
 0001:00025a40       ?begin@?$Array@VPxPlane@physx@@VNamedAllocator@shdfnd@2@@shdfnd@physx@@QAEPAVPxPlane@3@XZ 10026a40 f i ConvexHullUtils.obj
 0001:00025a50       ?begin@?$Array@VPxPlane@physx@@VNamedAllocator@shdfnd@2@@shdfnd@physx@@QBEPBVPxPlane@3@XZ 10026a50 f i ConvexHullUtils.obj
 0001:00025a60       ?begin@?$Array@VPxVec3@physx@@VNamedAllocator@shdfnd@2@@shdfnd@physx@@QBEPBVPxVec3@3@XZ 10026a60 f i ConvexHullUtils.obj
 0001:00025a70       ?capacity@?$Array@VHalfEdge@ConvexHull@physx@@VNamedAllocator@shdfnd@3@@shdfnd@physx@@QBEIXZ 10026a70 f i ConvexHullUtils.obj
 0001:00025a90       ?capacity@?$Array@VPxPlane@physx@@VNamedAllocator@shdfnd@2@@shdfnd@physx@@QBEIXZ 10026a90 f i ConvexHullUtils.obj
 0001:00025ab0       ?capacityIncrement@?$Array@VHalfEdge@ConvexHull@physx@@VNamedAllocator@shdfnd@3@@shdfnd@physx@@IBEIXZ 10026ab0 f i ConvexHullUtils.obj
 0001:00025af0       ?capacityIncrement@?$Array@VPxPlane@physx@@VNamedAllocator@shdfnd@2@@shdfnd@physx@@IBEIXZ 10026af0 f i ConvexHullUtils.obj
 0001:00025b30       ?computeAABBExtent@Box@Gu@physx@@QBE?AVPxVec3@3@XZ 10026b30 f i ConvexHullUtils.obj
 0001:00025d60       ?computeBoxPoints@Box@Gu@physx@@QBEXPIAVPxVec3@3@@Z 10026d60 f i ConvexHullUtils.obj
 0001:00025da0       ?copy@?$Array@VHalfEdge@ConvexHull@physx@@VNamedAllocator@shdfnd@3@@shdfnd@physx@@KAXPAVHalfEdge@ConvexHull@3@0PBV453@@Z 10026da0 f i ConvexHullUtils.obj
 0001:00025df0       ?copy@?$Array@VPxPlane@physx@@VNamedAllocator@shdfnd@2@@shdfnd@physx@@KAXPAVPxPlane@3@0PBV43@@Z 10026df0 f i ConvexHullUtils.obj
 0001:00025e40       ?copyHull@ConvexHull@physx@@QAEXABV12@@Z 10026e40 f i ConvexHullUtils.obj
 0001:00025f60       ?cos@intrinsics@physx@@YAMM@Z 10026f60 f i ConvexHullUtils.obj
 0001:00025f80       ?create@?$Array@VHalfEdge@ConvexHull@physx@@VNamedAllocator@shdfnd@3@@shdfnd@physx@@KAXPAVHalfEdge@ConvexHull@3@0ABV453@@Z 10026f80 f i ConvexHullUtils.obj
 0001:00025fc0       ?create@?$Array@VPxPlane@physx@@VNamedAllocator@shdfnd@2@@shdfnd@physx@@KAXPAVPxPlane@3@0ABV43@@Z 10026fc0 f i ConvexHullUtils.obj
 0001:00026000       ?create@?$Array@VPxVec3@physx@@VNamedAllocator@shdfnd@2@@shdfnd@physx@@KAXPAVPxVec3@3@0ABV43@@Z 10027000 f i ConvexHullUtils.obj
 0001:00026040       ?deallocate@?$Array@VHalfEdge@ConvexHull@physx@@VNamedAllocator@shdfnd@3@@shdfnd@physx@@IAEXPAX@Z 10027040 f i ConvexHullUtils.obj
 0001:00026060       ?deallocate@?$Array@VPxPlane@physx@@VNamedAllocator@shdfnd@2@@shdfnd@physx@@IAEXPAX@Z 10027060 f i ConvexHullUtils.obj
 0001:00026080       ?degToRad@shdfnd@physx@@YAMM@Z 10027080 f i ConvexHullUtils.obj
 0001:000260a0       ?destroy@?$Array@VHalfEdge@ConvexHull@physx@@VNamedAllocator@shdfnd@3@@shdfnd@physx@@KAXPAVHalfEdge@ConvexHull@3@0@Z 100270a0 f i ConvexHullUtils.obj
 0001:000260c0       ?destroy@?$Array@VPxPlane@physx@@VNamedAllocator@shdfnd@2@@shdfnd@physx@@KAXPAVPxPlane@3@0@Z 100270c0 f i ConvexHullUtils.obj
 0001:000260e0       ?getDeterminant@PxMat33@physx@@QBEMXZ 100270e0 f i ConvexHullUtils.obj
 0001:00026110       ?getEdges@ConvexHull@physx@@QAEAAV?$Array@VHalfEdge@ConvexHull@physx@@VNamedAllocator@shdfnd@3@@shdfnd@2@XZ 10027110 f i ConvexHullUtils.obj
 0001:00026130       ?getEdges@ConvexHull@physx@@QBEABV?$Array@VHalfEdge@ConvexHull@physx@@VNamedAllocator@shdfnd@3@@shdfnd@2@XZ 10027130 f i ConvexHullUtils.obj
 0001:00026150       ?getFacets@ConvexHull@physx@@QAEAAV?$Array@VPxPlane@physx@@VNamedAllocator@shdfnd@2@@shdfnd@2@XZ 10027150 f i ConvexHullUtils.obj
 0001:00026170       ?getFacets@ConvexHull@physx@@QBEABV?$Array@VPxPlane@physx@@VNamedAllocator@shdfnd@2@@shdfnd@2@XZ 10027170 f i ConvexHullUtils.obj
 0001:00026190       ?getInputPlanes@ConvexHull@physx@@QBEABV?$Array@VPxPlane@physx@@VNamedAllocator@shdfnd@2@@shdfnd@2@XZ 10027190 f i ConvexHullUtils.obj
 0001:000261b0       ?getInverse@PxMat33@physx@@QBE?BV12@XZ 100271b0 f i ConvexHullUtils.obj
 0001:000263d0       ?getName@?$ReflectionAllocator@VConvexHull@physx@@@shdfnd@physx@@CAPBDXZ 100273d0 f i ConvexHullUtils.obj
 0001:00026410       ?getOriginInertia@PxIntegrals@physx@@QAEXAAVPxMat33@2@@Z 10027410 f i ConvexHullUtils.obj
 0001:00026490       ?getTransform@Box@Gu@physx@@QBE?AVPxTransform@3@XZ 10027490 f i ConvexHullUtils.obj
 0001:000264c0       ?getTranspose@PxMat33@physx@@QBE?BV12@XZ 100274c0 f i ConvexHullUtils.obj
 0001:00026580       ?getVertices@ConvexHull@physx@@QAEAAV?$Array@VPxVec3@physx@@VNamedAllocator@shdfnd@2@@shdfnd@2@XZ 10027580 f i ConvexHullUtils.obj
 0001:00026590       ?getVertices@ConvexHull@physx@@QBEABV?$Array@VPxVec3@physx@@VNamedAllocator@shdfnd@2@@shdfnd@2@XZ 10027590 f i ConvexHullUtils.obj
 0001:000265a0       ?grow@?$Array@VHalfEdge@ConvexHull@physx@@VNamedAllocator@shdfnd@3@@shdfnd@physx@@IAEXI@Z 100275a0 f i ConvexHullUtils.obj
 0001:00026600       ?grow@?$Array@VPxPlane@physx@@VNamedAllocator@shdfnd@2@@shdfnd@physx@@IAEXI@Z 10027600 f i ConvexHullUtils.obj
 0001:00026660       ?growAndPushBack@?$Array@VHalfEdge@ConvexHull@physx@@VNamedAllocator@shdfnd@3@@shdfnd@physx@@IAEAAVHalfEdge@ConvexHull@3@ABV453@@Z 10027660 f i ConvexHullUtils.obj
 0001:00026790       ?growAndPushBack@?$Array@VPxPlane@physx@@VNamedAllocator@shdfnd@2@@shdfnd@physx@@IAEAAVPxPlane@3@ABV43@@Z 10027790 f i ConvexHullUtils.obj
 0001:000268c0       ?isFinite@PxQuat@physx@@QBE_NXZ 100278c0 f i ConvexHullUtils.obj
 0001:00026960       ?isInUserMemory@?$Array@VHalfEdge@ConvexHull@physx@@VNamedAllocator@shdfnd@3@@shdfnd@physx@@QBEIXZ 10027960 f i ConvexHullUtils.obj
 0001:00026980       ?isInUserMemory@?$Array@VPxPlane@physx@@VNamedAllocator@shdfnd@2@@shdfnd@physx@@QBEIXZ 10027980 f i ConvexHullUtils.obj
 0001:000269a0       ?isSane@PxQuat@physx@@QBE_NXZ 100279a0 f i ConvexHullUtils.obj
 0001:00026a20       ?isValid@Box@Gu@physx@@QBE_NXZ 10027a20 f i ConvexHullUtils.obj
 0001:00026a60       ?magnitude@PxQuat@physx@@QBEMXZ 10027a60 f i ConvexHullUtils.obj
 0001:00026a80       ?magnitudeSquared@PxQuat@physx@@QBEMXZ 10027a80 f i ConvexHullUtils.obj
 0001:00026ae0       ?pushBack@?$Array@VHalfEdge@ConvexHull@physx@@VNamedAllocator@shdfnd@3@@shdfnd@physx@@QAEAAVHalfEdge@ConvexHull@3@ABV453@@Z 10027ae0 f i ConvexHullUtils.obj
 0001:00026b60       ?pushBack@?$Array@VPxPlane@physx@@VNamedAllocator@shdfnd@2@@shdfnd@physx@@QAEAAVPxPlane@3@ABV43@@Z 10027b60 f i ConvexHullUtils.obj
 0001:00026be0       ?recreate@?$Array@VHalfEdge@ConvexHull@physx@@VNamedAllocator@shdfnd@3@@shdfnd@physx@@IAEXI@Z 10027be0 f i ConvexHullUtils.obj
 0001:00026cb0       ?recreate@?$Array@VPxPlane@physx@@VNamedAllocator@shdfnd@2@@shdfnd@physx@@IAEXI@Z 10027cb0 f i ConvexHullUtils.obj
 0001:00026d80       ?reserve@?$Array@VHalfEdge@ConvexHull@physx@@VNamedAllocator@shdfnd@3@@shdfnd@physx@@QAEXI@Z 10027d80 f i ConvexHullUtils.obj
 0001:00026db0       ?reserve@?$Array@VPxPlane@physx@@VNamedAllocator@shdfnd@2@@shdfnd@physx@@QAEXI@Z 10027db0 f i ConvexHullUtils.obj
 0001:00026de0       ?resize@?$Array@VHalfEdge@ConvexHull@physx@@VNamedAllocator@shdfnd@3@@shdfnd@physx@@QAEXIABVHalfEdge@ConvexHull@3@@Z 10027de0 f i ConvexHullUtils.obj
 0001:00026e50       ?resize@?$Array@VPxPlane@physx@@VNamedAllocator@shdfnd@2@@shdfnd@physx@@QAEXIABVPxPlane@3@@Z 10027e50 f i ConvexHullUtils.obj
 0001:00026ec0       ?resize@?$Array@VPxVec3@physx@@VNamedAllocator@shdfnd@2@@shdfnd@physx@@QAEXIABVPxVec3@3@@Z 10027ec0 f i ConvexHullUtils.obj
 0001:00026f30       ?rotate@Box@Gu@physx@@QBE?AVPxVec3@3@ABV43@@Z 10027f30 f i ConvexHullUtils.obj
 0001:00026f50       ?rotateInv@Box@Gu@physx@@QBE?AVPxVec3@3@ABV43@@Z 10027f50 f i ConvexHullUtils.obj
 0001:00026f70       ?setAxes@Box@Gu@physx@@QAEXABVPxVec3@3@00@Z 10027f70 f i ConvexHullUtils.obj
 0001:00026fb0       ?setEmpty@Box@Gu@physx@@QAEXXZ 10027fb0 f i ConvexHullUtils.obj
 0001:00027030       ?sin@intrinsics@physx@@YAMM@Z 10028030 f i ConvexHullUtils.obj
 0001:00027050       ?size@?$Array@VHalfEdge@ConvexHull@physx@@VNamedAllocator@shdfnd@3@@shdfnd@physx@@QBEIXZ 10028050 f i ConvexHullUtils.obj
 0001:00027070       ?size@?$Array@VPxPlane@physx@@VNamedAllocator@shdfnd@2@@shdfnd@physx@@QBEIXZ 10028070 f i ConvexHullUtils.obj
 0001:00027090       ?threePlaneIntersection@physx@@YA?AVPxVec3@1@ABVPxPlane@1@00@Z 10028090 f i ConvexHullUtils.obj
 0001:00027120       ?to8@shdfnd@physx@@YAEG@Z  10028120 f i ConvexHullUtils.obj
 0001:00027170       ?transform@Box@Gu@physx@@QBE?AVPxVec3@3@ABV43@@Z 10028170 f i ConvexHullUtils.obj
 0001:000271b0       ?transform@PxMat33@physx@@QBE?BVPxVec3@2@ABV32@@Z 100281b0 f i ConvexHullUtils.obj
 0001:00027230       ?transformTranspose@PxMat33@physx@@QBE?BVPxVec3@2@ABV32@@Z 10028230 f i ConvexHullUtils.obj
 0001:00027280       _cosf                      10028280 f i ConvexHullUtils.obj
 0001:000272b0       _sinf                      100282b0 f i ConvexHullUtils.obj
 0001:00027370       ??0ConvexMeshBuilder@physx@@QAE@_N@Z 10028370 f   ConvexMeshBuilder.obj
 0001:000273d0       ??1ConvexMeshBuilder@physx@@QAE@XZ 100283d0 f   ConvexMeshBuilder.obj
 0001:00027420       ?build@ConvexMeshBuilder@physx@@QAE_NABVPxConvexMeshDesc@2@I_NPAVConvexHullLib@2@@Z 10028420 f   ConvexMeshBuilder.obj
 0001:00027500       ?save@ConvexMeshBuilder@physx@@QBE_NAAVPxOutputStream@2@_N@Z 10028500 f   ConvexMeshBuilder.obj
 0001:000277d0       ?copy@ConvexMeshBuilder@physx@@QAE_NAAUConvexHullInitData@Gu@2@@Z 100287d0 f   ConvexMeshBuilder.obj
 0001:000278f0       ?loadConvexHull@ConvexMeshBuilder@physx@@QAE_NABVPxConvexMeshDesc@2@PAVConvexHullLib@2@@Z 100288f0 f   ConvexMeshBuilder.obj
 0001:00027bd0       ?computeHullPolygons@ConvexMeshBuilder@physx@@QAE_NABIPBVPxVec3@2@0PBIAAVPxAllocatorCallback@2@AAIAAPAV32@4AAPAI4AAPAUPxHullPolygon@2@@Z 10028bd0 f   ConvexMeshBuilder.obj
 0001:00027e80       ?computeGaussMaps@ConvexMeshBuilder@physx@@QAE_NXZ 10028e80 f   ConvexMeshBuilder.obj
 0001:00027f60       ?computeMassInfo@ConvexMeshBuilder@physx@@QAEX_N@Z 10028f60 f   ConvexMeshBuilder.obj
 0001:000281e0       ?computeInternalObjects@ConvexMeshBuilder@physx@@QAEXXZ 100291e0 f   ConvexMeshBuilder.obj
 0001:000288f0       ??0?$ReflectionAllocator@VBigConvexData@physx@@@shdfnd@physx@@QAE@PBD@Z 100298f0 f i ConvexMeshBuilder.obj
 0001:00028900       ??0CenterExtents@Gu@physx@@QAE@ABVPxBounds3@2@@Z 10029900 f i ConvexMeshBuilder.obj
 0001:00028960       ??GPxMat33@physx@@QBE?BV01@XZ 10029960 f i ConvexMeshBuilder.obj
 0001:000289b0       ??_GBigConvexData@physx@@QAEPAXI@Z 100299b0 f i ConvexMeshBuilder.obj
 0001:00028a00       ?allocate@?$ReflectionAllocator@VBigConvexData@physx@@@shdfnd@physx@@QAEPAXIPBDH@Z 10029a00 f i ConvexMeshBuilder.obj
 0001:00028a50       ?getExtents@PxBounds3@physx@@QBE?AVPxVec3@2@XZ 10029a50 f i ConvexMeshBuilder.obj
 0001:00028ab0       ?getMax@CenterExtents@Gu@physx@@QBE?AVPxVec3@3@XZ 10029ab0 f i ConvexMeshBuilder.obj
 0001:00028ae0       ?getMin@CenterExtents@Gu@physx@@QBE?AVPxVec3@3@XZ 10029ae0 f i ConvexMeshBuilder.obj
 0001:00028b10       ?getName@?$ReflectionAllocator@VBigConvexData@physx@@@shdfnd@physx@@CAPBDXZ 10029b10 f i ConvexMeshBuilder.obj
 0001:00028b50       ?getNextIndex3@shdfnd@physx@@YAII@Z 10029b50 f i ConvexMeshBuilder.obj
 0001:00028b70       ?largestAxis@shdfnd@physx@@YAIABVPxVec3@2@@Z 10029b70 f i ConvexMeshBuilder.obj
 0001:00028bd0       ??0ConvexPolygonsBuilder@physx@@QAE@PAUConvexHullData@Gu@1@_N@Z 10029bd0 f   ConvexPolygonsBuilder.obj
 0001:00028c10       ??1ConvexPolygonsBuilder@physx@@QAE@XZ 10029c10 f   ConvexPolygonsBuilder.obj
 0001:00028c50       ?computeHullPolygons@ConvexPolygonsBuilder@physx@@QAE_NABIPBVPxVec3@2@0PBI@Z 10029c50 f   ConvexPolygonsBuilder.obj
 0001:00028ff0       ?createPolygonData@ConvexPolygonsBuilder@physx@@AAE_NXZ 10029ff0 f   ConvexPolygonsBuilder.obj
 0001:00029ab0       ?createTrianglesFromPolygons@ConvexPolygonsBuilder@physx@@AAE_NXZ 1002aab0 f   ConvexPolygonsBuilder.obj
 0001:0002bef0       ??$?4VNamedAllocator@shdfnd@physx@@@?$Array@IVNamedAllocator@shdfnd@physx@@@shdfnd@physx@@QAEAAV012@ABV012@@Z 1002cef0 f i ConvexPolygonsBuilder.obj
 0001:0002bf60       ??$?_UUHullTriangleData@physx@@@@YAPAXIV?$ReflectionAllocator@UHullTriangleData@physx@@@shdfnd@physx@@PBDH@Z 1002cf60 f i ConvexPolygonsBuilder.obj
 0001:0002bf80       ??$PlaneEquation@U?$TriangleT@I@Gu@physx@@@@YA?AVPxPlane@physx@@ABU?$TriangleT@I@Gu@1@PBVPxVec3@1@@Z 1002cf80 f i ConvexPolygonsBuilder.obj
 0001:0002bfe0       ??$copy@VNamedAllocator@shdfnd@physx@@@?$Array@VPair@@VNamedAllocator@shdfnd@physx@@@shdfnd@physx@@IAEXABV012@@Z 1002cfe0 f i ConvexPolygonsBuilder.obj
 0001:0002c080       ??$swap@E@shdfnd@physx@@YAXAAE0@Z 1002d080 f i ConvexPolygonsBuilder.obj
 0001:0002c0b0       ??0?$Array@VPair@@VNamedAllocator@shdfnd@physx@@@shdfnd@physx@@QAE@ABV012@ABVNamedAllocator@12@@Z 1002d0b0 f i ConvexPolygonsBuilder.obj
 0001:0002c0e0       ??0?$Array@VPair@@VNamedAllocator@shdfnd@physx@@@shdfnd@physx@@QAE@ABVNamedAllocator@12@@Z 1002d0e0 f i ConvexPolygonsBuilder.obj
 0001:0002c120       ??0?$ReflectionAllocator@UHullTriangleData@physx@@@shdfnd@physx@@QAE@PBD@Z 1002d120 f i ConvexPolygonsBuilder.obj
 0001:0002c130       ??0ADJACENCIESCREATE@physx@@QAE@XZ 1002d130 f i ConvexPolygonsBuilder.obj
 0001:0002c180       ??0Pair@@QAE@II@Z          1002d180 f i ConvexPolygonsBuilder.obj
 0001:0002c1b0       ??1?$Array@VPair@@VNamedAllocator@shdfnd@physx@@@shdfnd@physx@@QAE@XZ 1002d1b0 f i ConvexPolygonsBuilder.obj
 0001:0002c210       ??1Pair@@QAE@XZ            1002d210 f i ConvexPolygonsBuilder.obj
 0001:0002c220       ??4?$Array@IVNamedAllocator@shdfnd@physx@@@shdfnd@physx@@QAEAAV012@ABV012@@Z 1002d220 f i ConvexPolygonsBuilder.obj
 0001:0002c240       ??A?$Array@VPair@@VNamedAllocator@shdfnd@physx@@@shdfnd@physx@@QAEAAVPair@@I@Z 1002d240 f i ConvexPolygonsBuilder.obj
 0001:0002c2a0       ??_GPair@@QAEPAXI@Z        1002d2a0 f i ConvexPolygonsBuilder.obj
 0001:0002c2f0       ?GetAdjTri@AdjTriangle@physx@@QBEIW4SharedEdgeIndex@2@@Z 1002d2f0 f i ConvexPolygonsBuilder.obj
 0001:0002c310       ?HasActiveEdge@AdjTriangle@physx@@QBEHI@Z 1002d310 f i ConvexPolygonsBuilder.obj
 0001:0002c330       ?allocate@?$Array@VPair@@VNamedAllocator@shdfnd@physx@@@shdfnd@physx@@IAEPAVPair@@I@Z 1002d330 f i ConvexPolygonsBuilder.obj
 0001:0002c3a0       ?allocate@?$ReflectionAllocator@UHullTriangleData@physx@@@shdfnd@physx@@QAEPAXIPBDH@Z 1002d3a0 f i ConvexPolygonsBuilder.obj
 0001:0002c3f0       ?begin@?$Array@VPair@@VNamedAllocator@shdfnd@physx@@@shdfnd@physx@@QAEPAVPair@@XZ 1002d3f0 f i ConvexPolygonsBuilder.obj
 0001:0002c400       ?begin@?$Array@VPair@@VNamedAllocator@shdfnd@physx@@@shdfnd@physx@@QBEPBVPair@@XZ 1002d400 f i ConvexPolygonsBuilder.obj
 0001:0002c410       ?capacity@?$Array@VPair@@VNamedAllocator@shdfnd@physx@@@shdfnd@physx@@QBEIXZ 1002d410 f i ConvexPolygonsBuilder.obj
 0001:0002c430       ?capacityIncrement@?$Array@VPair@@VNamedAllocator@shdfnd@physx@@@shdfnd@physx@@IBEIXZ 1002d430 f i ConvexPolygonsBuilder.obj
 0001:0002c470       ?clear@?$Array@IVNamedAllocator@shdfnd@physx@@@shdfnd@physx@@QAEXXZ 1002d470 f i ConvexPolygonsBuilder.obj
 0001:0002c4b0       ?copy@?$Array@VPair@@VNamedAllocator@shdfnd@physx@@@shdfnd@physx@@KAXPAVPair@@0PBV4@@Z 1002d4b0 f i ConvexPolygonsBuilder.obj
 0001:0002c510       ?deallocate@?$Array@VPair@@VNamedAllocator@shdfnd@physx@@@shdfnd@physx@@IAEXPAX@Z 1002d510 f i ConvexPolygonsBuilder.obj
 0001:0002c530       ?destroy@?$Array@VPair@@VNamedAllocator@shdfnd@physx@@@shdfnd@physx@@KAXPAVPair@@0@Z 1002d530 f i ConvexPolygonsBuilder.obj
 0001:0002c560       ?empty@?$Array@VPair@@VNamedAllocator@shdfnd@physx@@@shdfnd@physx@@QBE_NXZ 1002d560 f i ConvexPolygonsBuilder.obj
 0001:0002c590       ?end@?$Array@IVNamedAllocator@shdfnd@physx@@@shdfnd@physx@@QAEPAIXZ 1002d590 f i ConvexPolygonsBuilder.obj
 0001:0002c5b0       ?find@?$Array@IVNamedAllocator@shdfnd@physx@@@shdfnd@physx@@QAEPAIABI@Z 1002d5b0 f i ConvexPolygonsBuilder.obj
 0001:0002c600       ?flip@?$TriangleT@I@Gu@physx@@QAEXXZ 1002d600 f i ConvexPolygonsBuilder.obj
 0001:0002c630       ?forceSize_Unsafe@?$Array@IVNamedAllocator@shdfnd@physx@@@shdfnd@physx@@QAEXI@Z 1002d630 f i ConvexPolygonsBuilder.obj
 0001:0002c690       ?getFaces@ConvexPolygonsBuilder@physx@@QBEPBUHullTriangleData@2@XZ 1002d690 f i ConvexPolygonsBuilder.obj
 0001:0002c6b0       ?getName@?$ReflectionAllocator@UHullTriangleData@physx@@@shdfnd@physx@@CAPBDXZ 1002d6b0 f i ConvexPolygonsBuilder.obj
 0001:0002c6f0       ?getNbFaces@ConvexPolygonsBuilder@physx@@QBEIXZ 1002d6f0 f i ConvexPolygonsBuilder.obj
 0001:0002c710       ?growAndPushBack@?$Array@VPair@@VNamedAllocator@shdfnd@physx@@@shdfnd@physx@@IAEAAVPair@@ABV4@@Z 1002d710 f i ConvexPolygonsBuilder.obj
 0001:0002c850       ?isInUserMemory@?$Array@VPair@@VNamedAllocator@shdfnd@physx@@@shdfnd@physx@@QBEIXZ 1002d850 f i ConvexPolygonsBuilder.obj
 0001:0002c870       ?pushBack@?$Array@VPair@@VNamedAllocator@shdfnd@physx@@@shdfnd@physx@@QAEAAVPair@@ABV4@@Z 1002d870 f i ConvexPolygonsBuilder.obj
 0001:0002c910       ?remove@?$Array@IVNamedAllocator@shdfnd@physx@@@shdfnd@physx@@QAEXI@Z 1002d910 f i ConvexPolygonsBuilder.obj
 0001:0002c9c0       ?remove@?$Array@VPair@@VNamedAllocator@shdfnd@physx@@@shdfnd@physx@@QAEXI@Z 1002d9c0 f i ConvexPolygonsBuilder.obj
 0001:0002caa0       ?size@?$Array@VPair@@VNamedAllocator@shdfnd@physx@@@shdfnd@physx@@QBEIXZ 1002daa0 f i ConvexPolygonsBuilder.obj
 0001:0002cb10       ??0QuickHullConvexHullLib@physx@@QAE@ABVPxConvexMeshDesc@1@ABUPxCookingParams@1@@Z 1002db10 f   QuickHullConvexHullLib.obj
 0001:0002cbd0       ??1QuickHullConvexHullLib@physx@@UAE@XZ 1002dbd0 f   QuickHullConvexHullLib.obj
 0001:0002cc70       ?createConvexHull@QuickHullConvexHullLib@physx@@UAE?AW4Enum@PxConvexMeshCookingResult@2@XZ 1002dc70 f   QuickHullConvexHullLib.obj
 0001:0002d040       ?fillConvexMeshDesc@QuickHullConvexHullLib@physx@@UAEXAAVPxConvexMeshDesc@2@@Z 1002e040 f   QuickHullConvexHullLib.obj
 0001:0002d0b0       ?createEdgeList@QuickHullConvexHullLib@physx@@UAE_NIPBEPAPAEPAPAG2@Z 1002e0b0 f   QuickHullConvexHullLib.obj
 0001:0002d430       ?expandHullOBB@QuickHullConvexHullLib@physx@@IAE?AW4Enum@PxConvexMeshCookingResult@2@XZ 1002e430 f   QuickHullConvexHullLib.obj
 0001:0002d880       ?expandHull@QuickHullConvexHullLib@physx@@IAE?AW4Enum@PxConvexMeshCookingResult@2@XZ 1002e880 f   QuickHullConvexHullLib.obj
 0001:0002de50       ?cleanupForSimplex@QuickHullConvexHullLib@physx@@IAE_NPAVPxVec3@2@IPAUQuickHullVertex@local@@1AAM2@Z 1002ee50 f   QuickHullConvexHullLib.obj
 0001:0002e5d0       ?fillConvexMeshDescFromQuickHull@QuickHullConvexHullLib@physx@@IAEXAAVPxConvexMeshDesc@2@@Z 1002f5d0 f   QuickHullConvexHullLib.obj
 0001:0002eaf0       ?fillConvexMeshDescFromCroppedHull@QuickHullConvexHullLib@physx@@IAEXAAVPxConvexMeshDesc@2@@Z 1002faf0 f   QuickHullConvexHullLib.obj
 0001:0002eea0       ?getOppositeFaceDistance@QuickHullHalfEdge@local@@QBEMXZ 1002fea0 f   QuickHullConvexHullLib.obj
 0001:0002ef50       ?mergeAdjacentFace@QuickHullFace@local@@QAE_NPAUQuickHullHalfEdge@2@AAV?$Array@PAUQuickHullFace@local@@VNamedAllocator@shdfnd@physx@@@shdfnd@physx@@@Z 1002ff50 f   QuickHullConvexHullLib.obj
 0001:0002f0f0       ?checkFaceConsistency@QuickHullFace@local@@QAE_NXZ 100300f0 f   QuickHullConvexHullLib.obj
 0001:0002f2e0       ?connectHalfEdges@QuickHullFace@local@@AAEPAU12@PAUQuickHullHalfEdge@2@0@Z 100302e0 f   QuickHullConvexHullLib.obj
 0001:0002f3f0       ??0QuickHull@local@@QAE@ABUPxCookingParams@physx@@ABVPxConvexMeshDesc@3@@Z 100303f0 f   QuickHullConvexHullLib.obj
 0001:0002f580       ??1QuickHull@local@@QAE@XZ 10030580 f   QuickHullConvexHullLib.obj
 0001:0002f600       ?preallocate@QuickHull@local@@QAEXI@Z 10030600 f   QuickHullConvexHullLib.obj
 0001:0002f740       ?parseInputVertices@QuickHull@local@@QAEXPBVPxVec3@physx@@I@Z 10030740 f   QuickHullConvexHullLib.obj
 0001:0002f820       ?releaseHull@QuickHull@local@@QAEXXZ 10030820 f   QuickHullConvexHullLib.obj
 0001:0002f870       ?setPrecomputedMinMax@QuickHull@local@@QAEXPBUQuickHullVertex@2@0MM@Z 10030870 f   QuickHullConvexHullLib.obj
 0001:0002f900       ?buildHull@QuickHull@local@@QAE?AW4Enum@QuickHullResult@2@XZ 10030900 f   QuickHullConvexHullLib.obj
 0001:0002fb70       ?maxNumVertsPerFace@QuickHull@local@@QBEIXZ 10030b70 f   QuickHullConvexHullLib.obj
 0001:0002fbf0       ?computeMinMaxVerts@QuickHull@local@@IAEXXZ 10030bf0 f   QuickHullConvexHullLib.obj
 0001:0002fea0       ?findSimplex@QuickHull@local@@IAE_NXZ 10030ea0 f   QuickHullConvexHullLib.obj
 0001:000302d0       ?addSimplex@QuickHull@local@@IAEXPAUQuickHullVertex@2@_N@Z 100312d0 f   QuickHullConvexHullLib.obj
 0001:000307c0       ?nextPointToAdd@QuickHull@local@@IAEPAUQuickHullVertex@2@AAPAUQuickHullFace@2@@Z 100317c0 f   QuickHullConvexHullLib.obj
 0001:000308b0       ?addPointToHull@QuickHull@local@@IAE_NPBUQuickHullVertex@2@AAUQuickHullFace@2@AA_N@Z 100318b0 f   QuickHullConvexHullLib.obj
 0001:00030b20       ?createTriangle@QuickHull@local@@IAEPAUQuickHullFace@2@ABUQuickHullVertex@2@00@Z 10031b20 f   QuickHullConvexHullLib.obj
 0001:00030bf0       ?addPointToFace@QuickHull@local@@IAEXAAUQuickHullFace@2@PAUQuickHullVertex@2@M@Z 10031bf0 f   QuickHullConvexHullLib.obj
 0001:00030cc0       ?removeEyePointFromFace@QuickHull@local@@IAEXAAUQuickHullFace@2@PBUQuickHullVertex@2@@Z 10031cc0 f   QuickHullConvexHullLib.obj
 0001:00030d30       ?calculateHorizon@QuickHull@local@@IAEXABVPxVec3@physx@@PAUQuickHullHalfEdge@2@AAUQuickHullFace@2@AAV?$Array@PAUQuickHullHalfEdge@local@@VNamedAllocator@shdfnd@physx@@@shdfnd@4@AAV?$Array@PAUQuickHullFace@local@@VNamedAllocator@shdfnd@physx@@@84@@Z 10031d30 f   QuickHullConvexHullLib.obj
 0001:00030e20       ?addNewFacesFromHorizon@QuickHull@local@@IAEXPBUQuickHullVertex@2@ABV?$Array@PAUQuickHullHalfEdge@local@@VNamedAllocator@shdfnd@physx@@@shdfnd@physx@@AAV?$Array@PAUQuickHullFace@local@@VNamedAllocator@shdfnd@physx@@@56@@Z 10031e20 f   QuickHullConvexHullLib.obj
 0001:00030f20       ?doAdjacentMerge@QuickHull@local@@IAE_NAAUQuickHullFace@2@_NAA_N@Z 10031f20 f   QuickHullConvexHullLib.obj
 0001:000311a0       ?doPostAdjacentMerge@QuickHull@local@@IAE_NAAUQuickHullFace@2@M@Z 100321a0 f   QuickHullConvexHullLib.obj
 0001:00031310       ?deleteFacePoints@QuickHull@local@@IAEXAAUQuickHullFace@2@PAU32@@Z 10032310 f   QuickHullConvexHullLib.obj
 0001:000313f0       ?resolveUnclaimedPoints@QuickHull@local@@IAEXABV?$Array@PAUQuickHullFace@local@@VNamedAllocator@shdfnd@physx@@@shdfnd@physx@@@Z 100323f0 f   QuickHullConvexHullLib.obj
 0001:00031510       ?postMergeHull@QuickHull@local@@IAEXXZ 10032510 f   QuickHullConvexHullLib.obj
 0001:000315d0       ?canMergeFaces@QuickHull@local@@IAE_NABUQuickHullHalfEdge@2@@Z 100325d0 f   QuickHullConvexHullLib.obj
 0001:00031c10       ?getExpandPoint@local@@YAXABUQuickHullHalfEdge@1@AAUExpandPoint@1@PBV?$Array@IVNamedAllocator@shdfnd@physx@@@shdfnd@physx@@@Z 10032c10 f   QuickHullConvexHullLib.obj
 0001:00031de0       ?addExpandPoint@local@@YAXABUExpandPoint@1@AAV?$Array@UExpandPoint@local@@VNamedAllocator@shdfnd@physx@@@shdfnd@physx@@@Z 10032de0 f   QuickHullConvexHullLib.obj
 0001:00031ed0       ??$?2V?$ReflectionAllocator@VQuickHull@local@@@shdfnd@physx@@@UserAllocated@shdfnd@physx@@SAPAXIV?$ReflectionAllocator@VQuickHull@local@@@12@PBDH@Z 10032ed0 f i QuickHullConvexHullLib.obj
 0001:00031ef0       ??$PX_UNUSED@PAUQuickHullFace@local@@@@YAXABQAUQuickHullFace@local@@@Z 10032ef0 f i QuickHullConvexHullLib.obj
 0001:00031f00       ??$PX_UNUSED@PBUQuickHullVertex@local@@@@YAXABQBUQuickHullVertex@local@@@Z 10032f00 f i QuickHullConvexHullLib.obj
 0001:00031f10       ??0?$Array@PAUQuickHullFace@local@@VNamedAllocator@shdfnd@physx@@@shdfnd@physx@@QAE@ABVNamedAllocator@12@@Z 10032f10 f i QuickHullConvexHullLib.obj
 0001:00031f50       ??0?$Array@PAUQuickHullHalfEdge@local@@VNamedAllocator@shdfnd@physx@@@shdfnd@physx@@QAE@ABVNamedAllocator@12@@Z 10032f50 f i QuickHullConvexHullLib.obj
 0001:00031f90       ??0?$Array@PAUQuickHullVertex@local@@VNamedAllocator@shdfnd@physx@@@shdfnd@physx@@QAE@ABVNamedAllocator@12@@Z 10032f90 f i QuickHullConvexHullLib.obj
 0001:00031fd0       ??0?$Array@UExpandPoint@local@@VNamedAllocator@shdfnd@physx@@@shdfnd@physx@@QAE@ABVNamedAllocator@12@@Z 10032fd0 f i QuickHullConvexHullLib.obj
 0001:00032010       ??0?$MemBlock@UQuickHullFace@local@@$00@local@@QAE@XZ 10033010 f i QuickHullConvexHullLib.obj
 0001:00032060       ??0?$MemBlock@UQuickHullHalfEdge@local@@$0A@@local@@QAE@XZ 10033060 f i QuickHullConvexHullLib.obj
 0001:000320b0       ??0?$ReflectionAllocator@VQuickHull@local@@@shdfnd@physx@@QAE@PBD@Z 100330b0 f i QuickHullConvexHullLib.obj
 0001:000320c0       ??0?$ScopedPointer@UQuickHullHalfEdge@local@@VTempAllocator@shdfnd@physx@@@shdfnd@physx@@QAE@XZ 100330c0 f i QuickHullConvexHullLib.obj
 0001:000320e0       ??0?$ScopedPointer@VPxVec3@physx@@VTempAllocator@shdfnd@2@@shdfnd@physx@@QAE@XZ 100330e0 f i QuickHullConvexHullLib.obj
 0001:00032100       ??0ConvexHullLib@physx@@QAE@ABVPxConvexMeshDesc@1@ABUPxCookingParams@1@@Z 10033100 f i QuickHullConvexHullLib.obj
 0001:00032150       ??0ExpandPoint@local@@QAE@ABU01@@Z 10033150 f i QuickHullConvexHullLib.obj
 0001:000321a0       ??0ExpandPoint@local@@QAE@XZ 100331a0 f i QuickHullConvexHullLib.obj
 0001:000321c0       ??0PxTransform@physx@@QAE@XZ 100331c0 f i QuickHullConvexHullLib.obj
 0001:000321f0       ??0QuickHullFace@local@@QAE@I@Z 100331f0 f i QuickHullConvexHullLib.obj
 0001:00032280       ??0QuickHullFace@local@@QAE@XZ 10033280 f i QuickHullConvexHullLib.obj
 0001:00032310       ??0QuickHullHalfEdge@local@@QAE@I@Z 10033310 f i QuickHullConvexHullLib.obj
 0001:00032360       ??0QuickHullVertex@local@@QAE@XZ 10033360 f i QuickHullConvexHullLib.obj
 0001:00032380       ??1?$Array@PAUQuickHullFace@local@@VNamedAllocator@shdfnd@physx@@@shdfnd@physx@@QAE@XZ 10033380 f i QuickHullConvexHullLib.obj
 0001:000323e0       ??1?$Array@PAUQuickHullHalfEdge@local@@VNamedAllocator@shdfnd@physx@@@shdfnd@physx@@QAE@XZ 100333e0 f i QuickHullConvexHullLib.obj
 0001:00032440       ??1?$Array@PAUQuickHullVertex@local@@VNamedAllocator@shdfnd@physx@@@shdfnd@physx@@QAE@XZ 10033440 f i QuickHullConvexHullLib.obj
 0001:000324a0       ??1?$Array@UExpandPoint@local@@VNamedAllocator@shdfnd@physx@@@shdfnd@physx@@QAE@XZ 100334a0 f i QuickHullConvexHullLib.obj
 0001:00032500       ??1?$Array@VHalfEdge@ConvexHull@physx@@VNamedAllocator@shdfnd@3@@shdfnd@physx@@QAE@XZ 10033500 f i QuickHullConvexHullLib.obj
 0001:00032560       ??1?$Array@VPxPlane@physx@@VNamedAllocator@shdfnd@2@@shdfnd@physx@@QAE@XZ 10033560 f i QuickHullConvexHullLib.obj
 0001:000325c0       ??1?$MemBlock@UQuickHullFace@local@@$00@local@@QAE@XZ 100335c0 f i QuickHullConvexHullLib.obj
 0001:00032630       ??1?$MemBlock@UQuickHullHalfEdge@local@@$0A@@local@@QAE@XZ 10033630 f i QuickHullConvexHullLib.obj
 0001:000326a0       ??1?$ScopedPointer@UQuickHullHalfEdge@local@@VTempAllocator@shdfnd@physx@@@shdfnd@physx@@QAE@XZ 100336a0 f i QuickHullConvexHullLib.obj
 0001:000326d0       ??1?$ScopedPointer@VPxVec3@physx@@VTempAllocator@shdfnd@2@@shdfnd@physx@@QAE@XZ 100336d0 f i QuickHullConvexHullLib.obj
 0001:00032700       ??1ConvexHull@physx@@QAE@XZ 10033700 f i QuickHullConvexHullLib.obj
 0001:00032730       ??1QuickHullFace@local@@QAE@XZ 10033730 f i QuickHullConvexHullLib.obj
 0001:00032740       ??4?$PxFlags@W4Enum@PxConvexFlag@physx@@G@physx@@QAEAAV01@ABV01@@Z 10033740 f i QuickHullConvexHullLib.obj
 0001:00032760       ??4QuickHullVertex@local@@QAEAAU01@ABU01@@Z 10033760 f i QuickHullConvexHullLib.obj
 0001:000327a0       ??8ExpandPoint@local@@QBE_NABU01@@Z 100337a0 f i QuickHullConvexHullLib.obj
 0001:00032820       ??8QuickHullVertex@local@@QBE_NABU01@@Z 10033820 f i QuickHullConvexHullLib.obj
 0001:00032850       ??A?$Array@IVNamedAllocator@shdfnd@physx@@@shdfnd@physx@@QBEABII@Z 10033850 f i QuickHullConvexHullLib.obj
 0001:000328b0       ??A?$Array@PAUQuickHullFace@local@@VNamedAllocator@shdfnd@physx@@@shdfnd@physx@@QAEAAPAUQuickHullFace@local@@I@Z 100338b0 f i QuickHullConvexHullLib.obj
 0001:00032910       ??A?$Array@PAUQuickHullFace@local@@VNamedAllocator@shdfnd@physx@@@shdfnd@physx@@QBEABQAUQuickHullFace@local@@I@Z 10033910 f i QuickHullConvexHullLib.obj
 0001:00032970       ??A?$Array@PAUQuickHullHalfEdge@local@@VNamedAllocator@shdfnd@physx@@@shdfnd@physx@@QAEAAPAUQuickHullHalfEdge@local@@I@Z 10033970 f i QuickHullConvexHullLib.obj
 0001:000329d0       ??A?$Array@PAUQuickHullHalfEdge@local@@VNamedAllocator@shdfnd@physx@@@shdfnd@physx@@QBEABQAUQuickHullHalfEdge@local@@I@Z 100339d0 f i QuickHullConvexHullLib.obj
 0001:00032a30       ??A?$Array@PAUQuickHullVertex@local@@VNamedAllocator@shdfnd@physx@@@shdfnd@physx@@QAEAAPAUQuickHullVertex@local@@I@Z 10033a30 f i QuickHullConvexHullLib.obj
 0001:00032a90       ??A?$Array@UExpandPoint@local@@VNamedAllocator@shdfnd@physx@@@shdfnd@physx@@QAEAAUExpandPoint@local@@I@Z 10033a90 f i QuickHullConvexHullLib.obj
 0001:00032af0       ??A?$Array@VPxPlane@physx@@VNamedAllocator@shdfnd@2@@shdfnd@physx@@QAEAAVPxPlane@2@I@Z 10033af0 f i QuickHullConvexHullLib.obj
 0001:00032b50       ??B?$ScopedPointer@UQuickHullHalfEdge@local@@VTempAllocator@shdfnd@physx@@@shdfnd@physx@@QBEPAUQuickHullHalfEdge@local@@XZ 10033b50 f i QuickHullConvexHullLib.obj
 0001:00032b60       ??B?$ScopedPointer@VPxVec3@physx@@VTempAllocator@shdfnd@2@@shdfnd@physx@@QBEPAVPxVec3@2@XZ 10033b60 f i QuickHullConvexHullLib.obj
 0001:00032b70       ??KPxVec3@physx@@QBE?AV01@M@Z 10033b70 f i QuickHullConvexHullLib.obj
 0001:00032be0       ??_GConvexHull@physx@@QAEPAXI@Z 10033be0 f i QuickHullConvexHullLib.obj
 0001:00032c30       ??_GQuickHull@local@@QAEPAXI@Z 10033c30 f i QuickHullConvexHullLib.obj
 0001:00032c80       ??_GQuickHullConvexHullLib@physx@@UAEPAXI@Z 10033c80 f i QuickHullConvexHullLib.obj
 0001:00032c80       ??_EQuickHullConvexHullLib@physx@@UAEPAXI@Z 10033c80 f i QuickHullConvexHullLib.obj
 0001:00032cd0       ??__G@YGXPAX0IIP6EPAX00@Z@Z 10033cd0 f i QuickHullConvexHullLib.obj
 0001:00032d30       ?allocate@?$Array@PAUQuickHullFace@local@@VNamedAllocator@shdfnd@physx@@@shdfnd@physx@@IAEPAPAUQuickHullFace@local@@I@Z 10033d30 f i QuickHullConvexHullLib.obj
 0001:00032da0       ?allocate@?$Array@PAUQuickHullHalfEdge@local@@VNamedAllocator@shdfnd@physx@@@shdfnd@physx@@IAEPAPAUQuickHullHalfEdge@local@@I@Z 10033da0 f i QuickHullConvexHullLib.obj
 0001:00032e10       ?allocate@?$Array@PAUQuickHullVertex@local@@VNamedAllocator@shdfnd@physx@@@shdfnd@physx@@IAEPAPAUQuickHullVertex@local@@I@Z 10033e10 f i QuickHullConvexHullLib.obj
 0001:00032e80       ?allocate@?$Array@UExpandPoint@local@@VNamedAllocator@shdfnd@physx@@@shdfnd@physx@@IAEPAUExpandPoint@local@@I@Z 10033e80 f i QuickHullConvexHullLib.obj
 0001:00032ef0       ?allocate@?$ReflectionAllocator@VQuickHull@local@@@shdfnd@physx@@QAEPAXIPBDH@Z 10033ef0 f i QuickHullConvexHullLib.obj
 0001:00032f40       ?capacity@?$Array@PAUQuickHullFace@local@@VNamedAllocator@shdfnd@physx@@@shdfnd@physx@@QBEIXZ 10033f40 f i QuickHullConvexHullLib.obj
 0001:00032f60       ?capacity@?$Array@PAUQuickHullHalfEdge@local@@VNamedAllocator@shdfnd@physx@@@shdfnd@physx@@QBEIXZ 10033f60 f i QuickHullConvexHullLib.obj
 0001:00032f80       ?capacity@?$Array@PAUQuickHullVertex@local@@VNamedAllocator@shdfnd@physx@@@shdfnd@physx@@QBEIXZ 10033f80 f i QuickHullConvexHullLib.obj
 0001:00032fa0       ?capacity@?$Array@UExpandPoint@local@@VNamedAllocator@shdfnd@physx@@@shdfnd@physx@@QBEIXZ 10033fa0 f i QuickHullConvexHullLib.obj
 0001:00032fc0       ?capacityIncrement@?$Array@PAUQuickHullFace@local@@VNamedAllocator@shdfnd@physx@@@shdfnd@physx@@IBEIXZ 10033fc0 f i QuickHullConvexHullLib.obj
 0001:00033000       ?capacityIncrement@?$Array@PAUQuickHullHalfEdge@local@@VNamedAllocator@shdfnd@physx@@@shdfnd@physx@@IBEIXZ 10034000 f i QuickHullConvexHullLib.obj
 0001:00033040       ?capacityIncrement@?$Array@PAUQuickHullVertex@local@@VNamedAllocator@shdfnd@physx@@@shdfnd@physx@@IBEIXZ 10034040 f i QuickHullConvexHullLib.obj
 0001:00033080       ?capacityIncrement@?$Array@UExpandPoint@local@@VNamedAllocator@shdfnd@physx@@@shdfnd@physx@@IBEIXZ 10034080 f i QuickHullConvexHullLib.obj
 0001:000330c0       ?clear@?$Array@PAUQuickHullFace@local@@VNamedAllocator@shdfnd@physx@@@shdfnd@physx@@QAEXXZ 100340c0 f i QuickHullConvexHullLib.obj
 0001:00033100       ?clear@?$Array@PAUQuickHullHalfEdge@local@@VNamedAllocator@shdfnd@physx@@@shdfnd@physx@@QAEXXZ 10034100 f i QuickHullConvexHullLib.obj
 0001:00033140       ?clear@?$Array@PAUQuickHullVertex@local@@VNamedAllocator@shdfnd@physx@@@shdfnd@physx@@QAEXXZ 10034140 f i QuickHullConvexHullLib.obj
 0001:00033180       ?computeNormalAndCentroid@QuickHullFace@local@@QAEXXZ 10034180 f i QuickHullConvexHullLib.obj
 0001:00033380       ?copy@?$Array@PAUQuickHullFace@local@@VNamedAllocator@shdfnd@physx@@@shdfnd@physx@@KAXPAPAUQuickHullFace@local@@0PBQAU45@@Z 10034380 f i QuickHullConvexHullLib.obj
 0001:000333d0       ?copy@?$Array@PAUQuickHullHalfEdge@local@@VNamedAllocator@shdfnd@physx@@@shdfnd@physx@@KAXPAPAUQuickHullHalfEdge@local@@0PBQAU45@@Z 100343d0 f i QuickHullConvexHullLib.obj
 0001:00033420       ?copy@?$Array@PAUQuickHullVertex@local@@VNamedAllocator@shdfnd@physx@@@shdfnd@physx@@KAXPAPAUQuickHullVertex@local@@0PBQAU45@@Z 10034420 f i QuickHullConvexHullLib.obj
 0001:00033470       ?copy@?$Array@UExpandPoint@local@@VNamedAllocator@shdfnd@physx@@@shdfnd@physx@@KAXPAUExpandPoint@local@@0PBU45@@Z 10034470 f i QuickHullConvexHullLib.obj
 0001:000334c0       ?deallocate@?$Array@PAUQuickHullFace@local@@VNamedAllocator@shdfnd@physx@@@shdfnd@physx@@IAEXPAX@Z 100344c0 f i QuickHullConvexHullLib.obj
 0001:000334e0       ?deallocate@?$Array@PAUQuickHullHalfEdge@local@@VNamedAllocator@shdfnd@physx@@@shdfnd@physx@@IAEXPAX@Z 100344e0 f i QuickHullConvexHullLib.obj
 0001:00033500       ?deallocate@?$Array@PAUQuickHullVertex@local@@VNamedAllocator@shdfnd@physx@@@shdfnd@physx@@IAEXPAX@Z 10034500 f i QuickHullConvexHullLib.obj
 0001:00033520       ?deallocate@?$Array@UExpandPoint@local@@VNamedAllocator@shdfnd@physx@@@shdfnd@physx@@IAEXPAX@Z 10034520 f i QuickHullConvexHullLib.obj
 0001:00033540       ?destroy@?$Array@PAUQuickHullFace@local@@VNamedAllocator@shdfnd@physx@@@shdfnd@physx@@KAXPAPAUQuickHullFace@local@@0@Z 10034540 f i QuickHullConvexHullLib.obj
 0001:00033560       ?destroy@?$Array@PAUQuickHullHalfEdge@local@@VNamedAllocator@shdfnd@physx@@@shdfnd@physx@@KAXPAPAUQuickHullHalfEdge@local@@0@Z 10034560 f i QuickHullConvexHullLib.obj
 0001:00033580       ?destroy@?$Array@PAUQuickHullVertex@local@@VNamedAllocator@shdfnd@physx@@@shdfnd@physx@@KAXPAPAUQuickHullVertex@local@@0@Z 10034580 f i QuickHullConvexHullLib.obj
 0001:000335a0       ?destroy@?$Array@UExpandPoint@local@@VNamedAllocator@shdfnd@physx@@@shdfnd@physx@@KAXPAUExpandPoint@local@@0@Z 100345a0 f i QuickHullConvexHullLib.obj
 0001:000335c0       ?distanceToPlane@QuickHullFace@local@@QBEMVPxVec3@physx@@@Z 100345c0 f i QuickHullConvexHullLib.obj
 0001:00033600       ?getEdge@QuickHullFace@local@@QBEPAUQuickHullHalfEdge@2@I@Z 10034600 f i QuickHullConvexHullLib.obj
 0001:00033640       ?getFreeHullFace@QuickHull@local@@IAEPAUQuickHullFace@2@XZ 10034640 f i QuickHullConvexHullLib.obj
 0001:00033660       ?getFreeHullHalfEdge@QuickHull@local@@IAEPAUQuickHullHalfEdge@2@XZ 10034660 f i QuickHullConvexHullLib.obj
 0001:00033680       ?getFreeItem@?$MemBlock@UQuickHullFace@local@@$00@local@@QAEPAUQuickHullFace@2@XZ 10034680 f i QuickHullConvexHullLib.obj
 0001:00033800       ?getFreeItem@?$MemBlock@UQuickHullHalfEdge@local@@$0A@@local@@QAEPAUQuickHullHalfEdge@2@XZ 10034800 f i QuickHullConvexHullLib.obj
 0001:00033970       ?getHead@QuickHullHalfEdge@local@@QBEABUQuickHullVertex@2@XZ 10034970 f i QuickHullConvexHullLib.obj
 0001:000339c0       ?getItem@?$MemBlock@UQuickHullFace@local@@$00@local@@QAEPAUQuickHullFace@2@I@Z 100349c0 f i QuickHullConvexHullLib.obj
 0001:00033a80       ?getName@?$ReflectionAllocator@VQuickHull@local@@@shdfnd@physx@@CAPBDXZ 10034a80 f i QuickHullConvexHullLib.obj
 0001:00033ac0       ?getNbHullVerts@QuickHull@local@@IAEIXZ 10034ac0 f i QuickHullConvexHullLib.obj
 0001:00033ae0       ?getOppositeFace@QuickHullHalfEdge@local@@QBEPAUQuickHullFace@2@XZ 10034ae0 f i QuickHullConvexHullLib.obj
 0001:00033b00       ?getTail@QuickHullHalfEdge@local@@QBEABUQuickHullVertex@2@XZ 10034b00 f i QuickHullConvexHullLib.obj
 0001:00033b10       ?grow@?$Array@PAUQuickHullFace@local@@VNamedAllocator@shdfnd@physx@@@shdfnd@physx@@IAEXI@Z 10034b10 f i QuickHullConvexHullLib.obj
 0001:00033b70       ?grow@?$Array@PAUQuickHullHalfEdge@local@@VNamedAllocator@shdfnd@physx@@@shdfnd@physx@@IAEXI@Z 10034b70 f i QuickHullConvexHullLib.obj
 0001:00033bd0       ?grow@?$Array@PAUQuickHullVertex@local@@VNamedAllocator@shdfnd@physx@@@shdfnd@physx@@IAEXI@Z 10034bd0 f i QuickHullConvexHullLib.obj
 0001:00033c30       ?grow@?$Array@UExpandPoint@local@@VNamedAllocator@shdfnd@physx@@@shdfnd@physx@@IAEXI@Z 10034c30 f i QuickHullConvexHullLib.obj
 0001:00033c90       ?growAndPushBack@?$Array@PAUQuickHullFace@local@@VNamedAllocator@shdfnd@physx@@@shdfnd@physx@@IAEAAPAUQuickHullFace@local@@ABQAU45@@Z 10034c90 f i QuickHullConvexHullLib.obj
 0001:00033dc0       ?growAndPushBack@?$Array@PAUQuickHullHalfEdge@local@@VNamedAllocator@shdfnd@physx@@@shdfnd@physx@@IAEAAPAUQuickHullHalfEdge@local@@ABQAU45@@Z 10034dc0 f i QuickHullConvexHullLib.obj
 0001:00033ef0       ?growAndPushBack@?$Array@PAUQuickHullVertex@local@@VNamedAllocator@shdfnd@physx@@@shdfnd@physx@@IAEAAPAUQuickHullVertex@local@@ABQAU45@@Z 10034ef0 f i QuickHullConvexHullLib.obj
 0001:00034020       ?growAndPushBack@?$Array@UExpandPoint@local@@VNamedAllocator@shdfnd@physx@@@shdfnd@physx@@IAEAAUExpandPoint@local@@ABU45@@Z 10035020 f i QuickHullConvexHullLib.obj
 0001:00034140       ?init@?$MemBlock@UQuickHullFace@local@@$00@local@@QAEXI@Z 10035140 f i QuickHullConvexHullLib.obj
 0001:00034220       ?init@?$MemBlock@UQuickHullHalfEdge@local@@$0A@@local@@QAEXI@Z 10035220 f i QuickHullConvexHullLib.obj
 0001:000342f0       ?isInUserMemory@?$Array@PAUQuickHullFace@local@@VNamedAllocator@shdfnd@physx@@@shdfnd@physx@@QBEIXZ 100352f0 f i QuickHullConvexHullLib.obj
 0001:00034310       ?isInUserMemory@?$Array@PAUQuickHullHalfEdge@local@@VNamedAllocator@shdfnd@physx@@@shdfnd@physx@@QBEIXZ 10035310 f i QuickHullConvexHullLib.obj
 0001:00034330       ?isInUserMemory@?$Array@PAUQuickHullVertex@local@@VNamedAllocator@shdfnd@physx@@@shdfnd@physx@@QBEIXZ 10035330 f i QuickHullConvexHullLib.obj
 0001:00034350       ?isInUserMemory@?$Array@UExpandPoint@local@@VNamedAllocator@shdfnd@physx@@@shdfnd@physx@@QBEIXZ 10035350 f i QuickHullConvexHullLib.obj
 0001:00034370       ?isTriangle@QuickHullFace@local@@ABE_NXZ 10035370 f i QuickHullConvexHullLib.obj
 0001:000343a0       ?pushBack@?$Array@PAUQuickHullFace@local@@VNamedAllocator@shdfnd@physx@@@shdfnd@physx@@QAEAAPAUQuickHullFace@local@@ABQAU45@@Z 100353a0 f i QuickHullConvexHullLib.obj
 0001:00034420       ?pushBack@?$Array@PAUQuickHullHalfEdge@local@@VNamedAllocator@shdfnd@physx@@@shdfnd@physx@@QAEAAPAUQuickHullHalfEdge@local@@ABQAU45@@Z 10035420 f i QuickHullConvexHullLib.obj
 0001:000344a0       ?pushBack@?$Array@PAUQuickHullVertex@local@@VNamedAllocator@shdfnd@physx@@@shdfnd@physx@@QAEAAPAUQuickHullVertex@local@@ABQAU45@@Z 100354a0 f i QuickHullConvexHullLib.obj
 0001:00034520       ?pushBack@?$Array@UExpandPoint@local@@VNamedAllocator@shdfnd@physx@@@shdfnd@physx@@QAEAAUExpandPoint@local@@ABU45@@Z 10035520 f i QuickHullConvexHullLib.obj
 0001:000345a0       ?recreate@?$Array@PAUQuickHullFace@local@@VNamedAllocator@shdfnd@physx@@@shdfnd@physx@@IAEXI@Z 100355a0 f i QuickHullConvexHullLib.obj
 0001:00034670       ?recreate@?$Array@PAUQuickHullHalfEdge@local@@VNamedAllocator@shdfnd@physx@@@shdfnd@physx@@IAEXI@Z 10035670 f i QuickHullConvexHullLib.obj
 0001:00034740       ?recreate@?$Array@PAUQuickHullVertex@local@@VNamedAllocator@shdfnd@physx@@@shdfnd@physx@@IAEXI@Z 10035740 f i QuickHullConvexHullLib.obj
 0001:00034810       ?recreate@?$Array@UExpandPoint@local@@VNamedAllocator@shdfnd@physx@@@shdfnd@physx@@IAEXI@Z 10035810 f i QuickHullConvexHullLib.obj
 0001:000348e0       ?reserve@?$Array@PAUQuickHullFace@local@@VNamedAllocator@shdfnd@physx@@@shdfnd@physx@@QAEXI@Z 100358e0 f i QuickHullConvexHullLib.obj
 0001:00034910       ?reserve@?$Array@PAUQuickHullHalfEdge@local@@VNamedAllocator@shdfnd@physx@@@shdfnd@physx@@QAEXI@Z 10035910 f i QuickHullConvexHullLib.obj
 0001:00034940       ?reserve@?$Array@PAUQuickHullVertex@local@@VNamedAllocator@shdfnd@physx@@@shdfnd@physx@@QAEXI@Z 10035940 f i QuickHullConvexHullLib.obj
 0001:00034970       ?reserve@?$Array@UExpandPoint@local@@VNamedAllocator@shdfnd@physx@@@shdfnd@physx@@QAEXI@Z 10035970 f i QuickHullConvexHullLib.obj
 0001:000349a0       ?reset@?$MemBlock@UQuickHullFace@local@@$00@local@@QAEXXZ 100359a0 f i QuickHullConvexHullLib.obj
 0001:00034a30       ?reset@?$MemBlock@UQuickHullHalfEdge@local@@$0A@@local@@QAEXXZ 10035a30 f i QuickHullConvexHullLib.obj
 0001:00034ac0       ?setTwin@QuickHullHalfEdge@local@@QAEXPAU12@@Z 10035ac0 f i QuickHullConvexHullLib.obj
 0001:00034ae0       ?size@?$Array@PAUQuickHullFace@local@@VNamedAllocator@shdfnd@physx@@@shdfnd@physx@@QBEIXZ 10035ae0 f i QuickHullConvexHullLib.obj
 0001:00034b00       ?size@?$Array@PAUQuickHullHalfEdge@local@@VNamedAllocator@shdfnd@physx@@@shdfnd@physx@@QBEIXZ 10035b00 f i QuickHullConvexHullLib.obj
 0001:00034b20       ?size@?$Array@PAUQuickHullVertex@local@@VNamedAllocator@shdfnd@physx@@@shdfnd@physx@@QBEIXZ 10035b20 f i QuickHullConvexHullLib.obj
 0001:00034b40       ?size@?$Array@UExpandPoint@local@@VNamedAllocator@shdfnd@physx@@@shdfnd@physx@@QBEIXZ 10035b40 f i QuickHullConvexHullLib.obj
 0001:00034bb0       ?computeVolumeIntegrals@physx@@YA_NABVPxSimpleTriangleMesh@1@MAAUPxIntegrals@1@@Z 10035bb0 f   VolumeIntegration.obj
 0001:00034c10       ?computeVolumeIntegralsEberly@physx@@YA_NABVPxConvexMeshDesc@1@MAAUPxIntegrals@1@ABVPxVec3@1@@Z 10035c10 f   VolumeIntegration.obj
 0001:00034c60       ?computeVolumeIntegralsEberlySIMD@physx@@YA_NABVPxConvexMeshDesc@1@MAAUPxIntegrals@1@ABVPxVec3@1@@Z 10035c60 f   VolumeIntegration.obj
 0001:00038ae0       ??$swap@VPxVec3@physx@@@shdfnd@physx@@YAXAAVPxVec3@1@0@Z 10039ae0 f i VolumeIntegration.obj
 0001:00038b10       ??0PxSimpleTriangleMesh@physx@@QAE@XZ 10039b10 f i VolumeIntegration.obj
 0001:00038b40       ??4?$PxFlags@W4Enum@PxMeshFlag@physx@@G@physx@@QAEAAV01@ABV01@@Z 10039b40 f i VolumeIntegration.obj
 0001:00038b60       ??4PxSimpleTriangleMesh@physx@@QAEAAV01@ABV01@@Z 10039b60 f i VolumeIntegration.obj
 0001:00038bc0       ?FAllGrtr@aos@shdfnd@physx@@YAIT__m128@@0@Z 10039bc0 f i VolumeIntegration.obj
 0001:00038c80       ?V4Cross@aos@shdfnd@physx@@YA?AT__m128@@T4@0@Z 10039c80 f i VolumeIntegration.obj
 0001:00038d50       ?V4Dot3@aos@shdfnd@physx@@YA?AT__m128@@T4@0@Z 10039d50 f i VolumeIntegration.obj
 0001:00038e10       ?V4PermYZXW@aos@shdfnd@physx@@YA?AT__m128@@T4@@Z 10039e10 f i VolumeIntegration.obj
 0001:00038e50       ?V4ScaleInv@aos@shdfnd@physx@@YA?AT__m128@@T4@0@Z 10039e50 f i VolumeIntegration.obj
 0001:00038ed0       ?Vec4V_From_PxVec3_WUndefined@aos@shdfnd@physx@@YA?AT__m128@@ABVPxVec3@3@@Z 10039ed0 f i VolumeIntegration.obj
 0001:00038f20       ?isZero@PxVec3@physx@@QBE_NXZ 10039f20 f i VolumeIntegration.obj
 0001:00038f80       _PxSetPhysXCookingDelayLoadHook 10039f80 f   WindowsCookingDelayLoadHook.obj
 0001:00038f90       ?cookingDelayHook@@YGP6GHXZIPAUDelayLoadInfo@@@Z 10039f90 f   WindowsCookingDelayLoadHook.obj
 0001:00038ff0       ?loadLibrary@Cm@physx@@YGPAUHINSTANCE__@@PBD@Z 10039ff0 f i WindowsCookingDelayLoadHook.obj
 0001:00039010       ?physXCommonDliNotePreLoadLibrary@Cm@physx@@YGP6GHXZPBDPBVPxDelayLoadHook@2@@Z 1003a010 f i WindowsCookingDelayLoadHook.obj
 0001:00039080       __imp_load_??0RadixSortBuffered@Cm@physx@@QAE@XZ 1003a080 f   PhysXCommon_32:PhysXCommon_32.dll
 0001:0003908a       ??0RadixSortBuffered@Cm@physx@@QAE@XZ 1003a08a f   PhysXCommon_32:PhysXCommon_32.dll
 0001:00039090       __tailMerge_physxcommon_32_dll 1003a090     PhysXCommon_32:PhysXCommon_32.dll
 0001:000390a1       __imp_load_??1RadixSortBuffered@Cm@physx@@UAE@XZ 1003a0a1 f   PhysXCommon_32:PhysXCommon_32.dll
 0001:000390ab       ??1RadixSortBuffered@Cm@physx@@UAE@XZ 1003a0ab f   PhysXCommon_32:PhysXCommon_32.dll
 0001:000390b1       __imp_load_?Sort@RadixSortBuffered@Cm@physx@@QAEAAV123@PBIIW4RadixHint@23@@Z 1003a0b1 f   PhysXCommon_32:PhysXCommon_32.dll
 0001:000390bb       ?Sort@RadixSortBuffered@Cm@physx@@QAEAAV123@PBIIW4RadixHint@23@@Z 1003a0bb f   PhysXCommon_32:PhysXCommon_32.dll
 0001:000390c1       __imp_load_?readDword@physx@@YAI_NAAVPxInputStream@1@@Z 1003a0c1 f   PhysXCommon_32:PhysXCommon_32.dll
 0001:000390cb       ?readDword@physx@@YAI_NAAVPxInputStream@1@@Z 1003a0cb f   PhysXCommon_32:PhysXCommon_32.dll
 0001:000390d1       __imp_load_?ReadHeader@Gu@physx@@YA_NEEEEAAIAA_NAAVPxInputStream@2@@Z 1003a0d1 f   PhysXCommon_32:PhysXCommon_32.dll
 0001:000390db       ?ReadHeader@Gu@physx@@YA_NEEEEAAIAA_NAAVPxInputStream@2@@Z 1003a0db f   PhysXCommon_32:PhysXCommon_32.dll
 0001:000390e1       __imp_load_??0HeightField@Gu@physx@@QAE@PAVGuMeshFactory@2@@Z 1003a0e1 f   PhysXCommon_32:PhysXCommon_32.dll
 0001:000390eb       ??0HeightField@Gu@physx@@QAE@PAVGuMeshFactory@2@@Z 1003a0eb f   PhysXCommon_32:PhysXCommon_32.dll
 0001:000390f1       __imp_load_?loadFromDesc@HeightField@Gu@physx@@QAE_NABVPxHeightFieldDesc@3@@Z 1003a0f1 f   PhysXCommon_32:PhysXCommon_32.dll
 0001:000390fb       ?loadFromDesc@HeightField@Gu@physx@@QAE_NABVPxHeightFieldDesc@3@@Z 1003a0fb f   PhysXCommon_32:PhysXCommon_32.dll
 0001:00039101       __imp_load_?computeCellCoordinates@HeightField@Gu@physx@@QBEIMMAAM0@Z 1003a101 f   PhysXCommon_32:PhysXCommon_32.dll
 0001:0003910b       ?computeCellCoordinates@HeightField@Gu@physx@@QBEIMMAAM0@Z 1003a10b f   PhysXCommon_32:PhysXCommon_32.dll
 0001:00039111       __imp_load_?releaseMemory@HeightField@Gu@physx@@QAEXXZ 1003a111 f   PhysXCommon_32:PhysXCommon_32.dll
 0001:0003911b       ?releaseMemory@HeightField@Gu@physx@@QAEXXZ 1003a11b f   PhysXCommon_32:PhysXCommon_32.dll
 0001:00039121       __imp_load_??1HeightField@Gu@physx@@UAE@XZ 1003a121 f   PhysXCommon_32:PhysXCommon_32.dll
 0001:0003912b       ??1HeightField@Gu@physx@@UAE@XZ 1003a12b f   PhysXCommon_32:PhysXCommon_32.dll
 0001:00039131       __imp_load_??0NodeAllocator@Gu@physx@@QAE@XZ 1003a131 f   PhysXCommon_32:PhysXCommon_32.dll
 0001:0003913b       ??0NodeAllocator@Gu@physx@@QAE@XZ 1003a13b f   PhysXCommon_32:PhysXCommon_32.dll
 0001:00039141       __imp_load_??1NodeAllocator@Gu@physx@@QAE@XZ 1003a141 f   PhysXCommon_32:PhysXCommon_32.dll
 0001:0003914b       ??1NodeAllocator@Gu@physx@@QAE@XZ 1003a14b f   PhysXCommon_32:PhysXCommon_32.dll
 0001:00039151       __imp_load_?release@NodeAllocator@Gu@physx@@QAEXXZ 1003a151 f   PhysXCommon_32:PhysXCommon_32.dll
 0001:0003915b       ?release@NodeAllocator@Gu@physx@@QAEXXZ 1003a15b f   PhysXCommon_32:PhysXCommon_32.dll
 0001:00039161       __imp_load_?buildAABBTree@Gu@physx@@YA_NAAVAABBTreeBuildParams@12@AAVNodeAllocator@12@AAUBuildStats@12@AAPAI@Z 1003a161 f   PhysXCommon_32:PhysXCommon_32.dll
 0001:0003916b       ?buildAABBTree@Gu@physx@@YA_NAAVAABBTreeBuildParams@12@AAVNodeAllocator@12@AAUBuildStats@12@AAPAI@Z 1003a16b f   PhysXCommon_32:PhysXCommon_32.dll
 0001:00039171       __imp_load_?writeDword@physx@@YAXI_NAAVPxOutputStream@1@@Z 1003a171 f   PhysXCommon_32:PhysXCommon_32.dll
 0001:0003917b       ?writeDword@physx@@YAXI_NAAVPxOutputStream@1@@Z 1003a17b f   PhysXCommon_32:PhysXCommon_32.dll
 0001:00039181       __imp_load_?writeFloatBuffer@physx@@YAXPBMI_NAAVPxOutputStream@1@@Z 1003a181 f   PhysXCommon_32:PhysXCommon_32.dll
 0001:0003918b       ?writeFloatBuffer@physx@@YAXPBMI_NAAVPxOutputStream@1@@Z 1003a18b f   PhysXCommon_32:PhysXCommon_32.dll
 0001:00039191       __imp_load_?writeHeader@physx@@YA_NCCCCI_NAAVPxOutputStream@1@@Z 1003a191 f   PhysXCommon_32:PhysXCommon_32.dll
 0001:0003919b       ?writeHeader@physx@@YA_NCCCCI_NAAVPxOutputStream@1@@Z 1003a19b f   PhysXCommon_32:PhysXCommon_32.dll
 0001:000391a1       __imp_load_?writeWord@physx@@YAXG_NAAVPxOutputStream@1@@Z 1003a1a1 f   PhysXCommon_32:PhysXCommon_32.dll
 0001:000391ab       ?writeWord@physx@@YAXG_NAAVPxOutputStream@1@@Z 1003a1ab f   PhysXCommon_32:PhysXCommon_32.dll
 0001:000391b1       __imp_load_?writeFloat@physx@@YAXM_NAAVPxOutputStream@1@@Z 1003a1b1 f   PhysXCommon_32:PhysXCommon_32.dll
 0001:000391bb       ?writeFloat@physx@@YAXM_NAAVPxOutputStream@1@@Z 1003a1bb f   PhysXCommon_32:PhysXCommon_32.dll
 0001:000391c1       __imp_load_?validate@RTree@Gu@physx@@QAEXPAUCallbackRefit@123@@Z 1003a1c1 f   PhysXCommon_32:PhysXCommon_32.dll
 0001:000391cb       ?validate@RTree@Gu@physx@@QAEXPAUCallbackRefit@123@@Z 1003a1cb f   PhysXCommon_32:PhysXCommon_32.dll
 0001:000391d1       __imp_load_?computeBoundsAroundVertices@Gu@physx@@YAXAAVPxBounds3@2@IPIBVPxVec3@2@@Z 1003a1d1 f   PhysXCommon_32:PhysXCommon_32.dll
 0001:000391db       ?computeBoundsAroundVertices@Gu@physx@@YAXAAVPxBounds3@2@IPIBVPxVec3@2@@Z 1003a1db f   PhysXCommon_32:PhysXCommon_32.dll
 0001:000391e1       __imp_load_??0SourceMesh@Gu@physx@@QAE@XZ 1003a1e1 f   PhysXCommon_32:PhysXCommon_32.dll
 0001:000391eb       ??0SourceMesh@Gu@physx@@QAE@XZ 1003a1eb f   PhysXCommon_32:PhysXCommon_32.dll
 0001:000391f1       __imp_load_??1SourceMesh@Gu@physx@@QAE@XZ 1003a1f1 f   PhysXCommon_32:PhysXCommon_32.dll
 0001:000391fb       ??1SourceMesh@Gu@physx@@QAE@XZ 1003a1fb f   PhysXCommon_32:PhysXCommon_32.dll
 0001:00039201       __imp_load_??0BV4Tree@Gu@physx@@QAE@XZ 1003a201 f   PhysXCommon_32:PhysXCommon_32.dll
 0001:0003920b       ??0BV4Tree@Gu@physx@@QAE@XZ 1003a20b f   PhysXCommon_32:PhysXCommon_32.dll
 0001:00039211       __imp_load_??1BV4Tree@Gu@physx@@QAE@XZ 1003a211 f   PhysXCommon_32:PhysXCommon_32.dll
 0001:0003921b       ??1BV4Tree@Gu@physx@@QAE@XZ 1003a21b f   PhysXCommon_32:PhysXCommon_32.dll
 0001:00039221       __imp_load_??0BV32Tree@Gu@physx@@QAE@XZ 1003a221 f   PhysXCommon_32:PhysXCommon_32.dll
 0001:0003922b       ??0BV32Tree@Gu@physx@@QAE@XZ 1003a22b f   PhysXCommon_32:PhysXCommon_32.dll
 0001:00039231       __imp_load_??1BV32Tree@Gu@physx@@QAE@XZ 1003a231 f   PhysXCommon_32:PhysXCommon_32.dll
 0001:0003923b       ??1BV32Tree@Gu@physx@@QAE@XZ 1003a23b f   PhysXCommon_32:PhysXCommon_32.dll
 0001:00039241       __imp_load_?writeWordBuffer@physx@@YAXPBGI_NAAVPxOutputStream@1@@Z 1003a241 f   PhysXCommon_32:PhysXCommon_32.dll
 0001:0003924b       ?writeWordBuffer@physx@@YAXPBGI_NAAVPxOutputStream@1@@Z 1003a24b f   PhysXCommon_32:PhysXCommon_32.dll
 0001:00039251       __imp_load_?computeMaxIndex@physx@@YAIPBII@Z 1003a251 f   PhysXCommon_32:PhysXCommon_32.dll
 0001:0003925b       ?computeMaxIndex@physx@@YAIPBII@Z 1003a25b f   PhysXCommon_32:PhysXCommon_32.dll
 0001:00039261       __imp_load_?storeIndices@physx@@YAXIIPBIAAVPxOutputStream@1@_N@Z 1003a261 f   PhysXCommon_32:PhysXCommon_32.dll
 0001:0003926b       ?storeIndices@physx@@YAXIIPBIAAVPxOutputStream@1@_N@Z 1003a26b f   PhysXCommon_32:PhysXCommon_32.dll
 0001:00039271       __imp_load_?BuildBV4Ex@Gu@physx@@YA_NAAVBV4Tree@12@AAVSourceMesh@12@MI@Z 1003a271 f   PhysXCommon_32:PhysXCommon_32.dll
 0001:0003927b       ?BuildBV4Ex@Gu@physx@@YA_NAAVBV4Tree@12@AAVSourceMesh@12@MI@Z 1003a27b f   PhysXCommon_32:PhysXCommon_32.dll
 0001:00039281       __imp_load_?BuildBV32Ex@Gu@physx@@YA_NAAVBV32Tree@12@AAVSourceMesh@12@MI@Z 1003a281 f   PhysXCommon_32:PhysXCommon_32.dll
 0001:0003928b       ?BuildBV32Ex@Gu@physx@@YA_NAAVBV32Tree@12@AAVSourceMesh@12@MI@Z 1003a28b f   PhysXCommon_32:PhysXCommon_32.dll
 0001:00039291       __imp_load_?computeMaxIndex@physx@@YAGPBGI@Z 1003a291 f   PhysXCommon_32:PhysXCommon_32.dll
 0001:0003929b       ?computeMaxIndex@physx@@YAGPBGI@Z 1003a29b f   PhysXCommon_32:PhysXCommon_32.dll
 0001:000392a1       __imp_load_?WriteHeader@Gu@physx@@YA_NEEEEI_NAAVPxOutputStream@2@@Z 1003a2a1 f   PhysXCommon_32:PhysXCommon_32.dll
 0001:000392ab       ?WriteHeader@Gu@physx@@YA_NEEEEI_NAAVPxOutputStream@2@@Z 1003a2ab f   PhysXCommon_32:PhysXCommon_32.dll
 0001:000392b1       __imp_load_?StoreIndices@Gu@physx@@YAXGIPBGAAVPxOutputStream@2@_N@Z 1003a2b1 f   PhysXCommon_32:PhysXCommon_32.dll
 0001:000392bb       ?StoreIndices@Gu@physx@@YAXGIPBGAAVPxOutputStream@2@_N@Z 1003a2bb f   PhysXCommon_32:PhysXCommon_32.dll
 0001:000392c1       __imp_load_?CreateOffsets@BigConvexData@physx@@IAEXXZ 1003a2c1 f   PhysXCommon_32:PhysXCommon_32.dll
 0001:000392cb       ?CreateOffsets@BigConvexData@physx@@IAEXXZ 1003a2cb f   PhysXCommon_32:PhysXCommon_32.dll
 0001:000392d1       __imp_load_?computeOBBPoints@Gu@physx@@YAXPIAVPxVec3@2@ABV32@1111@Z 1003a2d1 f   PhysXCommon_32:PhysXCommon_32.dll
 0001:000392db       ?computeOBBPoints@Gu@physx@@YAXPIAVPxVec3@2@ABV32@1111@Z 1003a2db f   PhysXCommon_32:PhysXCommon_32.dll
 0001:000392e1       __imp_load_??0BigConvexData@physx@@QAE@XZ 1003a2e1 f   PhysXCommon_32:PhysXCommon_32.dll
 0001:000392eb       ??0BigConvexData@physx@@QAE@XZ 1003a2eb f   PhysXCommon_32:PhysXCommon_32.dll
 0001:000392f1       __imp_load_??1BigConvexData@physx@@QAE@XZ 1003a2f1 f   PhysXCommon_32:PhysXCommon_32.dll
 0001:000392fb       ??1BigConvexData@physx@@QAE@XZ 1003a2fb f   PhysXCommon_32:PhysXCommon_32.dll
 0001:00039301       __imp_load_?PxGetAssertHandler@physx@@YAAAVPxAssertHandler@1@XZ 1003a301 f   PhysXFoundation_32:PhysXFoundation_32.dll
 0001:0003930b       ?PxGetAssertHandler@physx@@YAAAVPxAssertHandler@1@XZ 1003a30b f   PhysXFoundation_32:PhysXFoundation_32.dll
 0001:00039311       __tailMerge_physxfoundation_32_dll 1003a311     PhysXFoundation_32:PhysXFoundation_32.dll
 0001:00039322       __imp_load__PxGetFoundation 1003a322 f   PhysXFoundation_32:PhysXFoundation_32.dll
 0001:0003932c       _PxGetFoundation           1003a32c f   PhysXFoundation_32:PhysXFoundation_32.dll
 0001:00039332       __imp_load_?getAllocator@shdfnd@physx@@YAAAVPxAllocatorCallback@2@XZ 1003a332 f   PhysXFoundation_32:PhysXFoundation_32.dll
 0001:0003933c       ?getAllocator@shdfnd@physx@@YAAAVPxAllocatorCallback@2@XZ 1003a33c f   PhysXFoundation_32:PhysXFoundation_32.dll
 0001:00039342       __imp_load_??0NamedAllocator@shdfnd@physx@@QAE@PBD@Z 1003a342 f   PhysXFoundation_32:PhysXFoundation_32.dll
 0001:0003934c       ??0NamedAllocator@shdfnd@physx@@QAE@PBD@Z 1003a34c f   PhysXFoundation_32:PhysXFoundation_32.dll
 0001:00039352       __imp_load_?getInstance@Foundation@shdfnd@physx@@SAAAV123@XZ 1003a352 f   PhysXFoundation_32:PhysXFoundation_32.dll
 0001:0003935c       ?getInstance@Foundation@shdfnd@physx@@SAAAV123@XZ 1003a35c f   PhysXFoundation_32:PhysXFoundation_32.dll
 0001:00039362       __imp_load_?error@Foundation@shdfnd@physx@@QAAXW4Enum@PxErrorCode@3@PBDH1ZZ 1003a362 f   PhysXFoundation_32:PhysXFoundation_32.dll
 0001:0003936c       ?error@Foundation@shdfnd@physx@@QAAXW4Enum@PxErrorCode@3@PBDH1ZZ 1003a36c f   PhysXFoundation_32:PhysXFoundation_32.dll
 0001:00039372       __imp_load_?allocate@NamedAllocator@shdfnd@physx@@QAEPAXIPBDH@Z 1003a372 f   PhysXFoundation_32:PhysXFoundation_32.dll
 0001:0003937c       ?allocate@NamedAllocator@shdfnd@physx@@QAEPAXIPBDH@Z 1003a37c f   PhysXFoundation_32:PhysXFoundation_32.dll
 0001:00039382       __imp_load_?deallocate@NamedAllocator@shdfnd@physx@@QAEXPAX@Z 1003a382 f   PhysXFoundation_32:PhysXFoundation_32.dll
 0001:0003938c       ?deallocate@NamedAllocator@shdfnd@physx@@QAEXPAX@Z 1003a38c f   PhysXFoundation_32:PhysXFoundation_32.dll
 0001:00039392       __imp_load_?incRefCount@Foundation@shdfnd@physx@@SAXXZ 1003a392 f   PhysXFoundation_32:PhysXFoundation_32.dll
 0001:0003939c       ?incRefCount@Foundation@shdfnd@physx@@SAXXZ 1003a39c f   PhysXFoundation_32:PhysXFoundation_32.dll
 0001:000393a2       __imp_load_?decRefCount@Foundation@shdfnd@physx@@SAXXZ 1003a3a2 f   PhysXFoundation_32:PhysXFoundation_32.dll
 0001:000393ac       ?decRefCount@Foundation@shdfnd@physx@@SAXXZ 1003a3ac f   PhysXFoundation_32:PhysXFoundation_32.dll
 0001:000393b2       __imp_load_??0FPUGuard@shdfnd@physx@@QAE@XZ 1003a3b2 f   PhysXFoundation_32:PhysXFoundation_32.dll
 0001:000393bc       ??0FPUGuard@shdfnd@physx@@QAE@XZ 1003a3bc f   PhysXFoundation_32:PhysXFoundation_32.dll
 0001:000393c2       __imp_load_??1FPUGuard@shdfnd@physx@@QAE@XZ 1003a3c2 f   PhysXFoundation_32:PhysXFoundation_32.dll
 0001:000393cc       ??1FPUGuard@shdfnd@physx@@QAE@XZ 1003a3cc f   PhysXFoundation_32:PhysXFoundation_32.dll
 0001:000393d2       __imp_load_??1NamedAllocator@shdfnd@physx@@QAE@XZ 1003a3d2 f   PhysXFoundation_32:PhysXFoundation_32.dll
 0001:000393dc       ??1NamedAllocator@shdfnd@physx@@QAE@XZ 1003a3dc f   PhysXFoundation_32:PhysXFoundation_32.dll
 0001:000393e2       __imp_load_??0NamedAllocator@shdfnd@physx@@QAE@ABV012@@Z 1003a3e2 f   PhysXFoundation_32:PhysXFoundation_32.dll
 0001:000393ec       ??0NamedAllocator@shdfnd@physx@@QAE@ABV012@@Z 1003a3ec f   PhysXFoundation_32:PhysXFoundation_32.dll
 0001:000393f2       __imp_load_?allocate@TempAllocator@shdfnd@physx@@QAEPAXIPBDH@Z 1003a3f2 f   PhysXFoundation_32:PhysXFoundation_32.dll
 0001:000393fc       ?allocate@TempAllocator@shdfnd@physx@@QAEPAXIPBDH@Z 1003a3fc f   PhysXFoundation_32:PhysXFoundation_32.dll
 0001:00039402       __imp_load_?deallocate@TempAllocator@shdfnd@physx@@QAEXPAX@Z 1003a402 f   PhysXFoundation_32:PhysXFoundation_32.dll
 0001:0003940c       ?deallocate@TempAllocator@shdfnd@physx@@QAEXPAX@Z 1003a40c f   PhysXFoundation_32:PhysXFoundation_32.dll
 0001:00039412       __imp_load_?PxDiagonalize@physx@@YA?AVPxVec3@1@ABVPxMat33@1@AAVPxQuat@1@@Z 1003a412 f   PhysXFoundation_32:PhysXFoundation_32.dll
 0001:0003941c       ?PxDiagonalize@physx@@YA?AVPxVec3@1@ABVPxMat33@1@AAVPxQuat@1@@Z 1003a41c f   PhysXFoundation_32:PhysXFoundation_32.dll
 0001:00039422       _LoadLibraryA@4            1003a422 f   kernel32:KERNEL32.dll
 0001:00039428       ??$PFromRva@PAP6GHXZ@@YGPAP6GHXZK@Z 1003a428 f i Delayimp:delayhlp.obj
 0001:0003943a       ??$PFromRva@PAPAUHINSTANCE__@@@@YGPAPAUHINSTANCE__@@K@Z 1003a43a f i Delayimp:delayhlp.obj
 0001:0003944c       ??$PFromRva@PAU_IMAGE_IMPORT_BY_NAME@@@@YGPAU_IMAGE_IMPORT_BY_NAME@@K@Z 1003a44c f i Delayimp:delayhlp.obj
 0001:0003945e       ??$PFromRva@PAU_IMAGE_THUNK_DATA32@@@@YGPAU_IMAGE_THUNK_DATA32@@K@Z 1003a45e f i Delayimp:delayhlp.obj
 0001:00039470       ??$PFromRva@PBD@@YGPBDK@Z  1003a470 f i Delayimp:delayhlp.obj
 0001:00039482       ??$PFromRva@PBUImgDelayDescr@@@@YGPBUImgDelayDescr@@K@Z 1003a482 f i Delayimp:delayhlp.obj
 0001:00039494       ??$PFromRva@PBU_IMAGE_THUNK_DATA32@@@@YGPBU_IMAGE_THUNK_DATA32@@K@Z 1003a494 f i Delayimp:delayhlp.obj
 0001:000394a6       ?CountOfImports@@YGIPBU_IMAGE_THUNK_DATA32@@@Z 1003a4a6 f i Delayimp:delayhlp.obj
 0001:000394c1       ?DloadAcquireSectionWriteAccess@@YGXXZ 1003a4c1 f i Delayimp:delayhlp.obj
 0001:000394f4       ?DloadGetSRWLockFunctionPointers@@YGEXZ 1003a4f4 f i Delayimp:delayhlp.obj
 0001:00039567       ?DloadLock@@YGXXZ          1003a567 f i Delayimp:delayhlp.obj
 0001:000395a6       ?DloadMakePermanentImageCommit@@YGXPAXK@Z 1003a5a6 f i Delayimp:delayhlp.obj
 0001:00039615       ?DloadObtainSection@@YGPAXPAK0@Z 1003a615 f i Delayimp:delayhlp.obj
 0001:00039690       ?DloadProtectSection@@YGXKPAK@Z 1003a690 f i Delayimp:delayhlp.obj
 0001:000396fe       ?DloadReleaseSectionWriteAccess@@YGXXZ 1003a6fe f i Delayimp:delayhlp.obj
 0001:00039734       ?DloadUnlock@@YGXXZ        1003a734 f i Delayimp:delayhlp.obj
 0001:00039775       ?IndexFromPImgThunkData@@YGIPBU_IMAGE_THUNK_DATA32@@0@Z 1003a775 f i Delayimp:delayhlp.obj
 0001:000398d5       _HRESULT_FROM_WIN32@4      1003a8d5 f i Delayimp:delayhlp.obj
 0001:000398ed       _ReadAcquire@4             1003a8ed f i Delayimp:delayhlp.obj
 0001:000398fb       _ReadPointerAcquire@4      1003a8fb f i Delayimp:delayhlp.obj
 0001:00039909       _WritePointerRelease@8     1003a909 f i Delayimp:delayhlp.obj
 0001:0003991a       _WriteRelease@8            1003a91a f i Delayimp:delayhlp.obj
 0001:0003992b       __InlineInterlockedCompareExchangePointer@12 1003a92b f i Delayimp:delayhlp.obj
 0001:00039941       ___FUnloadDelayLoadedDLL2@4 1003a941 f   Delayimp:delayhlp.obj
 0001:000399c5       ___HrLoadAllImportsForDll@4 1003a9c5 f   Delayimp:delayhlp.obj
 0001:00039a26       ___delayLoadHelper2@8      1003aa26 f   Delayimp:delayhlp.obj
 0001:00039ca0       ??3@YAXPAXI@Z              1003aca0 f   LIBCMTD:delete_scalar_size.obj
 0001:00039cc0       ??_V@YAXPAXI@Z             1003acc0 f   LIBCMTD:delete_array_size.obj
 0001:00039ce0       __CRT_RTC_INIT             1003ace0 f   LIBCMTD:init.obj
 0001:00039cf0       __CRT_RTC_INITW            1003acf0 f   LIBCMTD:init.obj
 0001:00039d00       __RTC_InitBase             1003ad00 f   LIBCMTD:init.obj
 0001:00039d30       __RTC_Shutdown             1003ad30 f   LIBCMTD:init.obj
 0001:00039d50       ??1type_info@@UAE@XZ       1003ad50 f   LIBCMTD:std_type_info_static.obj
 0001:00039d70       ??_Gtype_info@@UAEPAXI@Z   1003ad70 f i LIBCMTD:std_type_info_static.obj
 0001:00039d70       ??_Etype_info@@UAEPAXI@Z   1003ad70 f i LIBCMTD:std_type_info_static.obj
 0001:00039da0       ?__scrt_initialize_type_info@@YAXXZ 1003ada0 f   LIBCMTD:tncleanup.obj
 0001:00039db0       ?__scrt_uninitialize_type_info@@YAXXZ 1003adb0 f   LIBCMTD:tncleanup.obj
 0001:00039dd0       __alloca_probe_16          1003add0 f   LIBCMTD:alloca16.obj
 0001:00039de6       __alloca_probe_8           1003ade6     LIBCMTD:alloca16.obj
 0001:00039e00       ??3@YAXPAX@Z               1003ae00 f   LIBCMTD:delete_scalar.obj
 0001:00039e20       ??_V@YAXPAX@Z              1003ae20 f   LIBCMTD:delete_array.obj
 0001:00039e40       __alloca_probe             1003ae40 f   LIBCMTD:chkstk.obj
 0001:00039e40       __chkstk                   1003ae40 f   LIBCMTD:chkstk.obj
 0001:00039e70       __ftoui3                   1003ae70 f   LIBCMTD:ftol3.obj
 0001:00039ec0       __ftoul3                   1003aec0 f   LIBCMTD:ftol3.obj
 0001:00039f40       __ftol3                    1003af40 f   LIBCMTD:ftol3.obj
 0001:00039fb0       __dtoui3                   1003afb0 f   LIBCMTD:ftol3.obj
 0001:0003a030       __dtoul3                   1003b030 f   LIBCMTD:ftol3.obj
 0001:0003a0e0       __dtol3                    1003b0e0 f   LIBCMTD:ftol3.obj
 0001:0003a190       __ultod3                   1003b190 f   LIBCMTD:ftol3.obj
 0001:0003a1f0       __ltod3                    1003b1f0 f   LIBCMTD:ftol3.obj
 0001:0003a710       __CRT_INIT@12              1003b710 f   LIBCMTD:dll_dllmain.obj
 0001:0003a730       __DllMainCRTStartup@12     1003b730 f   LIBCMTD:dll_dllmain.obj
 0001:0003a760       @_guard_check_icall_nop@4  1003b760 f i LIBCMTD:guard_support.obj
 0001:0003a770       _ReadNoFence               1003b770 f i LIBCMTD:guard_support.obj
 0001:0003a790       _ReadPointerNoFence        1003b790 f i LIBCMTD:guard_support.obj
 0001:0003a7b0       ___castguard_check_failure_debugbreak 1003b7b0 f i LIBCMTD:guard_support.obj
 0001:0003a7d0       ___castguard_check_failure_fastfail 1003b7d0 f i LIBCMTD:guard_support.obj
 0001:0003a7f0       ___castguard_check_failure_nop 1003b7f0 f i LIBCMTD:guard_support.obj
 0001:0003a800       ___castguard_check_failure_os_handled 1003b800 f i LIBCMTD:guard_support.obj
 0001:0003a880       ___castguard_slow_path_check_debugbreak 1003b880 f i LIBCMTD:guard_support.obj
 0001:0003a8b0       ___castguard_slow_path_check_fastfail 1003b8b0 f i LIBCMTD:guard_support.obj
 0001:0003a8f0       ___castguard_slow_path_check_nop 1003b8f0 f i LIBCMTD:guard_support.obj
 0001:0003a900       ___castguard_slow_path_check_os_handled 1003b900 f i LIBCMTD:guard_support.obj
 0001:0003a9a0       __guard_icall_checks_enforced 1003b9a0 f i LIBCMTD:guard_support.obj
 0001:0003a9d0       ?_RTC_GetErrorFunc@@YAP6AHHPBDH00ZZPBX@Z 1003b9d0 f   LIBCMTD:userapi.obj
 0001:0003a9e0       ?_RTC_GetErrorFuncW@@YAP6AHHPB_WH00ZZPBX@Z 1003b9e0 f   LIBCMTD:userapi.obj
 0001:0003a9f0       __RTC_GetErrDesc           1003b9f0 f   LIBCMTD:userapi.obj
 0001:0003aa10       __RTC_NumErrors            1003ba10 f   LIBCMTD:userapi.obj
 0001:0003aa20       __RTC_SetErrorFunc         1003ba20 f   LIBCMTD:userapi.obj
 0001:0003aa40       __RTC_SetErrorFuncW        1003ba40 f   LIBCMTD:userapi.obj
 0001:0003aa60       __RTC_SetErrorType         1003ba60 f   LIBCMTD:userapi.obj
 0001:0003aa90       ___isa_available_init      1003ba90 f   LIBCMTD:cpu_disp.obj
 0001:0003ae40       ___security_init_cookie    1003be40 f   LIBCMTD:gs_support.obj
 0001:0003aec0       _DllMain@12                1003bec0 f   LIBCMTD:dll_dllmain_stub.obj
 0001:0003aed0       ___local_stdio_printf_options 1003bed0 f i LIBCMTD:default_local_stdio_options.obj
 0001:0003aee0       ___local_stdio_scanf_options 1003bee0 f i LIBCMTD:default_local_stdio_options.obj
 0001:0003aef0       ___scrt_initialize_default_local_stdio_options 1003bef0 f   LIBCMTD:default_local_stdio_options.obj
 0001:0003af30       ?configure_argv@__scrt_narrow_argv_policy@@SAHXZ 1003bf30 f i LIBCMTD:utility.obj
 0001:0003afe0       ?initialize_environment@__scrt_narrow_environment_policy@@SAHXZ 1003bfe0 f i LIBCMTD:utility.obj
 0001:0003b060       _NtCurrentTeb              1003c060 f i LIBCMTD:utility.obj
 0001:0003b070       ___scrt_acquire_startup_lock 1003c070 f   LIBCMTD:utility.obj
 0001:0003b0c0       ___scrt_dllmain_after_initialize_c 1003c0c0 f   LIBCMTD:utility.obj
 0001:0003b0f0       ___scrt_dllmain_before_initialize_c 1003c0f0 f   LIBCMTD:utility.obj
 0001:0003b110       ___scrt_dllmain_crt_thread_attach 1003c110 f   LIBCMTD:utility.obj
 0001:0003b140       ___scrt_dllmain_crt_thread_detach 1003c140 f   LIBCMTD:utility.obj
 0001:0003b160       ___scrt_dllmain_exception_filter 1003c160 f   LIBCMTD:utility.obj
 0001:0003b1b0       ___scrt_dllmain_uninitialize_c 1003c1b0 f   LIBCMTD:utility.obj
 0001:0003b1e0       ___scrt_dllmain_uninitialize_critical 1003c1e0 f   LIBCMTD:utility.obj
 0001:0003b200       ___scrt_initialize_crt     1003c200 f   LIBCMTD:utility.obj
 0001:0003b250       ___scrt_initialize_onexit_tables 1003c250 f   LIBCMTD:utility.obj
 0001:0003b330       ___scrt_is_nonwritable_in_current_image 1003c330 f   LIBCMTD:utility.obj
 0001:0003b460       ___scrt_release_startup_lock 1003c460 f   LIBCMTD:utility.obj
 0001:0003b490       ___scrt_uninitialize_crt   1003c490 f   LIBCMTD:utility.obj
 0001:0003b4d0       __onexit                   1003c4d0 f   LIBCMTD:utility.obj
 0001:0003b540       _at_quick_exit             1003c540 f   LIBCMTD:utility.obj
 0001:0003b580       _atexit                    1003c580 f   LIBCMTD:utility.obj
 0001:0003b5b0       ___scrt_get_dyn_tls_init_callback 1003c5b0 f   LIBCMTD:dyn_tls_init.obj
 0001:0003b5c0       ___scrt_fastfail           1003c5c0 f   LIBCMTD:utility_desktop.obj
 0001:0003b700       ___scrt_get_show_window_mode 1003c700 f   LIBCMTD:utility_desktop.obj
 0001:0003b740       ___scrt_initialize_mta     1003c740 f   LIBCMTD:utility_desktop.obj
 0001:0003b750       ___scrt_initialize_winrt   1003c750 f   LIBCMTD:utility_desktop.obj
 0001:0003b760       ___scrt_is_managed_app     1003c760 f   LIBCMTD:utility_desktop.obj
 0001:0003b7f0       ___scrt_set_unhandled_exception_filter 1003c7f0 f   LIBCMTD:utility_desktop.obj
 0001:0003b800       ___scrt_stub_for_initialize_mta 1003c800 f   LIBCMTD:utility_desktop.obj
 0001:0003b800       ___scrt_exe_initialize_mta 1003c800 f   LIBCMTD:utility_desktop.obj
 0001:0003b810       ___scrt_unhandled_exception_filter@4 1003c810 f   LIBCMTD:utility_desktop.obj
 0001:0003b890       __crt_debugger_hook        1003c890 f   LIBCMTD:utility_desktop.obj
 0001:0003b8a0       __RTC_Initialize           1003c8a0 f   LIBCMTD:initsect.obj
 0001:0003b8d0       __RTC_Terminate            1003c8d0 f   LIBCMTD:initsect.obj
 0001:0003b990       ?_RTC_AllocaFailure@@YAXPAXPAU_RTC_ALLOCA_NODE@@H@Z 1003c990 f   LIBCMTD:error.obj
 0001:0003ba80       ?_RTC_Failure@@YAXPAXH@Z   1003ca80 f   LIBCMTD:error.obj
 0001:0003bad0       ?_RTC_StackFailure@@YAXPAXPBD@Z 1003cad0 f   LIBCMTD:error.obj
 0001:0003be90       __RTC_UninitUse            1003ce90 f   LIBCMTD:error.obj
 0001:0003bf40       __vsprintf_s_l             1003cf40 f i LIBCMTD:error.obj
 0001:0003bf70       _sprintf_s                 1003cf70 f i LIBCMTD:error.obj
 0001:0003bf90       @__security_check_cookie@4 1003cf90 f   LIBCMTD:secchk.obj
 0001:0003bfa0       __get_startup_argv_mode    1003cfa0 f   LIBCMTD:argv_mode.obj
 0001:0003bfb0       ___scrt_is_ucrt_dll_in_use 1003cfb0 f   LIBCMTD:ucrt_detection.obj
 0001:0003c460       ?_RTC_GetSrcLine@@YAHPAEPA_WKPAH1K@Z 1003d460 f   LIBCMTD:pdblkup.obj
 0001:0003c7e0       __except_handler4_noexcept 1003d7e0 f   LIBCMTD:chandler4_noexcept.obj
 0001:0003c840       ___raise_securityfailure   1003d840 f   LIBCMTD:gs_report.obj
 0001:0003c870       ___report_gsfailure        1003d870 f   LIBCMTD:gs_report.obj
 0001:0003c980       ___report_rangecheckfailure 1003d980 f   LIBCMTD:gs_report.obj
 0001:0003c990       ___report_securityfailure  1003d990 f   LIBCMTD:gs_report.obj
 0001:0003ca70       ___report_securityfailureEx 1003da70 f   LIBCMTD:gs_report.obj
 0001:0003cba0       ??$__crt_interlocked_exchange_pointer@$$A6AXXZP6AXXZ@@YAP6AXXZPDS6AXXZQ6AXXZ@Z 1003dba0 f i libvcruntimed:purevirt.obj
 0001:0003cbb0       ??$__crt_interlocked_read_pointer@$$A6AXXZ@@YAP6AXXZPDS6AXXZ@Z 1003dbb0 f i libvcruntimed:purevirt.obj
 0001:0003cbd0       ?__crt_interlocked_read_32@@YAHPDH@Z 1003dbd0 f i libvcruntimed:purevirt.obj
 0001:0003cbf0       __get_purecall_handler     1003dbf0 f   libvcruntimed:purevirt.obj
 0001:0003cc10       __purecall                 1003dc10 f   libvcruntimed:purevirt.obj
 0001:0003cc40       __set_purecall_handler     1003dc40 f   libvcruntimed:purevirt.obj
 0001:0003cc60       _memset                    1003dc60 f   libvcruntimed:memset.obj
 0001:0003cde0       ??$?RD@__crt_internal_free_policy@@QBEXQBD@Z 1003dde0 f i libvcruntimed:std_type_info.obj
 0001:0003ce00       ??$?RX@__crt_internal_free_policy@@QBEXQBX@Z 1003de00 f i libvcruntimed:std_type_info.obj
 0001:0003ce20       ??$__crt_interlocked_compare_exchange_pointer@$$CBDPAD$$T@@YAPBDPDSBDQAD$$T@Z 1003de20 f i libvcruntimed:std_type_info.obj
 0001:0003ce40       ??$__crt_interlocked_read_pointer@$$CBD@@YAPBDPDSBD@Z 1003de40 f i libvcruntimed:std_type_info.obj
 0001:0003ce60       ??0?$__crt_unique_heap_ptr@DU__crt_internal_free_policy@@@@QAE@QAD@Z 1003de60 f i libvcruntimed:std_type_info.obj
 0001:0003ce80       ??0?$__crt_unique_heap_ptr@XU__crt_internal_free_policy@@@@QAE@QAX@Z 1003de80 f i libvcruntimed:std_type_info.obj
 0001:0003cea0       ??1?$__crt_unique_heap_ptr@DU__crt_internal_free_policy@@@@QAE@XZ 1003dea0 f i libvcruntimed:std_type_info.obj
 0001:0003cec0       ??1?$__crt_unique_heap_ptr@XU__crt_internal_free_policy@@@@QAE@XZ 1003dec0 f i libvcruntimed:std_type_info.obj
 0001:0003cee0       ??B?$__crt_unique_heap_ptr@DU__crt_internal_free_policy@@@@QBE_NXZ 1003dee0 f i libvcruntimed:std_type_info.obj
 0001:0003cf00       ??B?$__crt_unique_heap_ptr@XU__crt_internal_free_policy@@@@QBE_NXZ 1003df00 f i libvcruntimed:std_type_info.obj
 0001:0003cf90       ?detach@?$__crt_unique_heap_ptr@XU__crt_internal_free_policy@@@@QAEPAXXZ 1003df90 f i libvcruntimed:std_type_info.obj
 0001:0003cfc0       ?get@?$__crt_unique_heap_ptr@DU__crt_internal_free_policy@@@@QBEPADXZ 1003dfc0 f i libvcruntimed:std_type_info.obj
 0001:0003cfd0       ?get@?$__crt_unique_heap_ptr@XU__crt_internal_free_policy@@@@QBEPAXXZ 1003dfd0 f i libvcruntimed:std_type_info.obj
 0001:0003cfe0       ?is_valid@?$__crt_unique_heap_ptr@DU__crt_internal_free_policy@@@@QBE_NXZ 1003dfe0 f i libvcruntimed:std_type_info.obj
 0001:0003d010       ?is_valid@?$__crt_unique_heap_ptr@XU__crt_internal_free_policy@@@@QBE_NXZ 1003e010 f i libvcruntimed:std_type_info.obj
 0001:0003d040       ?release@?$__crt_unique_heap_ptr@DU__crt_internal_free_policy@@@@QAEXXZ 1003e040 f i libvcruntimed:std_type_info.obj
 0001:0003d070       ?release@?$__crt_unique_heap_ptr@XU__crt_internal_free_policy@@@@QAEXXZ 1003e070 f i libvcruntimed:std_type_info.obj
 0001:0003d0a0       ___std_type_info_compare   1003e0a0 f   libvcruntimed:std_type_info.obj
 0001:0003d0d0       ___std_type_info_destroy_list 1003e0d0 f   libvcruntimed:std_type_info.obj
 0001:0003d110       ___std_type_info_hash      1003e110 f   libvcruntimed:std_type_info.obj
 0001:0003d170       ___std_type_info_name      1003e170 f   libvcruntimed:std_type_info.obj
 0001:0003d350       _memcpy                    1003e350 f   libvcruntimed:memcpy.obj
 0001:0003d8d0       _strstr                    1003e8d0 f   libvcruntimed:strstr.obj
 0001:0003dba0       __except_handler4          1003eba0 f   libvcruntimed:chandler4.obj
 0001:0003dd90       ___vcrt_initialize         1003ed90 f   libvcruntimed:initialization.obj
 0001:0003ddd0       ___vcrt_thread_attach      1003edd0 f   libvcruntimed:initialization.obj
 0001:0003ddf0       ___vcrt_thread_detach      1003edf0 f   libvcruntimed:initialization.obj
 0001:0003de10       ___vcrt_uninitialize       1003ee10 f   libvcruntimed:initialization.obj
 0001:0003de30       ___vcrt_uninitialize_critical 1003ee30 f   libvcruntimed:initialization.obj
 0001:0003de50       ___DestructExceptionObject 1003ee50 f   libvcruntimed:ehhelpers.obj
 0001:0003df70       ?_CallMemberFunction0@@YGXQAX0@Z 1003ef70 f i libvcruntimed:ehhelpers.obj
 0001:0003e010       ?raw_name@type_info@@QBEPBDXZ 1003f010 f i libvcruntimed:ehhelpers.obj
 0001:0003e030       __IsExceptionObjectToBeDestroyed 1003f030 f   libvcruntimed:ehhelpers.obj
 0001:0003e070       __SetWinRTOutOfMemoryExceptionCallback 1003f070 f   libvcruntimed:ehhelpers.obj
 0001:0003e080       ___AdjustPointer           1003f080 f   libvcruntimed:ehhelpers.obj
 0001:0003e0d0       ___FrameUnwindFilter       1003f0d0 f   libvcruntimed:ehhelpers.obj
 0001:0003e160       ___GetPlatformExceptionInfo 1003f160 f   libvcruntimed:ehhelpers.obj
 0001:0003e1e0       ___current_exception       1003f1e0 f   libvcruntimed:ehhelpers.obj
 0001:0003e1f0       ___current_exception_context 1003f1f0 f   libvcruntimed:ehhelpers.obj
 0001:0003e200       ___processing_throw        1003f200 f   libvcruntimed:ehhelpers.obj
 0001:0003e210       ___std_terminate           1003f210 f   libvcruntimed:ehhelpers.obj
 0001:0003e220       __is_exception_typeof      1003f220 f   libvcruntimed:ehhelpers.obj
 0001:0003e300       ___vcrt_GetModuleFileNameW 1003f300 f   libvcruntimed:winapi_thunks.obj
 0001:0003e320       ___vcrt_GetModuleHandleW   1003f320 f   libvcruntimed:winapi_thunks.obj
 0001:0003e330       ___vcrt_LoadLibraryExW     1003f330 f   libvcruntimed:winapi_thunks.obj
 0001:0003e350       ??$?0$00@DName@@QAE@PBDU?$StringLifeSelector@$00@@@Z 1003f350 f i libvcruntimed:undname.obj
 0001:0003e3a0       ??$?0$00@pcharNode@@QAE@PBDHU?$StringLifeSelector@$00@@@Z 1003f3a0 f i libvcruntimed:undname.obj
 0001:0003e3e0       ??$?0$01@DName@@QAE@PBDU?$StringLifeSelector@$01@@@Z 1003f3e0 f i libvcruntimed:undname.obj
 0001:0003e430       ??$?0$01@pcharNode@@QAE@PBDHU?$StringLifeSelector@$01@@@Z 1003f430 f i libvcruntimed:undname.obj
 0001:0003e4b0       ??$?0$0A@@DName@@QAE@PBDU?$StringLifeSelector@$0A@@@@Z 1003f4b0 f i libvcruntimed:undname.obj
 0001:0003e500       ??$?0$0A@@pcharNode@@QAE@PBDHU?$StringLifeSelector@$0A@@@@Z 1003f500 f i libvcruntimed:undname.obj
 0001:0003e580       ??$?0_K$0A@@?$optional@_K@std@@QAE@$$QA_K@Z 1003f580 f i libvcruntimed:undname.obj
 0001:0003e5c0       ??$?0_K@?$_Optional_construct_base@_K@std@@QAE@Uin_place_t@1@$$QA_K@Z 1003f5c0 f i libvcruntimed:undname.obj
 0001:0003e5f0       ??$?0_K@?$_Optional_destruct_base@_K$00@std@@QAE@Uin_place_t@1@$$QA_K@Z 1003f5f0 f i libvcruntimed:undname.obj
 0001:0003e620       ??$append@VDNameNode@@@DName@@AAEXPBVDNameNode@@@Z 1003f620 f i libvcruntimed:undname.obj
 0001:0003e6b0       ??$append@VDNameStatusNode@@@DName@@AAEXPBVDNameStatusNode@@@Z 1003f6b0 f i libvcruntimed:undname.obj
 0001:0003e740       ??$append@VcharNode@@@DName@@AAEXPBVcharNode@@@Z 1003f740 f i libvcruntimed:undname.obj
 0001:0003e7d0       ??$append@VpDNameNode@@@DName@@AAEXPBVpDNameNode@@@Z 1003f7d0 f i libvcruntimed:undname.obj
 0001:0003e860       ??$append@VpcharNode@@@DName@@AAEXPBVpcharNode@@@Z 1003f860 f i libvcruntimed:undname.obj
 0001:0003e8f0       ??$doPchar@$00@DName@@AAEXPBDH@Z 1003f8f0 f i libvcruntimed:undname.obj
 0001:0003ea00       ??$doPchar@$01@DName@@AAEXPBDH@Z 1003fa00 f i libvcruntimed:undname.obj
 0001:0003eb10       ??$doPchar@$0A@@DName@@AAEXPBDH@Z 1003fb10 f i libvcruntimed:undname.obj
 0001:0003ec20       ??$forward@_K@std@@YA$$QA_KAA_K@Z 1003fc20 f i libvcruntimed:undname.obj
 0001:0003ec30       ??$size@D$04@std@@YAIAAY04$$CBD@Z 1003fc30 f i libvcruntimed:undname.obj
 0001:0003ec40       ??$size@D$0EB@@std@@YAIAAY0EB@$$CBD@Z 1003fc40 f i libvcruntimed:undname.obj
 0001:0003ec50       ??0?$_Optional_construct_base@_K@std@@QAE@XZ 1003fc50 f i libvcruntimed:undname.obj
 0001:0003ec70       ??0?$_Optional_destruct_base@_K$00@std@@QAE@XZ 1003fc70 f i libvcruntimed:undname.obj
 0001:0003ec90       ??0?$optional@_K@std@@QAE@XZ 1003fc90 f i libvcruntimed:undname.obj
 0001:0003ecb0       ??0Block@_HeapManager@@QAE@XZ 1003fcb0 f i libvcruntimed:undname.obj
 0001:0003ecd0       ??0DName@@QAE@AAPBDD@Z     1003fcd0 f   libvcruntimed:undname.obj
 0001:0003ee40       ??0DName@@QAE@ABUStringLiteral@@@Z 1003fe40 f   libvcruntimed:undname.obj
 0001:0003ee90       ??0DName@@QAE@ABV0@@Z      1003fe90 f i libvcruntimed:undname.obj
 0001:0003eec0       ??0DName@@QAE@D@Z          1003fec0 f   libvcruntimed:undname.obj
 0001:0003eef0       ??0DName@@QAE@PAV0@@Z      1003fef0 f   libvcruntimed:undname.obj
 0001:0003efa0       ??0DName@@QAE@W4DNameStatus@@@Z 1003ffa0 f   libvcruntimed:undname.obj
 0001:0003f040       ??0DName@@QAE@XZ           10040040 f i libvcruntimed:undname.obj
 0001:0003f070       ??0DName@@QAE@_J@Z         10040070 f   libvcruntimed:undname.obj
 0001:0003f160       ??0DName@@QAE@_K@Z         10040160 f   libvcruntimed:undname.obj
 0001:0003f210       ??0DNameNode@@IAE@XZ       10040210 f i libvcruntimed:undname.obj
 0001:0003f230       ??0Replicator@@QAE@XZ      10040230 f i libvcruntimed:undname.obj
 0001:0003f270       ??0UnDecorator@@QAE@PBDP6APADJ@ZK@Z 10040270 f i libvcruntimed:undname.obj
 0001:0003f2f0       ??0_Nontrivial_dummy_type@std@@QAE@XZ 100402f0 f i libvcruntimed:undname.obj
 0001:0003f300       ??0charNode@@QAE@D@Z       10040300 f i libvcruntimed:undname.obj
 0001:0003f330       ??0pDNameNode@@QAE@PAVDName@@@Z 10040330 f   libvcruntimed:undname.obj
 0001:0003f390       ??0pairNode@@QAE@PBVDNameNode@@0@Z 10040390 f i libvcruntimed:undname.obj
 0001:0003f3f0       ??2@YAPAXIAAV_HeapManager@@H@Z 100403f0 f   libvcruntimed:undname.obj
 0001:0003f430       ??4DName@@QAEAAV0@ABUStringLiteral@@@Z 10040430 f   libvcruntimed:undname.obj
 0001:0003f470       ??4DName@@QAEAAV0@ABV0@@Z  10040470 f   libvcruntimed:undname.obj
 0001:0003f4a0       ??4DName@@QAEAAV0@D@Z      100404a0 f i libvcruntimed:undname.obj
 0001:0003f4d0       ??4DName@@QAEAAV0@PAV0@@Z  100404d0 f   libvcruntimed:undname.obj
 0001:0003f570       ??4DName@@QAEAAV0@W4DNameStatus@@@Z 10040570 f   libvcruntimed:undname.obj
 0001:0003f5f0       ??AReplicator@@QBE?AVDName@@H@Z 100405f0 f   libvcruntimed:undname.obj
 0001:0003f660       ??B?$optional@_K@std@@QBE_NXZ 10040660 f i libvcruntimed:undname.obj
 0001:0003f680       ??D?$optional@_K@std@@QGAEAA_KXZ 10040680 f i libvcruntimed:undname.obj
 0001:0003f6f0       ??H@YA?AVDName@@ABUStringLiteral@@ABV0@@Z 100406f0 f i libvcruntimed:undname.obj
 0001:0003f720       ??H@YA?AVDName@@DABV0@@Z   10040720 f i libvcruntimed:undname.obj
 0001:0003f750       ??H@YA?AVDName@@W4DNameStatus@@ABV0@@Z 10040750 f i libvcruntimed:undname.obj
 0001:0003f780       ??HDName@@QBE?AV0@ABUStringLiteral@@@Z 10040780 f   libvcruntimed:undname.obj
 0001:0003f7c0       ??HDName@@QBE?AV0@ABV0@@Z  100407c0 f   libvcruntimed:undname.obj
 0001:0003f800       ??HDName@@QBE?AV0@D@Z      10040800 f   libvcruntimed:undname.obj
 0001:0003f840       ??HDName@@QBE?AV0@PAV0@@Z  10040840 f   libvcruntimed:undname.obj
 0001:0003f880       ??HDName@@QBE?AV0@W4DNameStatus@@@Z 10040880 f   libvcruntimed:undname.obj
 0001:0003f8c0       ??HStringLiteral@@QBE?AU0@H@Z 100408c0 f i libvcruntimed:undname.obj
 0001:0003f8f0       ??YDName@@QAEAAV0@ABUStringLiteral@@@Z 100408f0 f   libvcruntimed:undname.obj
 0001:0003f990       ??YDName@@QAEAAV0@ABV0@@Z  10040990 f   libvcruntimed:undname.obj
 0001:0003fa30       ??YDName@@QAEAAV0@D@Z      10040a30 f   libvcruntimed:undname.obj
 0001:0003fab0       ??YDName@@QAEAAV0@PAV0@@Z  10040ab0 f   libvcruntimed:undname.obj
 0001:0003fb60       ??YDName@@QAEAAV0@W4DNameStatus@@@Z 10040b60 f   libvcruntimed:undname.obj
 0001:0003fbc0       ??YReplicator@@QAEAAV0@ABVDName@@@Z 10040bc0 f   libvcruntimed:undname.obj
 0001:0003fc50       ??_5DName@@QAEAAV0@ABV0@@Z 10040c50 f   libvcruntimed:undname.obj
 0001:0003fcb0       ??__K_l@@YA?AUStringLiteral@@PBDI@Z 10040cb0 f i libvcruntimed:undname.obj
 0001:0003fcd0       ?Constructor@_HeapManager@@QAEXP6APAXI@ZP6AXPAX@Z@Z 10040cd0 f i libvcruntimed:undname.obj
 0001:0003fd10       ?Destructor@_HeapManager@@QAEXXZ 10040d10 f i libvcruntimed:undname.obj
 0001:0003fd80       ?UScore@UnDecorator@@SA?AUStringLiteral@@W4Tokens@@@Z 10040d80 f   libvcruntimed:undname.obj
 0001:0003fdd0       ?composeDeclaration@UnDecorator@@CA?AVDName@@ABV2@@Z 10040dd0 f i libvcruntimed:undname.obj
 0001:00041d40       ?dbGetString@DName@@QBEPADXZ 10042d40 f   libvcruntimed:undname.obj
 0001:00041d60       ?doAccessSpecifiers@UnDecorator@@SAHXZ 10042d60 f i libvcruntimed:undname.obj
 0001:00041d90       ?doAllocationLanguage@UnDecorator@@SAHXZ 10042d90 f i libvcruntimed:undname.obj
 0001:00041dc0       ?doAllocationModel@UnDecorator@@SAHXZ 10042dc0 f i libvcruntimed:undname.obj
 0001:00041df0       ?doEcsu@UnDecorator@@SAHXZ 10042df0 f i libvcruntimed:undname.obj
 0001:00041e20       ?doEllipsis@UnDecorator@@SAHXZ 10042e20 f i libvcruntimed:undname.obj
 0001:00041e50       ?doFunctionReturns@UnDecorator@@SAHXZ 10042e50 f i libvcruntimed:undname.obj
 0001:00041e80       ?doMSKeywords@UnDecorator@@SAHXZ 10042e80 f i libvcruntimed:undname.obj
 0001:00041eb0       ?doMemberTypes@UnDecorator@@SAHXZ 10042eb0 f i libvcruntimed:undname.obj
 0001:00041ee0       ?doNameOnly@UnDecorator@@SAHXZ 10042ee0 f i libvcruntimed:undname.obj
 0001:00041ef0       ?doNoIdentCharCheck@UnDecorator@@SAHXZ 10042ef0 f i libvcruntimed:undname.obj
 0001:00041f00       ?doPchar@DName@@AAEXD@Z    10042f00 f   libvcruntimed:undname.obj
 0001:00041f70       ?doPtr64@UnDecorator@@SAHXZ 10042f70 f i libvcruntimed:undname.obj
 0001:00041fa0       ?doRestrictionSpec@UnDecorator@@SAHXZ 10042fa0 f i libvcruntimed:undname.obj
 0001:00041fd0       ?doThisTypes@UnDecorator@@SAHXZ 10042fd0 f i libvcruntimed:undname.obj
 0001:00042000       ?doThrowTypes@UnDecorator@@SAHXZ 10043000 f i libvcruntimed:undname.obj
 0001:00042030       ?doTypeOnly@UnDecorator@@SAHXZ 10043030 f i libvcruntimed:undname.obj
 0001:00042040       ?doUnderScore@UnDecorator@@SAHXZ 10043040 f i libvcruntimed:undname.obj
 0001:00042070       ?getAddressOf@UnDecorator@@CA?AVDName@@XZ 10043070 f   libvcruntimed:undname.obj
 0001:000420f0       ?getArgumentList@UnDecorator@@CA?AVDName@@XZ 100430f0 f   libvcruntimed:undname.obj
 0001:00042240       ?getArgumentTypes@UnDecorator@@CA?AVDName@@XZ 10043240 f   libvcruntimed:undname.obj
 0001:00042450       ?getArrayAccess@UnDecorator@@CA?AVDName@@XZ 10043450 f   libvcruntimed:undname.obj
 0001:000424f0       ?getArrayObject@UnDecorator@@CA?AVDName@@XZ 100434f0 f   libvcruntimed:undname.obj
 0001:000425d0       ?getArrayType@UnDecorator@@CA?AVDName@@ABV2@@Z 100435d0 f i libvcruntimed:undname.obj
 0001:00042870       ?getBasedType@UnDecorator@@CA?AVDName@@XZ 10043870 f   libvcruntimed:undname.obj
 0001:00042960       ?getBasicDataType@UnDecorator@@CA?AVDName@@ABV2@@Z 10043960 f   libvcruntimed:undname.obj
 0001:000432d0       ?getCHPEName@UnDecorator@@QAEPADPADH@Z 100442d0 f i libvcruntimed:undname.obj
 0001:00043430       ?getCallIndex@UnDecorator@@CA?AVDName@@XZ 10044430 f i libvcruntimed:undname.obj
 0001:00043450       ?getCallingConvention@UnDecorator@@CA?AVDName@@XZ 10044450 f   libvcruntimed:undname.obj
 0001:00043690       ?getDataIndirectType@UnDecorator@@CA?AVDName@@ABV2@W4IndirectionKind@@0H@Z 10044690 f   libvcruntimed:undname.obj
 0001:00043fb0       ?getDataIndirectType@UnDecorator@@CA?AVDName@@XZ 10044fb0 f i libvcruntimed:undname.obj
 0001:00043ff0       ?getDataType@UnDecorator@@CA?AVDName@@PAV2@@Z 10044ff0 f   libvcruntimed:undname.obj
 0001:00044130       ?getDecoratedName@UnDecorator@@CA?AVDName@@XZ 10045130 f   libvcruntimed:undname.obj
 0001:00044570       ?getDimension@UnDecorator@@CA?AVDName@@_N@Z 10045570 f   libvcruntimed:undname.obj
 0001:000447d0       ?getDispatchTarget@UnDecorator@@CA?AVDName@@XZ 100457d0 f   libvcruntimed:undname.obj
 0001:00044870       ?getDisplacement@UnDecorator@@CA?AVDName@@XZ 10045870 f i libvcruntimed:undname.obj
 0001:00044890       ?getECSUDataType@UnDecorator@@CA?AVDName@@XZ 10045890 f   libvcruntimed:undname.obj
 0001:00044af0       ?getECSUName@UnDecorator@@CA?AVDName@@XZ 10045af0 f i libvcruntimed:undname.obj
 0001:00044b10       ?getEnumType@UnDecorator@@CA?AVDName@@XZ 10045b10 f i libvcruntimed:undname.obj
 0001:00044cd0       ?getExtendedDataIndirectType@UnDecorator@@CA?AVDName@@AAW4IndirectionKind@@AA_NH@Z 10045cd0 f   libvcruntimed:undname.obj
 0001:00044f20       ?getExternalDataType@UnDecorator@@CA?AVDName@@ABV2@@Z 10045f20 f i libvcruntimed:undname.obj
 0001:00044fc0       ?getFloatingPoint@UnDecorator@@CA?AVDName@@H@Z 10045fc0 f   libvcruntimed:undname.obj
 0001:00045180       ?getFunctionIndirectType@UnDecorator@@CA?AVDName@@ABV2@@Z 10046180 f   libvcruntimed:undname.obj
 0001:00045660       ?getGuardNumber@UnDecorator@@CA?AVDName@@XZ 10046660 f i libvcruntimed:undname.obj
 0001:00045680       ?getLastChar@DName@@QBEDXZ 10046680 f i libvcruntimed:undname.obj
 0001:000456c0       ?getLastChar@DNameStatusNode@@UBEDXZ 100466c0 f i libvcruntimed:undname.obj
 0001:000456f0       ?getLastChar@charNode@@UBEDXZ 100466f0 f i libvcruntimed:undname.obj
 0001:00045710       ?getLastChar@pDNameNode@@UBEDXZ 10046710 f i libvcruntimed:undname.obj
 0001:00045740       ?getLastChar@pairNode@@UBEDXZ 10046740 f i libvcruntimed:undname.obj
 0001:000457b0       ?getLastChar@pcharNode@@UBEDXZ 100467b0 f i libvcruntimed:undname.obj
 0001:000457f0       ?getLexicalFrame@UnDecorator@@CA?AVDName@@XZ 100467f0 f i libvcruntimed:undname.obj
 0001:00045830       ?getMemberAccess@UnDecorator@@CA?AVDName@@XZ 10046830 f   libvcruntimed:undname.obj
 0001:000458c0       ?getMemoryWithBuffer@_HeapManager@@QAEPAXI@Z 100468c0 f   libvcruntimed:undname.obj
 0001:000459b0       ?getMemoryWithoutBuffer@_HeapManager@@QAEPAXI@Z 100469b0 f   libvcruntimed:undname.obj
 0001:000459f0       ?getNoexcept@UnDecorator@@CA?AVDName@@XZ 100469f0 f   libvcruntimed:undname.obj
 0001:00045a70       ?getNumberOfDimensions@UnDecorator@@CAHXZ 10046a70 f   libvcruntimed:undname.obj
 0001:00045b70       ?getOperatorName@UnDecorator@@CA?AVDName@@_NPA_N@Z 10046b70 f i libvcruntimed:undname.obj
 0001:00046670       ?getPointerToMember@UnDecorator@@CA?AVDName@@XZ 10047670 f   libvcruntimed:undname.obj
 0001:00046760       ?getPointerType@UnDecorator@@CA?AVDName@@ABV2@0@Z 10047760 f i libvcruntimed:undname.obj
 0001:00046780       ?getPointerTypeArray@UnDecorator@@CA?AVDName@@ABV2@0@Z 10047780 f i libvcruntimed:undname.obj
 0001:000467a0       ?getPrimaryDataType@UnDecorator@@CA?AVDName@@ABV2@@Z 100477a0 f   libvcruntimed:undname.obj
 0001:00046c30       ?getPtrRefDataType@UnDecorator@@CA?AVDName@@ABV2@H@Z 10047c30 f   libvcruntimed:undname.obj
 0001:00046ee0       ?getPtrRefType@UnDecorator@@CA?AVDName@@ABV2@0W4IndirectionKind@@@Z 10047ee0 f   libvcruntimed:undname.obj
 0001:00047060       ?getReferenceType@UnDecorator@@CA?AVDName@@ABV2@0W4IndirectionKind@@@Z 10048060 f i libvcruntimed:undname.obj
 0001:00047080       ?getRestrictionSpec@UnDecorator@@CA?AVDName@@XZ 10048080 f   libvcruntimed:undname.obj
 0001:00047240       ?getReturnType@UnDecorator@@CA?AVDName@@PAV2@@Z 10048240 f   libvcruntimed:undname.obj
 0001:00047290       ?getScope@UnDecorator@@CA?AVDName@@XZ 10048290 f   libvcruntimed:undname.obj
 0001:00047820       ?getScopedName@UnDecorator@@CA?AVDName@@XZ 10048820 f   libvcruntimed:undname.obj
 0001:00047970       ?getSignedDimension@UnDecorator@@CA?AVDName@@XZ 10048970 f   libvcruntimed:undname.obj
 0001:000479f0       ?getStorageConvention@UnDecorator@@CA?AVDName@@XZ 100489f0 f i libvcruntimed:undname.obj
 0001:00047a10       ?getString@DName@@QBEPADPAD0@Z 10048a10 f i libvcruntimed:undname.obj
 0001:00047a70       ?getString@DName@@QBEPADPADH@Z 10048a70 f i libvcruntimed:undname.obj
 0001:00047b00       ?getString@DNameStatusNode@@UBEPADPAD0@Z 10048b00 f i libvcruntimed:undname.obj
 0001:00047b40       ?getString@charNode@@UBEPADPAD0@Z 10048b40 f i libvcruntimed:undname.obj
 0001:00047b70       ?getString@pDNameNode@@UBEPADPAD0@Z 10048b70 f i libvcruntimed:undname.obj
 0001:00047bb0       ?getString@pairNode@@UBEPADPAD0@Z 10048bb0 f i libvcruntimed:undname.obj
 0001:00047c40       ?getString@pcharNode@@UBEPADPAD0@Z 10048c40 f i libvcruntimed:undname.obj
 0001:00047c70       ?getStringEncoding@UnDecorator@@CA?AVDName@@W4PrefixKind@@H@Z 10048c70 f   libvcruntimed:undname.obj
 0001:00047d80       ?getStringHelper@@YAPADPADPBD1H@Z 10048d80 f i libvcruntimed:undname.obj
 0001:00047dc0       ?getStringObject@UnDecorator@@CA?AVDName@@XZ 10048dc0 f   libvcruntimed:undname.obj
 0001:00047e70       ?getSymbolName@UnDecorator@@CA?AVDName@@XZ 10048e70 f i libvcruntimed:undname.obj
 0001:00047f00       ?getTemplateArgumentList@UnDecorator@@CA?AVDName@@XZ 10048f00 f   libvcruntimed:undname.obj
 0001:000481f0       ?getTemplateName@UnDecorator@@CA?AVDName@@_N@Z 100491f0 f   libvcruntimed:undname.obj
 0001:000483b0       ?getTemplateNonTypeArgument@UnDecorator@@CA?AVDName@@XZ 100493b0 f   libvcruntimed:undname.obj
 0001:000489b0       ?getTemplateTypeArgument@UnDecorator@@CA?AVDName@@XZ 100499b0 f   libvcruntimed:undname.obj
 0001:00048b50       ?getThisType@UnDecorator@@CA?AVDName@@XZ 10049b50 f i libvcruntimed:undname.obj
 0001:00048b90       ?getThrowTypes@UnDecorator@@CA?AVDName@@XZ 10049b90 f   libvcruntimed:undname.obj
 0001:00048bd0       ?getTypeEncoding@UnDecorator@@CAHXZ 10049bd0 f i libvcruntimed:undname.obj
 0001:00049690       ?getUndecoratedName@UnDecorator@@QAEPADPADH@Z 1004a690 f i libvcruntimed:undname.obj
 0001:000497f0       ?getUnionObject@UnDecorator@@CA?AVDName@@XZ 1004a7f0 f   libvcruntimed:undname.obj
 0001:000498c0       ?getVCallThunkType@UnDecorator@@CA?AVDName@@XZ 1004a8c0 f i libvcruntimed:undname.obj
 0001:00049940       ?getValue@UnDecorator@@CA?AV?$optional@_K@std@@XZ 1004a940 f   libvcruntimed:undname.obj
 0001:00049a00       ?getValueObject@UnDecorator@@CA?AVDName@@XZ 1004aa00 f   libvcruntimed:undname.obj
 0001:00049be0       ?getVbTableType@UnDecorator@@CA?AVDName@@ABV2@@Z 1004abe0 f i libvcruntimed:undname.obj
 0001:00049c00       ?getVdispMapType@UnDecorator@@CA?AVDName@@ABV2@@Z 1004ac00 f i libvcruntimed:undname.obj
 0001:00049c90       ?getVfTableType@UnDecorator@@CA?AVDName@@ABV2@@Z 1004ac90 f i libvcruntimed:undname.obj
 0001:00049e90       ?getZName@UnDecorator@@CA?AVDName@@_N0@Z 1004ae90 f   libvcruntimed:undname.obj
 0001:0004a1d0       ?haveTemplateParameters@UnDecorator@@SAHXZ 1004b1d0 f i libvcruntimed:undname.obj
 0001:0004a1e0       ?isArray@DName@@QBEHXZ     1004b1e0 f i libvcruntimed:undname.obj
 0001:0004a200       ?isComArray@DName@@QBEHXZ  1004b200 f i libvcruntimed:undname.obj
 0001:0004a220       ?isEmpty@DName@@QBEHXZ     1004b220 f i libvcruntimed:undname.obj
 0001:0004a250       ?isFull@Replicator@@QBEHXZ 1004b250 f i libvcruntimed:undname.obj
 0001:0004a280       ?isNoTE@DName@@QBEHXZ      1004b280 f i libvcruntimed:undname.obj
 0001:0004a2a0       ?isPinPtr@DName@@QBEHXZ    1004b2a0 f i libvcruntimed:undname.obj
 0001:0004a2c0       ?isPtrRef@DName@@QBEHXZ    1004b2c0 f i libvcruntimed:undname.obj
 0001:0004a2e0       ?isUDC@DName@@QBEHXZ       1004b2e0 f i libvcruntimed:undname.obj
 0001:0004a320       ?isUDTThunk@DName@@QBEHXZ  1004b320 f i libvcruntimed:undname.obj
 0001:0004a360       ?isVCallThunk@DName@@QBEHXZ 1004b360 f i libvcruntimed:undname.obj
 0001:0004a380       ?isValid@DName@@QBEHXZ     1004b380 f i libvcruntimed:undname.obj
 0001:0004a3c0       ?length@DName@@QBEHXZ      1004b3c0 f i libvcruntimed:undname.obj
 0001:0004a400       ?length@DNameStatusNode@@UBEHXZ 1004b400 f i libvcruntimed:undname.obj
 0001:0004a420       ?length@charNode@@UBEHXZ   1004b420 f i libvcruntimed:undname.obj
 0001:0004a430       ?length@pDNameNode@@UBEHXZ 1004b430 f i libvcruntimed:undname.obj
 0001:0004a460       ?length@pairNode@@UBEHXZ   1004b460 f i libvcruntimed:undname.obj
 0001:0004a4d0       ?length@pcharNode@@UBEHXZ  1004b4d0 f i libvcruntimed:undname.obj
 0001:0004a4f0       ?make@DNameStatusNode@@SAPBV1@W4DNameStatus@@@Z 1004b4f0 f i libvcruntimed:undname.obj
 0001:0004a520       ?parseDecoratedName@UnDecorator@@CA?AVDName@@XZ 1004b520 f   libvcruntimed:undname.obj
 0001:0004a6b0       ?raw_length@DNameStatusNode@@UBEHXZ 1004b6b0 f i libvcruntimed:undname.obj
 0001:0004a6d0       ?raw_length@charNode@@UBEHXZ 1004b6d0 f i libvcruntimed:undname.obj
 0001:0004a6f0       ?raw_length@pDNameNode@@UBEHXZ 1004b6f0 f i libvcruntimed:undname.obj
 0001:0004a700       ?raw_length@pairNode@@UBEHXZ 1004b700 f i libvcruntimed:undname.obj
 0001:0004a720       ?raw_length@pcharNode@@UBEHXZ 1004b720 f i libvcruntimed:undname.obj
 0001:0004a740       ?setIsArray@DName@@QAEXXZ  1004b740 f i libvcruntimed:undname.obj
 0001:0004a760       ?setIsComArray@DName@@QAEXXZ 1004b760 f i libvcruntimed:undname.obj
 0001:0004a780       ?setIsNoTE@DName@@QAEXXZ   1004b780 f i libvcruntimed:undname.obj
 0001:0004a7a0       ?setIsPinPtr@DName@@QAEXXZ 1004b7a0 f i libvcruntimed:undname.obj
 0001:0004a7c0       ?setIsUDC@DName@@QAEXXZ    1004b7c0 f i libvcruntimed:undname.obj
 0001:0004a7f0       ?setIsVCallThunk@DName@@QAEXXZ 1004b7f0 f i libvcruntimed:undname.obj
 0001:0004a810       ?setPtrRef@DName@@QAEAAV1@XZ 1004b810 f i libvcruntimed:undname.obj
 0001:0004a830       ?status@DName@@QBE?AW4DNameStatus@@XZ 1004b830 f i libvcruntimed:undname.obj
 0001:0004a930       ___unDName                 1004b930 f   libvcruntimed:undname.obj
 0001:0004a960       ___unDNameEx               1004b960 f   libvcruntimed:undname.obj
 0001:0004aa30       _unDNameGenerateCHPE       1004ba30 f   libvcruntimed:undname.obj
 0001:0004aa90       _strchr                    1004ba90 f   libvcruntimed:strchr.obj
 0001:0004aafe       ___from_strstr_to_strchr   1004bafe     libvcruntimed:strchr.obj
 0001:0004abc0       __local_unwind4            1004bbc0 f   libvcruntimed:exsup4.obj
 0001:0004acb0       __seh_longjmp_unwind4@4    1004bcb0 f   libvcruntimed:exsup4.obj
 0001:0004ace0       @_EH4_CallFilterFunc@8     1004bce0 f   libvcruntimed:exsup4.obj
 0001:0004ad00       @_EH4_TransferToHandler@8  1004bd00 f   libvcruntimed:exsup4.obj
 0001:0004ad20       @_EH4_GlobalUnwind2@8      1004bd20 f   libvcruntimed:exsup4.obj
 0001:0004ad40       @_EH4_LocalUnwind@16       1004bd40 f   libvcruntimed:exsup4.obj
 0001:0004ad70       ___except_validate_context_record 1004bd70 f   libvcruntimed:jbcxrval.obj
 0001:0004adc0       ___except_validate_jump_buffer 1004bdc0 f   libvcruntimed:jbcxrval.obj
 0001:0004ade0       ___except_validate_jump_buffer_common 1004bde0 f i libvcruntimed:jbcxrval.obj
 0001:0004ae40       ??$?RU__vcrt_ptd@@@__crt_internal_free_policy@@QBEXQBU__vcrt_ptd@@@Z 1004be40 f i libvcruntimed:per_thread_data.obj
 0001:0004ae60       ??0?$__crt_unique_heap_ptr@U__vcrt_ptd@@U__crt_internal_free_policy@@@@QAE@QAU__vcrt_ptd@@@Z 1004be60 f i libvcruntimed:per_thread_data.obj
 0001:0004aea0       ??1?$__crt_unique_heap_ptr@U__vcrt_ptd@@U__crt_internal_free_policy@@@@QAE@XZ 1004bea0 f i libvcruntimed:per_thread_data.obj
 0001:0004aee0       ??B?$__crt_unique_heap_ptr@U__vcrt_ptd@@U__crt_internal_free_policy@@@@QBE_NXZ 1004bee0 f i libvcruntimed:per_thread_data.obj
 0001:0004af00       ?detach@?$__crt_unique_heap_ptr@U__vcrt_ptd@@U__crt_internal_free_policy@@@@QAEPAU__vcrt_ptd@@XZ 1004bf00 f i libvcruntimed:per_thread_data.obj
 0001:0004af30       ?get@?$__crt_unique_heap_ptr@U__vcrt_ptd@@U__crt_internal_free_policy@@@@QBEPAU__vcrt_ptd@@XZ 1004bf30 f i libvcruntimed:per_thread_data.obj
 0001:0004af40       ?is_valid@?$__crt_unique_heap_ptr@U__vcrt_ptd@@U__crt_internal_free_policy@@@@QBE_NXZ 1004bf40 f i libvcruntimed:per_thread_data.obj
 0001:0004af70       ?release@?$__crt_unique_heap_ptr@U__vcrt_ptd@@U__crt_internal_free_policy@@@@QAEXXZ 1004bf70 f i libvcruntimed:per_thread_data.obj
 0001:0004afd0       ___vcrt_freefls@4          1004bfd0 f   libvcruntimed:per_thread_data.obj
 0001:0004b000       ___vcrt_freeptd            1004c000 f   libvcruntimed:per_thread_data.obj
 0001:0004b060       ___vcrt_getptd             1004c060 f   libvcruntimed:per_thread_data.obj
 0001:0004b080       ___vcrt_getptd_noexit      1004c080 f   libvcruntimed:per_thread_data.obj
 0001:0004b1e0       ___vcrt_getptd_noinit      1004c1e0 f   libvcruntimed:per_thread_data.obj
 0001:0004b240       ___vcrt_initialize_ptd     1004c240 f   libvcruntimed:per_thread_data.obj
 0001:0004b290       ___vcrt_uninitialize_ptd   1004c290 f   libvcruntimed:per_thread_data.obj
 0001:0004b2c0       ___vcrt_initialize_locks   1004c2c0 f   libvcruntimed:locks.obj
 0001:0004b320       ___vcrt_lock               1004c320 f   libvcruntimed:locks.obj
 0001:0004b340       ___vcrt_uninitialize_locks 1004c340 f   libvcruntimed:locks.obj
 0001:0004b390       ___vcrt_unlock             1004c390 f   libvcruntimed:locks.obj
 0001:0004b3b0       ??$?0AAViterator@TryBlockMap@__FrameHandler3@@AAV012@$0A@@?$pair@Viterator@TryBlockMap@__FrameHandler3@@V123@@std@@QAE@AAViterator@TryBlockMap@__FrameHandler3@@0@Z 1004c3b0 f i libvcruntimed:trnsctrl.obj
 0001:0004b400       ??$forward@AAViterator@TryBlockMap@__FrameHandler3@@@std@@YAAAViterator@TryBlockMap@__FrameHandler3@@AAV123@@Z 1004c400 f i libvcruntimed:trnsctrl.obj
 0001:0004b410       ??0iterator@TryBlockMap@__FrameHandler3@@QAE@AAV12@I@Z 1004c410 f i libvcruntimed:trnsctrl.obj
 0001:0004b440       ?GetRangeOfTrysToCheck@__FrameHandler3@@SA?AU?$pair@Viterator@TryBlockMap@__FrameHandler3@@V123@@std@@AAVTryBlockMap@1@HPAXPBU_s_FuncInfo@@H@Z 1004c440 f   libvcruntimed:trnsctrl.obj
 0001:0004b520       ?_CallCatchBlock2@@YAPAXPAUEHRegistrationNode@@PBU_s_FuncInfo@@PAXHK@Z 1004c520 f   libvcruntimed:trnsctrl.obj
 0001:0004b590       ?_CallSETranslator@@YAHPAUEHExceptionRecord@@PAUEHRegistrationNode@@PAX2PBU_s_FuncInfo@@H1@Z 1004c590 f   libvcruntimed:trnsctrl.obj
 0001:0004b6a0       ?_JumpToContinuation@@YGXPAXPAUEHRegistrationNode@@@Z 1004c6a0 f   libvcruntimed:trnsctrl.obj
 0001:0004b6e0       ?_UnwindNestedFrames@@YGXPAUEHRegistrationNode@@PAUEHExceptionRecord@@@Z 1004c6e0 f   libvcruntimed:trnsctrl.obj
 0001:0004b740       __CatchGuardHandler        1004c740 f   libvcruntimed:trnsctrl.obj
 0001:0004b790       __CreateFrameInfo          1004c790 f   libvcruntimed:trnsctrl.obj
 0001:0004b7c0       __FindAndUnlinkFrame       1004c7c0 f   libvcruntimed:trnsctrl.obj
 0001:0004b830       __TranslatorGuardHandler   1004c830 f   libvcruntimed:trnsctrl.obj
 0001:0004b8e0       ___CxxFrameHandler         1004c8e0 f   libvcruntimed:trnsctrl.obj
 0001:0004b920       ___CxxFrameHandler2        1004c920 f   libvcruntimed:trnsctrl.obj
 0001:0004b960       ___CxxFrameHandler3        1004c960 f   libvcruntimed:trnsctrl.obj
 0001:0004b9a0       ___CxxLongjmpUnwind@4      1004c9a0 f   libvcruntimed:trnsctrl.obj
 0001:0004b9e0       __global_unwind2           1004c9e0 f   libvcruntimed:exsup.obj
 0001:0004ba60       __local_unwind2            1004ca60 f   libvcruntimed:exsup.obj
 0001:0004bb00       __abnormal_termination     1004cb00 f   libvcruntimed:exsup.obj
 0001:0004bb30       __NLG_Notify1              1004cb30 f   libvcruntimed:exsup.obj
 0001:0004bb40       __NLG_Notify               1004cb40 f   libvcruntimed:exsup.obj
 0001:0004bb57       __NLG_Dispatch2            1004cb57     libvcruntimed:exsup.obj
 0001:0004bb57       __NLG_Dispatch             1004cb57     libvcruntimed:exsup.obj
 0001:0004bb60       __NLG_Call                 1004cb60 f   libvcruntimed:exsup.obj
 0001:0004bb62       __NLG_Return2              1004cb62     libvcruntimed:exsup.obj
 0001:0004bb70       ??$__crt_interlocked_exchange_pointer@UHINSTANCE__@@PAU1@@@YAPAUHINSTANCE__@@PDSAU0@QAU0@@Z 1004cb70 f i libvcruntimed:winapi_downlevel.obj
 0001:0004bb80       ??$__crt_interlocked_exchange_pointer@UHINSTANCE__@@PAX@@YAPAUHINSTANCE__@@PDSAU0@QAX@Z 1004cb80 f i libvcruntimed:winapi_downlevel.obj
 0001:0004bb90       ??$__crt_interlocked_exchange_pointer@XPAX@@YAPAXPDSAXQAX@Z 1004cb90 f i libvcruntimed:winapi_downlevel.obj
 0001:0004bba0       ??$__crt_interlocked_read_pointer@UHINSTANCE__@@@@YAPAUHINSTANCE__@@PDSAU0@@Z 1004cba0 f i libvcruntimed:winapi_downlevel.obj
 0001:0004bbc0       ??$__crt_interlocked_read_pointer@X@@YAPAXPDSAX@Z 1004cbc0 f i libvcruntimed:winapi_downlevel.obj
 0001:0004bf90       ___vcrt_FlsAlloc           1004cf90 f   libvcruntimed:winapi_downlevel.obj
 0001:0004bfd0       ___vcrt_FlsFree            1004cfd0 f   libvcruntimed:winapi_downlevel.obj
 0001:0004c010       ___vcrt_FlsGetValue        1004d010 f   libvcruntimed:winapi_downlevel.obj
 0001:0004c050       ___vcrt_FlsSetValue        1004d050 f   libvcruntimed:winapi_downlevel.obj
 0001:0004c0a0       ___vcrt_InitializeCriticalSectionEx 1004d0a0 f   libvcruntimed:winapi_downlevel.obj
 0001:0004cc40       ??$TypeMatchHelper@V__FrameHandler3@@@@YAHPBU_s_HandlerType@@PBU_s_CatchableType@@PBU_s_ThrowInfo@@@Z 1004dc40 f i libvcruntimed:frame.obj
 0001:0004cd20       ??$__InternalCxxFrameHandler@V__FrameHandler3@@@@YA?AW4_EXCEPTION_DISPOSITION@@PAUEHExceptionRecord@@PAUEHRegistrationNode@@PAU_CONTEXT@@PAXPBU_s_FuncInfo@@H1E@Z 1004dd20 f i libvcruntimed:frame.obj
 0001:0004cee0       ??0HandlerMap@__FrameHandler3@@QAE@PBU_s_TryBlockMapEntry@@II@Z 1004dee0 f i libvcruntimed:frame.obj
 0001:0004cf10       ??0TryBlockMap@__FrameHandler3@@QAE@PBU_s_FuncInfo@@I@Z 1004df10 f i libvcruntimed:frame.obj
 0001:0004cf40       ??0bad_exception@std@@QAE@ABV01@@Z 1004df40 f i libvcruntimed:frame.obj
 0001:0004cf70       ??0bad_exception@std@@QAE@XZ 1004df70 f i libvcruntimed:frame.obj
 0001:0004cfa0       ??0exception@std@@QAE@ABV01@@Z 1004dfa0 f i libvcruntimed:frame.obj
 0001:0004cfe0       ??0exception@std@@QAE@QBDH@Z 1004dfe0 f i libvcruntimed:frame.obj
 0001:0004d010       ??0iterator@HandlerMap@__FrameHandler3@@QAE@AAV12@I@Z 1004e010 f i libvcruntimed:frame.obj
 0001:0004d040       ??1bad_exception@std@@UAE@XZ 1004e040 f i libvcruntimed:frame.obj
 0001:0004d060       ??1exception@std@@UAE@XZ   1004e060 f i libvcruntimed:frame.obj
 0001:0004d090       ??8iterator@HandlerMap@__FrameHandler3@@QBE_NABV012@@Z 1004e090 f i libvcruntimed:frame.obj
 0001:0004d0c0       ??8type_info@@QBE_NABV0@@Z 1004e0c0 f i libvcruntimed:frame.obj
 0001:0004d100       ??9iterator@HandlerMap@__FrameHandler3@@QBE_NABV012@@Z 1004e100 f i libvcruntimed:frame.obj
 0001:0004d140       ??Diterator@HandlerMap@__FrameHandler3@@QAE?BU_s_HandlerType@@XZ 1004e140 f i libvcruntimed:frame.obj
 0001:0004d180       ??Diterator@TryBlockMap@__FrameHandler3@@QAE?BU_s_TryBlockMapEntry@@XZ 1004e180 f i libvcruntimed:frame.obj
 0001:0004d1d0       ??Eiterator@HandlerMap@__FrameHandler3@@QAEAAV012@XZ 1004e1d0 f i libvcruntimed:frame.obj
 0001:0004d1f0       ??Eiterator@TryBlockMap@__FrameHandler3@@QAEAAV012@XZ 1004e1f0 f i libvcruntimed:frame.obj
 0001:0004d210       ??Miterator@TryBlockMap@__FrameHandler3@@QBE_NABV012@@Z 1004e210 f i libvcruntimed:frame.obj
 0001:0004d240       ??_Gbad_exception@std@@UAEPAXI@Z 1004e240 f i libvcruntimed:frame.obj
 0001:0004d240       ??_Ebad_exception@std@@UAEPAXI@Z 1004e240 f i libvcruntimed:frame.obj
 0001:0004d270       ??_Eexception@std@@UAEPAXI@Z 1004e270 f i libvcruntimed:frame.obj
 0001:0004d270       ??_Gexception@std@@UAEPAXI@Z 1004e270 f i libvcruntimed:frame.obj
 0001:0004d2a0       ?BuildCatchObject@__FrameHandler3@@SAXPAUEHExceptionRecord@@PAXPBU_s_HandlerType@@PBU_s_CatchableType@@@Z 1004e2a0 f   libvcruntimed:frame.obj
 0001:0004d2c0       ?BuildCatchObjectHelper@__FrameHandler3@@SAHPAUEHExceptionRecord@@PAXPBU_s_HandlerType@@PBU_s_CatchableType@@@Z 1004e2c0 f   libvcruntimed:frame.obj
 0001:0004d660       ?FrameUnwindToEmptyState@__FrameHandler3@@SAXPAUEHRegistrationNode@@PAXPBU_s_FuncInfo@@@Z 1004e660 f   libvcruntimed:frame.obj
 0001:0004d680       ?FrameUnwindToState@__FrameHandler3@@SAXPAUEHRegistrationNode@@PAXPBU_s_FuncInfo@@H@Z 1004e680 f   libvcruntimed:frame.obj
 0001:0004d800       ?GetMaxState@__FrameHandler3@@SAHPAXPBU_s_FuncInfo@@@Z 1004e800 f i libvcruntimed:frame.obj
 0001:0004d920       ?TypeMatch@__FrameHandler3@@SAHPBU_s_HandlerType@@PBU_s_CatchableType@@PBU_s_ThrowInfo@@@Z 1004e920 f   libvcruntimed:frame.obj
 0001:0004d940       ?_CallMemberFunction1@@YGXQAX00@Z 1004e940 f i libvcruntimed:frame.obj
 0001:0004d970       ?_CallMemberFunction2@@YGXQAX00H@Z 1004e970 f i libvcruntimed:frame.obj
 0001:0004d9a0       ?begin@HandlerMap@__FrameHandler3@@QAE?AViterator@12@XZ 1004e9a0 f i libvcruntimed:frame.obj
 0001:0004d9c0       ?end@HandlerMap@__FrameHandler3@@QAE?AViterator@12@XZ 1004e9c0 f i libvcruntimed:frame.obj
 0001:0004d9f0       ?getESTypes@__FrameHandler3@@SAPBU_s_ESTypeList@@PBU_s_FuncInfo@@@Z 1004e9f0 f i libvcruntimed:frame.obj
 0001:0004da00       ?getLastEntry@HandlerMap@__FrameHandler3@@QAEPBU_s_HandlerType@@XZ 1004ea00 f i libvcruntimed:frame.obj
 0001:0004da20       ?getMagicNum@__FrameHandler3@@SAIPBU_s_FuncInfo@@@Z 1004ea20 f i libvcruntimed:frame.obj
 0001:0004da30       ?getNumTryBlocks@TryBlockMap@__FrameHandler3@@QAEIXZ 1004ea30 f i libvcruntimed:frame.obj
 0001:0004da50       ?isEHs@__FrameHandler3@@SA_NPBU_s_FuncInfo@@@Z 1004ea50 f i libvcruntimed:frame.obj
 0001:0004da80       ?isNoExcept@__FrameHandler3@@SA_NPBU_s_FuncInfo@@@Z 1004ea80 f i libvcruntimed:frame.obj
 0001:0004dab0       ?what@exception@std@@UBEPBDXZ 1004eab0 f i libvcruntimed:frame.obj
 0001:0004dae0       ___BuildCatchObject        1004eae0 f   libvcruntimed:frame.obj
 0001:0004db00       ___BuildCatchObjectHelper  1004eb00 f   libvcruntimed:frame.obj
 0001:0004db20       ___TypeMatch               1004eb20 f   libvcruntimed:frame.obj
 0001:0004db40       ___vcrt_EncodePointer      1004eb40 f i libvcruntimed:frame.obj
 0001:0004db50       __CallSettingFrame@12      1004eb50 f   libvcruntimed:lowhelpr.obj
 0001:0004db77       __NLG_Return               1004eb77     libvcruntimed:lowhelpr.obj
 0001:0004dbd0       __get_unexpected           1004ebd0 f   libvcruntimed:unexpected.obj
 0001:0004dbf0       _set_unexpected            1004ebf0 f   libvcruntimed:unexpected.obj
 0001:0004dc20       _unexpected                1004ec20 f   libvcruntimed:unexpected.obj
 0001:0004dc60       _memmove                   1004ec60 f   libvcruntimed:memmove.obj
 0001:0004e1e0       ?GetCurrentState@__FrameHandler3@@SAHPAUEHRegistrationNode@@PAXPBU_s_FuncInfo@@@Z 1004f1e0 f   libvcruntimed:ehstate.obj
 0001:0004e210       ?SetState@__FrameHandler3@@SAXPAUEHRegistrationNode@@PBU_s_FuncInfo@@H@Z 1004f210 f   libvcruntimed:ehstate.obj
 0001:0004e220       ??$?RD@__crt_public_free_policy@@QBEXQBD@Z 1004f220 f i libvcruntimed:std_exception.obj
 0001:0004e240       ??0?$__crt_unique_heap_ptr@DU__crt_public_free_policy@@@@QAE@QAD@Z 1004f240 f i libvcruntimed:std_exception.obj
 0001:0004e260       ??1?$__crt_unique_heap_ptr@DU__crt_public_free_policy@@@@QAE@XZ 1004f260 f i libvcruntimed:std_exception.obj
 0001:0004e280       ??B?$__crt_unique_heap_ptr@DU__crt_public_free_policy@@@@QBE_NXZ 1004f280 f i libvcruntimed:std_exception.obj
 0001:0004e2a0       ?detach@?$__crt_unique_heap_ptr@DU__crt_public_free_policy@@@@QAEPADXZ 1004f2a0 f i libvcruntimed:std_exception.obj
 0001:0004e2d0       ?get@?$__crt_unique_heap_ptr@DU__crt_public_free_policy@@@@QBEPADXZ 1004f2d0 f i libvcruntimed:std_exception.obj
 0001:0004e2e0       ?is_valid@?$__crt_unique_heap_ptr@DU__crt_public_free_policy@@@@QBE_NXZ 1004f2e0 f i libvcruntimed:std_exception.obj
 0001:0004e310       ?release@?$__crt_unique_heap_ptr@DU__crt_public_free_policy@@@@QAEXXZ 1004f310 f i libvcruntimed:std_exception.obj
 0001:0004e340       ___std_exception_copy      1004f340 f   libvcruntimed:std_exception.obj
 0001:0004e430       ___std_exception_destroy   1004f430 f   libvcruntimed:std_exception.obj
 0001:0004e460       __CxxThrowException@8      1004f460 f   libvcruntimed:throw.obj
 0001:0004e510       _strcmp                    1004f510 f   libucrtd:strcmp.obj
 0001:0004e5a0       _atan2                     1004f5a0 f   libucrtd:atan2.obj
 0001:0004e5c0       _fabs                      1004f5c0 f   libucrtd:fabs.obj
 0001:0004e650       _sqrt                      1004f650 f   libucrtd:sqrt.obj
 0001:0004e660       _floor                     1004f660 f   libucrtd:floor_pentium4.obj
 0001:0004e6a0       __floor_pentium4           1004f6a0 f   libucrtd:floor_pentium4.obj
 0001:0004e760       __chgsign                  1004f760 f   libucrtd:ieeemisc.obj
 0001:0004e7a0       __chgsignf                 1004f7a0 f   libucrtd:ieeemisc.obj
 0001:0004e7e0       __copysign                 1004f7e0 f   libucrtd:ieeemisc.obj
 0001:0004e820       __copysignf                1004f820 f   libucrtd:ieeemisc.obj
 0001:0004e870       __finite                   1004f870 f   libucrtd:ieeemisc.obj
 0001:0004e890       __fpclass                  1004f890 f   libucrtd:ieeemisc.obj
 0001:0004e990       __isnan                    1004f990 f   libucrtd:ieeemisc.obj
 0001:0004e9e0       __logb                     1004f9e0 f   libucrtd:ieeemisc.obj
 0001:0004eb00       __nextafter                1004fb00 f   libucrtd:ieeemisc.obj
 0001:0004eb30       __scalb                    1004fb30 f   libucrtd:ieeemisc.obj
 0001:0004eb50       ??$__crt_interlocked_read@J@@YAJPDJ@Z 1004fb50 f i libucrtd:assert.obj
 0001:00050680       ??$ftprintf@PAU_iobuf@@PBDABQBDABQBDABI@?$__crt_char_traits@D@@SAH$$QAPAU_iobuf@@$$QAPBDABQBD2ABI@Z 10051680 f i libucrtd:assert.obj
 0001:000506b0       ??$ftprintf@PAU_iobuf@@PB_WABQB_WABQB_WABI@?$__crt_char_traits@_W@@SAH$$QAPAU_iobuf@@$$QAPB_WABQB_W2ABI@Z 100516b0 f i libucrtd:assert.obj
 0001:000506e0       ??$get_module_file_name@AAPAUHINSTANCE__@@AAY0BAF@DK@?$__crt_char_traits@D@@SAKAAPAUHINSTANCE__@@AAY0BAF@D$$QAK@Z 100516e0 f i libucrtd:assert.obj
 0001:00050700       ??$get_module_file_name@AAPAUHINSTANCE__@@AAY0BAF@_WK@?$__crt_char_traits@_W@@SAKAAPAUHINSTANCE__@@AAY0BAF@_W$$QAK@Z 10051700 f i libucrtd:assert.obj
 0001:00050720       ??$itot_s@ABIPADIH@?$__crt_char_traits@D@@SAHABI$$QAPAD$$QAI$$QAH@Z 10051720 f i libucrtd:assert.obj
 0001:00050750       ??$itot_s@ABIPA_WIH@?$__crt_char_traits@_W@@SAHABI$$QAPA_W$$QAI$$QAH@Z 10051750 f i libucrtd:assert.obj
 0001:00050780       ??$show_message_box@AAY0CEA@DPBDJ@?$__crt_char_traits@D@@SAHAAY0CEA@D$$QAPBD$$QAJ@Z 10051780 f i libucrtd:assert.obj
 0001:000507a0       ??$show_message_box@AAY0CEA@_WPB_WJ@?$__crt_char_traits@_W@@SAHAAY0CEA@_W$$QAPB_W$$QAJ@Z 100517a0 f i libucrtd:assert.obj
 0001:000507c0       ??$tcscat_s@ABQADABIAAPAD@?$__crt_char_traits@D@@SAHABQADABIAAPAD@Z 100517c0 f i libucrtd:assert.obj
 0001:000507f0       ??$tcscat_s@ABQADABIABQBD@?$__crt_char_traits@D@@SAHABQADABIABQBD@Z 100517f0 f i libucrtd:assert.obj
 0001:00050820       ??$tcscat_s@ABQADABIPBD@?$__crt_char_traits@D@@SAHABQADABI$$QAPBD@Z 10051820 f i libucrtd:assert.obj
 0001:00050850       ??$tcscat_s@ABQA_WABIAAPA_W@?$__crt_char_traits@_W@@SAHABQA_WABIAAPA_W@Z 10051850 f i libucrtd:assert.obj
 0001:00050880       ??$tcscat_s@ABQA_WABIABQB_W@?$__crt_char_traits@_W@@SAHABQA_WABIABQB_W@Z 10051880 f i libucrtd:assert.obj
 0001:000508b0       ??$tcscat_s@ABQA_WABIPB_W@?$__crt_char_traits@_W@@SAHABQA_WABI$$QAPB_W@Z 100518b0 f i libucrtd:assert.obj
 0001:000508e0       ??$tcscpy_s@AAY0BAF@DIPBD@?$__crt_char_traits@D@@SAHAAY0BAF@D$$QAI$$QAPBD@Z 100518e0 f i libucrtd:assert.obj
 0001:00050900       ??$tcscpy_s@AAY0BAF@_WIPB_W@?$__crt_char_traits@_W@@SAHAAY0BAF@_W$$QAI$$QAPB_W@Z 10051900 f i libucrtd:assert.obj
 0001:00050920       ??$tcscpy_s@ABQADABIPBD@?$__crt_char_traits@D@@SAHABQADABI$$QAPBD@Z 10051920 f i libucrtd:assert.obj
 0001:00050950       ??$tcscpy_s@ABQA_WABIPB_W@?$__crt_char_traits@_W@@SAHABQA_WABI$$QAPB_W@Z 10051950 f i libucrtd:assert.obj
 0001:00050980       ??$tcslen@AAY0BAF@D@?$__crt_char_traits@D@@SAIAAY0BAF@D@Z 10051980 f i libucrtd:assert.obj
 0001:000509a0       ??$tcslen@AAY0BAF@_W@?$__crt_char_traits@_W@@SAIAAY0BAF@_W@Z 100519a0 f i libucrtd:assert.obj
 0001:000509c0       ??$tcslen@ABQAD@?$__crt_char_traits@D@@SAIABQAD@Z 100519c0 f i libucrtd:assert.obj
 0001:000509e0       ??$tcslen@ABQA_W@?$__crt_char_traits@_W@@SAIABQA_W@Z 100519e0 f i libucrtd:assert.obj
 0001:00050a00       ??$tcslen@ABQBD@?$__crt_char_traits@D@@SAIABQBD@Z 10051a00 f i libucrtd:assert.obj
 0001:00050a20       ??$tcslen@ABQB_W@?$__crt_char_traits@_W@@SAIABQB_W@Z 10051a20 f i libucrtd:assert.obj
 0001:00050a40       ??$tcsncat_s@ABQADABIAAPBDI@?$__crt_char_traits@D@@SAHABQADABIAAPBD$$QAI@Z 10051a40 f i libucrtd:assert.obj
 0001:00050a70       ??$tcsncat_s@ABQADABIABQBDABI@?$__crt_char_traits@D@@SAHABQADABIABQBD1@Z 10051a70 f i libucrtd:assert.obj
 0001:00050aa0       ??$tcsncat_s@ABQADABIPBDI@?$__crt_char_traits@D@@SAHABQADABI$$QAPBD$$QAI@Z 10051aa0 f i libucrtd:assert.obj
 0001:00050ad0       ??$tcsncat_s@ABQA_WABIAAPB_WI@?$__crt_char_traits@_W@@SAHABQA_WABIAAPB_W$$QAI@Z 10051ad0 f i libucrtd:assert.obj
 0001:00050b00       ??$tcsncat_s@ABQA_WABIABQB_WABI@?$__crt_char_traits@_W@@SAHABQA_WABIABQB_W1@Z 10051b00 f i libucrtd:assert.obj
 0001:00050b30       ??$tcsncat_s@ABQA_WABIPB_WI@?$__crt_char_traits@_W@@SAHABQA_WABI$$QAPB_W$$QAI@Z 10051b30 f i libucrtd:assert.obj
 0001:00050b60       ??0__crt_stdio_stream@@QAE@QAU_iobuf@@@Z 10051b60 f i libucrtd:assert.obj
 0001:00050d50       ?get_flags@__crt_stdio_stream@@QBEJXZ 10051d50 f i libucrtd:assert.obj
 0001:00050e30       ?has_any_buffer@__crt_stdio_stream@@QBE_NXZ 10051e30 f i libucrtd:assert.obj
 0001:00050e50       ?has_any_of@__crt_stdio_stream@@QBE_NJ@Z 10051e50 f i libucrtd:assert.obj
 0001:00050e90       __assert                   10051e90 f   libucrtd:assert.obj
 0001:00050eb0       __invoke_watson_if_error   10051eb0 f i libucrtd:assert.obj
 0001:00050ee0       __vfprintf_l               10051ee0 f i libucrtd:assert.obj
 0001:00050f10       __vfwprintf_l              10051f10 f i libucrtd:assert.obj
 0001:00050f40       __vswprintf_c_l            10051f40 f i libucrtd:assert.obj
 0001:00050f90       __wassert                  10051f90 f   libucrtd:assert.obj
 0001:00050fb0       _fprintf                   10051fb0 f i libucrtd:assert.obj
 0001:00050ff0       _fwprintf                  10051ff0 f i libucrtd:assert.obj
 0001:00051140       _swprintf                  10052140 f i libucrtd:assert.obj
 0001:00051180       __abs64                    10052180 f   libucrtd:abs.obj
 0001:000511d0       _abs                       100521d0 f   libucrtd:abs.obj
 0001:00051200       _pow                       10052200 f   libucrtd:pow.obj
 0001:00051250       _cos                       10052250 f   libucrtd:cos.obj
 0001:000512a0       _sin                       100522a0 f   libucrtd:sin.obj
 0001:000512f0       ??$?RU?$__crt_report_hook_node@D@@@__crt_internal_free_policy@@QBEXQBU?$__crt_report_hook_node@D@@@Z 100522f0 f i libucrtd:dbgrpt.obj
 0001:00051310       ??$?RU?$__crt_report_hook_node@_W@@@__crt_internal_free_policy@@QBEXQBU?$__crt_report_hook_node@_W@@@Z 10052310 f i libucrtd:dbgrpt.obj
 0001:000522e0       ??0?$__crt_unique_heap_ptr@U?$__crt_report_hook_node@D@@U__crt_internal_free_policy@@@@QAE@QAU?$__crt_report_hook_node@D@@@Z 100532e0 f i libucrtd:dbgrpt.obj
 0001:00052300       ??0?$__crt_unique_heap_ptr@U?$__crt_report_hook_node@_W@@U__crt_internal_free_policy@@@@QAE@QAU?$__crt_report_hook_node@_W@@@Z 10053300 f i libucrtd:dbgrpt.obj
 0001:00052320       ??1?$__crt_unique_heap_ptr@U?$__crt_report_hook_node@D@@U__crt_internal_free_policy@@@@QAE@XZ 10053320 f i libucrtd:dbgrpt.obj
 0001:00052340       ??1?$__crt_unique_heap_ptr@U?$__crt_report_hook_node@_W@@U__crt_internal_free_policy@@@@QAE@XZ 10053340 f i libucrtd:dbgrpt.obj
 0001:00052360       ??B?$__crt_unique_heap_ptr@U?$__crt_report_hook_node@D@@U__crt_internal_free_policy@@@@QBE_NXZ 10053360 f i libucrtd:dbgrpt.obj
 0001:00052380       ??B?$__crt_unique_heap_ptr@U?$__crt_report_hook_node@_W@@U__crt_internal_free_policy@@@@QBE_NXZ 10053380 f i libucrtd:dbgrpt.obj
 0001:000528e0       ?detach@?$__crt_unique_heap_ptr@U?$__crt_report_hook_node@D@@U__crt_internal_free_policy@@@@QAEPAU?$__crt_report_hook_node@D@@XZ 100538e0 f i libucrtd:dbgrpt.obj
 0001:00052910       ?detach@?$__crt_unique_heap_ptr@U?$__crt_report_hook_node@_W@@U__crt_internal_free_policy@@@@QAEPAU?$__crt_report_hook_node@_W@@XZ 10053910 f i libucrtd:dbgrpt.obj
 0001:00052940       ?get@?$__crt_unique_heap_ptr@U?$__crt_report_hook_node@D@@U__crt_internal_free_policy@@@@QBEPAU?$__crt_report_hook_node@D@@XZ 10053940 f i libucrtd:dbgrpt.obj
 0001:00052960       ?get@?$__crt_unique_heap_ptr@U?$__crt_report_hook_node@_W@@U__crt_internal_free_policy@@@@QBEPAU?$__crt_report_hook_node@_W@@XZ 10053960 f i libucrtd:dbgrpt.obj
 0001:000529e0       ?is_valid@?$__crt_unique_heap_ptr@U?$__crt_report_hook_node@D@@U__crt_internal_free_policy@@@@QBE_NXZ 100539e0 f i libucrtd:dbgrpt.obj
 0001:00052a10       ?is_valid@?$__crt_unique_heap_ptr@U?$__crt_report_hook_node@_W@@U__crt_internal_free_policy@@@@QBE_NXZ 10053a10 f i libucrtd:dbgrpt.obj
 0001:00052a40       ?release@?$__crt_unique_heap_ptr@U?$__crt_report_hook_node@D@@U__crt_internal_free_policy@@@@QAEXXZ 10053a40 f i libucrtd:dbgrpt.obj
 0001:00052a70       ?release@?$__crt_unique_heap_ptr@U?$__crt_report_hook_node@_W@@U__crt_internal_free_policy@@@@QAEXXZ 10053a70 f i libucrtd:dbgrpt.obj
 0001:00052aa0       __CrtDbgReport             10053aa0 f   libucrtd:dbgrpt.obj
 0001:00052af0       __CrtDbgReportW            10053af0 f   libucrtd:dbgrpt.obj
 0001:00052b40       __CrtSetReportHook2        10053b40 f   libucrtd:dbgrpt.obj
 0001:00052b60       __CrtSetReportHookW2       10053b60 f   libucrtd:dbgrpt.obj
 0001:00052b80       ___acrt_MessageWindowA     10053b80 f   libucrtd:dbgrpt.obj
 0001:00052bb0       ___acrt_MessageWindowW     10053bb0 f   libucrtd:dbgrpt.obj
 0001:00052be0       __invoke_watson_if_oneof   10053be0 f i libucrtd:dbgrpt.obj
 0001:00052c20       __snwprintf_s              10053c20 f i libucrtd:dbgrpt.obj
 0001:00052c60       __vsnwprintf_s_l           10053c60 f i libucrtd:dbgrpt.obj
 0001:00052cc0       ??0_LocaleUpdate@@QAE@QAU__crt_locale_pointers@@@Z 10053cc0 f i libucrtd:debug_heap.obj
 0001:00052d90       ??1_LocaleUpdate@@QAE@XZ   10053d90 f i libucrtd:debug_heap.obj
 0001:00052dc0       ?GetLocaleT@_LocaleUpdate@@QAEPAU__crt_locale_pointers@@XZ 10053dc0 f i libucrtd:debug_heap.obj
 0001:00054810       __CrtCheckMemory           10055810 f   libucrtd:debug_heap.obj
 0001:000549a0       __CrtDoForAllClientObjects 100559a0 f   libucrtd:debug_heap.obj
 0001:00054b00       __CrtDumpMemoryLeaks       10055b00 f   libucrtd:debug_heap.obj
 0001:00054ba0       __CrtGetAllocHook          10055ba0 f   libucrtd:debug_heap.obj
 0001:00054bb0       __CrtGetDumpClient         10055bb0 f   libucrtd:debug_heap.obj
 0001:00054bc0       __CrtIsMemoryBlock         10055bc0 f   libucrtd:debug_heap.obj
 0001:00054d10       __CrtIsValidHeapPointer    10055d10 f   libucrtd:debug_heap.obj
 0001:00054d50       __CrtIsValidPointer        10055d50 f   libucrtd:debug_heap.obj
 0001:00054d80       __CrtMemCheckpoint         10055d80 f   libucrtd:debug_heap.obj
 0001:00054fb0       __CrtMemDifference         10055fb0 f   libucrtd:debug_heap.obj
 0001:00055220       __CrtMemDumpAllObjectsSince 10056220 f   libucrtd:debug_heap.obj
 0001:000552c0       __CrtMemDumpStatistics     100562c0 f   libucrtd:debug_heap.obj
 0001:000553f0       __CrtReportBlockType       100563f0 f   libucrtd:debug_heap.obj
 0001:00055420       __CrtSetAllocHook          10056420 f   libucrtd:debug_heap.obj
 0001:00055440       __CrtSetBreakAlloc         10056440 f   libucrtd:debug_heap.obj
 0001:00055460       __CrtSetDbgBlockType       10056460 f   libucrtd:debug_heap.obj
 0001:00055540       __CrtSetDbgFlag            10056540 f   libucrtd:debug_heap.obj
 0001:000556b0       __CrtSetDumpClient         100566b0 f   libucrtd:debug_heap.obj
 0001:000556d0       ___acrt_disable_global_locale_sync 100566d0 f i libucrtd:debug_heap.obj
 0001:000556f0       ___acrt_enable_global_locale_sync 100566f0 f i libucrtd:debug_heap.obj
 0001:00055710       ___acrt_get_locale_data_prefix 10056710 f i libucrtd:debug_heap.obj
 0001:00055730       ___acrt_locale_changed     10056730 f i libucrtd:debug_heap.obj
 0001:00055760       ___p__crtBreakAlloc        10056760 f   libucrtd:debug_heap.obj
 0001:00055770       ___p__crtDbgFlag           10056770 f   libucrtd:debug_heap.obj
 0001:00055780       __aligned_free_dbg         10056780 f   libucrtd:debug_heap.obj
 0001:00055830       __aligned_malloc_dbg       10056830 f   libucrtd:debug_heap.obj
 0001:00055860       __aligned_msize_dbg        10056860 f   libucrtd:debug_heap.obj
 0001:00055990       __aligned_offset_malloc_dbg 10056990 f   libucrtd:debug_heap.obj
 0001:00055b70       __aligned_offset_realloc_dbg 10056b70 f   libucrtd:debug_heap.obj
 0001:00055e80       __aligned_offset_recalloc_dbg 10056e80 f   libucrtd:debug_heap.obj
 0001:00055f40       __aligned_realloc_dbg      10056f40 f   libucrtd:debug_heap.obj
 0001:00055f70       __aligned_recalloc_dbg     10056f70 f   libucrtd:debug_heap.obj
 0001:00055fa0       __calloc_dbg               10056fa0 f   libucrtd:debug_heap.obj
 0001:00056010       __chvalidchk_l             10057010 f i libucrtd:debug_heap.obj
 0001:00056030       __expand_dbg               10057030 f   libucrtd:debug_heap.obj
 0001:00056160       __free_dbg                 10057160 f   libucrtd:debug_heap.obj
 0001:00056210       __ischartype_l             10057210 f i libucrtd:debug_heap.obj
 0001:00056290       __malloc_dbg               10057290 f   libucrtd:debug_heap.obj
 0001:000562b0       __msize_dbg                100572b0 f   libucrtd:debug_heap.obj
 0001:00056440       __realloc_dbg              10057440 f   libucrtd:debug_heap.obj
 0001:000564e0       __recalloc_dbg             100574e0 f   libucrtd:debug_heap.obj
 0001:00056590       ?should_round_up@__crt_strtox@@YA_N_N000@Z 10057590 f i libucrtd:fpexcept.obj
 0001:00056680       __errcode                  10057680 f   libucrtd:fpexcept.obj
 0001:000566f0       __except1                  100576f0 f   libucrtd:fpexcept.obj
 0001:000567f0       __except2                  100577f0 f   libucrtd:fpexcept.obj
 0001:00056950       __handle_exc               10057950 f   libucrtd:fpexcept.obj
 0001:00056ce0       __handle_qnan2             10057ce0 f   libucrtd:fpexcept.obj
 0001:00056d00       __raise_exc                10057d00 f   libucrtd:fpexcept.obj
 0001:00056d30       __raise_exc_ex             10057d30 f   libucrtd:fpexcept.obj
 0001:000572b0       __raise_excf               100582b0 f   libucrtd:fpexcept.obj
 0001:000572e0       __set_errno_from_matherr   100582e0 f   libucrtd:fpexcept.obj
 0001:00057320       __umatherr                 10058320 f   libucrtd:fpexcept.obj
 0001:000573c0       __initterm                 100583c0 f   libucrtd:initterm.obj
 0001:00057410       __initterm_e               10058410 f   libucrtd:initterm.obj
 0001:000574c0       __seh_filter_dll           100584c0 f   libucrtd:exception_filter.obj
 0001:000574f0       __seh_filter_exe           100584f0 f   libucrtd:exception_filter.obj
 0001:00057710       ??$?B$$A6GXPAXK0@Z@__crt_fast_encoded_nullptr_t@@QBEP6GXPAXK0@ZXZ 10058710 f i libucrtd:exit.obj
 0001:00057820       ??$__crt_fast_decode_pointer@P6GXPAXK0@Z@@YAP6GXPAXK0@ZQ6GX0K0@Z@Z 10058820 f i libucrtd:exit.obj
 0001:00057850       ??$__crt_fast_encode_pointer@P6GXPAXK0@Z@@YAP6GXPAXK0@ZQ6GX0K0@Z@Z 10058850 f i libucrtd:exit.obj
 0001:00057880       ??$__crt_get_proc_address@P6GXI@Z@@YAP6GXI@ZQAUHINSTANCE__@@QBD@Z 10058880 f i libucrtd:exit.obj
 0001:00057910       ??0?$__crt_unique_handle_t@U__crt_hmodule_traits@@@@QAE@QAUHINSTANCE__@@@Z 10058910 f i libucrtd:exit.obj
 0001:00057930       ??1?$__crt_unique_handle_t@U__crt_hmodule_traits@@@@QAE@XZ 10058930 f i libucrtd:exit.obj
 0001:00057af0       ?__acrt_select_exit_lock@@YA?AW4__acrt_lock_id@@XZ 10058af0 f i libucrtd:exit.obj
 0001:00057b00       ?__crt_fast_encode_pointer@@YA?AU__crt_fast_encoded_nullptr_t@@$$T@Z 10058b00 f i libucrtd:exit.obj
 0001:00057b10       ?__crt_rotate_pointer_value@@YAIIH@Z 10058b10 f i libucrtd:exit.obj
 0001:00057b40       ?close@?$__crt_unique_handle_t@U__crt_hmodule_traits@@@@QAEXXZ 10058b40 f i libucrtd:exit.obj
 0001:00057b80       ?close@__crt_hmodule_traits@@SA_NPAUHINSTANCE__@@@Z 10058b80 f i libucrtd:exit.obj
 0001:00057cb0       ?get@?$__crt_unique_handle_t@U__crt_hmodule_traits@@@@QBEPAUHINSTANCE__@@XZ 10058cb0 f i libucrtd:exit.obj
 0001:00057cd0       ?get_address_of@?$__crt_unique_handle_t@U__crt_hmodule_traits@@@@QAEPAPAUHINSTANCE__@@XZ 10058cd0 f i libucrtd:exit.obj
 0001:00057ce0       ?get_invalid_value@__crt_hmodule_traits@@SAPAUHINSTANCE__@@XZ 10058ce0 f i libucrtd:exit.obj
 0001:00057e70       __Exit                     10058e70 f   libucrtd:exit.obj
 0001:00057e90       ___acrt_initialize_thread_local_exit_callback 10058e90 f   libucrtd:exit.obj
 0001:00057ea0       __c_exit                   10058ea0 f   libucrtd:exit.obj
 0001:00057ec0       __cexit                    10058ec0 f   libucrtd:exit.obj
 0001:00057ee0       __exit                     10058ee0 f   libucrtd:exit.obj
 0001:00057f00       __is_c_termination_complete 10058f00 f   libucrtd:exit.obj
 0001:00057f20       __register_thread_local_exe_atexit_callback 10058f20 f   libucrtd:exit.obj
 0001:00057f60       _exit                      10058f60 f   libucrtd:exit.obj
 0001:00057f80       _quick_exit                10058f80 f   libucrtd:exit.obj
 0001:00057fa0       ??$?RE@__crt_internal_free_policy@@QBEXQBE@Z 10058fa0 f i libucrtd:argv_parsing.obj
 0001:00057fc0       ??$?RPAD@__crt_internal_free_policy@@QBEXQBQAD@Z 10058fc0 f i libucrtd:argv_parsing.obj
 0001:00057fe0       ??$?RPA_W@__crt_internal_free_policy@@QBEXQBQA_W@Z 10058fe0 f i libucrtd:argv_parsing.obj
 0001:000585a0       ??$get_module_file_name@$$TAAY0BAF@DH@?$__crt_char_traits@D@@SAK$$QA$$TAAY0BAF@D$$QAH@Z 100595a0 f i libucrtd:argv_parsing.obj
 0001:000585c0       ??$get_module_file_name@$$TAAY0BAF@_WH@?$__crt_char_traits@_W@@SAK$$QA$$TAAY0BAF@_W$$QAH@Z 100595c0 f i libucrtd:argv_parsing.obj
 0001:00058d00       ??$set_program_name@PAD@?$__crt_char_traits@D@@SAX$$QAPAD@Z 10059d00 f i libucrtd:argv_parsing.obj
 0001:00058d20       ??$set_program_name@PA_W@?$__crt_char_traits@_W@@SAX$$QAPA_W@Z 10059d20 f i libucrtd:argv_parsing.obj
 0001:00058d80       ??0?$__crt_unique_heap_ptr@EU__crt_internal_free_policy@@@@QAE@QAE@Z 10059d80 f i libucrtd:argv_parsing.obj
 0001:00058da0       ??0?$__crt_unique_heap_ptr@PADU__crt_internal_free_policy@@@@QAE@QAPAD@Z 10059da0 f i libucrtd:argv_parsing.obj
 0001:00058dc0       ??0?$__crt_unique_heap_ptr@PA_WU__crt_internal_free_policy@@@@QAE@QAPA_W@Z 10059dc0 f i libucrtd:argv_parsing.obj
 0001:00058de0       ??1?$__crt_unique_heap_ptr@EU__crt_internal_free_policy@@@@QAE@XZ 10059de0 f i libucrtd:argv_parsing.obj
 0001:00058e00       ??1?$__crt_unique_heap_ptr@PADU__crt_internal_free_policy@@@@QAE@XZ 10059e00 f i libucrtd:argv_parsing.obj
 0001:00058e20       ??1?$__crt_unique_heap_ptr@PA_WU__crt_internal_free_policy@@@@QAE@XZ 10059e20 f i libucrtd:argv_parsing.obj
 0001:00058e40       ??B?$__crt_unique_heap_ptr@EU__crt_internal_free_policy@@@@QBE_NXZ 10059e40 f i libucrtd:argv_parsing.obj
 0001:00058f00       ?detach@?$__crt_unique_heap_ptr@EU__crt_internal_free_policy@@@@QAEPAEXZ 10059f00 f i libucrtd:argv_parsing.obj
 0001:00058f30       ?detach@?$__crt_unique_heap_ptr@PADU__crt_internal_free_policy@@@@QAEPAPADXZ 10059f30 f i libucrtd:argv_parsing.obj
 0001:00058f60       ?detach@?$__crt_unique_heap_ptr@PA_WU__crt_internal_free_policy@@@@QAEPAPA_WXZ 10059f60 f i libucrtd:argv_parsing.obj
 0001:00058ff0       ?get@?$__crt_unique_heap_ptr@EU__crt_internal_free_policy@@@@QBEPAEXZ 10059ff0 f i libucrtd:argv_parsing.obj
 0001:00059010       ?get@?$__crt_unique_heap_ptr@PADU__crt_internal_free_policy@@@@QBEPAPADXZ 1005a010 f i libucrtd:argv_parsing.obj
 0001:00059030       ?get@?$__crt_unique_heap_ptr@PA_WU__crt_internal_free_policy@@@@QBEPAPA_WXZ 1005a030 f i libucrtd:argv_parsing.obj
 0001:00059050       ?get_address_of@?$__crt_unique_heap_ptr@PADU__crt_internal_free_policy@@@@QAEPAPAPADXZ 1005a050 f i libucrtd:argv_parsing.obj
 0001:00059060       ?get_address_of@?$__crt_unique_heap_ptr@PA_WU__crt_internal_free_policy@@@@QAEPAPAPA_WXZ 1005a060 f i libucrtd:argv_parsing.obj
 0001:000590b0       ?is_valid@?$__crt_unique_heap_ptr@EU__crt_internal_free_policy@@@@QBE_NXZ 1005a0b0 f i libucrtd:argv_parsing.obj
 0001:000590e0       ?release@?$__crt_unique_heap_ptr@EU__crt_internal_free_policy@@@@QAEXXZ 1005a0e0 f i libucrtd:argv_parsing.obj
 0001:00059110       ?release@?$__crt_unique_heap_ptr@PADU__crt_internal_free_policy@@@@QAEXXZ 1005a110 f i libucrtd:argv_parsing.obj
 0001:00059140       ?release@?$__crt_unique_heap_ptr@PA_WU__crt_internal_free_policy@@@@QAEXXZ 1005a140 f i libucrtd:argv_parsing.obj
 0001:000591b0       ___acrt_allocate_buffer_for_argv 1005a1b0 f   libucrtd:argv_parsing.obj
 0001:00059270       __configure_narrow_argv    1005a270 f   libucrtd:argv_parsing.obj
 0001:00059290       __configure_wide_argv      1005a290 f   libucrtd:argv_parsing.obj
 0001:000592b0       __set_pgmptr               1005a2b0 f i libucrtd:argv_parsing.obj
 0001:000592c0       __set_wpgmptr              1005a2c0 f i libucrtd:argv_parsing.obj
 0001:000592d0       ??$?R_W@__crt_internal_free_policy@@QBEXQB_W@Z 1005a2d0 f i libucrtd:environment_initialization.obj
 0001:00059ab0       ??$get_environment_from_os@$$V@?$__crt_char_traits@D@@SAPADXZ 1005aab0 f i libucrtd:environment_initialization.obj
 0001:00059ac0       ??$get_environment_from_os@$$V@?$__crt_char_traits@_W@@SAPA_WXZ 1005aac0 f i libucrtd:environment_initialization.obj
 0001:00059d90       ??$set_variable_in_environment_nolock@PADH@?$__crt_char_traits@D@@SAH$$QAPAD$$QAH@Z 1005ad90 f i libucrtd:environment_initialization.obj
 0001:00059db0       ??$set_variable_in_environment_nolock@PA_WH@?$__crt_char_traits@_W@@SAH$$QAPA_W$$QAH@Z 1005adb0 f i libucrtd:environment_initialization.obj
 0001:00059dd0       ??$tcscpy_s@PADABIAAPAD@?$__crt_char_traits@D@@SAH$$QAPADABIAAPAD@Z 1005add0 f i libucrtd:environment_initialization.obj
 0001:00059e00       ??$tcscpy_s@PA_WABIAAPA_W@?$__crt_char_traits@_W@@SAH$$QAPA_WABIAAPA_W@Z 1005ae00 f i libucrtd:environment_initialization.obj
 0001:00059e30       ??$tcslen@AAPAD@?$__crt_char_traits@D@@SAIAAPAD@Z 1005ae30 f i libucrtd:environment_initialization.obj
 0001:00059e50       ??$tcslen@AAPA_W@?$__crt_char_traits@_W@@SAIAAPA_W@Z 1005ae50 f i libucrtd:environment_initialization.obj
 0001:00059e70       ??$uninitialize@A6AXAAPAPAD@_E@?$dual_state_global@PAPAD@__crt_state_management@@QAEXA6AXAAPAPAD@_E@Z 1005ae70 f i libucrtd:environment_initialization.obj
 0001:00059ef0       ??$uninitialize@A6AXAAPAPA_W@_E@?$dual_state_global@PAPA_W@__crt_state_management@@QAEXA6AXAAPAPA_W@_E@Z 1005aef0 f i libucrtd:environment_initialization.obj
 0001:00059fd0       ??0?$__crt_unique_heap_ptr@_WU__crt_internal_free_policy@@@@QAE@QA_W@Z 1005afd0 f i libucrtd:environment_initialization.obj
 0001:00059ff0       ??1?$__crt_unique_heap_ptr@_WU__crt_internal_free_policy@@@@QAE@XZ 1005aff0 f i libucrtd:environment_initialization.obj
 0001:0005a010       ??B?$__crt_unique_heap_ptr@PADU__crt_internal_free_policy@@@@QBE_NXZ 1005b010 f i libucrtd:environment_initialization.obj
 0001:0005a030       ??B?$__crt_unique_heap_ptr@PA_WU__crt_internal_free_policy@@@@QBE_NXZ 1005b030 f i libucrtd:environment_initialization.obj
 0001:0005a050       ??B?$__crt_unique_heap_ptr@_WU__crt_internal_free_policy@@@@QBE_NXZ 1005b050 f i libucrtd:environment_initialization.obj
 0001:0005a070       ?__crt_compute_required_transform_buffer_count@@YAIIQBD@Z 1005b070 f i libucrtd:environment_initialization.obj
 0001:0005a090       ?__crt_compute_required_transform_buffer_count@@YAIIQB_W@Z 1005b090 f i libucrtd:environment_initialization.obj
 0001:0005a0c0       ?__crt_transform_string@@YAIIQBDQA_WI@Z 1005b0c0 f i libucrtd:environment_initialization.obj
 0001:0005a0f0       ?__crt_transform_string@@YAIIQB_WQADI@Z 1005b0f0 f i libucrtd:environment_initialization.obj
 0001:0005a120       ?detach@?$__crt_unique_heap_ptr@DU__crt_internal_free_policy@@@@QAEPADXZ 1005b120 f i libucrtd:environment_initialization.obj
 0001:0005a150       ?detach@?$__crt_unique_heap_ptr@_WU__crt_internal_free_policy@@@@QAEPA_WXZ 1005b150 f i libucrtd:environment_initialization.obj
 0001:0005a180       ?get@?$__crt_unique_heap_ptr@_WU__crt_internal_free_policy@@@@QBEPA_WXZ 1005b180 f i libucrtd:environment_initialization.obj
 0001:0005a1a0       ?get_current_state_index@__crt_state_management@@YAIXZ 1005b1a0 f i libucrtd:environment_initialization.obj
 0001:0005a230       ?initialize@?$dual_state_global@PAPAD@__crt_state_management@@QAEXQAPAD@Z 1005b230 f i libucrtd:environment_initialization.obj
 0001:0005a270       ?initialize@?$dual_state_global@PAPA_W@__crt_state_management@@QAEXQAPA_W@Z 1005b270 f i libucrtd:environment_initialization.obj
 0001:0005a2b0       ?is_valid@?$__crt_unique_heap_ptr@PADU__crt_internal_free_policy@@@@QBE_NXZ 1005b2b0 f i libucrtd:environment_initialization.obj
 0001:0005a2e0       ?is_valid@?$__crt_unique_heap_ptr@PA_WU__crt_internal_free_policy@@@@QBE_NXZ 1005b2e0 f i libucrtd:environment_initialization.obj
 0001:0005a310       ?is_valid@?$__crt_unique_heap_ptr@_WU__crt_internal_free_policy@@@@QBE_NXZ 1005b310 f i libucrtd:environment_initialization.obj
 0001:0005a360       ?release@?$__crt_unique_heap_ptr@_WU__crt_internal_free_policy@@@@QAEXXZ 1005b360 f i libucrtd:environment_initialization.obj
 0001:0005a390       ?value@?$dual_state_global@PAPAD@__crt_state_management@@QAEAAPAPADXZ 1005b390 f i libucrtd:environment_initialization.obj
 0001:0005a3b0       ?value@?$dual_state_global@PAPA_W@__crt_state_management@@QAEAAPAPA_WXZ 1005b3b0 f i libucrtd:environment_initialization.obj
 0001:0005a3d0       ___dcrt_get_or_create_narrow_environment_nolock 1005b3d0 f   libucrtd:environment_initialization.obj
 0001:0005a3e0       ___dcrt_get_or_create_wide_environment_nolock 1005b3e0 f   libucrtd:environment_initialization.obj
 0001:0005a3f0       ___dcrt_uninitialize_environments_nolock 1005b3f0 f   libucrtd:environment_initialization.obj
 0001:0005a440       ___p__environ              1005b440 f   libucrtd:environment_initialization.obj
 0001:0005a460       ___p__wenviron             1005b460 f   libucrtd:environment_initialization.obj
 0001:0005a480       __get_initial_narrow_environment 1005b480 f   libucrtd:environment_initialization.obj
 0001:0005a490       __get_initial_wide_environment 1005b490 f   libucrtd:environment_initialization.obj
 0001:0005a4a0       __initialize_narrow_environment 1005b4a0 f   libucrtd:environment_initialization.obj
 0001:0005a4b0       __initialize_wide_environment 1005b4b0 f   libucrtd:environment_initialization.obj
 0001:0005a4c0       ??$?B$$A6AXXZ@__crt_fast_encoded_nullptr_t@@QBEP6AXXZXZ 1005b4c0 f i libucrtd:onexit.obj
 0001:0005a4e0       ??$?BP6AXXZ@__crt_fast_encoded_nullptr_t@@QBEPAP6AXXZXZ 1005b4e0 f i libucrtd:onexit.obj
 0001:0005a500       ??$?RP6AXXZ@__crt_internal_free_policy@@QBEXQBQ6AXXZ@Z 1005b500 f i libucrtd:onexit.obj
 0001:0005a720       ??$__crt_fast_decode_pointer@P6AXXZ@@YAP6AXXZQ6AXXZ@Z 1005b720 f i libucrtd:onexit.obj
 0001:0005a750       ??$__crt_fast_decode_pointer@PAP6AXXZ@@YAPAP6AXXZQAP6AXXZ@Z 1005b750 f i libucrtd:onexit.obj
 0001:0005a780       ??$__crt_fast_encode_pointer@P6AHXZ@@YAP6AHXZQ6AHXZ@Z 1005b780 f i libucrtd:onexit.obj
 0001:0005a7b0       ??$__crt_fast_encode_pointer@P6AXXZ@@YAP6AXXZQ6AXXZ@Z 1005b7b0 f i libucrtd:onexit.obj
 0001:0005a7e0       ??$__crt_fast_encode_pointer@PAP6AXXZ@@YAPAP6AXXZQAP6AXXZ@Z 1005b7e0 f i libucrtd:onexit.obj
 0001:0005a8e0       ??0?$__crt_unique_heap_ptr@P6AXXZU__crt_internal_free_policy@@@@QAE@QAP6AXXZ@Z 1005b8e0 f i libucrtd:onexit.obj
 0001:0005a900       ??1?$__crt_unique_heap_ptr@P6AXXZU__crt_internal_free_policy@@@@QAE@XZ 1005b900 f i libucrtd:onexit.obj
 0001:0005a920       ??1scoped_global_state_reset@__crt_state_management@@QAE@XZ 1005b920 f i libucrtd:onexit.obj
 0001:0005ada0       ?detach@?$__crt_unique_heap_ptr@P6AXXZU__crt_internal_free_policy@@@@QAEPAP6AXXZXZ 1005bda0 f i libucrtd:onexit.obj
 0001:0005add0       ?release@?$__crt_unique_heap_ptr@P6AXXZU__crt_internal_free_policy@@@@QAEXXZ 1005bdd0 f i libucrtd:onexit.obj
 0001:0005ae00       __crt_at_quick_exit        1005be00 f   libucrtd:onexit.obj
 0001:0005ae20       __crt_atexit               1005be20 f   libucrtd:onexit.obj
 0001:0005ae40       __execute_onexit_table     1005be40 f   libucrtd:onexit.obj
 0001:0005ae80       __initialize_onexit_table  1005be80 f   libucrtd:onexit.obj
 0001:0005aee0       __register_onexit_function 1005bee0 f   libucrtd:onexit.obj
 0001:0005b130       ??$?BX@__crt_fast_encoded_nullptr_t@@QBEPAXXZ 1005c130 f i libucrtd:initialization.obj
 0001:0005b150       ??$__crt_fast_encode_pointer@PAX@@YAPAXQAX@Z 1005c150 f i libucrtd:initialization.obj
 0001:0005b240       ?initialize@?$dual_state_global@PAU__crt_locale_data@@@__crt_state_management@@QAEXQAU__crt_locale_data@@@Z 1005c240 f i libucrtd:initialization.obj
 0001:0005b280       ___acrt_initialize         1005c280 f   libucrtd:initialization.obj
 0001:0005b2a0       ___acrt_thread_attach      1005c2a0 f   libucrtd:initialization.obj
 0001:0005b2c0       ___acrt_thread_detach      1005c2c0 f   libucrtd:initialization.obj
 0001:0005b2d0       ___acrt_uninitialize       1005c2d0 f   libucrtd:initialization.obj
 0001:0005b2f0       ___acrt_uninitialize_critical 1005c2f0 f   libucrtd:initialization.obj
 0001:0005b340       __get_terminate            1005c340 f   libucrtd:terminate.obj
 0001:0005b360       _set_terminate             1005c360 f   libucrtd:terminate.obj
 0001:0005b390       _terminate                 1005c390 f   libucrtd:terminate.obj
 0001:0005b730       _strcpy_s                  1005c730 f   libucrtd:strcpy_s.obj
 0001:0005bb60       _strcat_s                  1005cb60 f   libucrtd:strcat_s.obj
 0001:0005bb80       ??$?0ABV?$stream_output_adapter@D@__crt_stdio_output@@AB_KABQBDAAV__crt_cached_ptd_host@@ABQAD@?$format_validation_base@DV?$stream_output_adapter@D@__crt_stdio_output@@@__crt_stdio_output@@IAE@ABV?$stream_output_adapter@D@1@AB_KABQBDAAV__crt_cached_ptd_host@@ABQAD@Z 1005cb80 f i libucrtd:output.obj
 0001:0005bbb0       ??$?0ABV?$stream_output_adapter@D@__crt_stdio_output@@AB_KABQBDAAV__crt_cached_ptd_host@@ABQAD@?$positional_parameter_base@DV?$stream_output_adapter@D@__crt_stdio_output@@@__crt_stdio_output@@IAE@ABV?$stream_output_adapter@D@1@AB_KABQBDAAV__crt_cached_ptd_host@@ABQAD@Z 1005cbb0 f i libucrtd:output.obj
 0001:0005bc30       ??$?0ABV?$stream_output_adapter@D@__crt_stdio_output@@AB_KABQBDAAV__crt_cached_ptd_host@@ABQAD@?$standard_base@DV?$stream_output_adapter@D@__crt_stdio_output@@@__crt_stdio_output@@IAE@ABV?$stream_output_adapter@D@1@AB_KABQBDAAV__crt_cached_ptd_host@@ABQAD@Z 1005cc30 f i libucrtd:output.obj
 0001:0005bc80       ??$?0ABV?$stream_output_adapter@_W@__crt_stdio_output@@AB_KABQB_WAAV__crt_cached_ptd_host@@ABQAD@?$format_validation_base@_WV?$stream_output_adapter@_W@__crt_stdio_output@@@__crt_stdio_output@@IAE@ABV?$stream_output_adapter@_W@1@AB_KABQB_WAAV__crt_cached_ptd_host@@ABQAD@Z 1005cc80 f i libucrtd:output.obj
 0001:0005bcb0       ??$?0ABV?$stream_output_adapter@_W@__crt_stdio_output@@AB_KABQB_WAAV__crt_cached_ptd_host@@ABQAD@?$positional_parameter_base@_WV?$stream_output_adapter@_W@__crt_stdio_output@@@__crt_stdio_output@@IAE@ABV?$stream_output_adapter@_W@1@AB_KABQB_WAAV__crt_cached_ptd_host@@ABQAD@Z 1005ccb0 f i libucrtd:output.obj
 0001:0005bd30       ??$?0ABV?$stream_output_adapter@_W@__crt_stdio_output@@AB_KABQB_WAAV__crt_cached_ptd_host@@ABQAD@?$standard_base@_WV?$stream_output_adapter@_W@__crt_stdio_output@@@__crt_stdio_output@@IAE@ABV?$stream_output_adapter@_W@1@AB_KABQB_WAAV__crt_cached_ptd_host@@ABQAD@Z 1005cd30 f i libucrtd:output.obj
 0001:0005bd80       ??$?0ABV?$string_output_adapter@D@__crt_stdio_output@@AB_KABQBDAAV__crt_cached_ptd_host@@ABQAD@?$format_validation_base@DV?$string_output_adapter@D@__crt_stdio_output@@@__crt_stdio_output@@IAE@ABV?$string_output_adapter@D@1@AB_KABQBDAAV__crt_cached_ptd_host@@ABQAD@Z 1005cd80 f i libucrtd:output.obj
 0001:0005bdb0       ??$?0ABV?$string_output_adapter@D@__crt_stdio_output@@AB_KABQBDAAV__crt_cached_ptd_host@@ABQAD@?$positional_parameter_base@DV?$string_output_adapter@D@__crt_stdio_output@@@__crt_stdio_output@@IAE@ABV?$string_output_adapter@D@1@AB_KABQBDAAV__crt_cached_ptd_host@@ABQAD@Z 1005cdb0 f i libucrtd:output.obj
 0001:0005be30       ??$?0ABV?$string_output_adapter@D@__crt_stdio_output@@AB_KABQBDAAV__crt_cached_ptd_host@@ABQAD@?$standard_base@DV?$string_output_adapter@D@__crt_stdio_output@@@__crt_stdio_output@@IAE@ABV?$string_output_adapter@D@1@AB_KABQBDAAV__crt_cached_ptd_host@@ABQAD@Z 1005ce30 f i libucrtd:output.obj
 0001:0005be80       ??$?0ABV?$string_output_adapter@_W@__crt_stdio_output@@AB_KABQB_WAAV__crt_cached_ptd_host@@ABQAD@?$format_validation_base@_WV?$string_output_adapter@_W@__crt_stdio_output@@@__crt_stdio_output@@IAE@ABV?$string_output_adapter@_W@1@AB_KABQB_WAAV__crt_cached_ptd_host@@ABQAD@Z 1005ce80 f i libucrtd:output.obj
 0001:0005beb0       ??$?0ABV?$string_output_adapter@_W@__crt_stdio_output@@AB_KABQB_WAAV__crt_cached_ptd_host@@ABQAD@?$positional_parameter_base@_WV?$string_output_adapter@_W@__crt_stdio_output@@@__crt_stdio_output@@IAE@ABV?$string_output_adapter@_W@1@AB_KABQB_WAAV__crt_cached_ptd_host@@ABQAD@Z 1005ceb0 f i libucrtd:output.obj
 0001:0005bf30       ??$?0ABV?$string_output_adapter@_W@__crt_stdio_output@@AB_KABQB_WAAV__crt_cached_ptd_host@@ABQAD@?$standard_base@_WV?$string_output_adapter@_W@__crt_stdio_output@@@__crt_stdio_output@@IAE@ABV?$string_output_adapter@_W@1@AB_KABQB_WAAV__crt_cached_ptd_host@@ABQAD@Z 1005cf30 f i libucrtd:output.obj
 0001:0005c580       ??$_tcstol_internal@DPAPAD$0A@@@YAJAAV__crt_cached_ptd_host@@QBDQAPADH@Z 1005d580 f i libucrtd:output.obj
 0001:0005c5c0       ??$_tcstol_internal@_WPAPA_W$0A@@@YAJAAV__crt_cached_ptd_host@@QB_WQAPA_WH@Z 1005d5c0 f i libucrtd:output.obj
 0001:0005f560       ??$count@D@formatting_buffer@__crt_stdio_output@@QBEIXZ 10060560 f i libucrtd:output.obj
 0001:0005f5a0       ??$count@_W@formatting_buffer@__crt_stdio_output@@QBEIXZ 100605a0 f i libucrtd:output.obj
 0001:0005f5e0       ??$data@D@formatting_buffer@__crt_stdio_output@@QAEPADXZ 100605e0 f i libucrtd:output.obj
 0001:0005f620       ??$data@_W@formatting_buffer@__crt_stdio_output@@QAEPA_WXZ 10060620 f i libucrtd:output.obj
 0001:0005f660       ??$ensure_buffer_is_big_enough@D@formatting_buffer@__crt_stdio_output@@QAE_NIAAV__crt_cached_ptd_host@@@Z 10060660 f i libucrtd:output.obj
 0001:0005f750       ??$ensure_buffer_is_big_enough@_W@formatting_buffer@__crt_stdio_output@@QAE_NIAAV__crt_cached_ptd_host@@@Z 10060750 f i libucrtd:output.obj
 0001:0005f840       ??$extract_argument_from_va_list@C_J@?$positional_parameter_base@DV?$stream_output_adapter@D@__crt_stdio_output@@@__crt_stdio_output@@IAE_NAA_J@Z 10060840 f i libucrtd:output.obj
 0001:0005f9a0       ??$extract_argument_from_va_list@C_J@?$positional_parameter_base@DV?$string_output_adapter@D@__crt_stdio_output@@@__crt_stdio_output@@IAE_NAA_J@Z 100609a0 f i libucrtd:output.obj
 0001:0005fb00       ??$extract_argument_from_va_list@C_J@?$positional_parameter_base@_WV?$stream_output_adapter@_W@__crt_stdio_output@@@__crt_stdio_output@@IAE_NAA_J@Z 10060b00 f i libucrtd:output.obj
 0001:0005fc70       ??$extract_argument_from_va_list@C_J@?$positional_parameter_base@_WV?$string_output_adapter@_W@__crt_stdio_output@@@__crt_stdio_output@@IAE_NAA_J@Z 10060c70 f i libucrtd:output.obj
 0001:0005fde0       ??$extract_argument_from_va_list@C_J@?$standard_base@DV?$stream_output_adapter@D@__crt_stdio_output@@@__crt_stdio_output@@IAE_NAA_J@Z 10060de0 f i libucrtd:output.obj
 0001:0005fe10       ??$extract_argument_from_va_list@C_J@?$standard_base@DV?$string_output_adapter@D@__crt_stdio_output@@@__crt_stdio_output@@IAE_NAA_J@Z 10060e10 f i libucrtd:output.obj
 0001:0005fe40       ??$extract_argument_from_va_list@C_J@?$standard_base@_WV?$stream_output_adapter@_W@__crt_stdio_output@@@__crt_stdio_output@@IAE_NAA_J@Z 10060e40 f i libucrtd:output.obj
 0001:0005fe70       ??$extract_argument_from_va_list@C_J@?$standard_base@_WV?$string_output_adapter@_W@__crt_stdio_output@@@__crt_stdio_output@@IAE_NAA_J@Z 10060e70 f i libucrtd:output.obj
 0001:0005fea0       ??$extract_argument_from_va_list@E_J@?$positional_parameter_base@DV?$stream_output_adapter@D@__crt_stdio_output@@@__crt_stdio_output@@IAE_NAA_J@Z 10060ea0 f i libucrtd:output.obj
 0001:00060000       ??$extract_argument_from_va_list@E_J@?$positional_parameter_base@DV?$string_output_adapter@D@__crt_stdio_output@@@__crt_stdio_output@@IAE_NAA_J@Z 10061000 f i libucrtd:output.obj
 0001:00060160       ??$extract_argument_from_va_list@E_J@?$positional_parameter_base@_WV?$stream_output_adapter@_W@__crt_stdio_output@@@__crt_stdio_output@@IAE_NAA_J@Z 10061160 f i libucrtd:output.obj
 0001:000602d0       ??$extract_argument_from_va_list@E_J@?$positional_parameter_base@_WV?$string_output_adapter@_W@__crt_stdio_output@@@__crt_stdio_output@@IAE_NAA_J@Z 100612d0 f i libucrtd:output.obj
 0001:00060440       ??$extract_argument_from_va_list@E_J@?$standard_base@DV?$stream_output_adapter@D@__crt_stdio_output@@@__crt_stdio_output@@IAE_NAA_J@Z 10061440 f i libucrtd:output.obj
 0001:00060470       ??$extract_argument_from_va_list@E_J@?$standard_base@DV?$string_output_adapter@D@__crt_stdio_output@@@__crt_stdio_output@@IAE_NAA_J@Z 10061470 f i libucrtd:output.obj
 0001:000604a0       ??$extract_argument_from_va_list@E_J@?$standard_base@_WV?$stream_output_adapter@_W@__crt_stdio_output@@@__crt_stdio_output@@IAE_NAA_J@Z 100614a0 f i libucrtd:output.obj
 0001:000604d0       ??$extract_argument_from_va_list@E_J@?$standard_base@_WV?$string_output_adapter@_W@__crt_stdio_output@@@__crt_stdio_output@@IAE_NAA_J@Z 100614d0 f i libucrtd:output.obj
 0001:00060500       ??$extract_argument_from_va_list@F_J@?$positional_parameter_base@DV?$stream_output_adapter@D@__crt_stdio_output@@@__crt_stdio_output@@IAE_NAA_J@Z 10061500 f i libucrtd:output.obj
 0001:00060660       ??$extract_argument_from_va_list@F_J@?$positional_parameter_base@DV?$string_output_adapter@D@__crt_stdio_output@@@__crt_stdio_output@@IAE_NAA_J@Z 10061660 f i libucrtd:output.obj
 0001:000607c0       ??$extract_argument_from_va_list@F_J@?$positional_parameter_base@_WV?$stream_output_adapter@_W@__crt_stdio_output@@@__crt_stdio_output@@IAE_NAA_J@Z 100617c0 f i libucrtd:output.obj
 0001:00060920       ??$extract_argument_from_va_list@F_J@?$positional_parameter_base@_WV?$string_output_adapter@_W@__crt_stdio_output@@@__crt_stdio_output@@IAE_NAA_J@Z 10061920 f i libucrtd:output.obj
 0001:00060a80       ??$extract_argument_from_va_list@F_J@?$standard_base@DV?$stream_output_adapter@D@__crt_stdio_output@@@__crt_stdio_output@@IAE_NAA_J@Z 10061a80 f i libucrtd:output.obj
 0001:00060ab0       ??$extract_argument_from_va_list@F_J@?$standard_base@DV?$string_output_adapter@D@__crt_stdio_output@@@__crt_stdio_output@@IAE_NAA_J@Z 10061ab0 f i libucrtd:output.obj
 0001:00060ae0       ??$extract_argument_from_va_list@F_J@?$standard_base@_WV?$stream_output_adapter@_W@__crt_stdio_output@@@__crt_stdio_output@@IAE_NAA_J@Z 10061ae0 f i libucrtd:output.obj
 0001:00060b10       ??$extract_argument_from_va_list@F_J@?$standard_base@_WV?$string_output_adapter@_W@__crt_stdio_output@@@__crt_stdio_output@@IAE_NAA_J@Z 10061b10 f i libucrtd:output.obj
 0001:00060b40       ??$extract_argument_from_va_list@GD@?$positional_parameter_base@DV?$stream_output_adapter@D@__crt_stdio_output@@@__crt_stdio_output@@IAE_NAAD@Z 10061b40 f i libucrtd:output.obj
 0001:00060ca0       ??$extract_argument_from_va_list@GD@?$positional_parameter_base@DV?$string_output_adapter@D@__crt_stdio_output@@@__crt_stdio_output@@IAE_NAAD@Z 10061ca0 f i libucrtd:output.obj
 0001:00060e00       ??$extract_argument_from_va_list@GD@?$standard_base@DV?$stream_output_adapter@D@__crt_stdio_output@@@__crt_stdio_output@@IAE_NAAD@Z 10061e00 f i libucrtd:output.obj
 0001:00060e30       ??$extract_argument_from_va_list@GD@?$standard_base@DV?$string_output_adapter@D@__crt_stdio_output@@@__crt_stdio_output@@IAE_NAAD@Z 10061e30 f i libucrtd:output.obj
 0001:00060e60       ??$extract_argument_from_va_list@G_J@?$positional_parameter_base@DV?$stream_output_adapter@D@__crt_stdio_output@@@__crt_stdio_output@@IAE_NAA_J@Z 10061e60 f i libucrtd:output.obj
 0001:00060fc0       ??$extract_argument_from_va_list@G_J@?$positional_parameter_base@DV?$string_output_adapter@D@__crt_stdio_output@@@__crt_stdio_output@@IAE_NAA_J@Z 10061fc0 f i libucrtd:output.obj
 0001:00061120       ??$extract_argument_from_va_list@G_J@?$positional_parameter_base@_WV?$stream_output_adapter@_W@__crt_stdio_output@@@__crt_stdio_output@@IAE_NAA_J@Z 10062120 f i libucrtd:output.obj
 0001:00061290       ??$extract_argument_from_va_list@G_J@?$positional_parameter_base@_WV?$string_output_adapter@_W@__crt_stdio_output@@@__crt_stdio_output@@IAE_NAA_J@Z 10062290 f i libucrtd:output.obj
 0001:00061400       ??$extract_argument_from_va_list@G_J@?$standard_base@DV?$stream_output_adapter@D@__crt_stdio_output@@@__crt_stdio_output@@IAE_NAA_J@Z 10062400 f i libucrtd:output.obj
 0001:00061430       ??$extract_argument_from_va_list@G_J@?$standard_base@DV?$string_output_adapter@D@__crt_stdio_output@@@__crt_stdio_output@@IAE_NAA_J@Z 10062430 f i libucrtd:output.obj
 0001:00061460       ??$extract_argument_from_va_list@G_J@?$standard_base@_WV?$stream_output_adapter@_W@__crt_stdio_output@@@__crt_stdio_output@@IAE_NAA_J@Z 10062460 f i libucrtd:output.obj
 0001:00061490       ??$extract_argument_from_va_list@G_J@?$standard_base@_WV?$string_output_adapter@_W@__crt_stdio_output@@@__crt_stdio_output@@IAE_NAA_J@Z 10062490 f i libucrtd:output.obj
 0001:000614c0       ??$extract_argument_from_va_list@H_J@?$positional_parameter_base@DV?$stream_output_adapter@D@__crt_stdio_output@@@__crt_stdio_output@@IAE_NAA_J@Z 100624c0 f i libucrtd:output.obj
 0001:00061620       ??$extract_argument_from_va_list@H_J@?$positional_parameter_base@DV?$string_output_adapter@D@__crt_stdio_output@@@__crt_stdio_output@@IAE_NAA_J@Z 10062620 f i libucrtd:output.obj
 0001:00061780       ??$extract_argument_from_va_list@H_J@?$positional_parameter_base@_WV?$stream_output_adapter@_W@__crt_stdio_output@@@__crt_stdio_output@@IAE_NAA_J@Z 10062780 f i libucrtd:output.obj
 0001:000618e0       ??$extract_argument_from_va_list@H_J@?$positional_parameter_base@_WV?$string_output_adapter@_W@__crt_stdio_output@@@__crt_stdio_output@@IAE_NAA_J@Z 100628e0 f i libucrtd:output.obj
 0001:00061a40       ??$extract_argument_from_va_list@H_J@?$standard_base@DV?$stream_output_adapter@D@__crt_stdio_output@@@__crt_stdio_output@@IAE_NAA_J@Z 10062a40 f i libucrtd:output.obj
 0001:00061a70       ??$extract_argument_from_va_list@H_J@?$standard_base@DV?$string_output_adapter@D@__crt_stdio_output@@@__crt_stdio_output@@IAE_NAA_J@Z 10062a70 f i libucrtd:output.obj
 0001:00061aa0       ??$extract_argument_from_va_list@H_J@?$standard_base@_WV?$stream_output_adapter@_W@__crt_stdio_output@@@__crt_stdio_output@@IAE_NAA_J@Z 10062aa0 f i libucrtd:output.obj
 0001:00061ad0       ??$extract_argument_from_va_list@H_J@?$standard_base@_WV?$string_output_adapter@_W@__crt_stdio_output@@@__crt_stdio_output@@IAE_NAA_J@Z 10062ad0 f i libucrtd:output.obj
 0001:00061b00       ??$extract_argument_from_va_list@I_J@?$positional_parameter_base@DV?$stream_output_adapter@D@__crt_stdio_output@@@__crt_stdio_output@@IAE_NAA_J@Z 10062b00 f i libucrtd:output.obj
 0001:00061c60       ??$extract_argument_from_va_list@I_J@?$positional_parameter_base@DV?$string_output_adapter@D@__crt_stdio_output@@@__crt_stdio_output@@IAE_NAA_J@Z 10062c60 f i libucrtd:output.obj
 0001:00061dc0       ??$extract_argument_from_va_list@I_J@?$positional_parameter_base@_WV?$stream_output_adapter@_W@__crt_stdio_output@@@__crt_stdio_output@@IAE_NAA_J@Z 10062dc0 f i libucrtd:output.obj
 0001:00061f20       ??$extract_argument_from_va_list@I_J@?$positional_parameter_base@_WV?$string_output_adapter@_W@__crt_stdio_output@@@__crt_stdio_output@@IAE_NAA_J@Z 10062f20 f i libucrtd:output.obj
 0001:00062080       ??$extract_argument_from_va_list@I_J@?$standard_base@DV?$stream_output_adapter@D@__crt_stdio_output@@@__crt_stdio_output@@IAE_NAA_J@Z 10063080 f i libucrtd:output.obj
 0001:000620b0       ??$extract_argument_from_va_list@I_J@?$standard_base@DV?$string_output_adapter@D@__crt_stdio_output@@@__crt_stdio_output@@IAE_NAA_J@Z 100630b0 f i libucrtd:output.obj
 0001:000620e0       ??$extract_argument_from_va_list@I_J@?$standard_base@_WV?$stream_output_adapter@_W@__crt_stdio_output@@@__crt_stdio_output@@IAE_NAA_J@Z 100630e0 f i libucrtd:output.obj
 0001:00062110       ??$extract_argument_from_va_list@I_J@?$standard_base@_WV?$string_output_adapter@_W@__crt_stdio_output@@@__crt_stdio_output@@IAE_NAA_J@Z 10063110 f i libucrtd:output.obj
 0001:00062140       ??$extract_argument_from_va_list@PADPAD@?$positional_parameter_base@DV?$stream_output_adapter@D@__crt_stdio_output@@@__crt_stdio_output@@IAE_NAAPAD@Z 10063140 f i libucrtd:output.obj
 0001:000622a0       ??$extract_argument_from_va_list@PADPAD@?$positional_parameter_base@DV?$string_output_adapter@D@__crt_stdio_output@@@__crt_stdio_output@@IAE_NAAPAD@Z 100632a0 f i libucrtd:output.obj
 0001:00062400       ??$extract_argument_from_va_list@PADPAD@?$positional_parameter_base@_WV?$stream_output_adapter@_W@__crt_stdio_output@@@__crt_stdio_output@@IAE_NAAPAD@Z 10063400 f i libucrtd:output.obj
 0001:00062560       ??$extract_argument_from_va_list@PADPAD@?$positional_parameter_base@_WV?$string_output_adapter@_W@__crt_stdio_output@@@__crt_stdio_output@@IAE_NAAPAD@Z 10063560 f i libucrtd:output.obj
 0001:000626c0       ??$extract_argument_from_va_list@PADPAD@?$standard_base@DV?$stream_output_adapter@D@__crt_stdio_output@@@__crt_stdio_output@@IAE_NAAPAD@Z 100636c0 f i libucrtd:output.obj
 0001:000626f0       ??$extract_argument_from_va_list@PADPAD@?$standard_base@DV?$string_output_adapter@D@__crt_stdio_output@@@__crt_stdio_output@@IAE_NAAPAD@Z 100636f0 f i libucrtd:output.obj
 0001:00062720       ??$extract_argument_from_va_list@PADPAD@?$standard_base@_WV?$stream_output_adapter@_W@__crt_stdio_output@@@__crt_stdio_output@@IAE_NAAPAD@Z 10063720 f i libucrtd:output.obj
 0001:00062750       ??$extract_argument_from_va_list@PADPAD@?$standard_base@_WV?$string_output_adapter@_W@__crt_stdio_output@@@__crt_stdio_output@@IAE_NAAPAD@Z 10063750 f i libucrtd:output.obj
 0001:00062780       ??$extract_argument_from_va_list@PAUansi_string@?1??type_case_Z@?$output_processor@DV?$stream_output_adapter@D@__crt_stdio_output@@V?$format_validation_base@DV?$stream_output_adapter@D@__crt_stdio_output@@@2@@__crt_stdio_output@@AAE_NXZ@PAU1?1??234@AAE_NXZ@@?$standard_base@DV?$stream_output_adapter@D@__crt_stdio_output@@@__crt_stdio_output@@IAE_NAAPAUansi_string@?1??type_case_Z@?$output_processor@DV?$stream_output_adapter@D@__crt_stdio_output@@V?$format_validation_base@DV?$stream_output_adapter@D@__crt_stdio_output@@@2@@1@AAE_NXZ@@Z 10063780 f i libucrtd:output.obj
 0001:000627b0       ??$extract_argument_from_va_list@PAUansi_string@?1??type_case_Z@?$output_processor@DV?$stream_output_adapter@D@__crt_stdio_output@@V?$positional_parameter_base@DV?$stream_output_adapter@D@__crt_stdio_output@@@2@@__crt_stdio_output@@AAE_NXZ@PAU1?1??234@AAE_NXZ@@?$positional_parameter_base@DV?$stream_output_adapter@D@__crt_stdio_output@@@__crt_stdio_output@@IAE_NAAPAUansi_string@?1??type_case_Z@?$output_processor@DV?$stream_output_adapter@D@__crt_stdio_output@@V?$positional_parameter_base@DV?$stream_output_adapter@D@__crt_stdio_output@@@2@@1@AAE_NXZ@@Z 100637b0 f i libucrtd:output.obj
 0001:00062910       ??$extract_argument_from_va_list@PAUansi_string@?1??type_case_Z@?$output_processor@DV?$stream_output_adapter@D@__crt_stdio_output@@V?$positional_parameter_base@DV?$stream_output_adapter@D@__crt_stdio_output@@@2@@__crt_stdio_output@@AAE_NXZ@PAU1?1??234@AAE_NXZ@@?$standard_base@DV?$stream_output_adapter@D@__crt_stdio_output@@@__crt_stdio_output@@IAE_NAAPAUansi_string@?1??type_case_Z@?$output_processor@DV?$stream_output_adapter@D@__crt_stdio_output@@V?$positional_parameter_base@DV?$stream_output_adapter@D@__crt_stdio_output@@@2@@1@AAE_NXZ@@Z 10063910 f i libucrtd:output.obj
 0001:00062940       ??$extract_argument_from_va_list@PAUansi_string@?1??type_case_Z@?$output_processor@DV?$stream_output_adapter@D@__crt_stdio_output@@V?$standard_base@DV?$stream_output_adapter@D@__crt_stdio_output@@@2@@__crt_stdio_output@@AAE_NXZ@PAU1?1??234@AAE_NXZ@@?$standard_base@DV?$stream_output_adapter@D@__crt_stdio_output@@@__crt_stdio_output@@IAE_NAAPAUansi_string@?1??type_case_Z@?$output_processor@DV?$stream_output_adapter@D@__crt_stdio_output@@V?$standard_base@DV?$stream_output_adapter@D@__crt_stdio_output@@@2@@1@AAE_NXZ@@Z 10063940 f i libucrtd:output.obj
 0001:00062970       ??$extract_argument_from_va_list@PAUansi_string@?1??type_case_Z@?$output_processor@DV?$string_output_adapter@D@__crt_stdio_output@@V?$format_validation_base@DV?$string_output_adapter@D@__crt_stdio_output@@@2@@__crt_stdio_output@@AAE_NXZ@PAU1?1??234@AAE_NXZ@@?$standard_base@DV?$string_output_adapter@D@__crt_stdio_output@@@__crt_stdio_output@@IAE_NAAPAUansi_string@?1??type_case_Z@?$output_processor@DV?$string_output_adapter@D@__crt_stdio_output@@V?$format_validation_base@DV?$string_output_adapter@D@__crt_stdio_output@@@2@@1@AAE_NXZ@@Z 10063970 f i libucrtd:output.obj
 0001:000629a0       ??$extract_argument_from_va_list@PAUansi_string@?1??type_case_Z@?$output_processor@DV?$string_output_adapter@D@__crt_stdio_output@@V?$positional_parameter_base@DV?$string_output_adapter@D@__crt_stdio_output@@@2@@__crt_stdio_output@@AAE_NXZ@PAU1?1??234@AAE_NXZ@@?$positional_parameter_base@DV?$string_output_adapter@D@__crt_stdio_output@@@__crt_stdio_output@@IAE_NAAPAUansi_string@?1??type_case_Z@?$output_processor@DV?$string_output_adapter@D@__crt_stdio_output@@V?$positional_parameter_base@DV?$string_output_adapter@D@__crt_stdio_output@@@2@@1@AAE_NXZ@@Z 100639a0 f i libucrtd:output.obj
 0001:00062b00       ??$extract_argument_from_va_list@PAUansi_string@?1??type_case_Z@?$output_processor@DV?$string_output_adapter@D@__crt_stdio_output@@V?$positional_parameter_base@DV?$string_output_adapter@D@__crt_stdio_output@@@2@@__crt_stdio_output@@AAE_NXZ@PAU1?1??234@AAE_NXZ@@?$standard_base@DV?$string_output_adapter@D@__crt_stdio_output@@@__crt_stdio_output@@IAE_NAAPAUansi_string@?1??type_case_Z@?$output_processor@DV?$string_output_adapter@D@__crt_stdio_output@@V?$positional_parameter_base@DV?$string_output_adapter@D@__crt_stdio_output@@@2@@1@AAE_NXZ@@Z 10063b00 f i libucrtd:output.obj
 0001:00062b30       ??$extract_argument_from_va_list@PAUansi_string@?1??type_case_Z@?$output_processor@DV?$string_output_adapter@D@__crt_stdio_output@@V?$standard_base@DV?$string_output_adapter@D@__crt_stdio_output@@@2@@__crt_stdio_output@@AAE_NXZ@PAU1?1??234@AAE_NXZ@@?$standard_base@DV?$string_output_adapter@D@__crt_stdio_output@@@__crt_stdio_output@@IAE_NAAPAUansi_string@?1??type_case_Z@?$output_processor@DV?$string_output_adapter@D@__crt_stdio_output@@V?$standard_base@DV?$string_output_adapter@D@__crt_stdio_output@@@2@@1@AAE_NXZ@@Z 10063b30 f i libucrtd:output.obj
 0001:00062b60       ??$extract_argument_from_va_list@PAUansi_string@?1??type_case_Z@?$output_processor@_WV?$stream_output_adapter@_W@__crt_stdio_output@@V?$format_validation_base@_WV?$stream_output_adapter@_W@__crt_stdio_output@@@2@@__crt_stdio_output@@AAE_NXZ@PAU1?1??234@AAE_NXZ@@?$standard_base@_WV?$stream_output_adapter@_W@__crt_stdio_output@@@__crt_stdio_output@@IAE_NAAPAUansi_string@?1??type_case_Z@?$output_processor@_WV?$stream_output_adapter@_W@__crt_stdio_output@@V?$format_validation_base@_WV?$stream_output_adapter@_W@__crt_stdio_output@@@2@@1@AAE_NXZ@@Z 10063b60 f i libucrtd:output.obj
 0001:00062b90       ??$extract_argument_from_va_list@PAUansi_string@?1??type_case_Z@?$output_processor@_WV?$stream_output_adapter@_W@__crt_stdio_output@@V?$positional_parameter_base@_WV?$stream_output_adapter@_W@__crt_stdio_output@@@2@@__crt_stdio_output@@AAE_NXZ@PAU1?1??234@AAE_NXZ@@?$positional_parameter_base@_WV?$stream_output_adapter@_W@__crt_stdio_output@@@__crt_stdio_output@@IAE_NAAPAUansi_string@?1??type_case_Z@?$output_processor@_WV?$stream_output_adapter@_W@__crt_stdio_output@@V?$positional_parameter_base@_WV?$stream_output_adapter@_W@__crt_stdio_output@@@2@@1@AAE_NXZ@@Z 10063b90 f i libucrtd:output.obj
 0001:00062cf0       ??$extract_argument_from_va_list@PAUansi_string@?1??type_case_Z@?$output_processor@_WV?$stream_output_adapter@_W@__crt_stdio_output@@V?$positional_parameter_base@_WV?$stream_output_adapter@_W@__crt_stdio_output@@@2@@__crt_stdio_output@@AAE_NXZ@PAU1?1??234@AAE_NXZ@@?$standard_base@_WV?$stream_output_adapter@_W@__crt_stdio_output@@@__crt_stdio_output@@IAE_NAAPAUansi_string@?1??type_case_Z@?$output_processor@_WV?$stream_output_adapter@_W@__crt_stdio_output@@V?$positional_parameter_base@_WV?$stream_output_adapter@_W@__crt_stdio_output@@@2@@1@AAE_NXZ@@Z 10063cf0 f i libucrtd:output.obj
 0001:00062d20       ??$extract_argument_from_va_list@PAUansi_string@?1??type_case_Z@?$output_processor@_WV?$stream_output_adapter@_W@__crt_stdio_output@@V?$standard_base@_WV?$stream_output_adapter@_W@__crt_stdio_output@@@2@@__crt_stdio_output@@AAE_NXZ@PAU1?1??234@AAE_NXZ@@?$standard_base@_WV?$stream_output_adapter@_W@__crt_stdio_output@@@__crt_stdio_output@@IAE_NAAPAUansi_string@?1??type_case_Z@?$output_processor@_WV?$stream_output_adapter@_W@__crt_stdio_output@@V?$standard_base@_WV?$stream_output_adapter@_W@__crt_stdio_output@@@2@@1@AAE_NXZ@@Z 10063d20 f i libucrtd:output.obj
 0001:00062d50       ??$extract_argument_from_va_list@PAUansi_string@?1??type_case_Z@?$output_processor@_WV?$string_output_adapter@_W@__crt_stdio_output@@V?$format_validation_base@_WV?$string_output_adapter@_W@__crt_stdio_output@@@2@@__crt_stdio_output@@AAE_NXZ@PAU1?1??234@AAE_NXZ@@?$standard_base@_WV?$string_output_adapter@_W@__crt_stdio_output@@@__crt_stdio_output@@IAE_NAAPAUansi_string@?1??type_case_Z@?$output_processor@_WV?$string_output_adapter@_W@__crt_stdio_output@@V?$format_validation_base@_WV?$string_output_adapter@_W@__crt_stdio_output@@@2@@1@AAE_NXZ@@Z 10063d50 f i libucrtd:output.obj
 0001:00062d80       ??$extract_argument_from_va_list@PAUansi_string@?1??type_case_Z@?$output_processor@_WV?$string_output_adapter@_W@__crt_stdio_output@@V?$positional_parameter_base@_WV?$string_output_adapter@_W@__crt_stdio_output@@@2@@__crt_stdio_output@@AAE_NXZ@PAU1?1??234@AAE_NXZ@@?$positional_parameter_base@_WV?$string_output_adapter@_W@__crt_stdio_output@@@__crt_stdio_output@@IAE_NAAPAUansi_string@?1??type_case_Z@?$output_processor@_WV?$string_output_adapter@_W@__crt_stdio_output@@V?$positional_parameter_base@_WV?$string_output_adapter@_W@__crt_stdio_output@@@2@@1@AAE_NXZ@@Z 10063d80 f i libucrtd:output.obj
 0001:00062ee0       ??$extract_argument_from_va_list@PAUansi_string@?1??type_case_Z@?$output_processor@_WV?$string_output_adapter@_W@__crt_stdio_output@@V?$positional_parameter_base@_WV?$string_output_adapter@_W@__crt_stdio_output@@@2@@__crt_stdio_output@@AAE_NXZ@PAU1?1??234@AAE_NXZ@@?$standard_base@_WV?$string_output_adapter@_W@__crt_stdio_output@@@__crt_stdio_output@@IAE_NAAPAUansi_string@?1??type_case_Z@?$output_processor@_WV?$string_output_adapter@_W@__crt_stdio_output@@V?$positional_parameter_base@_WV?$string_output_adapter@_W@__crt_stdio_output@@@2@@1@AAE_NXZ@@Z 10063ee0 f i libucrtd:output.obj
 0001:00062f10       ??$extract_argument_from_va_list@PAUansi_string@?1??type_case_Z@?$output_processor@_WV?$string_output_adapter@_W@__crt_stdio_output@@V?$standard_base@_WV?$string_output_adapter@_W@__crt_stdio_output@@@2@@__crt_stdio_output@@AAE_NXZ@PAU1?1??234@AAE_NXZ@@?$standard_base@_WV?$string_output_adapter@_W@__crt_stdio_output@@@__crt_stdio_output@@IAE_NAAPAUansi_string@?1??type_case_Z@?$output_processor@_WV?$string_output_adapter@_W@__crt_stdio_output@@V?$standard_base@_WV?$string_output_adapter@_W@__crt_stdio_output@@@2@@1@AAE_NXZ@@Z 10063f10 f i libucrtd:output.obj
 0001:00062f40       ??$extract_argument_from_va_list@PAXPAX@?$positional_parameter_base@DV?$stream_output_adapter@D@__crt_stdio_output@@@__crt_stdio_output@@IAE_NAAPAX@Z 10063f40 f i libucrtd:output.obj
 0001:000630a0       ??$extract_argument_from_va_list@PAXPAX@?$positional_parameter_base@DV?$string_output_adapter@D@__crt_stdio_output@@@__crt_stdio_output@@IAE_NAAPAX@Z 100640a0 f i libucrtd:output.obj
 0001:00063200       ??$extract_argument_from_va_list@PAXPAX@?$positional_parameter_base@_WV?$stream_output_adapter@_W@__crt_stdio_output@@@__crt_stdio_output@@IAE_NAAPAX@Z 10064200 f i libucrtd:output.obj
 0001:00063360       ??$extract_argument_from_va_list@PAXPAX@?$positional_parameter_base@_WV?$string_output_adapter@_W@__crt_stdio_output@@@__crt_stdio_output@@IAE_NAAPAX@Z 10064360 f i libucrtd:output.obj
 0001:000634c0       ??$extract_argument_from_va_list@PAXPAX@?$standard_base@DV?$stream_output_adapter@D@__crt_stdio_output@@@__crt_stdio_output@@IAE_NAAPAX@Z 100644c0 f i libucrtd:output.obj
 0001:000634f0       ??$extract_argument_from_va_list@PAXPAX@?$standard_base@DV?$string_output_adapter@D@__crt_stdio_output@@@__crt_stdio_output@@IAE_NAAPAX@Z 100644f0 f i libucrtd:output.obj
 0001:00063520       ??$extract_argument_from_va_list@PAXPAX@?$standard_base@_WV?$stream_output_adapter@_W@__crt_stdio_output@@@__crt_stdio_output@@IAE_NAAPAX@Z 10064520 f i libucrtd:output.obj
 0001:00063550       ??$extract_argument_from_va_list@PAXPAX@?$standard_base@_WV?$string_output_adapter@_W@__crt_stdio_output@@@__crt_stdio_output@@IAE_NAAPAX@Z 10064550 f i libucrtd:output.obj
 0001:00063580       ??$extract_argument_from_va_list@U_CRT_DOUBLE@@U1@@?$positional_parameter_base@DV?$stream_output_adapter@D@__crt_stdio_output@@@__crt_stdio_output@@IAE_NAAU_CRT_DOUBLE@@@Z 10064580 f i libucrtd:output.obj
 0001:00063710       ??$extract_argument_from_va_list@U_CRT_DOUBLE@@U1@@?$positional_parameter_base@DV?$string_output_adapter@D@__crt_stdio_output@@@__crt_stdio_output@@IAE_NAAU_CRT_DOUBLE@@@Z 10064710 f i libucrtd:output.obj
 0001:000638a0       ??$extract_argument_from_va_list@U_CRT_DOUBLE@@U1@@?$positional_parameter_base@_WV?$stream_output_adapter@_W@__crt_stdio_output@@@__crt_stdio_output@@IAE_NAAU_CRT_DOUBLE@@@Z 100648a0 f i libucrtd:output.obj
 0001:00063a30       ??$extract_argument_from_va_list@U_CRT_DOUBLE@@U1@@?$positional_parameter_base@_WV?$string_output_adapter@_W@__crt_stdio_output@@@__crt_stdio_output@@IAE_NAAU_CRT_DOUBLE@@@Z 10064a30 f i libucrtd:output.obj
 0001:00063bc0       ??$extract_argument_from_va_list@U_CRT_DOUBLE@@U1@@?$standard_base@DV?$stream_output_adapter@D@__crt_stdio_output@@@__crt_stdio_output@@IAE_NAAU_CRT_DOUBLE@@@Z 10064bc0 f i libucrtd:output.obj
 0001:00063c10       ??$extract_argument_from_va_list@U_CRT_DOUBLE@@U1@@?$standard_base@DV?$string_output_adapter@D@__crt_stdio_output@@@__crt_stdio_output@@IAE_NAAU_CRT_DOUBLE@@@Z 10064c10 f i libucrtd:output.obj
 0001:00063c60       ??$extract_argument_from_va_list@U_CRT_DOUBLE@@U1@@?$standard_base@_WV?$stream_output_adapter@_W@__crt_stdio_output@@@__crt_stdio_output@@IAE_NAAU_CRT_DOUBLE@@@Z 10064c60 f i libucrtd:output.obj
 0001:00063cb0       ??$extract_argument_from_va_list@U_CRT_DOUBLE@@U1@@?$standard_base@_WV?$string_output_adapter@_W@__crt_stdio_output@@@__crt_stdio_output@@IAE_NAAU_CRT_DOUBLE@@@Z 10064cb0 f i libucrtd:output.obj
 0001:00063d00       ??$extract_argument_from_va_list@_J_J@?$positional_parameter_base@DV?$stream_output_adapter@D@__crt_stdio_output@@@__crt_stdio_output@@IAE_NAA_J@Z 10064d00 f i libucrtd:output.obj
 0001:00063e60       ??$extract_argument_from_va_list@_J_J@?$positional_parameter_base@DV?$string_output_adapter@D@__crt_stdio_output@@@__crt_stdio_output@@IAE_NAA_J@Z 10064e60 f i libucrtd:output.obj
 0001:00063fc0       ??$extract_argument_from_va_list@_J_J@?$positional_parameter_base@_WV?$stream_output_adapter@_W@__crt_stdio_output@@@__crt_stdio_output@@IAE_NAA_J@Z 10064fc0 f i libucrtd:output.obj
 0001:00064120       ??$extract_argument_from_va_list@_J_J@?$positional_parameter_base@_WV?$string_output_adapter@_W@__crt_stdio_output@@@__crt_stdio_output@@IAE_NAA_J@Z 10065120 f i libucrtd:output.obj
 0001:00064280       ??$extract_argument_from_va_list@_J_J@?$standard_base@DV?$stream_output_adapter@D@__crt_stdio_output@@@__crt_stdio_output@@IAE_NAA_J@Z 10065280 f i libucrtd:output.obj
 0001:000642b0       ??$extract_argument_from_va_list@_J_J@?$standard_base@DV?$string_output_adapter@D@__crt_stdio_output@@@__crt_stdio_output@@IAE_NAA_J@Z 100652b0 f i libucrtd:output.obj
 0001:000642e0       ??$extract_argument_from_va_list@_J_J@?$standard_base@_WV?$stream_output_adapter@_W@__crt_stdio_output@@@__crt_stdio_output@@IAE_NAA_J@Z 100652e0 f i libucrtd:output.obj
 0001:00064310       ??$extract_argument_from_va_list@_J_J@?$standard_base@_WV?$string_output_adapter@_W@__crt_stdio_output@@@__crt_stdio_output@@IAE_NAA_J@Z 10065310 f i libucrtd:output.obj
 0001:00064340       ??$extract_argument_from_va_list@_K_J@?$positional_parameter_base@DV?$stream_output_adapter@D@__crt_stdio_output@@@__crt_stdio_output@@IAE_NAA_J@Z 10065340 f i libucrtd:output.obj
 0001:000644a0       ??$extract_argument_from_va_list@_K_J@?$positional_parameter_base@DV?$string_output_adapter@D@__crt_stdio_output@@@__crt_stdio_output@@IAE_NAA_J@Z 100654a0 f i libucrtd:output.obj
 0001:00064600       ??$extract_argument_from_va_list@_K_J@?$positional_parameter_base@_WV?$stream_output_adapter@_W@__crt_stdio_output@@@__crt_stdio_output@@IAE_NAA_J@Z 10065600 f i libucrtd:output.obj
 0001:00064760       ??$extract_argument_from_va_list@_K_J@?$positional_parameter_base@_WV?$string_output_adapter@_W@__crt_stdio_output@@@__crt_stdio_output@@IAE_NAA_J@Z 10065760 f i libucrtd:output.obj
 0001:000648c0       ??$extract_argument_from_va_list@_K_J@?$standard_base@DV?$stream_output_adapter@D@__crt_stdio_output@@@__crt_stdio_output@@IAE_NAA_J@Z 100658c0 f i libucrtd:output.obj
 0001:000648f0       ??$extract_argument_from_va_list@_K_J@?$standard_base@DV?$string_output_adapter@D@__crt_stdio_output@@@__crt_stdio_output@@IAE_NAA_J@Z 100658f0 f i libucrtd:output.obj
 0001:00064920       ??$extract_argument_from_va_list@_K_J@?$standard_base@_WV?$stream_output_adapter@_W@__crt_stdio_output@@@__crt_stdio_output@@IAE_NAA_J@Z 10065920 f i libucrtd:output.obj
 0001:00064950       ??$extract_argument_from_va_list@_K_J@?$standard_base@_WV?$string_output_adapter@_W@__crt_stdio_output@@@__crt_stdio_output@@IAE_NAA_J@Z 10065950 f i libucrtd:output.obj
 0001:00064980       ??$extract_argument_from_va_list@_W_W@?$positional_parameter_base@DV?$stream_output_adapter@D@__crt_stdio_output@@@__crt_stdio_output@@IAE_NAA_W@Z 10065980 f i libucrtd:output.obj
 0001:00064ae0       ??$extract_argument_from_va_list@_W_W@?$positional_parameter_base@DV?$string_output_adapter@D@__crt_stdio_output@@@__crt_stdio_output@@IAE_NAA_W@Z 10065ae0 f i libucrtd:output.obj
 0001:00064c40       ??$extract_argument_from_va_list@_W_W@?$positional_parameter_base@_WV?$stream_output_adapter@_W@__crt_stdio_output@@@__crt_stdio_output@@IAE_NAA_W@Z 10065c40 f i libucrtd:output.obj
 0001:00064da0       ??$extract_argument_from_va_list@_W_W@?$positional_parameter_base@_WV?$string_output_adapter@_W@__crt_stdio_output@@@__crt_stdio_output@@IAE_NAA_W@Z 10065da0 f i libucrtd:output.obj
 0001:00064f00       ??$extract_argument_from_va_list@_W_W@?$standard_base@DV?$stream_output_adapter@D@__crt_stdio_output@@@__crt_stdio_output@@IAE_NAA_W@Z 10065f00 f i libucrtd:output.obj
 0001:00064f30       ??$extract_argument_from_va_list@_W_W@?$standard_base@DV?$string_output_adapter@D@__crt_stdio_output@@@__crt_stdio_output@@IAE_NAA_W@Z 10065f30 f i libucrtd:output.obj
 0001:00064f60       ??$extract_argument_from_va_list@_W_W@?$standard_base@_WV?$stream_output_adapter@_W@__crt_stdio_output@@@__crt_stdio_output@@IAE_NAA_W@Z 10065f60 f i libucrtd:output.obj
 0001:00064f90       ??$extract_argument_from_va_list@_W_W@?$standard_base@_WV?$string_output_adapter@_W@__crt_stdio_output@@@__crt_stdio_output@@IAE_NAA_W@Z 10065f90 f i libucrtd:output.obj
 0001:00064fc0       ??$get_parameter_type@D@?$positional_parameter_base@DV?$stream_output_adapter@D@__crt_stdio_output@@@__crt_stdio_output@@CA?AW4parameter_type@01@PAD@Z 10065fc0 f i libucrtd:output.obj
 0001:00064fd0       ??$get_parameter_type@D@?$positional_parameter_base@DV?$string_output_adapter@D@__crt_stdio_output@@@__crt_stdio_output@@CA?AW4parameter_type@01@PAD@Z 10065fd0 f i libucrtd:output.obj
 0001:00064fe0       ??$get_parameter_type@D@?$positional_parameter_base@_WV?$stream_output_adapter@_W@__crt_stdio_output@@@__crt_stdio_output@@CA?AW4parameter_type@01@PAD@Z 10065fe0 f i libucrtd:output.obj
 0001:00064ff0       ??$get_parameter_type@D@?$positional_parameter_base@_WV?$string_output_adapter@_W@__crt_stdio_output@@@__crt_stdio_output@@CA?AW4parameter_type@01@PAD@Z 10065ff0 f i libucrtd:output.obj
 0001:00065000       ??$get_parameter_type@Uansi_string@?1??type_case_Z@?$output_processor@DV?$stream_output_adapter@D@__crt_stdio_output@@V?$positional_parameter_base@DV?$stream_output_adapter@D@__crt_stdio_output@@@2@@__crt_stdio_output@@AAE_NXZ@@?$positional_parameter_base@DV?$stream_output_adapter@D@__crt_stdio_output@@@__crt_stdio_output@@CA?AW4parameter_type@01@PAUansi_string@?1??type_case_Z@?$output_processor@DV?$stream_output_adapter@D@__crt_stdio_output@@V?$positional_parameter_base@DV?$stream_output_adapter@D@__crt_stdio_output@@@2@@1@AAE_NXZ@@Z 10066000 f i libucrtd:output.obj
 0001:00065010       ??$get_parameter_type@Uansi_string@?1??type_case_Z@?$output_processor@DV?$string_output_adapter@D@__crt_stdio_output@@V?$positional_parameter_base@DV?$string_output_adapter@D@__crt_stdio_output@@@2@@__crt_stdio_output@@AAE_NXZ@@?$positional_parameter_base@DV?$string_output_adapter@D@__crt_stdio_output@@@__crt_stdio_output@@CA?AW4parameter_type@01@PAUansi_string@?1??type_case_Z@?$output_processor@DV?$string_output_adapter@D@__crt_stdio_output@@V?$positional_parameter_base@DV?$string_output_adapter@D@__crt_stdio_output@@@2@@1@AAE_NXZ@@Z 10066010 f i libucrtd:output.obj
 0001:00065020       ??$get_parameter_type@Uansi_string@?1??type_case_Z@?$output_processor@_WV?$stream_output_adapter@_W@__crt_stdio_output@@V?$positional_parameter_base@_WV?$stream_output_adapter@_W@__crt_stdio_output@@@2@@__crt_stdio_output@@AAE_NXZ@@?$positional_parameter_base@_WV?$stream_output_adapter@_W@__crt_stdio_output@@@__crt_stdio_output@@CA?AW4parameter_type@01@PAUansi_string@?1??type_case_Z@?$output_processor@_WV?$stream_output_adapter@_W@__crt_stdio_output@@V?$positional_parameter_base@_WV?$stream_output_adapter@_W@__crt_stdio_output@@@2@@1@AAE_NXZ@@Z 10066020 f i libucrtd:output.obj
 0001:00065030       ??$get_parameter_type@Uansi_string@?1??type_case_Z@?$output_processor@_WV?$string_output_adapter@_W@__crt_stdio_output@@V?$positional_parameter_base@_WV?$string_output_adapter@_W@__crt_stdio_output@@@2@@__crt_stdio_output@@AAE_NXZ@@?$positional_parameter_base@_WV?$string_output_adapter@_W@__crt_stdio_output@@@__crt_stdio_output@@CA?AW4parameter_type@01@PAUansi_string@?1??type_case_Z@?$output_processor@_WV?$string_output_adapter@_W@__crt_stdio_output@@V?$positional_parameter_base@_WV?$string_output_adapter@_W@__crt_stdio_output@@@2@@1@AAE_NXZ@@Z 10066030 f i libucrtd:output.obj
 0001:00065040       ??$get_parameter_type@X@?$positional_parameter_base@DV?$stream_output_adapter@D@__crt_stdio_output@@@__crt_stdio_output@@CA?AW4parameter_type@01@PAX@Z 10066040 f i libucrtd:output.obj
 0001:00065050       ??$get_parameter_type@X@?$positional_parameter_base@DV?$string_output_adapter@D@__crt_stdio_output@@@__crt_stdio_output@@CA?AW4parameter_type@01@PAX@Z 10066050 f i libucrtd:output.obj
 0001:00065060       ??$get_parameter_type@X@?$positional_parameter_base@_WV?$stream_output_adapter@_W@__crt_stdio_output@@@__crt_stdio_output@@CA?AW4parameter_type@01@PAX@Z 10066060 f i libucrtd:output.obj
 0001:00065070       ??$get_parameter_type@X@?$positional_parameter_base@_WV?$string_output_adapter@_W@__crt_stdio_output@@@__crt_stdio_output@@CA?AW4parameter_type@01@PAX@Z 10066070 f i libucrtd:output.obj
 0001:00065080       ??$is_character_specifier@D@?$positional_parameter_base@DV?$stream_output_adapter@D@__crt_stdio_output@@@__crt_stdio_output@@CA_ND@Z 10066080 f i libucrtd:output.obj
 0001:000650b0       ??$is_character_specifier@D@?$positional_parameter_base@DV?$string_output_adapter@D@__crt_stdio_output@@@__crt_stdio_output@@CA_ND@Z 100660b0 f i libucrtd:output.obj
 0001:000650e0       ??$is_character_specifier@_W@?$positional_parameter_base@_WV?$stream_output_adapter@_W@__crt_stdio_output@@@__crt_stdio_output@@CA_N_W@Z 100660e0 f i libucrtd:output.obj
 0001:00065110       ??$is_character_specifier@_W@?$positional_parameter_base@_WV?$string_output_adapter@_W@__crt_stdio_output@@@__crt_stdio_output@@CA_N_W@Z 10066110 f i libucrtd:output.obj
 0001:00065140       ??$is_integral_specifier@D@?$positional_parameter_base@DV?$stream_output_adapter@D@__crt_stdio_output@@@__crt_stdio_output@@CA_ND@Z 10066140 f i libucrtd:output.obj
 0001:000651a0       ??$is_integral_specifier@D@?$positional_parameter_base@DV?$string_output_adapter@D@__crt_stdio_output@@@__crt_stdio_output@@CA_ND@Z 100661a0 f i libucrtd:output.obj
 0001:00065200       ??$is_integral_specifier@_W@?$positional_parameter_base@_WV?$stream_output_adapter@_W@__crt_stdio_output@@@__crt_stdio_output@@CA_N_W@Z 10066200 f i libucrtd:output.obj
 0001:00065260       ??$is_integral_specifier@_W@?$positional_parameter_base@_WV?$string_output_adapter@_W@__crt_stdio_output@@@__crt_stdio_output@@CA_N_W@Z 10066260 f i libucrtd:output.obj
 0001:000652c0       ??$is_overflow_condition@K@__crt_strtox@@YA_NIK@Z 100662c0 f i libucrtd:output.obj
 0001:00065320       ??$is_pointer_specifier@D@?$positional_parameter_base@DV?$stream_output_adapter@D@__crt_stdio_output@@@__crt_stdio_output@@CA_ND@Z 10066320 f i libucrtd:output.obj
 0001:00065350       ??$is_pointer_specifier@D@?$positional_parameter_base@DV?$string_output_adapter@D@__crt_stdio_output@@@__crt_stdio_output@@CA_ND@Z 10066350 f i libucrtd:output.obj
 0001:00065380       ??$is_pointer_specifier@_W@?$positional_parameter_base@_WV?$stream_output_adapter@_W@__crt_stdio_output@@@__crt_stdio_output@@CA_N_W@Z 10066380 f i libucrtd:output.obj
 0001:000653b0       ??$is_pointer_specifier@_W@?$positional_parameter_base@_WV?$string_output_adapter@_W@__crt_stdio_output@@@__crt_stdio_output@@CA_N_W@Z 100663b0 f i libucrtd:output.obj
 0001:000653e0       ??$is_string_specifier@D@?$positional_parameter_base@DV?$stream_output_adapter@D@__crt_stdio_output@@@__crt_stdio_output@@CA_ND@Z 100663e0 f i libucrtd:output.obj
 0001:00065410       ??$is_string_specifier@D@?$positional_parameter_base@DV?$string_output_adapter@D@__crt_stdio_output@@@__crt_stdio_output@@CA_ND@Z 10066410 f i libucrtd:output.obj
 0001:00065440       ??$is_string_specifier@_W@?$positional_parameter_base@_WV?$stream_output_adapter@_W@__crt_stdio_output@@@__crt_stdio_output@@CA_N_W@Z 10066440 f i libucrtd:output.obj
 0001:00065470       ??$is_string_specifier@_W@?$positional_parameter_base@_WV?$string_output_adapter@_W@__crt_stdio_output@@@__crt_stdio_output@@CA_N_W@Z 10066470 f i libucrtd:output.obj
 0001:000654a0       ??$is_wide_character_specifier@D@__crt_stdio_output@@YA_N_KDW4length_modifier@0@@Z 100664a0 f i libucrtd:output.obj
 0001:00065520       ??$is_wide_character_specifier@_W@__crt_stdio_output@@YA_N_K_WW4length_modifier@0@@Z 10066520 f i libucrtd:output.obj
 0001:000655e0       ??$make_c_string_character_source@DPAPAD@__crt_strtox@@YA?AV?$c_string_character_source@D@0@QBDQAPAD@Z 100665e0 f i libucrtd:output.obj
 0001:00065600       ??$make_c_string_character_source@_WPAPA_W@__crt_strtox@@YA?AV?$c_string_character_source@_W@0@QB_WQAPA_W@Z 10066600 f i libucrtd:output.obj
 0001:00065620       ??$parse_integer@KV?$c_string_character_source@D@__crt_strtox@@$0A@@__crt_strtox@@YAKAAV__crt_cached_ptd_host@@V?$c_string_character_source@D@0@H_N@Z 10066620 f i libucrtd:output.obj
 0001:00065950       ??$parse_integer@KV?$c_string_character_source@_W@__crt_strtox@@$0A@@__crt_strtox@@YAKAAV__crt_cached_ptd_host@@V?$c_string_character_source@_W@0@H_N@Z 10066950 f i libucrtd:output.obj
 0001:00065c90       ??$peek_va_arg@C@__crt_stdio_output@@YACPAD@Z 10066c90 f i libucrtd:output.obj
 0001:00065cb0       ??$peek_va_arg@E@__crt_stdio_output@@YAEPAD@Z 10066cb0 f i libucrtd:output.obj
 0001:00065cd0       ??$peek_va_arg@F@__crt_stdio_output@@YAFPAD@Z 10066cd0 f i libucrtd:output.obj
 0001:00065cf0       ??$peek_va_arg@G@__crt_stdio_output@@YAGPAD@Z 10066cf0 f i libucrtd:output.obj
 0001:00065d10       ??$peek_va_arg@H@__crt_stdio_output@@YAHPAD@Z 10066d10 f i libucrtd:output.obj
 0001:00065d30       ??$peek_va_arg@I@__crt_stdio_output@@YAIPAD@Z 10066d30 f i libucrtd:output.obj
 0001:00065d50       ??$peek_va_arg@PAD@__crt_stdio_output@@YAPADPAD@Z 10066d50 f i libucrtd:output.obj
 0001:00065d70       ??$peek_va_arg@PAUansi_string@?1??type_case_Z@?$output_processor@DV?$stream_output_adapter@D@__crt_stdio_output@@V?$positional_parameter_base@DV?$stream_output_adapter@D@__crt_stdio_output@@@2@@__crt_stdio_output@@AAE_NXZ@@__crt_stdio_output@@YAPAUansi_string@?1??type_case_Z@?$output_processor@DV?$stream_output_adapter@D@__crt_stdio_output@@V?$positional_parameter_base@DV?$stream_output_adapter@D@__crt_stdio_output@@@2@@0@AAE_NXZ@PAD@Z 10066d70 f i libucrtd:output.obj
 0001:00065d90       ??$peek_va_arg@PAUansi_string@?1??type_case_Z@?$output_processor@DV?$string_output_adapter@D@__crt_stdio_output@@V?$positional_parameter_base@DV?$string_output_adapter@D@__crt_stdio_output@@@2@@__crt_stdio_output@@AAE_NXZ@@__crt_stdio_output@@YAPAUansi_string@?1??type_case_Z@?$output_processor@DV?$string_output_adapter@D@__crt_stdio_output@@V?$positional_parameter_base@DV?$string_output_adapter@D@__crt_stdio_output@@@2@@0@AAE_NXZ@PAD@Z 10066d90 f i libucrtd:output.obj
 0001:00065db0       ??$peek_va_arg@PAUansi_string@?1??type_case_Z@?$output_processor@_WV?$stream_output_adapter@_W@__crt_stdio_output@@V?$positional_parameter_base@_WV?$stream_output_adapter@_W@__crt_stdio_output@@@2@@__crt_stdio_output@@AAE_NXZ@@__crt_stdio_output@@YAPAUansi_string@?1??type_case_Z@?$output_processor@_WV?$stream_output_adapter@_W@__crt_stdio_output@@V?$positional_parameter_base@_WV?$stream_output_adapter@_W@__crt_stdio_output@@@2@@0@AAE_NXZ@PAD@Z 10066db0 f i libucrtd:output.obj
 0001:00065dd0       ??$peek_va_arg@PAUansi_string@?1??type_case_Z@?$output_processor@_WV?$string_output_adapter@_W@__crt_stdio_output@@V?$positional_parameter_base@_WV?$string_output_adapter@_W@__crt_stdio_output@@@2@@__crt_stdio_output@@AAE_NXZ@@__crt_stdio_output@@YAPAUansi_string@?1??type_case_Z@?$output_processor@_WV?$string_output_adapter@_W@__crt_stdio_output@@V?$positional_parameter_base@_WV?$string_output_adapter@_W@__crt_stdio_output@@@2@@0@AAE_NXZ@PAD@Z 10066dd0 f i libucrtd:output.obj
 0001:00065df0       ??$peek_va_arg@PAX@__crt_stdio_output@@YAPAXPAD@Z 10066df0 f i libucrtd:output.obj
 0001:00065e10       ??$peek_va_arg@U_CRT_DOUBLE@@@__crt_stdio_output@@YA?AU_CRT_DOUBLE@@PAD@Z 10066e10 f i libucrtd:output.obj
 0001:00065e30       ??$peek_va_arg@_J@__crt_stdio_output@@YA_JPAD@Z 10066e30 f i libucrtd:output.obj
 0001:00065e50       ??$peek_va_arg@_K@__crt_stdio_output@@YA_KPAD@Z 10066e50 f i libucrtd:output.obj
 0001:00065e70       ??$peek_va_arg@_W@__crt_stdio_output@@YA_WPAD@Z 10066e70 f i libucrtd:output.obj
 0001:00065e90       ??$puttc_nolock_internal@ABDPAU_iobuf@@AAV__crt_cached_ptd_host@@@?$__crt_char_traits@D@@SAHABD$$QAPAU_iobuf@@AAV__crt_cached_ptd_host@@@Z 10066e90 f i libucrtd:output.obj
 0001:00065eb0       ??$puttc_nolock_internal@AB_WPAU_iobuf@@AAV__crt_cached_ptd_host@@@?$__crt_char_traits@_W@@SAGAB_W$$QAPAU_iobuf@@AAV__crt_cached_ptd_host@@@Z 10066eb0 f i libucrtd:output.obj
 0001:00065ed0       ??$read_va_arg@C@__crt_stdio_output@@YACAAPAD@Z 10066ed0 f i libucrtd:output.obj
 0001:00065ef0       ??$read_va_arg@E@__crt_stdio_output@@YAEAAPAD@Z 10066ef0 f i libucrtd:output.obj
 0001:00065f10       ??$read_va_arg@F@__crt_stdio_output@@YAFAAPAD@Z 10066f10 f i libucrtd:output.obj
 0001:00065f30       ??$read_va_arg@G@__crt_stdio_output@@YAGAAPAD@Z 10066f30 f i libucrtd:output.obj
 0001:00065f50       ??$read_va_arg@H@__crt_stdio_output@@YAHAAPAD@Z 10066f50 f i libucrtd:output.obj
 0001:00065f70       ??$read_va_arg@I@__crt_stdio_output@@YAIAAPAD@Z 10066f70 f i libucrtd:output.obj
 0001:00065f90       ??$read_va_arg@PAD@__crt_stdio_output@@YAPADAAPAD@Z 10066f90 f i libucrtd:output.obj
 0001:00065fb0       ??$read_va_arg@PAUansi_string@?1??type_case_Z@?$output_processor@DV?$stream_output_adapter@D@__crt_stdio_output@@V?$format_validation_base@DV?$stream_output_adapter@D@__crt_stdio_output@@@2@@__crt_stdio_output@@AAE_NXZ@@__crt_stdio_output@@YAPAUansi_string@?1??type_case_Z@?$output_processor@DV?$stream_output_adapter@D@__crt_stdio_output@@V?$format_validation_base@DV?$stream_output_adapter@D@__crt_stdio_output@@@2@@0@AAE_NXZ@AAPAD@Z 10066fb0 f i libucrtd:output.obj
 0001:00065fd0       ??$read_va_arg@PAUansi_string@?1??type_case_Z@?$output_processor@DV?$stream_output_adapter@D@__crt_stdio_output@@V?$positional_parameter_base@DV?$stream_output_adapter@D@__crt_stdio_output@@@2@@__crt_stdio_output@@AAE_NXZ@@__crt_stdio_output@@YAPAUansi_string@?1??type_case_Z@?$output_processor@DV?$stream_output_adapter@D@__crt_stdio_output@@V?$positional_parameter_base@DV?$stream_output_adapter@D@__crt_stdio_output@@@2@@0@AAE_NXZ@AAPAD@Z 10066fd0 f i libucrtd:output.obj
 0001:00065ff0       ??$read_va_arg@PAUansi_string@?1??type_case_Z@?$output_processor@DV?$stream_output_adapter@D@__crt_stdio_output@@V?$standard_base@DV?$stream_output_adapter@D@__crt_stdio_output@@@2@@__crt_stdio_output@@AAE_NXZ@@__crt_stdio_output@@YAPAUansi_string@?1??type_case_Z@?$output_processor@DV?$stream_output_adapter@D@__crt_stdio_output@@V?$standard_base@DV?$stream_output_adapter@D@__crt_stdio_output@@@2@@0@AAE_NXZ@AAPAD@Z 10066ff0 f i libucrtd:output.obj
 0001:00066010       ??$read_va_arg@PAUansi_string@?1??type_case_Z@?$output_processor@DV?$string_output_adapter@D@__crt_stdio_output@@V?$format_validation_base@DV?$string_output_adapter@D@__crt_stdio_output@@@2@@__crt_stdio_output@@AAE_NXZ@@__crt_stdio_output@@YAPAUansi_string@?1??type_case_Z@?$output_processor@DV?$string_output_adapter@D@__crt_stdio_output@@V?$format_validation_base@DV?$string_output_adapter@D@__crt_stdio_output@@@2@@0@AAE_NXZ@AAPAD@Z 10067010 f i libucrtd:output.obj
 0001:00066030       ??$read_va_arg@PAUansi_string@?1??type_case_Z@?$output_processor@DV?$string_output_adapter@D@__crt_stdio_output@@V?$positional_parameter_base@DV?$string_output_adapter@D@__crt_stdio_output@@@2@@__crt_stdio_output@@AAE_NXZ@@__crt_stdio_output@@YAPAUansi_string@?1??type_case_Z@?$output_processor@DV?$string_output_adapter@D@__crt_stdio_output@@V?$positional_parameter_base@DV?$string_output_adapter@D@__crt_stdio_output@@@2@@0@AAE_NXZ@AAPAD@Z 10067030 f i libucrtd:output.obj
 0001:00066050       ??$read_va_arg@PAUansi_string@?1??type_case_Z@?$output_processor@DV?$string_output_adapter@D@__crt_stdio_output@@V?$standard_base@DV?$string_output_adapter@D@__crt_stdio_output@@@2@@__crt_stdio_output@@AAE_NXZ@@__crt_stdio_output@@YAPAUansi_string@?1??type_case_Z@?$output_processor@DV?$string_output_adapter@D@__crt_stdio_output@@V?$standard_base@DV?$string_output_adapter@D@__crt_stdio_output@@@2@@0@AAE_NXZ@AAPAD@Z 10067050 f i libucrtd:output.obj
 0001:00066070       ??$read_va_arg@PAUansi_string@?1??type_case_Z@?$output_processor@_WV?$stream_output_adapter@_W@__crt_stdio_output@@V?$format_validation_base@_WV?$stream_output_adapter@_W@__crt_stdio_output@@@2@@__crt_stdio_output@@AAE_NXZ@@__crt_stdio_output@@YAPAUansi_string@?1??type_case_Z@?$output_processor@_WV?$stream_output_adapter@_W@__crt_stdio_output@@V?$format_validation_base@_WV?$stream_output_adapter@_W@__crt_stdio_output@@@2@@0@AAE_NXZ@AAPAD@Z 10067070 f i libucrtd:output.obj
 0001:00066090       ??$read_va_arg@PAUansi_string@?1??type_case_Z@?$output_processor@_WV?$stream_output_adapter@_W@__crt_stdio_output@@V?$positional_parameter_base@_WV?$stream_output_adapter@_W@__crt_stdio_output@@@2@@__crt_stdio_output@@AAE_NXZ@@__crt_stdio_output@@YAPAUansi_string@?1??type_case_Z@?$output_processor@_WV?$stream_output_adapter@_W@__crt_stdio_output@@V?$positional_parameter_base@_WV?$stream_output_adapter@_W@__crt_stdio_output@@@2@@0@AAE_NXZ@AAPAD@Z 10067090 f i libucrtd:output.obj
 0001:000660b0       ??$read_va_arg@PAUansi_string@?1??type_case_Z@?$output_processor@_WV?$stream_output_adapter@_W@__crt_stdio_output@@V?$standard_base@_WV?$stream_output_adapter@_W@__crt_stdio_output@@@2@@__crt_stdio_output@@AAE_NXZ@@__crt_stdio_output@@YAPAUansi_string@?1??type_case_Z@?$output_processor@_WV?$stream_output_adapter@_W@__crt_stdio_output@@V?$standard_base@_WV?$stream_output_adapter@_W@__crt_stdio_output@@@2@@0@AAE_NXZ@AAPAD@Z 100670b0 f i libucrtd:output.obj
 0001:000660d0       ??$read_va_arg@PAUansi_string@?1??type_case_Z@?$output_processor@_WV?$string_output_adapter@_W@__crt_stdio_output@@V?$format_validation_base@_WV?$string_output_adapter@_W@__crt_stdio_output@@@2@@__crt_stdio_output@@AAE_NXZ@@__crt_stdio_output@@YAPAUansi_string@?1??type_case_Z@?$output_processor@_WV?$string_output_adapter@_W@__crt_stdio_output@@V?$format_validation_base@_WV?$string_output_adapter@_W@__crt_stdio_output@@@2@@0@AAE_NXZ@AAPAD@Z 100670d0 f i libucrtd:output.obj
 0001:000660f0       ??$read_va_arg@PAUansi_string@?1??type_case_Z@?$output_processor@_WV?$string_output_adapter@_W@__crt_stdio_output@@V?$positional_parameter_base@_WV?$string_output_adapter@_W@__crt_stdio_output@@@2@@__crt_stdio_output@@AAE_NXZ@@__crt_stdio_output@@YAPAUansi_string@?1??type_case_Z@?$output_processor@_WV?$string_output_adapter@_W@__crt_stdio_output@@V?$positional_parameter_base@_WV?$string_output_adapter@_W@__crt_stdio_output@@@2@@0@AAE_NXZ@AAPAD@Z 100670f0 f i libucrtd:output.obj
 0001:00066110       ??$read_va_arg@PAUansi_string@?1??type_case_Z@?$output_processor@_WV?$string_output_adapter@_W@__crt_stdio_output@@V?$standard_base@_WV?$string_output_adapter@_W@__crt_stdio_output@@@2@@__crt_stdio_output@@AAE_NXZ@@__crt_stdio_output@@YAPAUansi_string@?1??type_case_Z@?$output_processor@_WV?$string_output_adapter@_W@__crt_stdio_output@@V?$standard_base@_WV?$string_output_adapter@_W@__crt_stdio_output@@@2@@0@AAE_NXZ@AAPAD@Z 10067110 f i libucrtd:output.obj
 0001:00066130       ??$read_va_arg@PAX@__crt_stdio_output@@YAPAXAAPAD@Z 10067130 f i libucrtd:output.obj
 0001:00066150       ??$read_va_arg@U_CRT_DOUBLE@@@__crt_stdio_output@@YA?AU_CRT_DOUBLE@@AAPAD@Z 10067150 f i libucrtd:output.obj
 0001:00066170       ??$read_va_arg@_J@__crt_stdio_output@@YA_JAAPAD@Z 10067170 f i libucrtd:output.obj
 0001:00066190       ??$read_va_arg@_K@__crt_stdio_output@@YA_KAAPAD@Z 10067190 f i libucrtd:output.obj
 0001:000661b0       ??$read_va_arg@_W@__crt_stdio_output@@YA_WAAPAD@Z 100671b0 f i libucrtd:output.obj
 0001:000661d0       ??$scratch_count@D@formatting_buffer@__crt_stdio_output@@QBEIXZ 100671d0 f i libucrtd:output.obj
 0001:000661f0       ??$scratch_data@D@formatting_buffer@__crt_stdio_output@@QAEPADXZ 100671f0 f i libucrtd:output.obj
 0001:00066240       ??$type_case_integer@$07@?$output_processor@DV?$stream_output_adapter@D@__crt_stdio_output@@V?$format_validation_base@DV?$stream_output_adapter@D@__crt_stdio_output@@@2@@__crt_stdio_output@@AAE_N_N@Z 10067240 f i libucrtd:output.obj
 0001:000665a0       ??$type_case_integer@$07@?$output_processor@DV?$stream_output_adapter@D@__crt_stdio_output@@V?$positional_parameter_base@DV?$stream_output_adapter@D@__crt_stdio_output@@@2@@__crt_stdio_output@@AAE_N_N@Z 100675a0 f i libucrtd:output.obj
 0001:00066900       ??$type_case_integer@$07@?$output_processor@DV?$stream_output_adapter@D@__crt_stdio_output@@V?$standard_base@DV?$stream_output_adapter@D@__crt_stdio_output@@@2@@__crt_stdio_output@@AAE_N_N@Z 10067900 f i libucrtd:output.obj
 0001:00066c60       ??$type_case_integer@$07@?$output_processor@DV?$string_output_adapter@D@__crt_stdio_output@@V?$format_validation_base@DV?$string_output_adapter@D@__crt_stdio_output@@@2@@__crt_stdio_output@@AAE_N_N@Z 10067c60 f i libucrtd:output.obj
 0001:00066fc0       ??$type_case_integer@$07@?$output_processor@DV?$string_output_adapter@D@__crt_stdio_output@@V?$positional_parameter_base@DV?$string_output_adapter@D@__crt_stdio_output@@@2@@__crt_stdio_output@@AAE_N_N@Z 10067fc0 f i libucrtd:output.obj
 0001:00067320       ??$type_case_integer@$07@?$output_processor@DV?$string_output_adapter@D@__crt_stdio_output@@V?$standard_base@DV?$string_output_adapter@D@__crt_stdio_output@@@2@@__crt_stdio_output@@AAE_N_N@Z 10068320 f i libucrtd:output.obj
 0001:00067680       ??$type_case_integer@$07@?$output_processor@_WV?$stream_output_adapter@_W@__crt_stdio_output@@V?$format_validation_base@_WV?$stream_output_adapter@_W@__crt_stdio_output@@@2@@__crt_stdio_output@@AAE_N_N@Z 10068680 f i libucrtd:output.obj
 0001:000679e0       ??$type_case_integer@$07@?$output_processor@_WV?$stream_output_adapter@_W@__crt_stdio_output@@V?$positional_parameter_base@_WV?$stream_output_adapter@_W@__crt_stdio_output@@@2@@__crt_stdio_output@@AAE_N_N@Z 100689e0 f i libucrtd:output.obj
 0001:00067d40       ??$type_case_integer@$07@?$output_processor@_WV?$stream_output_adapter@_W@__crt_stdio_output@@V?$standard_base@_WV?$stream_output_adapter@_W@__crt_stdio_output@@@2@@__crt_stdio_output@@AAE_N_N@Z 10068d40 f i libucrtd:output.obj
 0001:000680a0       ??$type_case_integer@$07@?$output_processor@_WV?$string_output_adapter@_W@__crt_stdio_output@@V?$format_validation_base@_WV?$string_output_adapter@_W@__crt_stdio_output@@@2@@__crt_stdio_output@@AAE_N_N@Z 100690a0 f i libucrtd:output.obj
 0001:00068400       ??$type_case_integer@$07@?$output_processor@_WV?$string_output_adapter@_W@__crt_stdio_output@@V?$positional_parameter_base@_WV?$string_output_adapter@_W@__crt_stdio_output@@@2@@__crt_stdio_output@@AAE_N_N@Z 10069400 f i libucrtd:output.obj
 0001:00068760       ??$type_case_integer@$07@?$output_processor@_WV?$string_output_adapter@_W@__crt_stdio_output@@V?$standard_base@_WV?$string_output_adapter@_W@__crt_stdio_output@@@2@@__crt_stdio_output@@AAE_N_N@Z 10069760 f i libucrtd:output.obj
 0001:00068ac0       ??$type_case_integer@$09@?$output_processor@DV?$stream_output_adapter@D@__crt_stdio_output@@V?$format_validation_base@DV?$stream_output_adapter@D@__crt_stdio_output@@@2@@__crt_stdio_output@@AAE_N_N@Z 10069ac0 f i libucrtd:output.obj
 0001:00068e20       ??$type_case_integer@$09@?$output_processor@DV?$stream_output_adapter@D@__crt_stdio_output@@V?$positional_parameter_base@DV?$stream_output_adapter@D@__crt_stdio_output@@@2@@__crt_stdio_output@@AAE_N_N@Z 10069e20 f i libucrtd:output.obj
 0001:00069180       ??$type_case_integer@$09@?$output_processor@DV?$stream_output_adapter@D@__crt_stdio_output@@V?$standard_base@DV?$stream_output_adapter@D@__crt_stdio_output@@@2@@__crt_stdio_output@@AAE_N_N@Z 1006a180 f i libucrtd:output.obj
 0001:000694e0       ??$type_case_integer@$09@?$output_processor@DV?$string_output_adapter@D@__crt_stdio_output@@V?$format_validation_base@DV?$string_output_adapter@D@__crt_stdio_output@@@2@@__crt_stdio_output@@AAE_N_N@Z 1006a4e0 f i libucrtd:output.obj
 0001:00069840       ??$type_case_integer@$09@?$output_processor@DV?$string_output_adapter@D@__crt_stdio_output@@V?$positional_parameter_base@DV?$string_output_adapter@D@__crt_stdio_output@@@2@@__crt_stdio_output@@AAE_N_N@Z 1006a840 f i libucrtd:output.obj
 0001:00069ba0       ??$type_case_integer@$09@?$output_processor@DV?$string_output_adapter@D@__crt_stdio_output@@V?$standard_base@DV?$string_output_adapter@D@__crt_stdio_output@@@2@@__crt_stdio_output@@AAE_N_N@Z 1006aba0 f i libucrtd:output.obj
 0001:00069f00       ??$type_case_integer@$09@?$output_processor@_WV?$stream_output_adapter@_W@__crt_stdio_output@@V?$format_validation_base@_WV?$stream_output_adapter@_W@__crt_stdio_output@@@2@@__crt_stdio_output@@AAE_N_N@Z 1006af00 f i libucrtd:output.obj
 0001:0006a260       ??$type_case_integer@$09@?$output_processor@_WV?$stream_output_adapter@_W@__crt_stdio_output@@V?$positional_parameter_base@_WV?$stream_output_adapter@_W@__crt_stdio_output@@@2@@__crt_stdio_output@@AAE_N_N@Z 1006b260 f i libucrtd:output.obj
 0001:0006a5c0       ??$type_case_integer@$09@?$output_processor@_WV?$stream_output_adapter@_W@__crt_stdio_output@@V?$standard_base@_WV?$stream_output_adapter@_W@__crt_stdio_output@@@2@@__crt_stdio_output@@AAE_N_N@Z 1006b5c0 f i libucrtd:output.obj
 0001:0006a920       ??$type_case_integer@$09@?$output_processor@_WV?$string_output_adapter@_W@__crt_stdio_output@@V?$format_validation_base@_WV?$string_output_adapter@_W@__crt_stdio_output@@@2@@__crt_stdio_output@@AAE_N_N@Z 1006b920 f i libucrtd:output.obj
 0001:0006ac80       ??$type_case_integer@$09@?$output_processor@_WV?$string_output_adapter@_W@__crt_stdio_output@@V?$positional_parameter_base@_WV?$string_output_adapter@_W@__crt_stdio_output@@@2@@__crt_stdio_output@@AAE_N_N@Z 1006bc80 f i libucrtd:output.obj
 0001:0006afe0       ??$type_case_integer@$09@?$output_processor@_WV?$string_output_adapter@_W@__crt_stdio_output@@V?$standard_base@_WV?$string_output_adapter@_W@__crt_stdio_output@@@2@@__crt_stdio_output@@AAE_N_N@Z 1006bfe0 f i libucrtd:output.obj
 0001:0006b340       ??$type_case_integer@$0BA@@?$output_processor@DV?$stream_output_adapter@D@__crt_stdio_output@@V?$format_validation_base@DV?$stream_output_adapter@D@__crt_stdio_output@@@2@@__crt_stdio_output@@AAE_N_N@Z 1006c340 f i libucrtd:output.obj
 0001:0006b6a0       ??$type_case_integer@$0BA@@?$output_processor@DV?$stream_output_adapter@D@__crt_stdio_output@@V?$positional_parameter_base@DV?$stream_output_adapter@D@__crt_stdio_output@@@2@@__crt_stdio_output@@AAE_N_N@Z 1006c6a0 f i libucrtd:output.obj
 0001:0006ba00       ??$type_case_integer@$0BA@@?$output_processor@DV?$stream_output_adapter@D@__crt_stdio_output@@V?$standard_base@DV?$stream_output_adapter@D@__crt_stdio_output@@@2@@__crt_stdio_output@@AAE_N_N@Z 1006ca00 f i libucrtd:output.obj
 0001:0006bd60       ??$type_case_integer@$0BA@@?$output_processor@DV?$string_output_adapter@D@__crt_stdio_output@@V?$format_validation_base@DV?$string_output_adapter@D@__crt_stdio_output@@@2@@__crt_stdio_output@@AAE_N_N@Z 1006cd60 f i libucrtd:output.obj
 0001:0006c0c0       ??$type_case_integer@$0BA@@?$output_processor@DV?$string_output_adapter@D@__crt_stdio_output@@V?$positional_parameter_base@DV?$string_output_adapter@D@__crt_stdio_output@@@2@@__crt_stdio_output@@AAE_N_N@Z 1006d0c0 f i libucrtd:output.obj
 0001:0006c420       ??$type_case_integer@$0BA@@?$output_processor@DV?$string_output_adapter@D@__crt_stdio_output@@V?$standard_base@DV?$string_output_adapter@D@__crt_stdio_output@@@2@@__crt_stdio_output@@AAE_N_N@Z 1006d420 f i libucrtd:output.obj
 0001:0006c780       ??$type_case_integer@$0BA@@?$output_processor@_WV?$stream_output_adapter@_W@__crt_stdio_output@@V?$format_validation_base@_WV?$stream_output_adapter@_W@__crt_stdio_output@@@2@@__crt_stdio_output@@AAE_N_N@Z 1006d780 f i libucrtd:output.obj
 0001:0006cae0       ??$type_case_integer@$0BA@@?$output_processor@_WV?$stream_output_adapter@_W@__crt_stdio_output@@V?$positional_parameter_base@_WV?$stream_output_adapter@_W@__crt_stdio_output@@@2@@__crt_stdio_output@@AAE_N_N@Z 1006dae0 f i libucrtd:output.obj
 0001:0006ce40       ??$type_case_integer@$0BA@@?$output_processor@_WV?$stream_output_adapter@_W@__crt_stdio_output@@V?$standard_base@_WV?$stream_output_adapter@_W@__crt_stdio_output@@@2@@__crt_stdio_output@@AAE_N_N@Z 1006de40 f i libucrtd:output.obj
 0001:0006d1a0       ??$type_case_integer@$0BA@@?$output_processor@_WV?$string_output_adapter@_W@__crt_stdio_output@@V?$format_validation_base@_WV?$string_output_adapter@_W@__crt_stdio_output@@@2@@__crt_stdio_output@@AAE_N_N@Z 1006e1a0 f i libucrtd:output.obj
 0001:0006d500       ??$type_case_integer@$0BA@@?$output_processor@_WV?$string_output_adapter@_W@__crt_stdio_output@@V?$positional_parameter_base@_WV?$string_output_adapter@_W@__crt_stdio_output@@@2@@__crt_stdio_output@@AAE_N_N@Z 1006e500 f i libucrtd:output.obj
 0001:0006d860       ??$type_case_integer@$0BA@@?$output_processor@_WV?$string_output_adapter@_W@__crt_stdio_output@@V?$standard_base@_WV?$string_output_adapter@_W@__crt_stdio_output@@@2@@__crt_stdio_output@@AAE_N_N@Z 1006e860 f i libucrtd:output.obj
 0001:0006dbc0       ??$type_case_integer_parse_into_buffer@I$07@?$output_processor@DV?$stream_output_adapter@D@__crt_stdio_output@@V?$format_validation_base@DV?$stream_output_adapter@D@__crt_stdio_output@@@2@@__crt_stdio_output@@AAEXI_N@Z 1006ebc0 f i libucrtd:output.obj
 0001:0006dc90       ??$type_case_integer_parse_into_buffer@I$07@?$output_processor@DV?$stream_output_adapter@D@__crt_stdio_output@@V?$positional_parameter_base@DV?$stream_output_adapter@D@__crt_stdio_output@@@2@@__crt_stdio_output@@AAEXI_N@Z 1006ec90 f i libucrtd:output.obj
 0001:0006dd60       ??$type_case_integer_parse_into_buffer@I$07@?$output_processor@DV?$stream_output_adapter@D@__crt_stdio_output@@V?$standard_base@DV?$stream_output_adapter@D@__crt_stdio_output@@@2@@__crt_stdio_output@@AAEXI_N@Z 1006ed60 f i libucrtd:output.obj
 0001:0006de30       ??$type_case_integer_parse_into_buffer@I$07@?$output_processor@DV?$string_output_adapter@D@__crt_stdio_output@@V?$format_validation_base@DV?$string_output_adapter@D@__crt_stdio_output@@@2@@__crt_stdio_output@@AAEXI_N@Z 1006ee30 f i libucrtd:output.obj
 0001:0006df00       ??$type_case_integer_parse_into_buffer@I$07@?$output_processor@DV?$string_output_adapter@D@__crt_stdio_output@@V?$positional_parameter_base@DV?$string_output_adapter@D@__crt_stdio_output@@@2@@__crt_stdio_output@@AAEXI_N@Z 1006ef00 f i libucrtd:output.obj
 0001:0006dfd0       ??$type_case_integer_parse_into_buffer@I$07@?$output_processor@DV?$string_output_adapter@D@__crt_stdio_output@@V?$standard_base@DV?$string_output_adapter@D@__crt_stdio_output@@@2@@__crt_stdio_output@@AAEXI_N@Z 1006efd0 f i libucrtd:output.obj
 0001:0006e0a0       ??$type_case_integer_parse_into_buffer@I$07@?$output_processor@_WV?$stream_output_adapter@_W@__crt_stdio_output@@V?$format_validation_base@_WV?$stream_output_adapter@_W@__crt_stdio_output@@@2@@__crt_stdio_output@@AAEXI_N@Z 1006f0a0 f i libucrtd:output.obj
 0001:0006e180       ??$type_case_integer_parse_into_buffer@I$07@?$output_processor@_WV?$stream_output_adapter@_W@__crt_stdio_output@@V?$positional_parameter_base@_WV?$stream_output_adapter@_W@__crt_stdio_output@@@2@@__crt_stdio_output@@AAEXI_N@Z 1006f180 f i libucrtd:output.obj
 0001:0006e260       ??$type_case_integer_parse_into_buffer@I$07@?$output_processor@_WV?$stream_output_adapter@_W@__crt_stdio_output@@V?$standard_base@_WV?$stream_output_adapter@_W@__crt_stdio_output@@@2@@__crt_stdio_output@@AAEXI_N@Z 1006f260 f i libucrtd:output.obj
 0001:0006e340       ??$type_case_integer_parse_into_buffer@I$07@?$output_processor@_WV?$string_output_adapter@_W@__crt_stdio_output@@V?$format_validation_base@_WV?$string_output_adapter@_W@__crt_stdio_output@@@2@@__crt_stdio_output@@AAEXI_N@Z 1006f340 f i libucrtd:output.obj
 0001:0006e420       ??$type_case_integer_parse_into_buffer@I$07@?$output_processor@_WV?$string_output_adapter@_W@__crt_stdio_output@@V?$positional_parameter_base@_WV?$string_output_adapter@_W@__crt_stdio_output@@@2@@__crt_stdio_output@@AAEXI_N@Z 1006f420 f i libucrtd:output.obj
 0001:0006e500       ??$type_case_integer_parse_into_buffer@I$07@?$output_processor@_WV?$string_output_adapter@_W@__crt_stdio_output@@V?$standard_base@_WV?$string_output_adapter@_W@__crt_stdio_output@@@2@@__crt_stdio_output@@AAEXI_N@Z 1006f500 f i libucrtd:output.obj
 0001:0006e5e0       ??$type_case_integer_parse_into_buffer@I$09@?$output_processor@DV?$stream_output_adapter@D@__crt_stdio_output@@V?$format_validation_base@DV?$stream_output_adapter@D@__crt_stdio_output@@@2@@__crt_stdio_output@@AAEXI_N@Z 1006f5e0 f i libucrtd:output.obj
 0001:0006e6c0       ??$type_case_integer_parse_into_buffer@I$09@?$output_processor@DV?$stream_output_adapter@D@__crt_stdio_output@@V?$positional_parameter_base@DV?$stream_output_adapter@D@__crt_stdio_output@@@2@@__crt_stdio_output@@AAEXI_N@Z 1006f6c0 f i libucrtd:output.obj
 0001:0006e7a0       ??$type_case_integer_parse_into_buffer@I$09@?$output_processor@DV?$stream_output_adapter@D@__crt_stdio_output@@V?$standard_base@DV?$stream_output_adapter@D@__crt_stdio_output@@@2@@__crt_stdio_output@@AAEXI_N@Z 1006f7a0 f i libucrtd:output.obj
 0001:0006e880       ??$type_case_integer_parse_into_buffer@I$09@?$output_processor@DV?$string_output_adapter@D@__crt_stdio_output@@V?$format_validation_base@DV?$string_output_adapter@D@__crt_stdio_output@@@2@@__crt_stdio_output@@AAEXI_N@Z 1006f880 f i libucrtd:output.obj
 0001:0006e960       ??$type_case_integer_parse_into_buffer@I$09@?$output_processor@DV?$string_output_adapter@D@__crt_stdio_output@@V?$positional_parameter_base@DV?$string_output_adapter@D@__crt_stdio_output@@@2@@__crt_stdio_output@@AAEXI_N@Z 1006f960 f i libucrtd:output.obj
 0001:0006ea40       ??$type_case_integer_parse_into_buffer@I$09@?$output_processor@DV?$string_output_adapter@D@__crt_stdio_output@@V?$standard_base@DV?$string_output_adapter@D@__crt_stdio_output@@@2@@__crt_stdio_output@@AAEXI_N@Z 1006fa40 f i libucrtd:output.obj
 0001:0006eb20       ??$type_case_integer_parse_into_buffer@I$09@?$output_processor@_WV?$stream_output_adapter@_W@__crt_stdio_output@@V?$format_validation_base@_WV?$stream_output_adapter@_W@__crt_stdio_output@@@2@@__crt_stdio_output@@AAEXI_N@Z 1006fb20 f i libucrtd:output.obj
 0001:0006ec10       ??$type_case_integer_parse_into_buffer@I$09@?$output_processor@_WV?$stream_output_adapter@_W@__crt_stdio_output@@V?$positional_parameter_base@_WV?$stream_output_adapter@_W@__crt_stdio_output@@@2@@__crt_stdio_output@@AAEXI_N@Z 1006fc10 f i libucrtd:output.obj
 0001:0006ed00       ??$type_case_integer_parse_into_buffer@I$09@?$output_processor@_WV?$stream_output_adapter@_W@__crt_stdio_output@@V?$standard_base@_WV?$stream_output_adapter@_W@__crt_stdio_output@@@2@@__crt_stdio_output@@AAEXI_N@Z 1006fd00 f i libucrtd:output.obj
 0001:0006edf0       ??$type_case_integer_parse_into_buffer@I$09@?$output_processor@_WV?$string_output_adapter@_W@__crt_stdio_output@@V?$format_validation_base@_WV?$string_output_adapter@_W@__crt_stdio_output@@@2@@__crt_stdio_output@@AAEXI_N@Z 1006fdf0 f i libucrtd:output.obj
 0001:0006eee0       ??$type_case_integer_parse_into_buffer@I$09@?$output_processor@_WV?$string_output_adapter@_W@__crt_stdio_output@@V?$positional_parameter_base@_WV?$string_output_adapter@_W@__crt_stdio_output@@@2@@__crt_stdio_output@@AAEXI_N@Z 1006fee0 f i libucrtd:output.obj
 0001:0006efd0       ??$type_case_integer_parse_into_buffer@I$09@?$output_processor@_WV?$string_output_adapter@_W@__crt_stdio_output@@V?$standard_base@_WV?$string_output_adapter@_W@__crt_stdio_output@@@2@@__crt_stdio_output@@AAEXI_N@Z 1006ffd0 f i libucrtd:output.obj
 0001:0006f0c0       ??$type_case_integer_parse_into_buffer@I$0BA@@?$output_processor@DV?$stream_output_adapter@D@__crt_stdio_output@@V?$format_validation_base@DV?$stream_output_adapter@D@__crt_stdio_output@@@2@@__crt_stdio_output@@AAEXI_N@Z 100700c0 f i libucrtd:output.obj
 0001:0006f190       ??$type_case_integer_parse_into_buffer@I$0BA@@?$output_processor@DV?$stream_output_adapter@D@__crt_stdio_output@@V?$positional_parameter_base@DV?$stream_output_adapter@D@__crt_stdio_output@@@2@@__crt_stdio_output@@AAEXI_N@Z 10070190 f i libucrtd:output.obj
 0001:0006f260       ??$type_case_integer_parse_into_buffer@I$0BA@@?$output_processor@DV?$stream_output_adapter@D@__crt_stdio_output@@V?$standard_base@DV?$stream_output_adapter@D@__crt_stdio_output@@@2@@__crt_stdio_output@@AAEXI_N@Z 10070260 f i libucrtd:output.obj
 0001:0006f330       ??$type_case_integer_parse_into_buffer@I$0BA@@?$output_processor@DV?$string_output_adapter@D@__crt_stdio_output@@V?$format_validation_base@DV?$string_output_adapter@D@__crt_stdio_output@@@2@@__crt_stdio_output@@AAEXI_N@Z 10070330 f i libucrtd:output.obj
 0001:0006f400       ??$type_case_integer_parse_into_buffer@I$0BA@@?$output_processor@DV?$string_output_adapter@D@__crt_stdio_output@@V?$positional_parameter_base@DV?$string_output_adapter@D@__crt_stdio_output@@@2@@__crt_stdio_output@@AAEXI_N@Z 10070400 f i libucrtd:output.obj
 0001:0006f4d0       ??$type_case_integer_parse_into_buffer@I$0BA@@?$output_processor@DV?$string_output_adapter@D@__crt_stdio_output@@V?$standard_base@DV?$string_output_adapter@D@__crt_stdio_output@@@2@@__crt_stdio_output@@AAEXI_N@Z 100704d0 f i libucrtd:output.obj
 0001:0006f5a0       ??$type_case_integer_parse_into_buffer@I$0BA@@?$output_processor@_WV?$stream_output_adapter@_W@__crt_stdio_output@@V?$format_validation_base@_WV?$stream_output_adapter@_W@__crt_stdio_output@@@2@@__crt_stdio_output@@AAEXI_N@Z 100705a0 f i libucrtd:output.obj
 0001:0006f680       ??$type_case_integer_parse_into_buffer@I$0BA@@?$output_processor@_WV?$stream_output_adapter@_W@__crt_stdio_output@@V?$positional_parameter_base@_WV?$stream_output_adapter@_W@__crt_stdio_output@@@2@@__crt_stdio_output@@AAEXI_N@Z 10070680 f i libucrtd:output.obj
 0001:0006f760       ??$type_case_integer_parse_into_buffer@I$0BA@@?$output_processor@_WV?$stream_output_adapter@_W@__crt_stdio_output@@V?$standard_base@_WV?$stream_output_adapter@_W@__crt_stdio_output@@@2@@__crt_stdio_output@@AAEXI_N@Z 10070760 f i libucrtd:output.obj
 0001:0006f840       ??$type_case_integer_parse_into_buffer@I$0BA@@?$output_processor@_WV?$string_output_adapter@_W@__crt_stdio_output@@V?$format_validation_base@_WV?$string_output_adapter@_W@__crt_stdio_output@@@2@@__crt_stdio_output@@AAEXI_N@Z 10070840 f i libucrtd:output.obj
 0001:0006f920       ??$type_case_integer_parse_into_buffer@I$0BA@@?$output_processor@_WV?$string_output_adapter@_W@__crt_stdio_output@@V?$positional_parameter_base@_WV?$string_output_adapter@_W@__crt_stdio_output@@@2@@__crt_stdio_output@@AAEXI_N@Z 10070920 f i libucrtd:output.obj
 0001:0006fa00       ??$type_case_integer_parse_into_buffer@I$0BA@@?$output_processor@_WV?$string_output_adapter@_W@__crt_stdio_output@@V?$standard_base@_WV?$string_output_adapter@_W@__crt_stdio_output@@@2@@__crt_stdio_output@@AAEXI_N@Z 10070a00 f i libucrtd:output.obj
 0001:0006fae0       ??$type_case_integer_parse_into_buffer@_K$07@?$output_processor@DV?$stream_output_adapter@D@__crt_stdio_output@@V?$format_validation_base@DV?$stream_output_adapter@D@__crt_stdio_output@@@2@@__crt_stdio_output@@AAEX_K_N@Z 10070ae0 f i libucrtd:output.obj
 0001:0006fbd0       ??$type_case_integer_parse_into_buffer@_K$07@?$output_processor@DV?$stream_output_adapter@D@__crt_stdio_output@@V?$positional_parameter_base@DV?$stream_output_adapter@D@__crt_stdio_output@@@2@@__crt_stdio_output@@AAEX_K_N@Z 10070bd0 f i libucrtd:output.obj
 0001:0006fcc0       ??$type_case_integer_parse_into_buffer@_K$07@?$output_processor@DV?$stream_output_adapter@D@__crt_stdio_output@@V?$standard_base@DV?$stream_output_adapter@D@__crt_stdio_output@@@2@@__crt_stdio_output@@AAEX_K_N@Z 10070cc0 f i libucrtd:output.obj
 0001:0006fdb0       ??$type_case_integer_parse_into_buffer@_K$07@?$output_processor@DV?$string_output_adapter@D@__crt_stdio_output@@V?$format_validation_base@DV?$string_output_adapter@D@__crt_stdio_output@@@2@@__crt_stdio_output@@AAEX_K_N@Z 10070db0 f i libucrtd:output.obj
 0001:0006fea0       ??$type_case_integer_parse_into_buffer@_K$07@?$output_processor@DV?$string_output_adapter@D@__crt_stdio_output@@V?$positional_parameter_base@DV?$string_output_adapter@D@__crt_stdio_output@@@2@@__crt_stdio_output@@AAEX_K_N@Z 10070ea0 f i libucrtd:output.obj
 0001:0006ff90       ??$type_case_integer_parse_into_buffer@_K$07@?$output_processor@DV?$string_output_adapter@D@__crt_stdio_output@@V?$standard_base@DV?$string_output_adapter@D@__crt_stdio_output@@@2@@__crt_stdio_output@@AAEX_K_N@Z 10070f90 f i libucrtd:output.obj
 0001:00070080       ??$type_case_integer_parse_into_buffer@_K$07@?$output_processor@_WV?$stream_output_adapter@_W@__crt_stdio_output@@V?$format_validation_base@_WV?$stream_output_adapter@_W@__crt_stdio_output@@@2@@__crt_stdio_output@@AAEX_K_N@Z 10071080 f i libucrtd:output.obj
 0001:00070180       ??$type_case_integer_parse_into_buffer@_K$07@?$output_processor@_WV?$stream_output_adapter@_W@__crt_stdio_output@@V?$positional_parameter_base@_WV?$stream_output_adapter@_W@__crt_stdio_output@@@2@@__crt_stdio_output@@AAEX_K_N@Z 10071180 f i libucrtd:output.obj
 0001:00070280       ??$type_case_integer_parse_into_buffer@_K$07@?$output_processor@_WV?$stream_output_adapter@_W@__crt_stdio_output@@V?$standard_base@_WV?$stream_output_adapter@_W@__crt_stdio_output@@@2@@__crt_stdio_output@@AAEX_K_N@Z 10071280 f i libucrtd:output.obj
 0001:00070380       ??$type_case_integer_parse_into_buffer@_K$07@?$output_processor@_WV?$string_output_adapter@_W@__crt_stdio_output@@V?$format_validation_base@_WV?$string_output_adapter@_W@__crt_stdio_output@@@2@@__crt_stdio_output@@AAEX_K_N@Z 10071380 f i libucrtd:output.obj
 0001:00070480       ??$type_case_integer_parse_into_buffer@_K$07@?$output_processor@_WV?$string_output_adapter@_W@__crt_stdio_output@@V?$positional_parameter_base@_WV?$string_output_adapter@_W@__crt_stdio_output@@@2@@__crt_stdio_output@@AAEX_K_N@Z 10071480 f i libucrtd:output.obj
 0001:00070580       ??$type_case_integer_parse_into_buffer@_K$07@?$output_processor@_WV?$string_output_adapter@_W@__crt_stdio_output@@V?$standard_base@_WV?$string_output_adapter@_W@__crt_stdio_output@@@2@@__crt_stdio_output@@AAEX_K_N@Z 10071580 f i libucrtd:output.obj
 0001:00070680       ??$type_case_integer_parse_into_buffer@_K$09@?$output_processor@DV?$stream_output_adapter@D@__crt_stdio_output@@V?$format_validation_base@DV?$stream_output_adapter@D@__crt_stdio_output@@@2@@__crt_stdio_output@@AAEX_K_N@Z 10071680 f i libucrtd:output.obj
 0001:00070770       ??$type_case_integer_parse_into_buffer@_K$09@?$output_processor@DV?$stream_output_adapter@D@__crt_stdio_output@@V?$positional_parameter_base@DV?$stream_output_adapter@D@__crt_stdio_output@@@2@@__crt_stdio_output@@AAEX_K_N@Z 10071770 f i libucrtd:output.obj
 0001:00070860       ??$type_case_integer_parse_into_buffer@_K$09@?$output_processor@DV?$stream_output_adapter@D@__crt_stdio_output@@V?$standard_base@DV?$stream_output_adapter@D@__crt_stdio_output@@@2@@__crt_stdio_output@@AAEX_K_N@Z 10071860 f i libucrtd:output.obj
 0001:00070950       ??$type_case_integer_parse_into_buffer@_K$09@?$output_processor@DV?$string_output_adapter@D@__crt_stdio_output@@V?$format_validation_base@DV?$string_output_adapter@D@__crt_stdio_output@@@2@@__crt_stdio_output@@AAEX_K_N@Z 10071950 f i libucrtd:output.obj
 0001:00070a40       ??$type_case_integer_parse_into_buffer@_K$09@?$output_processor@DV?$string_output_adapter@D@__crt_stdio_output@@V?$positional_parameter_base@DV?$string_output_adapter@D@__crt_stdio_output@@@2@@__crt_stdio_output@@AAEX_K_N@Z 10071a40 f i libucrtd:output.obj
 0001:00070b30       ??$type_case_integer_parse_into_buffer@_K$09@?$output_processor@DV?$string_output_adapter@D@__crt_stdio_output@@V?$standard_base@DV?$string_output_adapter@D@__crt_stdio_output@@@2@@__crt_stdio_output@@AAEX_K_N@Z 10071b30 f i libucrtd:output.obj
 0001:00070c20       ??$type_case_integer_parse_into_buffer@_K$09@?$output_processor@_WV?$stream_output_adapter@_W@__crt_stdio_output@@V?$format_validation_base@_WV?$stream_output_adapter@_W@__crt_stdio_output@@@2@@__crt_stdio_output@@AAEX_K_N@Z 10071c20 f i libucrtd:output.obj
 0001:00070d20       ??$type_case_integer_parse_into_buffer@_K$09@?$output_processor@_WV?$stream_output_adapter@_W@__crt_stdio_output@@V?$positional_parameter_base@_WV?$stream_output_adapter@_W@__crt_stdio_output@@@2@@__crt_stdio_output@@AAEX_K_N@Z 10071d20 f i libucrtd:output.obj
 0001:00070e20       ??$type_case_integer_parse_into_buffer@_K$09@?$output_processor@_WV?$stream_output_adapter@_W@__crt_stdio_output@@V?$standard_base@_WV?$stream_output_adapter@_W@__crt_stdio_output@@@2@@__crt_stdio_output@@AAEX_K_N@Z 10071e20 f i libucrtd:output.obj
 0001:00070f20       ??$type_case_integer_parse_into_buffer@_K$09@?$output_processor@_WV?$string_output_adapter@_W@__crt_stdio_output@@V?$format_validation_base@_WV?$string_output_adapter@_W@__crt_stdio_output@@@2@@__crt_stdio_output@@AAEX_K_N@Z 10071f20 f i libucrtd:output.obj
 0001:00071020       ??$type_case_integer_parse_into_buffer@_K$09@?$output_processor@_WV?$string_output_adapter@_W@__crt_stdio_output@@V?$positional_parameter_base@_WV?$string_output_adapter@_W@__crt_stdio_output@@@2@@__crt_stdio_output@@AAEX_K_N@Z 10072020 f i libucrtd:output.obj
 0001:00071120       ??$type_case_integer_parse_into_buffer@_K$09@?$output_processor@_WV?$string_output_adapter@_W@__crt_stdio_output@@V?$standard_base@_WV?$string_output_adapter@_W@__crt_stdio_output@@@2@@__crt_stdio_output@@AAEX_K_N@Z 10072120 f i libucrtd:output.obj
 0001:00071220       ??$type_case_integer_parse_into_buffer@_K$0BA@@?$output_processor@DV?$stream_output_adapter@D@__crt_stdio_output@@V?$format_validation_base@DV?$stream_output_adapter@D@__crt_stdio_output@@@2@@__crt_stdio_output@@AAEX_K_N@Z 10072220 f i libucrtd:output.obj
 0001:00071310       ??$type_case_integer_parse_into_buffer@_K$0BA@@?$output_processor@DV?$stream_output_adapter@D@__crt_stdio_output@@V?$positional_parameter_base@DV?$stream_output_adapter@D@__crt_stdio_output@@@2@@__crt_stdio_output@@AAEX_K_N@Z 10072310 f i libucrtd:output.obj
 0001:00071400       ??$type_case_integer_parse_into_buffer@_K$0BA@@?$output_processor@DV?$stream_output_adapter@D@__crt_stdio_output@@V?$standard_base@DV?$stream_output_adapter@D@__crt_stdio_output@@@2@@__crt_stdio_output@@AAEX_K_N@Z 10072400 f i libucrtd:output.obj
 0001:000714f0       ??$type_case_integer_parse_into_buffer@_K$0BA@@?$output_processor@DV?$string_output_adapter@D@__crt_stdio_output@@V?$format_validation_base@DV?$string_output_adapter@D@__crt_stdio_output@@@2@@__crt_stdio_output@@AAEX_K_N@Z 100724f0 f i libucrtd:output.obj
 0001:000715e0       ??$type_case_integer_parse_into_buffer@_K$0BA@@?$output_processor@DV?$string_output_adapter@D@__crt_stdio_output@@V?$positional_parameter_base@DV?$string_output_adapter@D@__crt_stdio_output@@@2@@__crt_stdio_output@@AAEX_K_N@Z 100725e0 f i libucrtd:output.obj
 0001:000716d0       ??$type_case_integer_parse_into_buffer@_K$0BA@@?$output_processor@DV?$string_output_adapter@D@__crt_stdio_output@@V?$standard_base@DV?$string_output_adapter@D@__crt_stdio_output@@@2@@__crt_stdio_output@@AAEX_K_N@Z 100726d0 f i libucrtd:output.obj
 0001:000717c0       ??$type_case_integer_parse_into_buffer@_K$0BA@@?$output_processor@_WV?$stream_output_adapter@_W@__crt_stdio_output@@V?$format_validation_base@_WV?$stream_output_adapter@_W@__crt_stdio_output@@@2@@__crt_stdio_output@@AAEX_K_N@Z 100727c0 f i libucrtd:output.obj
 0001:000718c0       ??$type_case_integer_parse_into_buffer@_K$0BA@@?$output_processor@_WV?$stream_output_adapter@_W@__crt_stdio_output@@V?$positional_parameter_base@_WV?$stream_output_adapter@_W@__crt_stdio_output@@@2@@__crt_stdio_output@@AAEX_K_N@Z 100728c0 f i libucrtd:output.obj
 0001:000719c0       ??$type_case_integer_parse_into_buffer@_K$0BA@@?$output_processor@_WV?$stream_output_adapter@_W@__crt_stdio_output@@V?$standard_base@_WV?$stream_output_adapter@_W@__crt_stdio_output@@@2@@__crt_stdio_output@@AAEX_K_N@Z 100729c0 f i libucrtd:output.obj
 0001:00071ac0       ??$type_case_integer_parse_into_buffer@_K$0BA@@?$output_processor@_WV?$string_output_adapter@_W@__crt_stdio_output@@V?$format_validation_base@_WV?$string_output_adapter@_W@__crt_stdio_output@@@2@@__crt_stdio_output@@AAEX_K_N@Z 10072ac0 f i libucrtd:output.obj
 0001:00071bc0       ??$type_case_integer_parse_into_buffer@_K$0BA@@?$output_processor@_WV?$string_output_adapter@_W@__crt_stdio_output@@V?$positional_parameter_base@_WV?$string_output_adapter@_W@__crt_stdio_output@@@2@@__crt_stdio_output@@AAEX_K_N@Z 10072bc0 f i libucrtd:output.obj
 0001:00071cc0       ??$type_case_integer_parse_into_buffer@_K$0BA@@?$output_processor@_WV?$string_output_adapter@_W@__crt_stdio_output@@V?$standard_base@_WV?$string_output_adapter@_W@__crt_stdio_output@@@2@@__crt_stdio_output@@AAEX_K_N@Z 10072cc0 f i libucrtd:output.obj
 0001:00071dc0       ??$write_multiple_characters@V?$stream_output_adapter@D@__crt_stdio_output@@D@__crt_stdio_output@@YAXABV?$stream_output_adapter@D@0@DHQAHAAV__crt_cached_ptd_host@@@Z 10072dc0 f i libucrtd:output.obj
 0001:00071e10       ??$write_multiple_characters@V?$stream_output_adapter@_W@__crt_stdio_output@@D@__crt_stdio_output@@YAXABV?$stream_output_adapter@_W@0@DHQAHAAV__crt_cached_ptd_host@@@Z 10072e10 f i libucrtd:output.obj
 0001:00071e60       ??$write_multiple_characters@V?$string_output_adapter@D@__crt_stdio_output@@D@__crt_stdio_output@@YAXABV?$string_output_adapter@D@0@DHQAHAAV__crt_cached_ptd_host@@@Z 10072e60 f i libucrtd:output.obj
 0001:00071eb0       ??$write_multiple_characters@V?$string_output_adapter@_W@__crt_stdio_output@@D@__crt_stdio_output@@YAXABV?$string_output_adapter@_W@0@DHQAHAAV__crt_cached_ptd_host@@@Z 10072eb0 f i libucrtd:output.obj
 0001:00072200       ??0?$c_string_character_source@D@__crt_strtox@@QAE@QBDQAPBD@Z 10073200 f i libucrtd:output.obj
 0001:00072240       ??0?$c_string_character_source@_W@__crt_strtox@@QAE@QB_WQAPB_W@Z 10073240 f i libucrtd:output.obj
 0001:00072280       ??0?$cached@H@__crt_cached_ptd_host@@QAE@XZ 10073280 f i libucrtd:output.obj
 0001:000722a0       ??0?$cached@K@__crt_cached_ptd_host@@QAE@XZ 100732a0 f i libucrtd:output.obj
 0001:000722c0       ??0?$common_data@D@__crt_stdio_output@@IAE@AAV__crt_cached_ptd_host@@@Z 100732c0 f i libucrtd:output.obj
 0001:00072360       ??0?$common_data@_W@__crt_stdio_output@@IAE@AAV__crt_cached_ptd_host@@@Z 10073360 f i libucrtd:output.obj
 0001:00072400       ??0?$output_adapter_data@DV?$stream_output_adapter@D@__crt_stdio_output@@@__crt_stdio_output@@IAE@ABV?$stream_output_adapter@D@1@_KQBDAAV__crt_cached_ptd_host@@QAD@Z 10073400 f i libucrtd:output.obj
 0001:00072480       ??0?$output_adapter_data@DV?$string_output_adapter@D@__crt_stdio_output@@@__crt_stdio_output@@IAE@ABV?$string_output_adapter@D@1@_KQBDAAV__crt_cached_ptd_host@@QAD@Z 10073480 f i libucrtd:output.obj
 0001:00072500       ??0?$output_adapter_data@_WV?$stream_output_adapter@_W@__crt_stdio_output@@@__crt_stdio_output@@IAE@ABV?$stream_output_adapter@_W@1@_KQB_WAAV__crt_cached_ptd_host@@QAD@Z 10073500 f i libucrtd:output.obj
 0001:00072580       ??0?$output_adapter_data@_WV?$string_output_adapter@_W@__crt_stdio_output@@@__crt_stdio_output@@IAE@ABV?$string_output_adapter@_W@1@_KQB_WAAV__crt_cached_ptd_host@@QAD@Z 10073580 f i libucrtd:output.obj
 0001:00072600       ??0?$output_processor@DV?$stream_output_adapter@D@__crt_stdio_output@@V?$format_validation_base@DV?$stream_output_adapter@D@__crt_stdio_output@@@2@@__crt_stdio_output@@QAE@ABV?$stream_output_adapter@D@1@_KQBDAAV__crt_cached_ptd_host@@QAD@Z 10073600 f i libucrtd:output.obj
 0001:00072630       ??0?$output_processor@DV?$stream_output_adapter@D@__crt_stdio_output@@V?$positional_parameter_base@DV?$stream_output_adapter@D@__crt_stdio_output@@@2@@__crt_stdio_output@@QAE@ABV?$stream_output_adapter@D@1@_KQBDAAV__crt_cached_ptd_host@@QAD@Z 10073630 f i libucrtd:output.obj
 0001:00072660       ??0?$output_processor@DV?$stream_output_adapter@D@__crt_stdio_output@@V?$standard_base@DV?$stream_output_adapter@D@__crt_stdio_output@@@2@@__crt_stdio_output@@QAE@ABV?$stream_output_adapter@D@1@_KQBDAAV__crt_cached_ptd_host@@QAD@Z 10073660 f i libucrtd:output.obj
 0001:00072690       ??0?$output_processor@DV?$string_output_adapter@D@__crt_stdio_output@@V?$format_validation_base@DV?$string_output_adapter@D@__crt_stdio_output@@@2@@__crt_stdio_output@@QAE@ABV?$string_output_adapter@D@1@_KQBDAAV__crt_cached_ptd_host@@QAD@Z 10073690 f i libucrtd:output.obj
 0001:000726c0       ??0?$output_processor@DV?$string_output_adapter@D@__crt_stdio_output@@V?$positional_parameter_base@DV?$string_output_adapter@D@__crt_stdio_output@@@2@@__crt_stdio_output@@QAE@ABV?$string_output_adapter@D@1@_KQBDAAV__crt_cached_ptd_host@@QAD@Z 100736c0 f i libucrtd:output.obj
 0001:000726f0       ??0?$output_processor@DV?$string_output_adapter@D@__crt_stdio_output@@V?$standard_base@DV?$string_output_adapter@D@__crt_stdio_output@@@2@@__crt_stdio_output@@QAE@ABV?$string_output_adapter@D@1@_KQBDAAV__crt_cached_ptd_host@@QAD@Z 100736f0 f i libucrtd:output.obj
 0001:00072720       ??0?$output_processor@_WV?$stream_output_adapter@_W@__crt_stdio_output@@V?$format_validation_base@_WV?$stream_output_adapter@_W@__crt_stdio_output@@@2@@__crt_stdio_output@@QAE@ABV?$stream_output_adapter@_W@1@_KQB_WAAV__crt_cached_ptd_host@@QAD@Z 10073720 f i libucrtd:output.obj
 0001:00072750       ??0?$output_processor@_WV?$stream_output_adapter@_W@__crt_stdio_output@@V?$positional_parameter_base@_WV?$stream_output_adapter@_W@__crt_stdio_output@@@2@@__crt_stdio_output@@QAE@ABV?$stream_output_adapter@_W@1@_KQB_WAAV__crt_cached_ptd_host@@QAD@Z 10073750 f i libucrtd:output.obj
 0001:00072780       ??0?$output_processor@_WV?$stream_output_adapter@_W@__crt_stdio_output@@V?$standard_base@_WV?$stream_output_adapter@_W@__crt_stdio_output@@@2@@__crt_stdio_output@@QAE@ABV?$stream_output_adapter@_W@1@_KQB_WAAV__crt_cached_ptd_host@@QAD@Z 10073780 f i libucrtd:output.obj
 0001:000727b0       ??0?$output_processor@_WV?$string_output_adapter@_W@__crt_stdio_output@@V?$format_validation_base@_WV?$string_output_adapter@_W@__crt_stdio_output@@@2@@__crt_stdio_output@@QAE@ABV?$string_output_adapter@_W@1@_KQB_WAAV__crt_cached_ptd_host@@QAD@Z 100737b0 f i libucrtd:output.obj
 0001:000727e0       ??0?$output_processor@_WV?$string_output_adapter@_W@__crt_stdio_output@@V?$positional_parameter_base@_WV?$string_output_adapter@_W@__crt_stdio_output@@@2@@__crt_stdio_output@@QAE@ABV?$string_output_adapter@_W@1@_KQB_WAAV__crt_cached_ptd_host@@QAD@Z 100737e0 f i libucrtd:output.obj
 0001:00072810       ??0?$output_processor@_WV?$string_output_adapter@_W@__crt_stdio_output@@V?$standard_base@_WV?$string_output_adapter@_W@__crt_stdio_output@@@2@@__crt_stdio_output@@QAE@ABV?$string_output_adapter@_W@1@_KQB_WAAV__crt_cached_ptd_host@@QAD@Z 10073810 f i libucrtd:output.obj
 0001:00072840       ??0?$stream_output_adapter@D@__crt_stdio_output@@QAE@QAU_iobuf@@@Z 10073840 f i libucrtd:output.obj
 0001:00072870       ??0?$stream_output_adapter@_W@__crt_stdio_output@@QAE@QAU_iobuf@@@Z 10073870 f i libucrtd:output.obj
 0001:000728a0       ??0?$string_output_adapter@D@__crt_stdio_output@@QAE@QAU?$string_output_adapter_context@D@1@@Z 100738a0 f i libucrtd:output.obj
 0001:000728c0       ??0?$string_output_adapter@_W@__crt_stdio_output@@QAE@QAU?$string_output_adapter_context@_W@1@@Z 100738c0 f i libucrtd:output.obj
 0001:000728e0       ??0__acrt_stdio_temporary_buffering_guard@@QAE@QAU_iobuf@@AAV__crt_cached_ptd_host@@@Z 100738e0 f i libucrtd:output.obj
 0001:00072920       ??0__crt_cached_ptd_host@@QAE@QAU__crt_locale_pointers@@@Z 10073920 f i libucrtd:output.obj
 0001:000729b0       ??0__crt_scoped_get_last_error_reset@@QAE@XZ 100739b0 f i libucrtd:output.obj
 0001:000729d0       ??0formatting_buffer@__crt_stdio_output@@QAE@XZ 100739d0 f i libucrtd:output.obj
 0001:00072a10       ??0guard@?$cached@H@__crt_cached_ptd_host@@QAE@AAU12@@Z 10073a10 f i libucrtd:output.obj
 0001:00072a50       ??1?$c_string_character_source@D@__crt_strtox@@QAE@XZ 10073a50 f i libucrtd:output.obj
 0001:00072a80       ??1?$c_string_character_source@_W@__crt_strtox@@QAE@XZ 10073a80 f i libucrtd:output.obj
 0001:00072ab0       ??1?$common_data@D@__crt_stdio_output@@QAE@XZ 10073ab0 f i libucrtd:output.obj
 0001:00072ad0       ??1?$common_data@_W@__crt_stdio_output@@QAE@XZ 10073ad0 f i libucrtd:output.obj
 0001:00072af0       ??1?$format_validation_base@DV?$stream_output_adapter@D@__crt_stdio_output@@@__crt_stdio_output@@QAE@XZ 10073af0 f i libucrtd:output.obj
 0001:00072b10       ??1?$format_validation_base@DV?$string_output_adapter@D@__crt_stdio_output@@@__crt_stdio_output@@QAE@XZ 10073b10 f i libucrtd:output.obj
 0001:00072b30       ??1?$format_validation_base@_WV?$stream_output_adapter@_W@__crt_stdio_output@@@__crt_stdio_output@@QAE@XZ 10073b30 f i libucrtd:output.obj
 0001:00072b50       ??1?$format_validation_base@_WV?$string_output_adapter@_W@__crt_stdio_output@@@__crt_stdio_output@@QAE@XZ 10073b50 f i libucrtd:output.obj
 0001:00072b70       ??1?$output_adapter_data@DV?$stream_output_adapter@D@__crt_stdio_output@@@__crt_stdio_output@@QAE@XZ 10073b70 f i libucrtd:output.obj
 0001:00072b90       ??1?$output_adapter_data@DV?$string_output_adapter@D@__crt_stdio_output@@@__crt_stdio_output@@QAE@XZ 10073b90 f i libucrtd:output.obj
 0001:00072bb0       ??1?$output_adapter_data@_WV?$stream_output_adapter@_W@__crt_stdio_output@@@__crt_stdio_output@@QAE@XZ 10073bb0 f i libucrtd:output.obj
 0001:00072bd0       ??1?$output_adapter_data@_WV?$string_output_adapter@_W@__crt_stdio_output@@@__crt_stdio_output@@QAE@XZ 10073bd0 f i libucrtd:output.obj
 0001:00072bf0       ??1?$output_processor@DV?$stream_output_adapter@D@__crt_stdio_output@@V?$format_validation_base@DV?$stream_output_adapter@D@__crt_stdio_output@@@2@@__crt_stdio_output@@QAE@XZ 10073bf0 f i libucrtd:output.obj
 0001:00072c10       ??1?$output_processor@DV?$stream_output_adapter@D@__crt_stdio_output@@V?$positional_parameter_base@DV?$stream_output_adapter@D@__crt_stdio_output@@@2@@__crt_stdio_output@@QAE@XZ 10073c10 f i libucrtd:output.obj
 0001:00072c30       ??1?$output_processor@DV?$stream_output_adapter@D@__crt_stdio_output@@V?$standard_base@DV?$stream_output_adapter@D@__crt_stdio_output@@@2@@__crt_stdio_output@@QAE@XZ 10073c30 f i libucrtd:output.obj
 0001:00072c50       ??1?$output_processor@DV?$string_output_adapter@D@__crt_stdio_output@@V?$format_validation_base@DV?$string_output_adapter@D@__crt_stdio_output@@@2@@__crt_stdio_output@@QAE@XZ 10073c50 f i libucrtd:output.obj
 0001:00072c70       ??1?$output_processor@DV?$string_output_adapter@D@__crt_stdio_output@@V?$positional_parameter_base@DV?$string_output_adapter@D@__crt_stdio_output@@@2@@__crt_stdio_output@@QAE@XZ 10073c70 f i libucrtd:output.obj
 0001:00072c90       ??1?$output_processor@DV?$string_output_adapter@D@__crt_stdio_output@@V?$standard_base@DV?$string_output_adapter@D@__crt_stdio_output@@@2@@__crt_stdio_output@@QAE@XZ 10073c90 f i libucrtd:output.obj
 0001:00072cb0       ??1?$output_processor@_WV?$stream_output_adapter@_W@__crt_stdio_output@@V?$format_validation_base@_WV?$stream_output_adapter@_W@__crt_stdio_output@@@2@@__crt_stdio_output@@QAE@XZ 10073cb0 f i libucrtd:output.obj
 0001:00072cd0       ??1?$output_processor@_WV?$stream_output_adapter@_W@__crt_stdio_output@@V?$positional_parameter_base@_WV?$stream_output_adapter@_W@__crt_stdio_output@@@2@@__crt_stdio_output@@QAE@XZ 10073cd0 f i libucrtd:output.obj
 0001:00072cf0       ??1?$output_processor@_WV?$stream_output_adapter@_W@__crt_stdio_output@@V?$standard_base@_WV?$stream_output_adapter@_W@__crt_stdio_output@@@2@@__crt_stdio_output@@QAE@XZ 10073cf0 f i libucrtd:output.obj
 0001:00072d10       ??1?$output_processor@_WV?$string_output_adapter@_W@__crt_stdio_output@@V?$format_validation_base@_WV?$string_output_adapter@_W@__crt_stdio_output@@@2@@__crt_stdio_output@@QAE@XZ 10073d10 f i libucrtd:output.obj
 0001:00072d30       ??1?$output_processor@_WV?$string_output_adapter@_W@__crt_stdio_output@@V?$positional_parameter_base@_WV?$string_output_adapter@_W@__crt_stdio_output@@@2@@__crt_stdio_output@@QAE@XZ 10073d30 f i libucrtd:output.obj
 0001:00072d50       ??1?$output_processor@_WV?$string_output_adapter@_W@__crt_stdio_output@@V?$standard_base@_WV?$string_output_adapter@_W@__crt_stdio_output@@@2@@__crt_stdio_output@@QAE@XZ 10073d50 f i libucrtd:output.obj
 0001:00072d70       ??1?$positional_parameter_base@DV?$stream_output_adapter@D@__crt_stdio_output@@@__crt_stdio_output@@QAE@XZ 10073d70 f i libucrtd:output.obj
 0001:00072d90       ??1?$positional_parameter_base@DV?$string_output_adapter@D@__crt_stdio_output@@@__crt_stdio_output@@QAE@XZ 10073d90 f i libucrtd:output.obj
 0001:00072db0       ??1?$positional_parameter_base@_WV?$stream_output_adapter@_W@__crt_stdio_output@@@__crt_stdio_output@@QAE@XZ 10073db0 f i libucrtd:output.obj
 0001:00072dd0       ??1?$positional_parameter_base@_WV?$string_output_adapter@_W@__crt_stdio_output@@@__crt_stdio_output@@QAE@XZ 10073dd0 f i libucrtd:output.obj
 0001:00072df0       ??1?$standard_base@DV?$stream_output_adapter@D@__crt_stdio_output@@@__crt_stdio_output@@QAE@XZ 10073df0 f i libucrtd:output.obj
 0001:00072e10       ??1?$standard_base@DV?$string_output_adapter@D@__crt_stdio_output@@@__crt_stdio_output@@QAE@XZ 10073e10 f i libucrtd:output.obj
 0001:00072e30       ??1?$standard_base@_WV?$stream_output_adapter@_W@__crt_stdio_output@@@__crt_stdio_output@@QAE@XZ 10073e30 f i libucrtd:output.obj
 0001:00072e50       ??1?$standard_base@_WV?$string_output_adapter@_W@__crt_stdio_output@@@__crt_stdio_output@@QAE@XZ 10073e50 f i libucrtd:output.obj
 0001:00072e70       ??1__acrt_stdio_temporary_buffering_guard@@QAE@XZ 10073e70 f i libucrtd:output.obj
 0001:00072ea0       ??1__crt_cached_ptd_host@@QAE@XZ 10073ea0 f i libucrtd:output.obj
 0001:00072f30       ??1__crt_scoped_get_last_error_reset@@QAE@XZ 10073f30 f i libucrtd:output.obj
 0001:00072f50       ??1formatting_buffer@__crt_stdio_output@@QAE@XZ 10073f50 f i libucrtd:output.obj
 0001:00072f70       ??1guard@?$cached@H@__crt_cached_ptd_host@@QAE@XZ 10073f70 f i libucrtd:output.obj
 0001:00072fa0       ??4?$__crt_unique_heap_ptr@DU__crt_internal_free_policy@@@@QAEAAV0@$$QAV0@@Z 10073fa0 f i libucrtd:output.obj
 0001:00072fd0       ??A?$spectre_mitigated_lookup_table@Ustate_transition_pair@__crt_stdio_output@@$0IA@@__crt_stdio_output@@QBEABUstate_transition_pair@1@I@Z 10073fd0 f i libucrtd:output.obj
 0001:00072ff0       ??C__crt_stdio_stream@@QBEPAU__crt_stdio_stream_data@@XZ 10073ff0 f i libucrtd:output.obj
 0001:00073850       ?adjust_hexit@?$output_processor@DV?$stream_output_adapter@D@__crt_stdio_output@@V?$format_validation_base@DV?$stream_output_adapter@D@__crt_stdio_output@@@2@@__crt_stdio_output@@CADH_N@Z 10074850 f i libucrtd:output.obj
 0001:00073890       ?adjust_hexit@?$output_processor@DV?$stream_output_adapter@D@__crt_stdio_output@@V?$positional_parameter_base@DV?$stream_output_adapter@D@__crt_stdio_output@@@2@@__crt_stdio_output@@CADH_N@Z 10074890 f i libucrtd:output.obj
 0001:000738d0       ?adjust_hexit@?$output_processor@DV?$stream_output_adapter@D@__crt_stdio_output@@V?$standard_base@DV?$stream_output_adapter@D@__crt_stdio_output@@@2@@__crt_stdio_output@@CADH_N@Z 100748d0 f i libucrtd:output.obj
 0001:00073910       ?adjust_hexit@?$output_processor@DV?$string_output_adapter@D@__crt_stdio_output@@V?$format_validation_base@DV?$string_output_adapter@D@__crt_stdio_output@@@2@@__crt_stdio_output@@CADH_N@Z 10074910 f i libucrtd:output.obj
 0001:00073950       ?adjust_hexit@?$output_processor@DV?$string_output_adapter@D@__crt_stdio_output@@V?$positional_parameter_base@DV?$string_output_adapter@D@__crt_stdio_output@@@2@@__crt_stdio_output@@CADH_N@Z 10074950 f i libucrtd:output.obj
 0001:00073990       ?adjust_hexit@?$output_processor@DV?$string_output_adapter@D@__crt_stdio_output@@V?$standard_base@DV?$string_output_adapter@D@__crt_stdio_output@@@2@@__crt_stdio_output@@CADH_N@Z 10074990 f i libucrtd:output.obj
 0001:000739d0       ?adjust_hexit@?$output_processor@_WV?$stream_output_adapter@_W@__crt_stdio_output@@V?$format_validation_base@_WV?$stream_output_adapter@_W@__crt_stdio_output@@@2@@__crt_stdio_output@@CADH_N@Z 100749d0 f i libucrtd:output.obj
 0001:00073a10       ?adjust_hexit@?$output_processor@_WV?$stream_output_adapter@_W@__crt_stdio_output@@V?$positional_parameter_base@_WV?$stream_output_adapter@_W@__crt_stdio_output@@@2@@__crt_stdio_output@@CADH_N@Z 10074a10 f i libucrtd:output.obj
 0001:00073a50       ?adjust_hexit@?$output_processor@_WV?$stream_output_adapter@_W@__crt_stdio_output@@V?$standard_base@_WV?$stream_output_adapter@_W@__crt_stdio_output@@@2@@__crt_stdio_output@@CADH_N@Z 10074a50 f i libucrtd:output.obj
 0001:00073a90       ?adjust_hexit@?$output_processor@_WV?$string_output_adapter@_W@__crt_stdio_output@@V?$format_validation_base@_WV?$string_output_adapter@_W@__crt_stdio_output@@@2@@__crt_stdio_output@@CADH_N@Z 10074a90 f i libucrtd:output.obj
 0001:00073ad0       ?adjust_hexit@?$output_processor@_WV?$string_output_adapter@_W@__crt_stdio_output@@V?$positional_parameter_base@_WV?$string_output_adapter@_W@__crt_stdio_output@@@2@@__crt_stdio_output@@CADH_N@Z 10074ad0 f i libucrtd:output.obj
 0001:00073b10       ?adjust_hexit@?$output_processor@_WV?$string_output_adapter@_W@__crt_stdio_output@@V?$standard_base@_WV?$string_output_adapter@_W@__crt_stdio_output@@@2@@__crt_stdio_output@@CADH_N@Z 10074b10 f i libucrtd:output.obj
 0001:00073b50       ?advance_to_next_pass@?$positional_parameter_base@DV?$stream_output_adapter@D@__crt_stdio_output@@@__crt_stdio_output@@IAE_NXZ 10074b50 f i libucrtd:output.obj
 0001:00073bf0       ?advance_to_next_pass@?$positional_parameter_base@DV?$string_output_adapter@D@__crt_stdio_output@@@__crt_stdio_output@@IAE_NXZ 10074bf0 f i libucrtd:output.obj
 0001:00073c90       ?advance_to_next_pass@?$positional_parameter_base@_WV?$stream_output_adapter@_W@__crt_stdio_output@@@__crt_stdio_output@@IAE_NXZ 10074c90 f i libucrtd:output.obj
 0001:00073d30       ?advance_to_next_pass@?$positional_parameter_base@_WV?$string_output_adapter@_W@__crt_stdio_output@@@__crt_stdio_output@@IAE_NXZ 10074d30 f i libucrtd:output.obj
 0001:00073dd0       ?advance_to_next_pass@?$standard_base@DV?$stream_output_adapter@D@__crt_stdio_output@@@__crt_stdio_output@@IAE_NXZ 10074dd0 f i libucrtd:output.obj
 0001:00073e20       ?advance_to_next_pass@?$standard_base@DV?$string_output_adapter@D@__crt_stdio_output@@@__crt_stdio_output@@IAE_NXZ 10074e20 f i libucrtd:output.obj
 0001:00073e70       ?advance_to_next_pass@?$standard_base@_WV?$stream_output_adapter@_W@__crt_stdio_output@@@__crt_stdio_output@@IAE_NXZ 10074e70 f i libucrtd:output.obj
 0001:00073ec0       ?advance_to_next_pass@?$standard_base@_WV?$string_output_adapter@_W@__crt_stdio_output@@@__crt_stdio_output@@IAE_NXZ 10074ec0 f i libucrtd:output.obj
 0001:00073f10       ?check@?$cached@H@__crt_cached_ptd_host@@QBE_NH@Z 10074f10 f i libucrtd:output.obj
 0001:00073f50       ?check_synchronize_global_state_index@__crt_cached_ptd_host@@AAEIABV__crt_scoped_get_last_error_reset@@@Z 10074f50 f i libucrtd:output.obj
 0001:00073f80       ?check_synchronize_per_thread_data@__crt_cached_ptd_host@@AAEPAU__acrt_ptd@@XZ 10074f80 f i libucrtd:output.obj
 0001:00073fb0       ?create_guard@?$cached@H@__crt_cached_ptd_host@@QAE?AVguard@12@XZ 10074fb0 f i libucrtd:output.obj
 0001:00073fd0       ?crop_zeroes@__crt_stdio_output@@YAXPADQAU__crt_locale_pointers@@@Z 10074fd0 f i libucrtd:output.obj
 0001:000740d0       ?disable@guard@?$cached@H@__crt_cached_ptd_host@@QAEXXZ 100750d0 f i libucrtd:output.obj
 0001:000740f0       ?enable@guard@?$cached@H@__crt_cached_ptd_host@@QAEXXZ 100750f0 f i libucrtd:output.obj
 0001:00074110       ?find_next_state@?$output_processor@DV?$stream_output_adapter@D@__crt_stdio_output@@V?$format_validation_base@DV?$stream_output_adapter@D@__crt_stdio_output@@@2@@__crt_stdio_output@@ABE?AW4state@2@DW432@@Z 10075110 f i libucrtd:output.obj
 0001:000741b0       ?find_next_state@?$output_processor@DV?$stream_output_adapter@D@__crt_stdio_output@@V?$positional_parameter_base@DV?$stream_output_adapter@D@__crt_stdio_output@@@2@@__crt_stdio_output@@ABE?AW4state@2@DW432@@Z 100751b0 f i libucrtd:output.obj
 0001:00074250       ?find_next_state@?$output_processor@DV?$stream_output_adapter@D@__crt_stdio_output@@V?$standard_base@DV?$stream_output_adapter@D@__crt_stdio_output@@@2@@__crt_stdio_output@@ABE?AW4state@2@DW432@@Z 10075250 f i libucrtd:output.obj
 0001:000742f0       ?find_next_state@?$output_processor@DV?$string_output_adapter@D@__crt_stdio_output@@V?$format_validation_base@DV?$string_output_adapter@D@__crt_stdio_output@@@2@@__crt_stdio_output@@ABE?AW4state@2@DW432@@Z 100752f0 f i libucrtd:output.obj
 0001:00074390       ?find_next_state@?$output_processor@DV?$string_output_adapter@D@__crt_stdio_output@@V?$positional_parameter_base@DV?$string_output_adapter@D@__crt_stdio_output@@@2@@__crt_stdio_output@@ABE?AW4state@2@DW432@@Z 10075390 f i libucrtd:output.obj
 0001:00074430       ?find_next_state@?$output_processor@DV?$string_output_adapter@D@__crt_stdio_output@@V?$standard_base@DV?$string_output_adapter@D@__crt_stdio_output@@@2@@__crt_stdio_output@@ABE?AW4state@2@DW432@@Z 10075430 f i libucrtd:output.obj
 0001:000744d0       ?find_next_state@?$output_processor@_WV?$stream_output_adapter@_W@__crt_stdio_output@@V?$format_validation_base@_WV?$stream_output_adapter@_W@__crt_stdio_output@@@2@@__crt_stdio_output@@ABE?AW4state@2@_WW432@@Z 100754d0 f i libucrtd:output.obj
 0001:00074570       ?find_next_state@?$output_processor@_WV?$stream_output_adapter@_W@__crt_stdio_output@@V?$positional_parameter_base@_WV?$stream_output_adapter@_W@__crt_stdio_output@@@2@@__crt_stdio_output@@ABE?AW4state@2@_WW432@@Z 10075570 f i libucrtd:output.obj
 0001:00074610       ?find_next_state@?$output_processor@_WV?$stream_output_adapter@_W@__crt_stdio_output@@V?$standard_base@_WV?$stream_output_adapter@_W@__crt_stdio_output@@@2@@__crt_stdio_output@@ABE?AW4state@2@_WW432@@Z 10075610 f i libucrtd:output.obj
 0001:000746b0       ?find_next_state@?$output_processor@_WV?$string_output_adapter@_W@__crt_stdio_output@@V?$format_validation_base@_WV?$string_output_adapter@_W@__crt_stdio_output@@@2@@__crt_stdio_output@@ABE?AW4state@2@_WW432@@Z 100756b0 f i libucrtd:output.obj
 0001:00074750       ?find_next_state@?$output_processor@_WV?$string_output_adapter@_W@__crt_stdio_output@@V?$positional_parameter_base@_WV?$string_output_adapter@_W@__crt_stdio_output@@@2@@__crt_stdio_output@@ABE?AW4state@2@_WW432@@Z 10075750 f i libucrtd:output.obj
 0001:000747f0       ?find_next_state@?$output_processor@_WV?$string_output_adapter@_W@__crt_stdio_output@@V?$standard_base@_WV?$string_output_adapter@_W@__crt_stdio_output@@@2@@__crt_stdio_output@@ABE?AW4state@2@_WW432@@Z 100757f0 f i libucrtd:output.obj
 0001:00074890       ?force_decimal_point@__crt_stdio_output@@YAXPADQAU__crt_locale_pointers@@@Z 10075890 f i libucrtd:output.obj
 0001:00074960       ?force_synchronize_global_state_index@__crt_cached_ptd_host@@AAEIABV__crt_scoped_get_last_error_reset@@@Z 10075960 f i libucrtd:output.obj
 0001:00074990       ?force_synchronize_per_thread_data@__crt_cached_ptd_host@@AAEPAU__acrt_ptd@@XZ 10075990 f i libucrtd:output.obj
 0001:000749e0       ?get@?$c_string_character_source@D@__crt_strtox@@QAEDXZ 100759e0 f i libucrtd:output.obj
 0001:00074a10       ?get@?$c_string_character_source@_W@__crt_strtox@@QAE_WXZ 10075a10 f i libucrtd:output.obj
 0001:00074a40       ?get_current_state_index@__crt_state_management@@YAIABV__crt_scoped_get_last_error_reset@@@Z 10075a40 f i libucrtd:output.obj
 0001:00074a50       ?get_errno@__crt_cached_ptd_host@@QAE@XZ 10075a50 f i libucrtd:output.obj
 0001:00074a70       ?get_locale@__crt_cached_ptd_host@@QAEPAU__crt_locale_pointers@@XZ 10075a70 f i libucrtd:output.obj
 0001:00074a90       ?get_parameter_type@?$positional_parameter_base@DV?$stream_output_adapter@D@__crt_stdio_output@@@__crt_stdio_output@@CA?AW4parameter_type@12@F@Z 10075a90 f i libucrtd:output.obj
 0001:00074aa0       ?get_parameter_type@?$positional_parameter_base@DV?$stream_output_adapter@D@__crt_stdio_output@@@__crt_stdio_output@@CA?AW4parameter_type@12@G@Z 10075aa0 f i libucrtd:output.obj
 0001:00074ab0       ?get_parameter_type@?$positional_parameter_base@DV?$stream_output_adapter@D@__crt_stdio_output@@@__crt_stdio_output@@CA?AW4parameter_type@12@H@Z 10075ab0 f i libucrtd:output.obj
 0001:00074ac0       ?get_parameter_type@?$positional_parameter_base@DV?$stream_output_adapter@D@__crt_stdio_output@@@__crt_stdio_output@@CA?AW4parameter_type@12@I@Z 10075ac0 f i libucrtd:output.obj
 0001:00074ad0       ?get_parameter_type@?$positional_parameter_base@DV?$stream_output_adapter@D@__crt_stdio_output@@@__crt_stdio_output@@CA?AW4parameter_type@12@U_CRT_DOUBLE@@@Z 10075ad0 f i libucrtd:output.obj
 0001:00074ae0       ?get_parameter_type@?$positional_parameter_base@DV?$stream_output_adapter@D@__crt_stdio_output@@@__crt_stdio_output@@CA?AW4parameter_type@12@_J@Z 10075ae0 f i libucrtd:output.obj
 0001:00074af0       ?get_parameter_type@?$positional_parameter_base@DV?$stream_output_adapter@D@__crt_stdio_output@@@__crt_stdio_output@@CA?AW4parameter_type@12@_K@Z 10075af0 f i libucrtd:output.obj
 0001:00074b00       ?get_parameter_type@?$positional_parameter_base@DV?$stream_output_adapter@D@__crt_stdio_output@@@__crt_stdio_output@@CA?AW4parameter_type@12@_W@Z 10075b00 f i libucrtd:output.obj
 0001:00074b10       ?get_parameter_type@?$positional_parameter_base@DV?$string_output_adapter@D@__crt_stdio_output@@@__crt_stdio_output@@CA?AW4parameter_type@12@F@Z 10075b10 f i libucrtd:output.obj
 0001:00074b20       ?get_parameter_type@?$positional_parameter_base@DV?$string_output_adapter@D@__crt_stdio_output@@@__crt_stdio_output@@CA?AW4parameter_type@12@G@Z 10075b20 f i libucrtd:output.obj
 0001:00074b30       ?get_parameter_type@?$positional_parameter_base@DV?$string_output_adapter@D@__crt_stdio_output@@@__crt_stdio_output@@CA?AW4parameter_type@12@H@Z 10075b30 f i libucrtd:output.obj
 0001:00074b40       ?get_parameter_type@?$positional_parameter_base@DV?$string_output_adapter@D@__crt_stdio_output@@@__crt_stdio_output@@CA?AW4parameter_type@12@I@Z 10075b40 f i libucrtd:output.obj
 0001:00074b50       ?get_parameter_type@?$positional_parameter_base@DV?$string_output_adapter@D@__crt_stdio_output@@@__crt_stdio_output@@CA?AW4parameter_type@12@U_CRT_DOUBLE@@@Z 10075b50 f i libucrtd:output.obj
 0001:00074b60       ?get_parameter_type@?$positional_parameter_base@DV?$string_output_adapter@D@__crt_stdio_output@@@__crt_stdio_output@@CA?AW4parameter_type@12@_J@Z 10075b60 f i libucrtd:output.obj
 0001:00074b70       ?get_parameter_type@?$positional_parameter_base@DV?$string_output_adapter@D@__crt_stdio_output@@@__crt_stdio_output@@CA?AW4parameter_type@12@_K@Z 10075b70 f i libucrtd:output.obj
 0001:00074b80       ?get_parameter_type@?$positional_parameter_base@DV?$string_output_adapter@D@__crt_stdio_output@@@__crt_stdio_output@@CA?AW4parameter_type@12@_W@Z 10075b80 f i libucrtd:output.obj
 0001:00074b90       ?get_parameter_type@?$positional_parameter_base@_WV?$stream_output_adapter@_W@__crt_stdio_output@@@__crt_stdio_output@@CA?AW4parameter_type@12@F@Z 10075b90 f i libucrtd:output.obj
 0001:00074ba0       ?get_parameter_type@?$positional_parameter_base@_WV?$stream_output_adapter@_W@__crt_stdio_output@@@__crt_stdio_output@@CA?AW4parameter_type@12@G@Z 10075ba0 f i libucrtd:output.obj
 0001:00074bb0       ?get_parameter_type@?$positional_parameter_base@_WV?$stream_output_adapter@_W@__crt_stdio_output@@@__crt_stdio_output@@CA?AW4parameter_type@12@H@Z 10075bb0 f i libucrtd:output.obj
 0001:00074bc0       ?get_parameter_type@?$positional_parameter_base@_WV?$stream_output_adapter@_W@__crt_stdio_output@@@__crt_stdio_output@@CA?AW4parameter_type@12@I@Z 10075bc0 f i libucrtd:output.obj
 0001:00074bd0       ?get_parameter_type@?$positional_parameter_base@_WV?$stream_output_adapter@_W@__crt_stdio_output@@@__crt_stdio_output@@CA?AW4parameter_type@12@U_CRT_DOUBLE@@@Z 10075bd0 f i libucrtd:output.obj
 0001:00074be0       ?get_parameter_type@?$positional_parameter_base@_WV?$stream_output_adapter@_W@__crt_stdio_output@@@__crt_stdio_output@@CA?AW4parameter_type@12@_J@Z 10075be0 f i libucrtd:output.obj
 0001:00074bf0       ?get_parameter_type@?$positional_parameter_base@_WV?$stream_output_adapter@_W@__crt_stdio_output@@@__crt_stdio_output@@CA?AW4parameter_type@12@_K@Z 10075bf0 f i libucrtd:output.obj
 0001:00074c00       ?get_parameter_type@?$positional_parameter_base@_WV?$stream_output_adapter@_W@__crt_stdio_output@@@__crt_stdio_output@@CA?AW4parameter_type@12@_W@Z 10075c00 f i libucrtd:output.obj
 0001:00074c10       ?get_parameter_type@?$positional_parameter_base@_WV?$string_output_adapter@_W@__crt_stdio_output@@@__crt_stdio_output@@CA?AW4parameter_type@12@F@Z 10075c10 f i libucrtd:output.obj
 0001:00074c20       ?get_parameter_type@?$positional_parameter_base@_WV?$string_output_adapter@_W@__crt_stdio_output@@@__crt_stdio_output@@CA?AW4parameter_type@12@G@Z 10075c20 f i libucrtd:output.obj
 0001:00074c30       ?get_parameter_type@?$positional_parameter_base@_WV?$string_output_adapter@_W@__crt_stdio_output@@@__crt_stdio_output@@CA?AW4parameter_type@12@H@Z 10075c30 f i libucrtd:output.obj
 0001:00074c40       ?get_parameter_type@?$positional_parameter_base@_WV?$string_output_adapter@_W@__crt_stdio_output@@@__crt_stdio_output@@CA?AW4parameter_type@12@I@Z 10075c40 f i libucrtd:output.obj
 0001:00074c50       ?get_parameter_type@?$positional_parameter_base@_WV?$string_output_adapter@_W@__crt_stdio_output@@@__crt_stdio_output@@CA?AW4parameter_type@12@U_CRT_DOUBLE@@@Z 10075c50 f i libucrtd:output.obj
 0001:00074c60       ?get_parameter_type@?$positional_parameter_base@_WV?$string_output_adapter@_W@__crt_stdio_output@@@__crt_stdio_output@@CA?AW4parameter_type@12@_J@Z 10075c60 f i libucrtd:output.obj
 0001:00074c70       ?get_parameter_type@?$positional_parameter_base@_WV?$string_output_adapter@_W@__crt_stdio_output@@@__crt_stdio_output@@CA?AW4parameter_type@12@_K@Z 10075c70 f i libucrtd:output.obj
 0001:00074c80       ?get_parameter_type@?$positional_parameter_base@_WV?$string_output_adapter@_W@__crt_stdio_output@@@__crt_stdio_output@@CA?AW4parameter_type@12@_W@Z 10075c80 f i libucrtd:output.obj
 0001:00074c90       ?get_raw_ptd@__crt_cached_ptd_host@@QAEPAU__acrt_ptd@@XZ 10075c90 f i libucrtd:output.obj
 0001:00074cb0       ?has_flag@?$output_processor@DV?$stream_output_adapter@D@__crt_stdio_output@@V?$format_validation_base@DV?$stream_output_adapter@D@__crt_stdio_output@@@2@@__crt_stdio_output@@ABE_NI@Z 10075cb0 f i libucrtd:output.obj
 0001:00074ce0       ?has_flag@?$output_processor@DV?$stream_output_adapter@D@__crt_stdio_output@@V?$positional_parameter_base@DV?$stream_output_adapter@D@__crt_stdio_output@@@2@@__crt_stdio_output@@ABE_NI@Z 10075ce0 f i libucrtd:output.obj
 0001:00074d10       ?has_flag@?$output_processor@DV?$stream_output_adapter@D@__crt_stdio_output@@V?$standard_base@DV?$stream_output_adapter@D@__crt_stdio_output@@@2@@__crt_stdio_output@@ABE_NI@Z 10075d10 f i libucrtd:output.obj
 0001:00074d40       ?has_flag@?$output_processor@DV?$string_output_adapter@D@__crt_stdio_output@@V?$format_validation_base@DV?$string_output_adapter@D@__crt_stdio_output@@@2@@__crt_stdio_output@@ABE_NI@Z 10075d40 f i libucrtd:output.obj
 0001:00074d70       ?has_flag@?$output_processor@DV?$string_output_adapter@D@__crt_stdio_output@@V?$positional_parameter_base@DV?$string_output_adapter@D@__crt_stdio_output@@@2@@__crt_stdio_output@@ABE_NI@Z 10075d70 f i libucrtd:output.obj
 0001:00074da0       ?has_flag@?$output_processor@DV?$string_output_adapter@D@__crt_stdio_output@@V?$standard_base@DV?$string_output_adapter@D@__crt_stdio_output@@@2@@__crt_stdio_output@@ABE_NI@Z 10075da0 f i libucrtd:output.obj
 0001:00074dd0       ?has_flag@?$output_processor@_WV?$stream_output_adapter@_W@__crt_stdio_output@@V?$format_validation_base@_WV?$stream_output_adapter@_W@__crt_stdio_output@@@2@@__crt_stdio_output@@ABE_NI@Z 10075dd0 f i libucrtd:output.obj
 0001:00074e00       ?has_flag@?$output_processor@_WV?$stream_output_adapter@_W@__crt_stdio_output@@V?$positional_parameter_base@_WV?$stream_output_adapter@_W@__crt_stdio_output@@@2@@__crt_stdio_output@@ABE_NI@Z 10075e00 f i libucrtd:output.obj
 0001:00074e30       ?has_flag@?$output_processor@_WV?$stream_output_adapter@_W@__crt_stdio_output@@V?$standard_base@_WV?$stream_output_adapter@_W@__crt_stdio_output@@@2@@__crt_stdio_output@@ABE_NI@Z 10075e30 f i libucrtd:output.obj
 0001:00074e60       ?has_flag@?$output_processor@_WV?$string_output_adapter@_W@__crt_stdio_output@@V?$format_validation_base@_WV?$string_output_adapter@_W@__crt_stdio_output@@@2@@__crt_stdio_output@@ABE_NI@Z 10075e60 f i libucrtd:output.obj
 0001:00074e90       ?has_flag@?$output_processor@_WV?$string_output_adapter@_W@__crt_stdio_output@@V?$positional_parameter_base@_WV?$string_output_adapter@_W@__crt_stdio_output@@@2@@__crt_stdio_output@@ABE_NI@Z 10075e90 f i libucrtd:output.obj
 0001:00074ec0       ?has_flag@?$output_processor@_WV?$string_output_adapter@_W@__crt_stdio_output@@V?$standard_base@_WV?$string_output_adapter@_W@__crt_stdio_output@@@2@@__crt_stdio_output@@ABE_NI@Z 10075ec0 f i libucrtd:output.obj
 0001:00074ef0       ?is_positional_parameter_reappearance_consistent@?$positional_parameter_base@DV?$stream_output_adapter@D@__crt_stdio_output@@@__crt_stdio_output@@AAE_NABUparameter_data@12@W4parameter_type@12@DW4length_modifier@2@@Z 10075ef0 f i libucrtd:output.obj
 0001:00075120       ?is_positional_parameter_reappearance_consistent@?$positional_parameter_base@DV?$string_output_adapter@D@__crt_stdio_output@@@__crt_stdio_output@@AAE_NABUparameter_data@12@W4parameter_type@12@DW4length_modifier@2@@Z 10076120 f i libucrtd:output.obj
 0001:00075350       ?is_positional_parameter_reappearance_consistent@?$positional_parameter_base@_WV?$stream_output_adapter@_W@__crt_stdio_output@@@__crt_stdio_output@@AAE_NABUparameter_data@12@W4parameter_type@12@_WW4length_modifier@2@@Z 10076350 f i libucrtd:output.obj
 0001:00075580       ?is_positional_parameter_reappearance_consistent@?$positional_parameter_base@_WV?$string_output_adapter@_W@__crt_stdio_output@@@__crt_stdio_output@@AAE_NABUparameter_data@12@W4parameter_type@12@_WW4length_modifier@2@@Z 10076580 f i libucrtd:output.obj
 0001:000757b0       ?is_string_backed@__crt_stdio_stream@@QBE_NXZ 100767b0 f i libucrtd:output.obj
 0001:000757f0       ?maximum_signed_value@__crt_strtox@@YAJK@Z 100767f0 f i libucrtd:output.obj
 0001:00075800       ?minimum_signed_value@__crt_strtox@@YAJK@Z 10076800 f i libucrtd:output.obj
 0001:00075810       ?narrow_null_string@?$output_processor@DV?$stream_output_adapter@D@__crt_stdio_output@@V?$format_validation_base@DV?$stream_output_adapter@D@__crt_stdio_output@@@2@@__crt_stdio_output@@CAPADXZ 10076810 f i libucrtd:output.obj
 0001:00075820       ?narrow_null_string@?$output_processor@DV?$stream_output_adapter@D@__crt_stdio_output@@V?$positional_parameter_base@DV?$stream_output_adapter@D@__crt_stdio_output@@@2@@__crt_stdio_output@@CAPADXZ 10076820 f i libucrtd:output.obj
 0001:00075830       ?narrow_null_string@?$output_processor@DV?$stream_output_adapter@D@__crt_stdio_output@@V?$standard_base@DV?$stream_output_adapter@D@__crt_stdio_output@@@2@@__crt_stdio_output@@CAPADXZ 10076830 f i libucrtd:output.obj
 0001:00075840       ?narrow_null_string@?$output_processor@DV?$string_output_adapter@D@__crt_stdio_output@@V?$format_validation_base@DV?$string_output_adapter@D@__crt_stdio_output@@@2@@__crt_stdio_output@@CAPADXZ 10076840 f i libucrtd:output.obj
 0001:00075850       ?narrow_null_string@?$output_processor@DV?$string_output_adapter@D@__crt_stdio_output@@V?$positional_parameter_base@DV?$string_output_adapter@D@__crt_stdio_output@@@2@@__crt_stdio_output@@CAPADXZ 10076850 f i libucrtd:output.obj
 0001:00075860       ?narrow_null_string@?$output_processor@DV?$string_output_adapter@D@__crt_stdio_output@@V?$standard_base@DV?$string_output_adapter@D@__crt_stdio_output@@@2@@__crt_stdio_output@@CAPADXZ 10076860 f i libucrtd:output.obj
 0001:00075870       ?narrow_null_string@?$output_processor@_WV?$stream_output_adapter@_W@__crt_stdio_output@@V?$format_validation_base@_WV?$stream_output_adapter@_W@__crt_stdio_output@@@2@@__crt_stdio_output@@CAPADXZ 10076870 f i libucrtd:output.obj
 0001:00075880       ?narrow_null_string@?$output_processor@_WV?$stream_output_adapter@_W@__crt_stdio_output@@V?$positional_parameter_base@_WV?$stream_output_adapter@_W@__crt_stdio_output@@@2@@__crt_stdio_output@@CAPADXZ 10076880 f i libucrtd:output.obj
 0001:00075890       ?narrow_null_string@?$output_processor@_WV?$stream_output_adapter@_W@__crt_stdio_output@@V?$standard_base@_WV?$stream_output_adapter@_W@__crt_stdio_output@@@2@@__crt_stdio_output@@CAPADXZ 10076890 f i libucrtd:output.obj
 0001:000758a0       ?narrow_null_string@?$output_processor@_WV?$string_output_adapter@_W@__crt_stdio_output@@V?$format_validation_base@_WV?$string_output_adapter@_W@__crt_stdio_output@@@2@@__crt_stdio_output@@CAPADXZ 100768a0 f i libucrtd:output.obj
 0001:000758b0       ?narrow_null_string@?$output_processor@_WV?$string_output_adapter@_W@__crt_stdio_output@@V?$positional_parameter_base@_WV?$string_output_adapter@_W@__crt_stdio_output@@@2@@__crt_stdio_output@@CAPADXZ 100768b0 f i libucrtd:output.obj
 0001:000758c0       ?narrow_null_string@?$output_processor@_WV?$string_output_adapter@_W@__crt_stdio_output@@V?$standard_base@_WV?$string_output_adapter@_W@__crt_stdio_output@@@2@@__crt_stdio_output@@CAPADXZ 100768c0 f i libucrtd:output.obj
 0001:000758d0       ?parse_digit@__crt_strtox@@YAID@Z 100768d0 f i libucrtd:output.obj
 0001:00075930       ?parse_digit@__crt_strtox@@YAI_W@Z 10076930 f i libucrtd:output.obj
 0001:00075980       ?parse_int_from_format_string@?$output_processor@DV?$stream_output_adapter@D@__crt_stdio_output@@V?$format_validation_base@DV?$stream_output_adapter@D@__crt_stdio_output@@@2@@__crt_stdio_output@@AAE_NQAH@Z 10076980 f i libucrtd:output.obj
 0001:00075a40       ?parse_int_from_format_string@?$output_processor@DV?$stream_output_adapter@D@__crt_stdio_output@@V?$positional_parameter_base@DV?$stream_output_adapter@D@__crt_stdio_output@@@2@@__crt_stdio_output@@AAE_NQAH@Z 10076a40 f i libucrtd:output.obj
 0001:00075b00       ?parse_int_from_format_string@?$output_processor@DV?$stream_output_adapter@D@__crt_stdio_output@@V?$standard_base@DV?$stream_output_adapter@D@__crt_stdio_output@@@2@@__crt_stdio_output@@AAE_NQAH@Z 10076b00 f i libucrtd:output.obj
 0001:00075bc0       ?parse_int_from_format_string@?$output_processor@DV?$string_output_adapter@D@__crt_stdio_output@@V?$format_validation_base@DV?$string_output_adapter@D@__crt_stdio_output@@@2@@__crt_stdio_output@@AAE_NQAH@Z 10076bc0 f i libucrtd:output.obj
 0001:00075c80       ?parse_int_from_format_string@?$output_processor@DV?$string_output_adapter@D@__crt_stdio_output@@V?$positional_parameter_base@DV?$string_output_adapter@D@__crt_stdio_output@@@2@@__crt_stdio_output@@AAE_NQAH@Z 10076c80 f i libucrtd:output.obj
 0001:00075d40       ?parse_int_from_format_string@?$output_processor@DV?$string_output_adapter@D@__crt_stdio_output@@V?$standard_base@DV?$string_output_adapter@D@__crt_stdio_output@@@2@@__crt_stdio_output@@AAE_NQAH@Z 10076d40 f i libucrtd:output.obj
 0001:00075e00       ?parse_int_from_format_string@?$output_processor@_WV?$stream_output_adapter@_W@__crt_stdio_output@@V?$format_validation_base@_WV?$stream_output_adapter@_W@__crt_stdio_output@@@2@@__crt_stdio_output@@AAE_NQAH@Z 10076e00 f i libucrtd:output.obj
 0001:00075ec0       ?parse_int_from_format_string@?$output_processor@_WV?$stream_output_adapter@_W@__crt_stdio_output@@V?$positional_parameter_base@_WV?$stream_output_adapter@_W@__crt_stdio_output@@@2@@__crt_stdio_output@@AAE_NQAH@Z 10076ec0 f i libucrtd:output.obj
 0001:00075f80       ?parse_int_from_format_string@?$output_processor@_WV?$stream_output_adapter@_W@__crt_stdio_output@@V?$standard_base@_WV?$stream_output_adapter@_W@__crt_stdio_output@@@2@@__crt_stdio_output@@AAE_NQAH@Z 10076f80 f i libucrtd:output.obj
 0001:00076040       ?parse_int_from_format_string@?$output_processor@_WV?$string_output_adapter@_W@__crt_stdio_output@@V?$format_validation_base@_WV?$string_output_adapter@_W@__crt_stdio_output@@@2@@__crt_stdio_output@@AAE_NQAH@Z 10077040 f i libucrtd:output.obj
 0001:00076100       ?parse_int_from_format_string@?$output_processor@_WV?$string_output_adapter@_W@__crt_stdio_output@@V?$positional_parameter_base@_WV?$string_output_adapter@_W@__crt_stdio_output@@@2@@__crt_stdio_output@@AAE_NQAH@Z 10077100 f i libucrtd:output.obj
 0001:000761c0       ?parse_int_from_format_string@?$output_processor@_WV?$string_output_adapter@_W@__crt_stdio_output@@V?$standard_base@_WV?$string_output_adapter@_W@__crt_stdio_output@@@2@@__crt_stdio_output@@AAE_NQAH@Z 100771c0 f i libucrtd:output.obj
 0001:00076280       ?process@?$output_processor@DV?$stream_output_adapter@D@__crt_stdio_output@@V?$format_validation_base@DV?$stream_output_adapter@D@__crt_stdio_output@@@2@@__crt_stdio_output@@QAEHXZ 10077280 f i libucrtd:output.obj
 0001:00076560       ?process@?$output_processor@DV?$stream_output_adapter@D@__crt_stdio_output@@V?$positional_parameter_base@DV?$stream_output_adapter@D@__crt_stdio_output@@@2@@__crt_stdio_output@@QAEHXZ 10077560 f i libucrtd:output.obj
 0001:00076840       ?process@?$output_processor@DV?$stream_output_adapter@D@__crt_stdio_output@@V?$standard_base@DV?$stream_output_adapter@D@__crt_stdio_output@@@2@@__crt_stdio_output@@QAEHXZ 10077840 f i libucrtd:output.obj
 0001:00076b20       ?process@?$output_processor@DV?$string_output_adapter@D@__crt_stdio_output@@V?$format_validation_base@DV?$string_output_adapter@D@__crt_stdio_output@@@2@@__crt_stdio_output@@QAEHXZ 10077b20 f i libucrtd:output.obj
 0001:00076e00       ?process@?$output_processor@DV?$string_output_adapter@D@__crt_stdio_output@@V?$positional_parameter_base@DV?$string_output_adapter@D@__crt_stdio_output@@@2@@__crt_stdio_output@@QAEHXZ 10077e00 f i libucrtd:output.obj
 0001:000770e0       ?process@?$output_processor@DV?$string_output_adapter@D@__crt_stdio_output@@V?$standard_base@DV?$string_output_adapter@D@__crt_stdio_output@@@2@@__crt_stdio_output@@QAEHXZ 100780e0 f i libucrtd:output.obj
 0001:000773c0       ?process@?$output_processor@_WV?$stream_output_adapter@_W@__crt_stdio_output@@V?$format_validation_base@_WV?$stream_output_adapter@_W@__crt_stdio_output@@@2@@__crt_stdio_output@@QAEHXZ 100783c0 f i libucrtd:output.obj
 0001:000776a0       ?process@?$output_processor@_WV?$stream_output_adapter@_W@__crt_stdio_output@@V?$positional_parameter_base@_WV?$stream_output_adapter@_W@__crt_stdio_output@@@2@@__crt_stdio_output@@QAEHXZ 100786a0 f i libucrtd:output.obj
 0001:00077980       ?process@?$output_processor@_WV?$stream_output_adapter@_W@__crt_stdio_output@@V?$standard_base@_WV?$stream_output_adapter@_W@__crt_stdio_output@@@2@@__crt_stdio_output@@QAEHXZ 10078980 f i libucrtd:output.obj
 0001:00077c60       ?process@?$output_processor@_WV?$string_output_adapter@_W@__crt_stdio_output@@V?$format_validation_base@_WV?$string_output_adapter@_W@__crt_stdio_output@@@2@@__crt_stdio_output@@QAEHXZ 10078c60 f i libucrtd:output.obj
 0001:00077f40       ?process@?$output_processor@_WV?$string_output_adapter@_W@__crt_stdio_output@@V?$positional_parameter_base@_WV?$string_output_adapter@_W@__crt_stdio_output@@@2@@__crt_stdio_output@@QAEHXZ 10078f40 f i libucrtd:output.obj
 0001:00078220       ?process@?$output_processor@_WV?$string_output_adapter@_W@__crt_stdio_output@@V?$standard_base@_WV?$string_output_adapter@_W@__crt_stdio_output@@@2@@__crt_stdio_output@@QAEHXZ 10079220 f i libucrtd:output.obj
 0001:00078500       ?public_stream@__crt_stdio_stream@@QBEPAU_iobuf@@XZ 10079500 f i libucrtd:output.obj
 0001:00078520       ?restore_state@?$c_string_character_source@D@__crt_strtox@@QAE_NQBD@Z 10079520 f i libucrtd:output.obj
 0001:00078540       ?restore_state@?$c_string_character_source@_W@__crt_strtox@@QAE_NQB_W@Z 10079540 f i libucrtd:output.obj
 0001:00078560       ?save_state@?$c_string_character_source@D@__crt_strtox@@QBEPBDXZ 10079560 f i libucrtd:output.obj
 0001:00078580       ?save_state@?$c_string_character_source@_W@__crt_strtox@@QBEPB_WXZ 10079580 f i libucrtd:output.obj
 0001:000785a0       ?set@?$cached@H@__crt_cached_ptd_host@@QAEHH@Z 100795a0 f i libucrtd:output.obj
 0001:000785d0       ?set_flag@?$output_processor@DV?$stream_output_adapter@D@__crt_stdio_output@@V?$format_validation_base@DV?$stream_output_adapter@D@__crt_stdio_output@@@2@@__crt_stdio_output@@AAEXI@Z 100795d0 f i libucrtd:output.obj
 0001:000785f0       ?set_flag@?$output_processor@DV?$stream_output_adapter@D@__crt_stdio_output@@V?$positional_parameter_base@DV?$stream_output_adapter@D@__crt_stdio_output@@@2@@__crt_stdio_output@@AAEXI@Z 100795f0 f i libucrtd:output.obj
 0001:00078610       ?set_flag@?$output_processor@DV?$stream_output_adapter@D@__crt_stdio_output@@V?$standard_base@DV?$stream_output_adapter@D@__crt_stdio_output@@@2@@__crt_stdio_output@@AAEXI@Z 10079610 f i libucrtd:output.obj
 0001:00078630       ?set_flag@?$output_processor@DV?$string_output_adapter@D@__crt_stdio_output@@V?$format_validation_base@DV?$string_output_adapter@D@__crt_stdio_output@@@2@@__crt_stdio_output@@AAEXI@Z 10079630 f i libucrtd:output.obj
 0001:00078650       ?set_flag@?$output_processor@DV?$string_output_adapter@D@__crt_stdio_output@@V?$positional_parameter_base@DV?$string_output_adapter@D@__crt_stdio_output@@@2@@__crt_stdio_output@@AAEXI@Z 10079650 f i libucrtd:output.obj
 0001:00078670       ?set_flag@?$output_processor@DV?$string_output_adapter@D@__crt_stdio_output@@V?$standard_base@DV?$string_output_adapter@D@__crt_stdio_output@@@2@@__crt_stdio_output@@AAEXI@Z 10079670 f i libucrtd:output.obj
 0001:00078690       ?set_flag@?$output_processor@_WV?$stream_output_adapter@_W@__crt_stdio_output@@V?$format_validation_base@_WV?$stream_output_adapter@_W@__crt_stdio_output@@@2@@__crt_stdio_output@@AAEXI@Z 10079690 f i libucrtd:output.obj
 0001:000786b0       ?set_flag@?$output_processor@_WV?$stream_output_adapter@_W@__crt_stdio_output@@V?$positional_parameter_base@_WV?$stream_output_adapter@_W@__crt_stdio_output@@@2@@__crt_stdio_output@@AAEXI@Z 100796b0 f i libucrtd:output.obj
 0001:000786d0       ?set_flag@?$output_processor@_WV?$stream_output_adapter@_W@__crt_stdio_output@@V?$standard_base@_WV?$stream_output_adapter@_W@__crt_stdio_output@@@2@@__crt_stdio_output@@AAEXI@Z 100796d0 f i libucrtd:output.obj
 0001:000786f0       ?set_flag@?$output_processor@_WV?$string_output_adapter@_W@__crt_stdio_output@@V?$format_validation_base@_WV?$string_output_adapter@_W@__crt_stdio_output@@@2@@__crt_stdio_output@@AAEXI@Z 100796f0 f i libucrtd:output.obj
 0001:00078710       ?set_flag@?$output_processor@_WV?$string_output_adapter@_W@__crt_stdio_output@@V?$positional_parameter_base@_WV?$string_output_adapter@_W@__crt_stdio_output@@@2@@__crt_stdio_output@@AAEXI@Z 10079710 f i libucrtd:output.obj
 0001:00078730       ?set_flag@?$output_processor@_WV?$string_output_adapter@_W@__crt_stdio_output@@V?$standard_base@_WV?$string_output_adapter@_W@__crt_stdio_output@@@2@@__crt_stdio_output@@AAEXI@Z 10079730 f i libucrtd:output.obj
 0001:00078750       ?should_format@?$positional_parameter_base@DV?$stream_output_adapter@D@__crt_stdio_output@@@__crt_stdio_output@@IAE_NXZ 10079750 f i libucrtd:output.obj
 0001:00078790       ?should_format@?$positional_parameter_base@DV?$string_output_adapter@D@__crt_stdio_output@@@__crt_stdio_output@@IAE_NXZ 10079790 f i libucrtd:output.obj
 0001:000787d0       ?should_format@?$positional_parameter_base@_WV?$stream_output_adapter@_W@__crt_stdio_output@@@__crt_stdio_output@@IAE_NXZ 100797d0 f i libucrtd:output.obj
 0001:00078810       ?should_format@?$positional_parameter_base@_WV?$string_output_adapter@_W@__crt_stdio_output@@@__crt_stdio_output@@IAE_NXZ 10079810 f i libucrtd:output.obj
 0001:00078850       ?should_format@?$standard_base@DV?$stream_output_adapter@D@__crt_stdio_output@@@__crt_stdio_output@@IAE_NXZ 10079850 f i libucrtd:output.obj
 0001:00078860       ?should_format@?$standard_base@DV?$string_output_adapter@D@__crt_stdio_output@@@__crt_stdio_output@@IAE_NXZ 10079860 f i libucrtd:output.obj
 0001:00078870       ?should_format@?$standard_base@_WV?$stream_output_adapter@_W@__crt_stdio_output@@@__crt_stdio_output@@IAE_NXZ 10079870 f i libucrtd:output.obj
 0001:00078880       ?should_format@?$standard_base@_WV?$string_output_adapter@_W@__crt_stdio_output@@@__crt_stdio_output@@IAE_NXZ 10079880 f i libucrtd:output.obj
 0001:00078890       ?should_skip_normal_state_processing@?$positional_parameter_base@DV?$stream_output_adapter@D@__crt_stdio_output@@@__crt_stdio_output@@IAE_NXZ 10079890 f i libucrtd:output.obj
 0001:000788e0       ?should_skip_normal_state_processing@?$positional_parameter_base@DV?$string_output_adapter@D@__crt_stdio_output@@@__crt_stdio_output@@IAE_NXZ 100798e0 f i libucrtd:output.obj
 0001:00078930       ?should_skip_normal_state_processing@?$positional_parameter_base@_WV?$stream_output_adapter@_W@__crt_stdio_output@@@__crt_stdio_output@@IAE_NXZ 10079930 f i libucrtd:output.obj
 0001:00078980       ?should_skip_normal_state_processing@?$positional_parameter_base@_WV?$string_output_adapter@_W@__crt_stdio_output@@@__crt_stdio_output@@IAE_NXZ 10079980 f i libucrtd:output.obj
 0001:000789d0       ?should_skip_normal_state_processing@?$standard_base@DV?$stream_output_adapter@D@__crt_stdio_output@@@__crt_stdio_output@@IAE_NXZ 100799d0 f i libucrtd:output.obj
 0001:000789e0       ?should_skip_normal_state_processing@?$standard_base@DV?$string_output_adapter@D@__crt_stdio_output@@@__crt_stdio_output@@IAE_NXZ 100799e0 f i libucrtd:output.obj
 0001:000789f0       ?should_skip_normal_state_processing@?$standard_base@_WV?$stream_output_adapter@_W@__crt_stdio_output@@@__crt_stdio_output@@IAE_NXZ 100799f0 f i libucrtd:output.obj
 0001:00078a00       ?should_skip_normal_state_processing@?$standard_base@_WV?$string_output_adapter@_W@__crt_stdio_output@@@__crt_stdio_output@@IAE_NXZ 10079a00 f i libucrtd:output.obj
 0001:00078a10       ?should_skip_type_state_output@?$positional_parameter_base@DV?$stream_output_adapter@D@__crt_stdio_output@@@__crt_stdio_output@@IBE_NXZ 10079a10 f i libucrtd:output.obj
 0001:00078a50       ?should_skip_type_state_output@?$positional_parameter_base@DV?$string_output_adapter@D@__crt_stdio_output@@@__crt_stdio_output@@IBE_NXZ 10079a50 f i libucrtd:output.obj
 0001:00078a90       ?should_skip_type_state_output@?$positional_parameter_base@_WV?$stream_output_adapter@_W@__crt_stdio_output@@@__crt_stdio_output@@IBE_NXZ 10079a90 f i libucrtd:output.obj
 0001:00078ad0       ?should_skip_type_state_output@?$positional_parameter_base@_WV?$string_output_adapter@_W@__crt_stdio_output@@@__crt_stdio_output@@IBE_NXZ 10079ad0 f i libucrtd:output.obj
 0001:00078b10       ?should_skip_type_state_output@?$standard_base@DV?$stream_output_adapter@D@__crt_stdio_output@@@__crt_stdio_output@@IBE_NXZ 10079b10 f i libucrtd:output.obj
 0001:00078b20       ?should_skip_type_state_output@?$standard_base@DV?$string_output_adapter@D@__crt_stdio_output@@@__crt_stdio_output@@IBE_NXZ 10079b20 f i libucrtd:output.obj
 0001:00078b30       ?should_skip_type_state_output@?$standard_base@_WV?$stream_output_adapter@_W@__crt_stdio_output@@@__crt_stdio_output@@IBE_NXZ 10079b30 f i libucrtd:output.obj
 0001:00078b40       ?should_skip_type_state_output@?$standard_base@_WV?$string_output_adapter@_W@__crt_stdio_output@@@__crt_stdio_output@@IBE_NXZ 10079b40 f i libucrtd:output.obj
 0001:00078b50       ?state_case_dot@?$output_processor@DV?$stream_output_adapter@D@__crt_stdio_output@@V?$format_validation_base@DV?$stream_output_adapter@D@__crt_stdio_output@@@2@@__crt_stdio_output@@AAE_NXZ 10079b50 f i libucrtd:output.obj
 0001:00078b70       ?state_case_dot@?$output_processor@DV?$stream_output_adapter@D@__crt_stdio_output@@V?$positional_parameter_base@DV?$stream_output_adapter@D@__crt_stdio_output@@@2@@__crt_stdio_output@@AAE_NXZ 10079b70 f i libucrtd:output.obj
 0001:00078b90       ?state_case_dot@?$output_processor@DV?$stream_output_adapter@D@__crt_stdio_output@@V?$standard_base@DV?$stream_output_adapter@D@__crt_stdio_output@@@2@@__crt_stdio_output@@AAE_NXZ 10079b90 f i libucrtd:output.obj
 0001:00078bb0       ?state_case_dot@?$output_processor@DV?$string_output_adapter@D@__crt_stdio_output@@V?$format_validation_base@DV?$string_output_adapter@D@__crt_stdio_output@@@2@@__crt_stdio_output@@AAE_NXZ 10079bb0 f i libucrtd:output.obj
 0001:00078bd0       ?state_case_dot@?$output_processor@DV?$string_output_adapter@D@__crt_stdio_output@@V?$positional_parameter_base@DV?$string_output_adapter@D@__crt_stdio_output@@@2@@__crt_stdio_output@@AAE_NXZ 10079bd0 f i libucrtd:output.obj
 0001:00078bf0       ?state_case_dot@?$output_processor@DV?$string_output_adapter@D@__crt_stdio_output@@V?$standard_base@DV?$string_output_adapter@D@__crt_stdio_output@@@2@@__crt_stdio_output@@AAE_NXZ 10079bf0 f i libucrtd:output.obj
 0001:00078c10       ?state_case_dot@?$output_processor@_WV?$stream_output_adapter@_W@__crt_stdio_output@@V?$format_validation_base@_WV?$stream_output_adapter@_W@__crt_stdio_output@@@2@@__crt_stdio_output@@AAE_NXZ 10079c10 f i libucrtd:output.obj
 0001:00078c30       ?state_case_dot@?$output_processor@_WV?$stream_output_adapter@_W@__crt_stdio_output@@V?$positional_parameter_base@_WV?$stream_output_adapter@_W@__crt_stdio_output@@@2@@__crt_stdio_output@@AAE_NXZ 10079c30 f i libucrtd:output.obj
 0001:00078c50       ?state_case_dot@?$output_processor@_WV?$stream_output_adapter@_W@__crt_stdio_output@@V?$standard_base@_WV?$stream_output_adapter@_W@__crt_stdio_output@@@2@@__crt_stdio_output@@AAE_NXZ 10079c50 f i libucrtd:output.obj
 0001:00078c70       ?state_case_dot@?$output_processor@_WV?$string_output_adapter@_W@__crt_stdio_output@@V?$format_validation_base@_WV?$string_output_adapter@_W@__crt_stdio_output@@@2@@__crt_stdio_output@@AAE_NXZ 10079c70 f i libucrtd:output.obj
 0001:00078c90       ?state_case_dot@?$output_processor@_WV?$string_output_adapter@_W@__crt_stdio_output@@V?$positional_parameter_base@_WV?$string_output_adapter@_W@__crt_stdio_output@@@2@@__crt_stdio_output@@AAE_NXZ 10079c90 f i libucrtd:output.obj
 0001:00078cb0       ?state_case_dot@?$output_processor@_WV?$string_output_adapter@_W@__crt_stdio_output@@V?$standard_base@_WV?$string_output_adapter@_W@__crt_stdio_output@@@2@@__crt_stdio_output@@AAE_NXZ 10079cb0 f i libucrtd:output.obj
 0001:00078cd0       ?state_case_flag@?$output_processor@DV?$stream_output_adapter@D@__crt_stdio_output@@V?$format_validation_base@DV?$stream_output_adapter@D@__crt_stdio_output@@@2@@__crt_stdio_output@@AAE_NXZ 10079cd0 f i libucrtd:output.obj
 0001:00078d80       ?state_case_flag@?$output_processor@DV?$stream_output_adapter@D@__crt_stdio_output@@V?$positional_parameter_base@DV?$stream_output_adapter@D@__crt_stdio_output@@@2@@__crt_stdio_output@@AAE_NXZ 10079d80 f i libucrtd:output.obj
 0001:00078e30       ?state_case_flag@?$output_processor@DV?$stream_output_adapter@D@__crt_stdio_output@@V?$standard_base@DV?$stream_output_adapter@D@__crt_stdio_output@@@2@@__crt_stdio_output@@AAE_NXZ 10079e30 f i libucrtd:output.obj
 0001:00078ee0       ?state_case_flag@?$output_processor@DV?$string_output_adapter@D@__crt_stdio_output@@V?$format_validation_base@DV?$string_output_adapter@D@__crt_stdio_output@@@2@@__crt_stdio_output@@AAE_NXZ 10079ee0 f i libucrtd:output.obj
 0001:00078f90       ?state_case_flag@?$output_processor@DV?$string_output_adapter@D@__crt_stdio_output@@V?$positional_parameter_base@DV?$string_output_adapter@D@__crt_stdio_output@@@2@@__crt_stdio_output@@AAE_NXZ 10079f90 f i libucrtd:output.obj
 0001:00079040       ?state_case_flag@?$output_processor@DV?$string_output_adapter@D@__crt_stdio_output@@V?$standard_base@DV?$string_output_adapter@D@__crt_stdio_output@@@2@@__crt_stdio_output@@AAE_NXZ 1007a040 f i libucrtd:output.obj
 0001:000790f0       ?state_case_flag@?$output_processor@_WV?$stream_output_adapter@_W@__crt_stdio_output@@V?$format_validation_base@_WV?$stream_output_adapter@_W@__crt_stdio_output@@@2@@__crt_stdio_output@@AAE_NXZ 1007a0f0 f i libucrtd:output.obj
 0001:000791a0       ?state_case_flag@?$output_processor@_WV?$stream_output_adapter@_W@__crt_stdio_output@@V?$positional_parameter_base@_WV?$stream_output_adapter@_W@__crt_stdio_output@@@2@@__crt_stdio_output@@AAE_NXZ 1007a1a0 f i libucrtd:output.obj
 0001:00079250       ?state_case_flag@?$output_processor@_WV?$stream_output_adapter@_W@__crt_stdio_output@@V?$standard_base@_WV?$stream_output_adapter@_W@__crt_stdio_output@@@2@@__crt_stdio_output@@AAE_NXZ 1007a250 f i libucrtd:output.obj
 0001:00079300       ?state_case_flag@?$output_processor@_WV?$string_output_adapter@_W@__crt_stdio_output@@V?$format_validation_base@_WV?$string_output_adapter@_W@__crt_stdio_output@@@2@@__crt_stdio_output@@AAE_NXZ 1007a300 f i libucrtd:output.obj
 0001:000793b0       ?state_case_flag@?$output_processor@_WV?$string_output_adapter@_W@__crt_stdio_output@@V?$positional_parameter_base@_WV?$string_output_adapter@_W@__crt_stdio_output@@@2@@__crt_stdio_output@@AAE_NXZ 1007a3b0 f i libucrtd:output.obj
 0001:00079460       ?state_case_flag@?$output_processor@_WV?$string_output_adapter@_W@__crt_stdio_output@@V?$standard_base@_WV?$string_output_adapter@_W@__crt_stdio_output@@@2@@__crt_stdio_output@@AAE_NXZ 1007a460 f i libucrtd:output.obj
 0001:00079510       ?state_case_normal@?$output_processor@DV?$stream_output_adapter@D@__crt_stdio_output@@V?$format_validation_base@DV?$stream_output_adapter@D@__crt_stdio_output@@@2@@__crt_stdio_output@@AAE_NXZ 1007a510 f i libucrtd:output.obj
 0001:000795d0       ?state_case_normal@?$output_processor@DV?$stream_output_adapter@D@__crt_stdio_output@@V?$positional_parameter_base@DV?$stream_output_adapter@D@__crt_stdio_output@@@2@@__crt_stdio_output@@AAE_NXZ 1007a5d0 f i libucrtd:output.obj
 0001:00079690       ?state_case_normal@?$output_processor@DV?$stream_output_adapter@D@__crt_stdio_output@@V?$standard_base@DV?$stream_output_adapter@D@__crt_stdio_output@@@2@@__crt_stdio_output@@AAE_NXZ 1007a690 f i libucrtd:output.obj
 0001:00079750       ?state_case_normal@?$output_processor@DV?$string_output_adapter@D@__crt_stdio_output@@V?$format_validation_base@DV?$string_output_adapter@D@__crt_stdio_output@@@2@@__crt_stdio_output@@AAE_NXZ 1007a750 f i libucrtd:output.obj
 0001:00079810       ?state_case_normal@?$output_processor@DV?$string_output_adapter@D@__crt_stdio_output@@V?$positional_parameter_base@DV?$string_output_adapter@D@__crt_stdio_output@@@2@@__crt_stdio_output@@AAE_NXZ 1007a810 f i libucrtd:output.obj
 0001:000798d0       ?state_case_normal@?$output_processor@DV?$string_output_adapter@D@__crt_stdio_output@@V?$standard_base@DV?$string_output_adapter@D@__crt_stdio_output@@@2@@__crt_stdio_output@@AAE_NXZ 1007a8d0 f i libucrtd:output.obj
 0001:00079990       ?state_case_normal@?$output_processor@_WV?$stream_output_adapter@_W@__crt_stdio_output@@V?$format_validation_base@_WV?$stream_output_adapter@_W@__crt_stdio_output@@@2@@__crt_stdio_output@@AAE_NXZ 1007a990 f i libucrtd:output.obj
 0001:00079a50       ?state_case_normal@?$output_processor@_WV?$stream_output_adapter@_W@__crt_stdio_output@@V?$positional_parameter_base@_WV?$stream_output_adapter@_W@__crt_stdio_output@@@2@@__crt_stdio_output@@AAE_NXZ 1007aa50 f i libucrtd:output.obj
 0001:00079b10       ?state_case_normal@?$output_processor@_WV?$stream_output_adapter@_W@__crt_stdio_output@@V?$standard_base@_WV?$stream_output_adapter@_W@__crt_stdio_output@@@2@@__crt_stdio_output@@AAE_NXZ 1007ab10 f i libucrtd:output.obj
 0001:00079bd0       ?state_case_normal@?$output_processor@_WV?$string_output_adapter@_W@__crt_stdio_output@@V?$format_validation_base@_WV?$string_output_adapter@_W@__crt_stdio_output@@@2@@__crt_stdio_output@@AAE_NXZ 1007abd0 f i libucrtd:output.obj
 0001:00079c90       ?state_case_normal@?$output_processor@_WV?$string_output_adapter@_W@__crt_stdio_output@@V?$positional_parameter_base@_WV?$string_output_adapter@_W@__crt_stdio_output@@@2@@__crt_stdio_output@@AAE_NXZ 1007ac90 f i libucrtd:output.obj
 0001:00079d50       ?state_case_normal@?$output_processor@_WV?$string_output_adapter@_W@__crt_stdio_output@@V?$standard_base@_WV?$string_output_adapter@_W@__crt_stdio_output@@@2@@__crt_stdio_output@@AAE_NXZ 1007ad50 f i libucrtd:output.obj
 0001:00079e10       ?state_case_normal_common@?$output_processor@DV?$stream_output_adapter@D@__crt_stdio_output@@V?$format_validation_base@DV?$stream_output_adapter@D@__crt_stdio_output@@@2@@__crt_stdio_output@@AAE_NXZ 1007ae10 f i libucrtd:output.obj
 0001:00079e60       ?state_case_normal_common@?$output_processor@DV?$stream_output_adapter@D@__crt_stdio_output@@V?$positional_parameter_base@DV?$stream_output_adapter@D@__crt_stdio_output@@@2@@__crt_stdio_output@@AAE_NXZ 1007ae60 f i libucrtd:output.obj
 0001:00079eb0       ?state_case_normal_common@?$output_processor@DV?$stream_output_adapter@D@__crt_stdio_output@@V?$standard_base@DV?$stream_output_adapter@D@__crt_stdio_output@@@2@@__crt_stdio_output@@AAE_NXZ 1007aeb0 f i libucrtd:output.obj
 0001:00079f00       ?state_case_normal_common@?$output_processor@DV?$string_output_adapter@D@__crt_stdio_output@@V?$format_validation_base@DV?$string_output_adapter@D@__crt_stdio_output@@@2@@__crt_stdio_output@@AAE_NXZ 1007af00 f i libucrtd:output.obj
 0001:00079f50       ?state_case_normal_common@?$output_processor@DV?$string_output_adapter@D@__crt_stdio_output@@V?$positional_parameter_base@DV?$string_output_adapter@D@__crt_stdio_output@@@2@@__crt_stdio_output@@AAE_NXZ 1007af50 f i libucrtd:output.obj
 0001:00079fa0       ?state_case_normal_common@?$output_processor@DV?$string_output_adapter@D@__crt_stdio_output@@V?$standard_base@DV?$string_output_adapter@D@__crt_stdio_output@@@2@@__crt_stdio_output@@AAE_NXZ 1007afa0 f i libucrtd:output.obj
 0001:00079ff0       ?state_case_normal_common@?$output_processor@_WV?$stream_output_adapter@_W@__crt_stdio_output@@V?$format_validation_base@_WV?$stream_output_adapter@_W@__crt_stdio_output@@@2@@__crt_stdio_output@@AAE_NXZ 1007aff0 f i libucrtd:output.obj
 0001:0007a040       ?state_case_normal_common@?$output_processor@_WV?$stream_output_adapter@_W@__crt_stdio_output@@V?$positional_parameter_base@_WV?$stream_output_adapter@_W@__crt_stdio_output@@@2@@__crt_stdio_output@@AAE_NXZ 1007b040 f i libucrtd:output.obj
 0001:0007a090       ?state_case_normal_common@?$output_processor@_WV?$stream_output_adapter@_W@__crt_stdio_output@@V?$standard_base@_WV?$stream_output_adapter@_W@__crt_stdio_output@@@2@@__crt_stdio_output@@AAE_NXZ 1007b090 f i libucrtd:output.obj
 0001:0007a0e0       ?state_case_normal_common@?$output_processor@_WV?$string_output_adapter@_W@__crt_stdio_output@@V?$format_validation_base@_WV?$string_output_adapter@_W@__crt_stdio_output@@@2@@__crt_stdio_output@@AAE_NXZ 1007b0e0 f i libucrtd:output.obj
 0001:0007a130       ?state_case_normal_common@?$output_processor@_WV?$string_output_adapter@_W@__crt_stdio_output@@V?$positional_parameter_base@_WV?$string_output_adapter@_W@__crt_stdio_output@@@2@@__crt_stdio_output@@AAE_NXZ 1007b130 f i libucrtd:output.obj
 0001:0007a180       ?state_case_normal_common@?$output_processor@_WV?$string_output_adapter@_W@__crt_stdio_output@@V?$standard_base@_WV?$string_output_adapter@_W@__crt_stdio_output@@@2@@__crt_stdio_output@@AAE_NXZ 1007b180 f i libucrtd:output.obj
 0001:0007a1d0       ?state_case_normal_tchar@?$output_processor@DV?$stream_output_adapter@D@__crt_stdio_output@@V?$format_validation_base@DV?$stream_output_adapter@D@__crt_stdio_output@@@2@@__crt_stdio_output@@AAE_ND@Z 1007b1d0 f i libucrtd:output.obj
 0001:0007a300       ?state_case_normal_tchar@?$output_processor@DV?$stream_output_adapter@D@__crt_stdio_output@@V?$positional_parameter_base@DV?$stream_output_adapter@D@__crt_stdio_output@@@2@@__crt_stdio_output@@AAE_ND@Z 1007b300 f i libucrtd:output.obj
 0001:0007a430       ?state_case_normal_tchar@?$output_processor@DV?$stream_output_adapter@D@__crt_stdio_output@@V?$standard_base@DV?$stream_output_adapter@D@__crt_stdio_output@@@2@@__crt_stdio_output@@AAE_ND@Z 1007b430 f i libucrtd:output.obj
 0001:0007a560       ?state_case_normal_tchar@?$output_processor@DV?$string_output_adapter@D@__crt_stdio_output@@V?$format_validation_base@DV?$string_output_adapter@D@__crt_stdio_output@@@2@@__crt_stdio_output@@AAE_ND@Z 1007b560 f i libucrtd:output.obj
 0001:0007a690       ?state_case_normal_tchar@?$output_processor@DV?$string_output_adapter@D@__crt_stdio_output@@V?$positional_parameter_base@DV?$string_output_adapter@D@__crt_stdio_output@@@2@@__crt_stdio_output@@AAE_ND@Z 1007b690 f i libucrtd:output.obj
 0001:0007a7c0       ?state_case_normal_tchar@?$output_processor@DV?$string_output_adapter@D@__crt_stdio_output@@V?$standard_base@DV?$string_output_adapter@D@__crt_stdio_output@@@2@@__crt_stdio_output@@AAE_ND@Z 1007b7c0 f i libucrtd:output.obj
 0001:0007a8f0       ?state_case_normal_tchar@?$output_processor@_WV?$stream_output_adapter@_W@__crt_stdio_output@@V?$format_validation_base@_WV?$stream_output_adapter@_W@__crt_stdio_output@@@2@@__crt_stdio_output@@AAE_N_W@Z 1007b8f0 f i libucrtd:output.obj
 0001:0007a910       ?state_case_normal_tchar@?$output_processor@_WV?$stream_output_adapter@_W@__crt_stdio_output@@V?$positional_parameter_base@_WV?$stream_output_adapter@_W@__crt_stdio_output@@@2@@__crt_stdio_output@@AAE_N_W@Z 1007b910 f i libucrtd:output.obj
 0001:0007a930       ?state_case_normal_tchar@?$output_processor@_WV?$stream_output_adapter@_W@__crt_stdio_output@@V?$standard_base@_WV?$stream_output_adapter@_W@__crt_stdio_output@@@2@@__crt_stdio_output@@AAE_N_W@Z 1007b930 f i libucrtd:output.obj
 0001:0007a950       ?state_case_normal_tchar@?$output_processor@_WV?$string_output_adapter@_W@__crt_stdio_output@@V?$format_validation_base@_WV?$string_output_adapter@_W@__crt_stdio_output@@@2@@__crt_stdio_output@@AAE_N_W@Z 1007b950 f i libucrtd:output.obj
 0001:0007a970       ?state_case_normal_tchar@?$output_processor@_WV?$string_output_adapter@_W@__crt_stdio_output@@V?$positional_parameter_base@_WV?$string_output_adapter@_W@__crt_stdio_output@@@2@@__crt_stdio_output@@AAE_N_W@Z 1007b970 f i libucrtd:output.obj
 0001:0007a990       ?state_case_normal_tchar@?$output_processor@_WV?$string_output_adapter@_W@__crt_stdio_output@@V?$standard_base@_WV?$string_output_adapter@_W@__crt_stdio_output@@@2@@__crt_stdio_output@@AAE_N_W@Z 1007b990 f i libucrtd:output.obj
 0001:0007a9b0       ?state_case_percent@?$output_processor@DV?$stream_output_adapter@D@__crt_stdio_output@@V?$format_validation_base@DV?$stream_output_adapter@D@__crt_stdio_output@@@2@@__crt_stdio_output@@AAE_NXZ 1007b9b0 f i libucrtd:output.obj
 0001:0007aa00       ?state_case_percent@?$output_processor@DV?$stream_output_adapter@D@__crt_stdio_output@@V?$positional_parameter_base@DV?$stream_output_adapter@D@__crt_stdio_output@@@2@@__crt_stdio_output@@AAE_NXZ 1007ba00 f i libucrtd:output.obj
 0001:0007aa50       ?state_case_percent@?$output_processor@DV?$stream_output_adapter@D@__crt_stdio_output@@V?$standard_base@DV?$stream_output_adapter@D@__crt_stdio_output@@@2@@__crt_stdio_output@@AAE_NXZ 1007ba50 f i libucrtd:output.obj
 0001:0007aaa0       ?state_case_percent@?$output_processor@DV?$string_output_adapter@D@__crt_stdio_output@@V?$format_validation_base@DV?$string_output_adapter@D@__crt_stdio_output@@@2@@__crt_stdio_output@@AAE_NXZ 1007baa0 f i libucrtd:output.obj
 0001:0007aaf0       ?state_case_percent@?$output_processor@DV?$string_output_adapter@D@__crt_stdio_output@@V?$positional_parameter_base@DV?$string_output_adapter@D@__crt_stdio_output@@@2@@__crt_stdio_output@@AAE_NXZ 1007baf0 f i libucrtd:output.obj
 0001:0007ab40       ?state_case_percent@?$output_processor@DV?$string_output_adapter@D@__crt_stdio_output@@V?$standard_base@DV?$string_output_adapter@D@__crt_stdio_output@@@2@@__crt_stdio_output@@AAE_NXZ 1007bb40 f i libucrtd:output.obj
 0001:0007ab90       ?state_case_percent@?$output_processor@_WV?$stream_output_adapter@_W@__crt_stdio_output@@V?$format_validation_base@_WV?$stream_output_adapter@_W@__crt_stdio_output@@@2@@__crt_stdio_output@@AAE_NXZ 1007bb90 f i libucrtd:output.obj
 0001:0007abe0       ?state_case_percent@?$output_processor@_WV?$stream_output_adapter@_W@__crt_stdio_output@@V?$positional_parameter_base@_WV?$stream_output_adapter@_W@__crt_stdio_output@@@2@@__crt_stdio_output@@AAE_NXZ 1007bbe0 f i libucrtd:output.obj
 0001:0007ac30       ?state_case_percent@?$output_processor@_WV?$stream_output_adapter@_W@__crt_stdio_output@@V?$standard_base@_WV?$stream_output_adapter@_W@__crt_stdio_output@@@2@@__crt_stdio_output@@AAE_NXZ 1007bc30 f i libucrtd:output.obj
 0001:0007ac80       ?state_case_percent@?$output_processor@_WV?$string_output_adapter@_W@__crt_stdio_output@@V?$format_validation_base@_WV?$string_output_adapter@_W@__crt_stdio_output@@@2@@__crt_stdio_output@@AAE_NXZ 1007bc80 f i libucrtd:output.obj
 0001:0007acd0       ?state_case_percent@?$output_processor@_WV?$string_output_adapter@_W@__crt_stdio_output@@V?$positional_parameter_base@_WV?$string_output_adapter@_W@__crt_stdio_output@@@2@@__crt_stdio_output@@AAE_NXZ 1007bcd0 f i libucrtd:output.obj
 0001:0007ad20       ?state_case_percent@?$output_processor@_WV?$string_output_adapter@_W@__crt_stdio_output@@V?$standard_base@_WV?$string_output_adapter@_W@__crt_stdio_output@@@2@@__crt_stdio_output@@AAE_NXZ 1007bd20 f i libucrtd:output.obj
 0001:0007ad70       ?state_case_precision@?$output_processor@DV?$stream_output_adapter@D@__crt_stdio_output@@V?$format_validation_base@DV?$stream_output_adapter@D@__crt_stdio_output@@@2@@__crt_stdio_output@@AAE_NXZ 1007bd70 f i libucrtd:output.obj
 0001:0007ade0       ?state_case_precision@?$output_processor@DV?$stream_output_adapter@D@__crt_stdio_output@@V?$positional_parameter_base@DV?$stream_output_adapter@D@__crt_stdio_output@@@2@@__crt_stdio_output@@AAE_NXZ 1007bde0 f i libucrtd:output.obj
 0001:0007ae50       ?state_case_precision@?$output_processor@DV?$stream_output_adapter@D@__crt_stdio_output@@V?$standard_base@DV?$stream_output_adapter@D@__crt_stdio_output@@@2@@__crt_stdio_output@@AAE_NXZ 1007be50 f i libucrtd:output.obj
 0001:0007aec0       ?state_case_precision@?$output_processor@DV?$string_output_adapter@D@__crt_stdio_output@@V?$format_validation_base@DV?$string_output_adapter@D@__crt_stdio_output@@@2@@__crt_stdio_output@@AAE_NXZ 1007bec0 f i libucrtd:output.obj
 0001:0007af30       ?state_case_precision@?$output_processor@DV?$string_output_adapter@D@__crt_stdio_output@@V?$positional_parameter_base@DV?$string_output_adapter@D@__crt_stdio_output@@@2@@__crt_stdio_output@@AAE_NXZ 1007bf30 f i libucrtd:output.obj
 0001:0007afa0       ?state_case_precision@?$output_processor@DV?$string_output_adapter@D@__crt_stdio_output@@V?$standard_base@DV?$string_output_adapter@D@__crt_stdio_output@@@2@@__crt_stdio_output@@AAE_NXZ 1007bfa0 f i libucrtd:output.obj
 0001:0007b010       ?state_case_precision@?$output_processor@_WV?$stream_output_adapter@_W@__crt_stdio_output@@V?$format_validation_base@_WV?$stream_output_adapter@_W@__crt_stdio_output@@@2@@__crt_stdio_output@@AAE_NXZ 1007c010 f i libucrtd:output.obj
 0001:0007b080       ?state_case_precision@?$output_processor@_WV?$stream_output_adapter@_W@__crt_stdio_output@@V?$positional_parameter_base@_WV?$stream_output_adapter@_W@__crt_stdio_output@@@2@@__crt_stdio_output@@AAE_NXZ 1007c080 f i libucrtd:output.obj
 0001:0007b0f0       ?state_case_precision@?$output_processor@_WV?$stream_output_adapter@_W@__crt_stdio_output@@V?$standard_base@_WV?$stream_output_adapter@_W@__crt_stdio_output@@@2@@__crt_stdio_output@@AAE_NXZ 1007c0f0 f i libucrtd:output.obj
 0001:0007b160       ?state_case_precision@?$output_processor@_WV?$string_output_adapter@_W@__crt_stdio_output@@V?$format_validation_base@_WV?$string_output_adapter@_W@__crt_stdio_output@@@2@@__crt_stdio_output@@AAE_NXZ 1007c160 f i libucrtd:output.obj
 0001:0007b1d0       ?state_case_precision@?$output_processor@_WV?$string_output_adapter@_W@__crt_stdio_output@@V?$positional_parameter_base@_WV?$string_output_adapter@_W@__crt_stdio_output@@@2@@__crt_stdio_output@@AAE_NXZ 1007c1d0 f i libucrtd:output.obj
 0001:0007b240       ?state_case_precision@?$output_processor@_WV?$string_output_adapter@_W@__crt_stdio_output@@V?$standard_base@_WV?$string_output_adapter@_W@__crt_stdio_output@@@2@@__crt_stdio_output@@AAE_NXZ 1007c240 f i libucrtd:output.obj
 0001:0007b2b0       ?state_case_size@?$output_processor@DV?$stream_output_adapter@D@__crt_stdio_output@@V?$format_validation_base@DV?$stream_output_adapter@D@__crt_stdio_output@@@2@@__crt_stdio_output@@AAE_NXZ 1007c2b0 f i libucrtd:output.obj
 0001:0007b6a0       ?state_case_size@?$output_processor@DV?$stream_output_adapter@D@__crt_stdio_output@@V?$positional_parameter_base@DV?$stream_output_adapter@D@__crt_stdio_output@@@2@@__crt_stdio_output@@AAE_NXZ 1007c6a0 f i libucrtd:output.obj
 0001:0007ba90       ?state_case_size@?$output_processor@DV?$stream_output_adapter@D@__crt_stdio_output@@V?$standard_base@DV?$stream_output_adapter@D@__crt_stdio_output@@@2@@__crt_stdio_output@@AAE_NXZ 1007ca90 f i libucrtd:output.obj
 0001:0007be80       ?state_case_size@?$output_processor@DV?$string_output_adapter@D@__crt_stdio_output@@V?$format_validation_base@DV?$string_output_adapter@D@__crt_stdio_output@@@2@@__crt_stdio_output@@AAE_NXZ 1007ce80 f i libucrtd:output.obj
 0001:0007c270       ?state_case_size@?$output_processor@DV?$string_output_adapter@D@__crt_stdio_output@@V?$positional_parameter_base@DV?$string_output_adapter@D@__crt_stdio_output@@@2@@__crt_stdio_output@@AAE_NXZ 1007d270 f i libucrtd:output.obj
 0001:0007c660       ?state_case_size@?$output_processor@DV?$string_output_adapter@D@__crt_stdio_output@@V?$standard_base@DV?$string_output_adapter@D@__crt_stdio_output@@@2@@__crt_stdio_output@@AAE_NXZ 1007d660 f i libucrtd:output.obj
 0001:0007ca50       ?state_case_size@?$output_processor@_WV?$stream_output_adapter@_W@__crt_stdio_output@@V?$format_validation_base@_WV?$stream_output_adapter@_W@__crt_stdio_output@@@2@@__crt_stdio_output@@AAE_NXZ 1007da50 f i libucrtd:output.obj
 0001:0007ce40       ?state_case_size@?$output_processor@_WV?$stream_output_adapter@_W@__crt_stdio_output@@V?$positional_parameter_base@_WV?$stream_output_adapter@_W@__crt_stdio_output@@@2@@__crt_stdio_output@@AAE_NXZ 1007de40 f i libucrtd:output.obj
 0001:0007d230       ?state_case_size@?$output_processor@_WV?$stream_output_adapter@_W@__crt_stdio_output@@V?$standard_base@_WV?$stream_output_adapter@_W@__crt_stdio_output@@@2@@__crt_stdio_output@@AAE_NXZ 1007e230 f i libucrtd:output.obj
 0001:0007d620       ?state_case_size@?$output_processor@_WV?$string_output_adapter@_W@__crt_stdio_output@@V?$format_validation_base@_WV?$string_output_adapter@_W@__crt_stdio_output@@@2@@__crt_stdio_output@@AAE_NXZ 1007e620 f i libucrtd:output.obj
 0001:0007da10       ?state_case_size@?$output_processor@_WV?$string_output_adapter@_W@__crt_stdio_output@@V?$positional_parameter_base@_WV?$string_output_adapter@_W@__crt_stdio_output@@@2@@__crt_stdio_output@@AAE_NXZ 1007ea10 f i libucrtd:output.obj
 0001:0007de00       ?state_case_size@?$output_processor@_WV?$string_output_adapter@_W@__crt_stdio_output@@V?$standard_base@_WV?$string_output_adapter@_W@__crt_stdio_output@@@2@@__crt_stdio_output@@AAE_NXZ 1007ee00 f i libucrtd:output.obj
 0001:0007e1f0       ?state_case_type@?$output_processor@DV?$stream_output_adapter@D@__crt_stdio_output@@V?$format_validation_base@DV?$stream_output_adapter@D@__crt_stdio_output@@@2@@__crt_stdio_output@@AAE_NXZ 1007f1f0 f i libucrtd:output.obj
 0001:0007e5c0       ?state_case_type@?$output_processor@DV?$stream_output_adapter@D@__crt_stdio_output@@V?$positional_parameter_base@DV?$stream_output_adapter@D@__crt_stdio_output@@@2@@__crt_stdio_output@@AAE_NXZ 1007f5c0 f i libucrtd:output.obj
 0001:0007e990       ?state_case_type@?$output_processor@DV?$stream_output_adapter@D@__crt_stdio_output@@V?$standard_base@DV?$stream_output_adapter@D@__crt_stdio_output@@@2@@__crt_stdio_output@@AAE_NXZ 1007f990 f i libucrtd:output.obj
 0001:0007ed60       ?state_case_type@?$output_processor@DV?$string_output_adapter@D@__crt_stdio_output@@V?$format_validation_base@DV?$string_output_adapter@D@__crt_stdio_output@@@2@@__crt_stdio_output@@AAE_NXZ 1007fd60 f i libucrtd:output.obj
 0001:0007f130       ?state_case_type@?$output_processor@DV?$string_output_adapter@D@__crt_stdio_output@@V?$positional_parameter_base@DV?$string_output_adapter@D@__crt_stdio_output@@@2@@__crt_stdio_output@@AAE_NXZ 10080130 f i libucrtd:output.obj
 0001:0007f500       ?state_case_type@?$output_processor@DV?$string_output_adapter@D@__crt_stdio_output@@V?$standard_base@DV?$string_output_adapter@D@__crt_stdio_output@@@2@@__crt_stdio_output@@AAE_NXZ 10080500 f i libucrtd:output.obj
 0001:0007f8d0       ?state_case_type@?$output_processor@_WV?$stream_output_adapter@_W@__crt_stdio_output@@V?$format_validation_base@_WV?$stream_output_adapter@_W@__crt_stdio_output@@@2@@__crt_stdio_output@@AAE_NXZ 100808d0 f i libucrtd:output.obj
 0001:0007fcd0       ?state_case_type@?$output_processor@_WV?$stream_output_adapter@_W@__crt_stdio_output@@V?$positional_parameter_base@_WV?$stream_output_adapter@_W@__crt_stdio_output@@@2@@__crt_stdio_output@@AAE_NXZ 10080cd0 f i libucrtd:output.obj
 0001:000800d0       ?state_case_type@?$output_processor@_WV?$stream_output_adapter@_W@__crt_stdio_output@@V?$standard_base@_WV?$stream_output_adapter@_W@__crt_stdio_output@@@2@@__crt_stdio_output@@AAE_NXZ 100810d0 f i libucrtd:output.obj
 0001:000804d0       ?state_case_type@?$output_processor@_WV?$string_output_adapter@_W@__crt_stdio_output@@V?$format_validation_base@_WV?$string_output_adapter@_W@__crt_stdio_output@@@2@@__crt_stdio_output@@AAE_NXZ 100814d0 f i libucrtd:output.obj
 0001:000808d0       ?state_case_type@?$output_processor@_WV?$string_output_adapter@_W@__crt_stdio_output@@V?$positional_parameter_base@_WV?$string_output_adapter@_W@__crt_stdio_output@@@2@@__crt_stdio_output@@AAE_NXZ 100818d0 f i libucrtd:output.obj
 0001:00080cd0       ?state_case_type@?$output_processor@_WV?$string_output_adapter@_W@__crt_stdio_output@@V?$standard_base@_WV?$string_output_adapter@_W@__crt_stdio_output@@@2@@__crt_stdio_output@@AAE_NXZ 10081cd0 f i libucrtd:output.obj
 0001:000810d0       ?state_case_width@?$output_processor@DV?$stream_output_adapter@D@__crt_stdio_output@@V?$format_validation_base@DV?$stream_output_adapter@D@__crt_stdio_output@@@2@@__crt_stdio_output@@AAE_NXZ 100820d0 f i libucrtd:output.obj
 0001:00081150       ?state_case_width@?$output_processor@DV?$stream_output_adapter@D@__crt_stdio_output@@V?$positional_parameter_base@DV?$stream_output_adapter@D@__crt_stdio_output@@@2@@__crt_stdio_output@@AAE_NXZ 10082150 f i libucrtd:output.obj
 0001:000811d0       ?state_case_width@?$output_processor@DV?$stream_output_adapter@D@__crt_stdio_output@@V?$standard_base@DV?$stream_output_adapter@D@__crt_stdio_output@@@2@@__crt_stdio_output@@AAE_NXZ 100821d0 f i libucrtd:output.obj
 0001:00081250       ?state_case_width@?$output_processor@DV?$string_output_adapter@D@__crt_stdio_output@@V?$format_validation_base@DV?$string_output_adapter@D@__crt_stdio_output@@@2@@__crt_stdio_output@@AAE_NXZ 10082250 f i libucrtd:output.obj
 0001:000812d0       ?state_case_width@?$output_processor@DV?$string_output_adapter@D@__crt_stdio_output@@V?$positional_parameter_base@DV?$string_output_adapter@D@__crt_stdio_output@@@2@@__crt_stdio_output@@AAE_NXZ 100822d0 f i libucrtd:output.obj
 0001:00081350       ?state_case_width@?$output_processor@DV?$string_output_adapter@D@__crt_stdio_output@@V?$standard_base@DV?$string_output_adapter@D@__crt_stdio_output@@@2@@__crt_stdio_output@@AAE_NXZ 10082350 f i libucrtd:output.obj
 0001:000813d0       ?state_case_width@?$output_processor@_WV?$stream_output_adapter@_W@__crt_stdio_output@@V?$format_validation_base@_WV?$stream_output_adapter@_W@__crt_stdio_output@@@2@@__crt_stdio_output@@AAE_NXZ 100823d0 f i libucrtd:output.obj
 0001:00081450       ?state_case_width@?$output_processor@_WV?$stream_output_adapter@_W@__crt_stdio_output@@V?$positional_parameter_base@_WV?$stream_output_adapter@_W@__crt_stdio_output@@@2@@__crt_stdio_output@@AAE_NXZ 10082450 f i libucrtd:output.obj
 0001:000814d0       ?state_case_width@?$output_processor@_WV?$stream_output_adapter@_W@__crt_stdio_output@@V?$standard_base@_WV?$stream_output_adapter@_W@__crt_stdio_output@@@2@@__crt_stdio_output@@AAE_NXZ 100824d0 f i libucrtd:output.obj
 0001:00081550       ?state_case_width@?$output_processor@_WV?$string_output_adapter@_W@__crt_stdio_output@@V?$format_validation_base@_WV?$string_output_adapter@_W@__crt_stdio_output@@@2@@__crt_stdio_output@@AAE_NXZ 10082550 f i libucrtd:output.obj
 0001:000815d0       ?state_case_width@?$output_processor@_WV?$string_output_adapter@_W@__crt_stdio_output@@V?$positional_parameter_base@_WV?$string_output_adapter@_W@__crt_stdio_output@@@2@@__crt_stdio_output@@AAE_NXZ 100825d0 f i libucrtd:output.obj
 0001:00081650       ?state_case_width@?$output_processor@_WV?$string_output_adapter@_W@__crt_stdio_output@@V?$standard_base@_WV?$string_output_adapter@_W@__crt_stdio_output@@@2@@__crt_stdio_output@@AAE_NXZ 10082650 f i libucrtd:output.obj
 0001:000816d0       ?state_count@?$format_validation_base@DV?$stream_output_adapter@D@__crt_stdio_output@@@__crt_stdio_output@@KAIXZ 100826d0 f i libucrtd:output.obj
 0001:000816e0       ?state_count@?$format_validation_base@DV?$string_output_adapter@D@__crt_stdio_output@@@__crt_stdio_output@@KAIXZ 100826e0 f i libucrtd:output.obj
 0001:000816f0       ?state_count@?$format_validation_base@_WV?$stream_output_adapter@_W@__crt_stdio_output@@@__crt_stdio_output@@KAIXZ 100826f0 f i libucrtd:output.obj
 0001:00081700       ?state_count@?$format_validation_base@_WV?$string_output_adapter@_W@__crt_stdio_output@@@__crt_stdio_output@@KAIXZ 10082700 f i libucrtd:output.obj
 0001:00081710       ?state_count@?$standard_base@DV?$stream_output_adapter@D@__crt_stdio_output@@@__crt_stdio_output@@KAIXZ 10082710 f i libucrtd:output.obj
 0001:00081720       ?state_count@?$standard_base@DV?$string_output_adapter@D@__crt_stdio_output@@@__crt_stdio_output@@KAIXZ 10082720 f i libucrtd:output.obj
 0001:00081730       ?state_count@?$standard_base@_WV?$stream_output_adapter@_W@__crt_stdio_output@@@__crt_stdio_output@@KAIXZ 10082730 f i libucrtd:output.obj
 0001:00081740       ?state_count@?$standard_base@_WV?$string_output_adapter@_W@__crt_stdio_output@@@__crt_stdio_output@@KAIXZ 10082740 f i libucrtd:output.obj
 0001:00081750       ?state_transition_table@?$format_validation_base@DV?$stream_output_adapter@D@__crt_stdio_output@@@__crt_stdio_output@@KAABV?$spectre_mitigated_lookup_table@Ustate_transition_pair@__crt_stdio_output@@$0IA@@2@XZ 10082750 f i libucrtd:output.obj
 0001:00081760       ?state_transition_table@?$format_validation_base@DV?$string_output_adapter@D@__crt_stdio_output@@@__crt_stdio_output@@KAABV?$spectre_mitigated_lookup_table@Ustate_transition_pair@__crt_stdio_output@@$0IA@@2@XZ 10082760 f i libucrtd:output.obj
 0001:00081770       ?state_transition_table@?$format_validation_base@_WV?$stream_output_adapter@_W@__crt_stdio_output@@@__crt_stdio_output@@KAABV?$spectre_mitigated_lookup_table@Ustate_transition_pair@__crt_stdio_output@@$0IA@@2@XZ 10082770 f i libucrtd:output.obj
 0001:00081780       ?state_transition_table@?$format_validation_base@_WV?$string_output_adapter@_W@__crt_stdio_output@@@__crt_stdio_output@@KAABV?$spectre_mitigated_lookup_table@Ustate_transition_pair@__crt_stdio_output@@$0IA@@2@XZ 10082780 f i libucrtd:output.obj
 0001:00081790       ?state_transition_table@?$standard_base@DV?$stream_output_adapter@D@__crt_stdio_output@@@__crt_stdio_output@@KAABV?$spectre_mitigated_lookup_table@Ustate_transition_pair@__crt_stdio_output@@$0IA@@2@XZ 10082790 f i libucrtd:output.obj
 0001:000817a0       ?state_transition_table@?$standard_base@DV?$string_output_adapter@D@__crt_stdio_output@@@__crt_stdio_output@@KAABV?$spectre_mitigated_lookup_table@Ustate_transition_pair@__crt_stdio_output@@$0IA@@2@XZ 100827a0 f i libucrtd:output.obj
 0001:000817b0       ?state_transition_table@?$standard_base@_WV?$stream_output_adapter@_W@__crt_stdio_output@@@__crt_stdio_output@@KAABV?$spectre_mitigated_lookup_table@Ustate_transition_pair@__crt_stdio_output@@$0IA@@2@XZ 100827b0 f i libucrtd:output.obj
 0001:000817c0       ?state_transition_table@?$standard_base@_WV?$string_output_adapter@_W@__crt_stdio_output@@@__crt_stdio_output@@KAABV?$spectre_mitigated_lookup_table@Ustate_transition_pair@__crt_stdio_output@@$0IA@@2@XZ 100827c0 f i libucrtd:output.obj
 0001:000817d0       ?tchar_string@?$common_data@D@__crt_stdio_output@@IAEAAPADD@Z 100827d0 f i libucrtd:output.obj
 0001:000817f0       ?tchar_string@?$common_data@D@__crt_stdio_output@@IAEAAPADXZ 100827f0 f i libucrtd:output.obj
 0001:00081810       ?tchar_string@?$common_data@_W@__crt_stdio_output@@IAEAAPA_WXZ 10082810 f i libucrtd:output.obj
 0001:00081830       ?tchar_string@?$common_data@_W@__crt_stdio_output@@IAEAAPA_W_W@Z 10082830 f i libucrtd:output.obj
 0001:00081850       ?to_integer_size@__crt_stdio_output@@YAIW4length_modifier@1@@Z 10082850 f i libucrtd:output.obj
 0001:000818f0       ?type_case_X@?$output_processor@DV?$stream_output_adapter@D@__crt_stdio_output@@V?$format_validation_base@DV?$stream_output_adapter@D@__crt_stdio_output@@@2@@__crt_stdio_output@@AAE_NXZ 100828f0 f i libucrtd:output.obj
 0001:00081910       ?type_case_X@?$output_processor@DV?$stream_output_adapter@D@__crt_stdio_output@@V?$positional_parameter_base@DV?$stream_output_adapter@D@__crt_stdio_output@@@2@@__crt_stdio_output@@AAE_NXZ 10082910 f i libucrtd:output.obj
 0001:00081930       ?type_case_X@?$output_processor@DV?$stream_output_adapter@D@__crt_stdio_output@@V?$standard_base@DV?$stream_output_adapter@D@__crt_stdio_output@@@2@@__crt_stdio_output@@AAE_NXZ 10082930 f i libucrtd:output.obj
 0001:00081950       ?type_case_X@?$output_processor@DV?$string_output_adapter@D@__crt_stdio_output@@V?$format_validation_base@DV?$string_output_adapter@D@__crt_stdio_output@@@2@@__crt_stdio_output@@AAE_NXZ 10082950 f i libucrtd:output.obj
 0001:00081970       ?type_case_X@?$output_processor@DV?$string_output_adapter@D@__crt_stdio_output@@V?$positional_parameter_base@DV?$string_output_adapter@D@__crt_stdio_output@@@2@@__crt_stdio_output@@AAE_NXZ 10082970 f i libucrtd:output.obj
 0001:00081990       ?type_case_X@?$output_processor@DV?$string_output_adapter@D@__crt_stdio_output@@V?$standard_base@DV?$string_output_adapter@D@__crt_stdio_output@@@2@@__crt_stdio_output@@AAE_NXZ 10082990 f i libucrtd:output.obj
 0001:000819b0       ?type_case_X@?$output_processor@_WV?$stream_output_adapter@_W@__crt_stdio_output@@V?$format_validation_base@_WV?$stream_output_adapter@_W@__crt_stdio_output@@@2@@__crt_stdio_output@@AAE_NXZ 100829b0 f i libucrtd:output.obj
 0001:000819d0       ?type_case_X@?$output_processor@_WV?$stream_output_adapter@_W@__crt_stdio_output@@V?$positional_parameter_base@_WV?$stream_output_adapter@_W@__crt_stdio_output@@@2@@__crt_stdio_output@@AAE_NXZ 100829d0 f i libucrtd:output.obj
 0001:000819f0       ?type_case_X@?$output_processor@_WV?$stream_output_adapter@_W@__crt_stdio_output@@V?$standard_base@_WV?$stream_output_adapter@_W@__crt_stdio_output@@@2@@__crt_stdio_output@@AAE_NXZ 100829f0 f i libucrtd:output.obj
 0001:00081a10       ?type_case_X@?$output_processor@_WV?$string_output_adapter@_W@__crt_stdio_output@@V?$format_validation_base@_WV?$string_output_adapter@_W@__crt_stdio_output@@@2@@__crt_stdio_output@@AAE_NXZ 10082a10 f i libucrtd:output.obj
 0001:00081a30       ?type_case_X@?$output_processor@_WV?$string_output_adapter@_W@__crt_stdio_output@@V?$positional_parameter_base@_WV?$string_output_adapter@_W@__crt_stdio_output@@@2@@__crt_stdio_output@@AAE_NXZ 10082a30 f i libucrtd:output.obj
 0001:00081a50       ?type_case_X@?$output_processor@_WV?$string_output_adapter@_W@__crt_stdio_output@@V?$standard_base@_WV?$string_output_adapter@_W@__crt_stdio_output@@@2@@__crt_stdio_output@@AAE_NXZ 10082a50 f i libucrtd:output.obj
 0001:00081a70       ?type_case_Z@?$output_processor@DV?$stream_output_adapter@D@__crt_stdio_output@@V?$format_validation_base@DV?$stream_output_adapter@D@__crt_stdio_output@@@2@@__crt_stdio_output@@AAE_NXZ 10082a70 f i libucrtd:output.obj
 0001:00081b60       ?type_case_Z@?$output_processor@DV?$stream_output_adapter@D@__crt_stdio_output@@V?$positional_parameter_base@DV?$stream_output_adapter@D@__crt_stdio_output@@@2@@__crt_stdio_output@@AAE_NXZ 10082b60 f i libucrtd:output.obj
 0001:00081c50       ?type_case_Z@?$output_processor@DV?$stream_output_adapter@D@__crt_stdio_output@@V?$standard_base@DV?$stream_output_adapter@D@__crt_stdio_output@@@2@@__crt_stdio_output@@AAE_NXZ 10082c50 f i libucrtd:output.obj
 0001:00081d40       ?type_case_Z@?$output_processor@DV?$string_output_adapter@D@__crt_stdio_output@@V?$format_validation_base@DV?$string_output_adapter@D@__crt_stdio_output@@@2@@__crt_stdio_output@@AAE_NXZ 10082d40 f i libucrtd:output.obj
 0001:00081e30       ?type_case_Z@?$output_processor@DV?$string_output_adapter@D@__crt_stdio_output@@V?$positional_parameter_base@DV?$string_output_adapter@D@__crt_stdio_output@@@2@@__crt_stdio_output@@AAE_NXZ 10082e30 f i libucrtd:output.obj
 0001:00081f20       ?type_case_Z@?$output_processor@DV?$string_output_adapter@D@__crt_stdio_output@@V?$standard_base@DV?$string_output_adapter@D@__crt_stdio_output@@@2@@__crt_stdio_output@@AAE_NXZ 10082f20 f i libucrtd:output.obj
 0001:00082010       ?type_case_Z@?$output_processor@_WV?$stream_output_adapter@_W@__crt_stdio_output@@V?$format_validation_base@_WV?$stream_output_adapter@_W@__crt_stdio_output@@@2@@__crt_stdio_output@@AAE_NXZ 10083010 f i libucrtd:output.obj
 0001:00082100       ?type_case_Z@?$output_processor@_WV?$stream_output_adapter@_W@__crt_stdio_output@@V?$positional_parameter_base@_WV?$stream_output_adapter@_W@__crt_stdio_output@@@2@@__crt_stdio_output@@AAE_NXZ 10083100 f i libucrtd:output.obj
 0001:000821f0       ?type_case_Z@?$output_processor@_WV?$stream_output_adapter@_W@__crt_stdio_output@@V?$standard_base@_WV?$stream_output_adapter@_W@__crt_stdio_output@@@2@@__crt_stdio_output@@AAE_NXZ 100831f0 f i libucrtd:output.obj
 0001:000822e0       ?type_case_Z@?$output_processor@_WV?$string_output_adapter@_W@__crt_stdio_output@@V?$format_validation_base@_WV?$string_output_adapter@_W@__crt_stdio_output@@@2@@__crt_stdio_output@@AAE_NXZ 100832e0 f i libucrtd:output.obj
 0001:000823d0       ?type_case_Z@?$output_processor@_WV?$string_output_adapter@_W@__crt_stdio_output@@V?$positional_parameter_base@_WV?$string_output_adapter@_W@__crt_stdio_output@@@2@@__crt_stdio_output@@AAE_NXZ 100833d0 f i libucrtd:output.obj
 0001:000824c0       ?type_case_Z@?$output_processor@_WV?$string_output_adapter@_W@__crt_stdio_output@@V?$standard_base@_WV?$string_output_adapter@_W@__crt_stdio_output@@@2@@__crt_stdio_output@@AAE_NXZ 100834c0 f i libucrtd:output.obj
 0001:000825b0       ?type_case_a@?$output_processor@DV?$stream_output_adapter@D@__crt_stdio_output@@V?$format_validation_base@DV?$stream_output_adapter@D@__crt_stdio_output@@@2@@__crt_stdio_output@@AAE_NXZ 100835b0 f i libucrtd:output.obj
 0001:00082880       ?type_case_a@?$output_processor@DV?$stream_output_adapter@D@__crt_stdio_output@@V?$positional_parameter_base@DV?$stream_output_adapter@D@__crt_stdio_output@@@2@@__crt_stdio_output@@AAE_NXZ 10083880 f i libucrtd:output.obj
 0001:00082b50       ?type_case_a@?$output_processor@DV?$stream_output_adapter@D@__crt_stdio_output@@V?$standard_base@DV?$stream_output_adapter@D@__crt_stdio_output@@@2@@__crt_stdio_output@@AAE_NXZ 10083b50 f i libucrtd:output.obj
 0001:00082e20       ?type_case_a@?$output_processor@DV?$string_output_adapter@D@__crt_stdio_output@@V?$format_validation_base@DV?$string_output_adapter@D@__crt_stdio_output@@@2@@__crt_stdio_output@@AAE_NXZ 10083e20 f i libucrtd:output.obj
 0001:000830f0       ?type_case_a@?$output_processor@DV?$string_output_adapter@D@__crt_stdio_output@@V?$positional_parameter_base@DV?$string_output_adapter@D@__crt_stdio_output@@@2@@__crt_stdio_output@@AAE_NXZ 100840f0 f i libucrtd:output.obj
 0001:000833c0       ?type_case_a@?$output_processor@DV?$string_output_adapter@D@__crt_stdio_output@@V?$standard_base@DV?$string_output_adapter@D@__crt_stdio_output@@@2@@__crt_stdio_output@@AAE_NXZ 100843c0 f i libucrtd:output.obj
 0001:00083690       ?type_case_a@?$output_processor@_WV?$stream_output_adapter@_W@__crt_stdio_output@@V?$format_validation_base@_WV?$stream_output_adapter@_W@__crt_stdio_output@@@2@@__crt_stdio_output@@AAE_NXZ 10084690 f i libucrtd:output.obj
 0001:00083960       ?type_case_a@?$output_processor@_WV?$stream_output_adapter@_W@__crt_stdio_output@@V?$positional_parameter_base@_WV?$stream_output_adapter@_W@__crt_stdio_output@@@2@@__crt_stdio_output@@AAE_NXZ 10084960 f i libucrtd:output.obj
 0001:00083c30       ?type_case_a@?$output_processor@_WV?$stream_output_adapter@_W@__crt_stdio_output@@V?$standard_base@_WV?$stream_output_adapter@_W@__crt_stdio_output@@@2@@__crt_stdio_output@@AAE_NXZ 10084c30 f i libucrtd:output.obj
 0001:00083f00       ?type_case_a@?$output_processor@_WV?$string_output_adapter@_W@__crt_stdio_output@@V?$format_validation_base@_WV?$string_output_adapter@_W@__crt_stdio_output@@@2@@__crt_stdio_output@@AAE_NXZ 10084f00 f i libucrtd:output.obj
 0001:000841d0       ?type_case_a@?$output_processor@_WV?$string_output_adapter@_W@__crt_stdio_output@@V?$positional_parameter_base@_WV?$string_output_adapter@_W@__crt_stdio_output@@@2@@__crt_stdio_output@@AAE_NXZ 100851d0 f i libucrtd:output.obj
 0001:000844a0       ?type_case_a@?$output_processor@_WV?$string_output_adapter@_W@__crt_stdio_output@@V?$standard_base@_WV?$string_output_adapter@_W@__crt_stdio_output@@@2@@__crt_stdio_output@@AAE_NXZ 100854a0 f i libucrtd:output.obj
 0001:00084770       ?type_case_c@?$output_processor@DV?$stream_output_adapter@D@__crt_stdio_output@@V?$format_validation_base@DV?$stream_output_adapter@D@__crt_stdio_output@@@2@@__crt_stdio_output@@AAE_NXZ 10085770 f i libucrtd:output.obj
 0001:00084790       ?type_case_c@?$output_processor@DV?$stream_output_adapter@D@__crt_stdio_output@@V?$positional_parameter_base@DV?$stream_output_adapter@D@__crt_stdio_output@@@2@@__crt_stdio_output@@AAE_NXZ 10085790 f i libucrtd:output.obj
 0001:000847b0       ?type_case_c@?$output_processor@DV?$stream_output_adapter@D@__crt_stdio_output@@V?$standard_base@DV?$stream_output_adapter@D@__crt_stdio_output@@@2@@__crt_stdio_output@@AAE_NXZ 100857b0 f i libucrtd:output.obj
 0001:000847d0       ?type_case_c@?$output_processor@DV?$string_output_adapter@D@__crt_stdio_output@@V?$format_validation_base@DV?$string_output_adapter@D@__crt_stdio_output@@@2@@__crt_stdio_output@@AAE_NXZ 100857d0 f i libucrtd:output.obj
 0001:000847f0       ?type_case_c@?$output_processor@DV?$string_output_adapter@D@__crt_stdio_output@@V?$positional_parameter_base@DV?$string_output_adapter@D@__crt_stdio_output@@@2@@__crt_stdio_output@@AAE_NXZ 100857f0 f i libucrtd:output.obj
 0001:00084810       ?type_case_c@?$output_processor@DV?$string_output_adapter@D@__crt_stdio_output@@V?$standard_base@DV?$string_output_adapter@D@__crt_stdio_output@@@2@@__crt_stdio_output@@AAE_NXZ 10085810 f i libucrtd:output.obj
 0001:00084830       ?type_case_c@?$output_processor@_WV?$stream_output_adapter@_W@__crt_stdio_output@@V?$format_validation_base@_WV?$stream_output_adapter@_W@__crt_stdio_output@@@2@@__crt_stdio_output@@AAE_NXZ 10085830 f i libucrtd:output.obj
 0001:00084850       ?type_case_c@?$output_processor@_WV?$stream_output_adapter@_W@__crt_stdio_output@@V?$positional_parameter_base@_WV?$stream_output_adapter@_W@__crt_stdio_output@@@2@@__crt_stdio_output@@AAE_NXZ 10085850 f i libucrtd:output.obj
 0001:00084870       ?type_case_c@?$output_processor@_WV?$stream_output_adapter@_W@__crt_stdio_output@@V?$standard_base@_WV?$stream_output_adapter@_W@__crt_stdio_output@@@2@@__crt_stdio_output@@AAE_NXZ 10085870 f i libucrtd:output.obj
 0001:00084890       ?type_case_c@?$output_processor@_WV?$string_output_adapter@_W@__crt_stdio_output@@V?$format_validation_base@_WV?$string_output_adapter@_W@__crt_stdio_output@@@2@@__crt_stdio_output@@AAE_NXZ 10085890 f i libucrtd:output.obj
 0001:000848b0       ?type_case_c@?$output_processor@_WV?$string_output_adapter@_W@__crt_stdio_output@@V?$positional_parameter_base@_WV?$string_output_adapter@_W@__crt_stdio_output@@@2@@__crt_stdio_output@@AAE_NXZ 100858b0 f i libucrtd:output.obj
 0001:000848d0       ?type_case_c@?$output_processor@_WV?$string_output_adapter@_W@__crt_stdio_output@@V?$standard_base@_WV?$string_output_adapter@_W@__crt_stdio_output@@@2@@__crt_stdio_output@@AAE_NXZ 100858d0 f i libucrtd:output.obj
 0001:000848f0       ?type_case_c_tchar@?$output_processor@DV?$stream_output_adapter@D@__crt_stdio_output@@V?$format_validation_base@DV?$stream_output_adapter@D@__crt_stdio_output@@@2@@__crt_stdio_output@@AAE_ND@Z 100858f0 f i libucrtd:output.obj
 0001:00084a20       ?type_case_c_tchar@?$output_processor@DV?$stream_output_adapter@D@__crt_stdio_output@@V?$positional_parameter_base@DV?$stream_output_adapter@D@__crt_stdio_output@@@2@@__crt_stdio_output@@AAE_ND@Z 10085a20 f i libucrtd:output.obj
 0001:00084b50       ?type_case_c_tchar@?$output_processor@DV?$stream_output_adapter@D@__crt_stdio_output@@V?$standard_base@DV?$stream_output_adapter@D@__crt_stdio_output@@@2@@__crt_stdio_output@@AAE_ND@Z 10085b50 f i libucrtd:output.obj
 0001:00084c80       ?type_case_c_tchar@?$output_processor@DV?$string_output_adapter@D@__crt_stdio_output@@V?$format_validation_base@DV?$string_output_adapter@D@__crt_stdio_output@@@2@@__crt_stdio_output@@AAE_ND@Z 10085c80 f i libucrtd:output.obj
 0001:00084db0       ?type_case_c_tchar@?$output_processor@DV?$string_output_adapter@D@__crt_stdio_output@@V?$positional_parameter_base@DV?$string_output_adapter@D@__crt_stdio_output@@@2@@__crt_stdio_output@@AAE_ND@Z 10085db0 f i libucrtd:output.obj
 0001:00084ee0       ?type_case_c_tchar@?$output_processor@DV?$string_output_adapter@D@__crt_stdio_output@@V?$standard_base@DV?$string_output_adapter@D@__crt_stdio_output@@@2@@__crt_stdio_output@@AAE_ND@Z 10085ee0 f i libucrtd:output.obj
 0001:00085010       ?type_case_c_tchar@?$output_processor@_WV?$stream_output_adapter@_W@__crt_stdio_output@@V?$format_validation_base@_WV?$stream_output_adapter@_W@__crt_stdio_output@@@2@@__crt_stdio_output@@AAE_N_W@Z 10086010 f i libucrtd:output.obj
 0001:00085130       ?type_case_c_tchar@?$output_processor@_WV?$stream_output_adapter@_W@__crt_stdio_output@@V?$positional_parameter_base@_WV?$stream_output_adapter@_W@__crt_stdio_output@@@2@@__crt_stdio_output@@AAE_N_W@Z 10086130 f i libucrtd:output.obj
 0001:00085250       ?type_case_c_tchar@?$output_processor@_WV?$stream_output_adapter@_W@__crt_stdio_output@@V?$standard_base@_WV?$stream_output_adapter@_W@__crt_stdio_output@@@2@@__crt_stdio_output@@AAE_N_W@Z 10086250 f i libucrtd:output.obj
 0001:00085370       ?type_case_c_tchar@?$output_processor@_WV?$string_output_adapter@_W@__crt_stdio_output@@V?$format_validation_base@_WV?$string_output_adapter@_W@__crt_stdio_output@@@2@@__crt_stdio_output@@AAE_N_W@Z 10086370 f i libucrtd:output.obj
 0001:00085490       ?type_case_c_tchar@?$output_processor@_WV?$string_output_adapter@_W@__crt_stdio_output@@V?$positional_parameter_base@_WV?$string_output_adapter@_W@__crt_stdio_output@@@2@@__crt_stdio_output@@AAE_N_W@Z 10086490 f i libucrtd:output.obj
 0001:000855b0       ?type_case_c_tchar@?$output_processor@_WV?$string_output_adapter@_W@__crt_stdio_output@@V?$standard_base@_WV?$string_output_adapter@_W@__crt_stdio_output@@@2@@__crt_stdio_output@@AAE_N_W@Z 100865b0 f i libucrtd:output.obj
 0001:000856d0       ?type_case_d@?$output_processor@DV?$stream_output_adapter@D@__crt_stdio_output@@V?$format_validation_base@DV?$stream_output_adapter@D@__crt_stdio_output@@@2@@__crt_stdio_output@@AAE_NXZ 100866d0 f i libucrtd:output.obj
 0001:00085700       ?type_case_d@?$output_processor@DV?$stream_output_adapter@D@__crt_stdio_output@@V?$positional_parameter_base@DV?$stream_output_adapter@D@__crt_stdio_output@@@2@@__crt_stdio_output@@AAE_NXZ 10086700 f i libucrtd:output.obj
 0001:00085730       ?type_case_d@?$output_processor@DV?$stream_output_adapter@D@__crt_stdio_output@@V?$standard_base@DV?$stream_output_adapter@D@__crt_stdio_output@@@2@@__crt_stdio_output@@AAE_NXZ 10086730 f i libucrtd:output.obj
 0001:00085760       ?type_case_d@?$output_processor@DV?$string_output_adapter@D@__crt_stdio_output@@V?$format_validation_base@DV?$string_output_adapter@D@__crt_stdio_output@@@2@@__crt_stdio_output@@AAE_NXZ 10086760 f i libucrtd:output.obj
 0001:00085790       ?type_case_d@?$output_processor@DV?$string_output_adapter@D@__crt_stdio_output@@V?$positional_parameter_base@DV?$string_output_adapter@D@__crt_stdio_output@@@2@@__crt_stdio_output@@AAE_NXZ 10086790 f i libucrtd:output.obj
 0001:000857c0       ?type_case_d@?$output_processor@DV?$string_output_adapter@D@__crt_stdio_output@@V?$standard_base@DV?$string_output_adapter@D@__crt_stdio_output@@@2@@__crt_stdio_output@@AAE_NXZ 100867c0 f i libucrtd:output.obj
 0001:000857f0       ?type_case_d@?$output_processor@_WV?$stream_output_adapter@_W@__crt_stdio_output@@V?$format_validation_base@_WV?$stream_output_adapter@_W@__crt_stdio_output@@@2@@__crt_stdio_output@@AAE_NXZ 100867f0 f i libucrtd:output.obj
 0001:00085820       ?type_case_d@?$output_processor@_WV?$stream_output_adapter@_W@__crt_stdio_output@@V?$positional_parameter_base@_WV?$stream_output_adapter@_W@__crt_stdio_output@@@2@@__crt_stdio_output@@AAE_NXZ 10086820 f i libucrtd:output.obj
 0001:00085850       ?type_case_d@?$output_processor@_WV?$stream_output_adapter@_W@__crt_stdio_output@@V?$standard_base@_WV?$stream_output_adapter@_W@__crt_stdio_output@@@2@@__crt_stdio_output@@AAE_NXZ 10086850 f i libucrtd:output.obj
 0001:00085880       ?type_case_d@?$output_processor@_WV?$string_output_adapter@_W@__crt_stdio_output@@V?$format_validation_base@_WV?$string_output_adapter@_W@__crt_stdio_output@@@2@@__crt_stdio_output@@AAE_NXZ 10086880 f i libucrtd:output.obj
 0001:000858b0       ?type_case_d@?$output_processor@_WV?$string_output_adapter@_W@__crt_stdio_output@@V?$positional_parameter_base@_WV?$string_output_adapter@_W@__crt_stdio_output@@@2@@__crt_stdio_output@@AAE_NXZ 100868b0 f i libucrtd:output.obj
 0001:000858e0       ?type_case_d@?$output_processor@_WV?$string_output_adapter@_W@__crt_stdio_output@@V?$standard_base@_WV?$string_output_adapter@_W@__crt_stdio_output@@@2@@__crt_stdio_output@@AAE_NXZ 100868e0 f i libucrtd:output.obj
 0001:00085910       ?type_case_n@?$output_processor@DV?$stream_output_adapter@D@__crt_stdio_output@@V?$format_validation_base@DV?$stream_output_adapter@D@__crt_stdio_output@@@2@@__crt_stdio_output@@AAE_NXZ 10086910 f i libucrtd:output.obj
 0001:00085b30       ?type_case_n@?$output_processor@DV?$stream_output_adapter@D@__crt_stdio_output@@V?$positional_parameter_base@DV?$stream_output_adapter@D@__crt_stdio_output@@@2@@__crt_stdio_output@@AAE_NXZ 10086b30 f i libucrtd:output.obj
 0001:00085d50       ?type_case_n@?$output_processor@DV?$stream_output_adapter@D@__crt_stdio_output@@V?$standard_base@DV?$stream_output_adapter@D@__crt_stdio_output@@@2@@__crt_stdio_output@@AAE_NXZ 10086d50 f i libucrtd:output.obj
 0001:00085f70       ?type_case_n@?$output_processor@DV?$string_output_adapter@D@__crt_stdio_output@@V?$format_validation_base@DV?$string_output_adapter@D@__crt_stdio_output@@@2@@__crt_stdio_output@@AAE_NXZ 10086f70 f i libucrtd:output.obj
 0001:00086190       ?type_case_n@?$output_processor@DV?$string_output_adapter@D@__crt_stdio_output@@V?$positional_parameter_base@DV?$string_output_adapter@D@__crt_stdio_output@@@2@@__crt_stdio_output@@AAE_NXZ 10087190 f i libucrtd:output.obj
 0001:000863b0       ?type_case_n@?$output_processor@DV?$string_output_adapter@D@__crt_stdio_output@@V?$standard_base@DV?$string_output_adapter@D@__crt_stdio_output@@@2@@__crt_stdio_output@@AAE_NXZ 100873b0 f i libucrtd:output.obj
 0001:000865d0       ?type_case_n@?$output_processor@_WV?$stream_output_adapter@_W@__crt_stdio_output@@V?$format_validation_base@_WV?$stream_output_adapter@_W@__crt_stdio_output@@@2@@__crt_stdio_output@@AAE_NXZ 100875d0 f i libucrtd:output.obj
 0001:000867f0       ?type_case_n@?$output_processor@_WV?$stream_output_adapter@_W@__crt_stdio_output@@V?$positional_parameter_base@_WV?$stream_output_adapter@_W@__crt_stdio_output@@@2@@__crt_stdio_output@@AAE_NXZ 100877f0 f i libucrtd:output.obj
 0001:00086a10       ?type_case_n@?$output_processor@_WV?$stream_output_adapter@_W@__crt_stdio_output@@V?$standard_base@_WV?$stream_output_adapter@_W@__crt_stdio_output@@@2@@__crt_stdio_output@@AAE_NXZ 10087a10 f i libucrtd:output.obj
 0001:00086c30       ?type_case_n@?$output_processor@_WV?$string_output_adapter@_W@__crt_stdio_output@@V?$format_validation_base@_WV?$string_output_adapter@_W@__crt_stdio_output@@@2@@__crt_stdio_output@@AAE_NXZ 10087c30 f i libucrtd:output.obj
 0001:00086e50       ?type_case_n@?$output_processor@_WV?$string_output_adapter@_W@__crt_stdio_output@@V?$positional_parameter_base@_WV?$string_output_adapter@_W@__crt_stdio_output@@@2@@__crt_stdio_output@@AAE_NXZ 10087e50 f i libucrtd:output.obj
 0001:00087070       ?type_case_n@?$output_processor@_WV?$string_output_adapter@_W@__crt_stdio_output@@V?$standard_base@_WV?$string_output_adapter@_W@__crt_stdio_output@@@2@@__crt_stdio_output@@AAE_NXZ 10088070 f i libucrtd:output.obj
 0001:00087290       ?type_case_o@?$output_processor@DV?$stream_output_adapter@D@__crt_stdio_output@@V?$format_validation_base@DV?$stream_output_adapter@D@__crt_stdio_output@@@2@@__crt_stdio_output@@AAE_NXZ 10088290 f i libucrtd:output.obj
 0001:000872d0       ?type_case_o@?$output_processor@DV?$stream_output_adapter@D@__crt_stdio_output@@V?$positional_parameter_base@DV?$stream_output_adapter@D@__crt_stdio_output@@@2@@__crt_stdio_output@@AAE_NXZ 100882d0 f i libucrtd:output.obj
 0001:00087310       ?type_case_o@?$output_processor@DV?$stream_output_adapter@D@__crt_stdio_output@@V?$standard_base@DV?$stream_output_adapter@D@__crt_stdio_output@@@2@@__crt_stdio_output@@AAE_NXZ 10088310 f i libucrtd:output.obj
 0001:00087350       ?type_case_o@?$output_processor@DV?$string_output_adapter@D@__crt_stdio_output@@V?$format_validation_base@DV?$string_output_adapter@D@__crt_stdio_output@@@2@@__crt_stdio_output@@AAE_NXZ 10088350 f i libucrtd:output.obj
 0001:00087390       ?type_case_o@?$output_processor@DV?$string_output_adapter@D@__crt_stdio_output@@V?$positional_parameter_base@DV?$string_output_adapter@D@__crt_stdio_output@@@2@@__crt_stdio_output@@AAE_NXZ 10088390 f i libucrtd:output.obj
 0001:000873d0       ?type_case_o@?$output_processor@DV?$string_output_adapter@D@__crt_stdio_output@@V?$standard_base@DV?$string_output_adapter@D@__crt_stdio_output@@@2@@__crt_stdio_output@@AAE_NXZ 100883d0 f i libucrtd:output.obj
 0001:00087410       ?type_case_o@?$output_processor@_WV?$stream_output_adapter@_W@__crt_stdio_output@@V?$format_validation_base@_WV?$stream_output_adapter@_W@__crt_stdio_output@@@2@@__crt_stdio_output@@AAE_NXZ 10088410 f i libucrtd:output.obj
 0001:00087450       ?type_case_o@?$output_processor@_WV?$stream_output_adapter@_W@__crt_stdio_output@@V?$positional_parameter_base@_WV?$stream_output_adapter@_W@__crt_stdio_output@@@2@@__crt_stdio_output@@AAE_NXZ 10088450 f i libucrtd:output.obj
 0001:00087490       ?type_case_o@?$output_processor@_WV?$stream_output_adapter@_W@__crt_stdio_output@@V?$standard_base@_WV?$stream_output_adapter@_W@__crt_stdio_output@@@2@@__crt_stdio_output@@AAE_NXZ 10088490 f i libucrtd:output.obj
 0001:000874d0       ?type_case_o@?$output_processor@_WV?$string_output_adapter@_W@__crt_stdio_output@@V?$format_validation_base@_WV?$string_output_adapter@_W@__crt_stdio_output@@@2@@__crt_stdio_output@@AAE_NXZ 100884d0 f i libucrtd:output.obj
 0001:00087510       ?type_case_o@?$output_processor@_WV?$string_output_adapter@_W@__crt_stdio_output@@V?$positional_parameter_base@_WV?$string_output_adapter@_W@__crt_stdio_output@@@2@@__crt_stdio_output@@AAE_NXZ 10088510 f i libucrtd:output.obj
 0001:00087550       ?type_case_o@?$output_processor@_WV?$string_output_adapter@_W@__crt_stdio_output@@V?$standard_base@_WV?$string_output_adapter@_W@__crt_stdio_output@@@2@@__crt_stdio_output@@AAE_NXZ 10088550 f i libucrtd:output.obj
 0001:00087590       ?type_case_p@?$output_processor@DV?$stream_output_adapter@D@__crt_stdio_output@@V?$format_validation_base@DV?$stream_output_adapter@D@__crt_stdio_output@@@2@@__crt_stdio_output@@AAE_NXZ 10088590 f i libucrtd:output.obj
 0001:000875c0       ?type_case_p@?$output_processor@DV?$stream_output_adapter@D@__crt_stdio_output@@V?$positional_parameter_base@DV?$stream_output_adapter@D@__crt_stdio_output@@@2@@__crt_stdio_output@@AAE_NXZ 100885c0 f i libucrtd:output.obj
 0001:000875f0       ?type_case_p@?$output_processor@DV?$stream_output_adapter@D@__crt_stdio_output@@V?$standard_base@DV?$stream_output_adapter@D@__crt_stdio_output@@@2@@__crt_stdio_output@@AAE_NXZ 100885f0 f i libucrtd:output.obj
 0001:00087620       ?type_case_p@?$output_processor@DV?$string_output_adapter@D@__crt_stdio_output@@V?$format_validation_base@DV?$string_output_adapter@D@__crt_stdio_output@@@2@@__crt_stdio_output@@AAE_NXZ 10088620 f i libucrtd:output.obj
 0001:00087650       ?type_case_p@?$output_processor@DV?$string_output_adapter@D@__crt_stdio_output@@V?$positional_parameter_base@DV?$string_output_adapter@D@__crt_stdio_output@@@2@@__crt_stdio_output@@AAE_NXZ 10088650 f i libucrtd:output.obj
 0001:00087680       ?type_case_p@?$output_processor@DV?$string_output_adapter@D@__crt_stdio_output@@V?$standard_base@DV?$string_output_adapter@D@__crt_stdio_output@@@2@@__crt_stdio_output@@AAE_NXZ 10088680 f i libucrtd:output.obj
 0001:000876b0       ?type_case_p@?$output_processor@_WV?$stream_output_adapter@_W@__crt_stdio_output@@V?$format_validation_base@_WV?$stream_output_adapter@_W@__crt_stdio_output@@@2@@__crt_stdio_output@@AAE_NXZ 100886b0 f i libucrtd:output.obj
 0001:000876e0       ?type_case_p@?$output_processor@_WV?$stream_output_adapter@_W@__crt_stdio_output@@V?$positional_parameter_base@_WV?$stream_output_adapter@_W@__crt_stdio_output@@@2@@__crt_stdio_output@@AAE_NXZ 100886e0 f i libucrtd:output.obj
 0001:00087710       ?type_case_p@?$output_processor@_WV?$stream_output_adapter@_W@__crt_stdio_output@@V?$standard_base@_WV?$stream_output_adapter@_W@__crt_stdio_output@@@2@@__crt_stdio_output@@AAE_NXZ 10088710 f i libucrtd:output.obj
 0001:00087740       ?type_case_p@?$output_processor@_WV?$string_output_adapter@_W@__crt_stdio_output@@V?$format_validation_base@_WV?$string_output_adapter@_W@__crt_stdio_output@@@2@@__crt_stdio_output@@AAE_NXZ 10088740 f i libucrtd:output.obj
 0001:00087770       ?type_case_p@?$output_processor@_WV?$string_output_adapter@_W@__crt_stdio_output@@V?$positional_parameter_base@_WV?$string_output_adapter@_W@__crt_stdio_output@@@2@@__crt_stdio_output@@AAE_NXZ 10088770 f i libucrtd:output.obj
 0001:000877a0       ?type_case_p@?$output_processor@_WV?$string_output_adapter@_W@__crt_stdio_output@@V?$standard_base@_WV?$string_output_adapter@_W@__crt_stdio_output@@@2@@__crt_stdio_output@@AAE_NXZ 100887a0 f i libucrtd:output.obj
 0001:000877d0       ?type_case_s@?$output_processor@DV?$stream_output_adapter@D@__crt_stdio_output@@V?$format_validation_base@DV?$stream_output_adapter@D@__crt_stdio_output@@@2@@__crt_stdio_output@@AAE_NXZ 100887d0 f i libucrtd:output.obj
 0001:000878c0       ?type_case_s@?$output_processor@DV?$stream_output_adapter@D@__crt_stdio_output@@V?$positional_parameter_base@DV?$stream_output_adapter@D@__crt_stdio_output@@@2@@__crt_stdio_output@@AAE_NXZ 100888c0 f i libucrtd:output.obj
 0001:000879b0       ?type_case_s@?$output_processor@DV?$stream_output_adapter@D@__crt_stdio_output@@V?$standard_base@DV?$stream_output_adapter@D@__crt_stdio_output@@@2@@__crt_stdio_output@@AAE_NXZ 100889b0 f i libucrtd:output.obj
 0001:00087aa0       ?type_case_s@?$output_processor@DV?$string_output_adapter@D@__crt_stdio_output@@V?$format_validation_base@DV?$string_output_adapter@D@__crt_stdio_output@@@2@@__crt_stdio_output@@AAE_NXZ 10088aa0 f i libucrtd:output.obj
 0001:00087b90       ?type_case_s@?$output_processor@DV?$string_output_adapter@D@__crt_stdio_output@@V?$positional_parameter_base@DV?$string_output_adapter@D@__crt_stdio_output@@@2@@__crt_stdio_output@@AAE_NXZ 10088b90 f i libucrtd:output.obj
 0001:00087c80       ?type_case_s@?$output_processor@DV?$string_output_adapter@D@__crt_stdio_output@@V?$standard_base@DV?$string_output_adapter@D@__crt_stdio_output@@@2@@__crt_stdio_output@@AAE_NXZ 10088c80 f i libucrtd:output.obj
 0001:00087d70       ?type_case_s@?$output_processor@_WV?$stream_output_adapter@_W@__crt_stdio_output@@V?$format_validation_base@_WV?$stream_output_adapter@_W@__crt_stdio_output@@@2@@__crt_stdio_output@@AAE_NXZ 10088d70 f i libucrtd:output.obj
 0001:00087e60       ?type_case_s@?$output_processor@_WV?$stream_output_adapter@_W@__crt_stdio_output@@V?$positional_parameter_base@_WV?$stream_output_adapter@_W@__crt_stdio_output@@@2@@__crt_stdio_output@@AAE_NXZ 10088e60 f i libucrtd:output.obj
 0001:00087f50       ?type_case_s@?$output_processor@_WV?$stream_output_adapter@_W@__crt_stdio_output@@V?$standard_base@_WV?$stream_output_adapter@_W@__crt_stdio_output@@@2@@__crt_stdio_output@@AAE_NXZ 10088f50 f i libucrtd:output.obj
 0001:00088040       ?type_case_s@?$output_processor@_WV?$string_output_adapter@_W@__crt_stdio_output@@V?$format_validation_base@_WV?$string_output_adapter@_W@__crt_stdio_output@@@2@@__crt_stdio_output@@AAE_NXZ 10089040 f i libucrtd:output.obj
 0001:00088130       ?type_case_s@?$output_processor@_WV?$string_output_adapter@_W@__crt_stdio_output@@V?$positional_parameter_base@_WV?$string_output_adapter@_W@__crt_stdio_output@@@2@@__crt_stdio_output@@AAE_NXZ 10089130 f i libucrtd:output.obj
 0001:00088220       ?type_case_s@?$output_processor@_WV?$string_output_adapter@_W@__crt_stdio_output@@V?$standard_base@_WV?$string_output_adapter@_W@__crt_stdio_output@@@2@@__crt_stdio_output@@AAE_NXZ 10089220 f i libucrtd:output.obj
 0001:00088310       ?type_case_s_compute_narrow_string_length@?$output_processor@DV?$stream_output_adapter@D@__crt_stdio_output@@V?$format_validation_base@DV?$stream_output_adapter@D@__crt_stdio_output@@@2@@__crt_stdio_output@@AAEHHD@Z 10089310 f i libucrtd:output.obj
 0001:00088340       ?type_case_s_compute_narrow_string_length@?$output_processor@DV?$stream_output_adapter@D@__crt_stdio_output@@V?$positional_parameter_base@DV?$stream_output_adapter@D@__crt_stdio_output@@@2@@__crt_stdio_output@@AAEHHD@Z 10089340 f i libucrtd:output.obj
 0001:00088370       ?type_case_s_compute_narrow_string_length@?$output_processor@DV?$stream_output_adapter@D@__crt_stdio_output@@V?$standard_base@DV?$stream_output_adapter@D@__crt_stdio_output@@@2@@__crt_stdio_output@@AAEHHD@Z 10089370 f i libucrtd:output.obj
 0001:000883a0       ?type_case_s_compute_narrow_string_length@?$output_processor@DV?$string_output_adapter@D@__crt_stdio_output@@V?$format_validation_base@DV?$string_output_adapter@D@__crt_stdio_output@@@2@@__crt_stdio_output@@AAEHHD@Z 100893a0 f i libucrtd:output.obj
 0001:000883d0       ?type_case_s_compute_narrow_string_length@?$output_processor@DV?$string_output_adapter@D@__crt_stdio_output@@V?$positional_parameter_base@DV?$string_output_adapter@D@__crt_stdio_output@@@2@@__crt_stdio_output@@AAEHHD@Z 100893d0 f i libucrtd:output.obj
 0001:00088400       ?type_case_s_compute_narrow_string_length@?$output_processor@DV?$string_output_adapter@D@__crt_stdio_output@@V?$standard_base@DV?$string_output_adapter@D@__crt_stdio_output@@@2@@__crt_stdio_output@@AAEHHD@Z 10089400 f i libucrtd:output.obj
 0001:00088430       ?type_case_s_compute_narrow_string_length@?$output_processor@_WV?$stream_output_adapter@_W@__crt_stdio_output@@V?$format_validation_base@_WV?$stream_output_adapter@_W@__crt_stdio_output@@@2@@__crt_stdio_output@@AAEHH_W@Z 10089430 f i libucrtd:output.obj
 0001:000884b0       ?type_case_s_compute_narrow_string_length@?$output_processor@_WV?$stream_output_adapter@_W@__crt_stdio_output@@V?$positional_parameter_base@_WV?$stream_output_adapter@_W@__crt_stdio_output@@@2@@__crt_stdio_output@@AAEHH_W@Z 100894b0 f i libucrtd:output.obj
 0001:00088530       ?type_case_s_compute_narrow_string_length@?$output_processor@_WV?$stream_output_adapter@_W@__crt_stdio_output@@V?$standard_base@_WV?$stream_output_adapter@_W@__crt_stdio_output@@@2@@__crt_stdio_output@@AAEHH_W@Z 10089530 f i libucrtd:output.obj
 0001:000885b0       ?type_case_s_compute_narrow_string_length@?$output_processor@_WV?$string_output_adapter@_W@__crt_stdio_output@@V?$format_validation_base@_WV?$string_output_adapter@_W@__crt_stdio_output@@@2@@__crt_stdio_output@@AAEHH_W@Z 100895b0 f i libucrtd:output.obj
 0001:00088630       ?type_case_s_compute_narrow_string_length@?$output_processor@_WV?$string_output_adapter@_W@__crt_stdio_output@@V?$positional_parameter_base@_WV?$string_output_adapter@_W@__crt_stdio_output@@@2@@__crt_stdio_output@@AAEHH_W@Z 10089630 f i libucrtd:output.obj
 0001:000886b0       ?type_case_s_compute_narrow_string_length@?$output_processor@_WV?$string_output_adapter@_W@__crt_stdio_output@@V?$standard_base@_WV?$string_output_adapter@_W@__crt_stdio_output@@@2@@__crt_stdio_output@@AAEHH_W@Z 100896b0 f i libucrtd:output.obj
 0001:00088730       ?type_case_u@?$output_processor@DV?$stream_output_adapter@D@__crt_stdio_output@@V?$format_validation_base@DV?$stream_output_adapter@D@__crt_stdio_output@@@2@@__crt_stdio_output@@AAE_NXZ 10089730 f i libucrtd:output.obj
 0001:00088750       ?type_case_u@?$output_processor@DV?$stream_output_adapter@D@__crt_stdio_output@@V?$positional_parameter_base@DV?$stream_output_adapter@D@__crt_stdio_output@@@2@@__crt_stdio_output@@AAE_NXZ 10089750 f i libucrtd:output.obj
 0001:00088770       ?type_case_u@?$output_processor@DV?$stream_output_adapter@D@__crt_stdio_output@@V?$standard_base@DV?$stream_output_adapter@D@__crt_stdio_output@@@2@@__crt_stdio_output@@AAE_NXZ 10089770 f i libucrtd:output.obj
 0001:00088790       ?type_case_u@?$output_processor@DV?$string_output_adapter@D@__crt_stdio_output@@V?$format_validation_base@DV?$string_output_adapter@D@__crt_stdio_output@@@2@@__crt_stdio_output@@AAE_NXZ 10089790 f i libucrtd:output.obj
 0001:000887b0       ?type_case_u@?$output_processor@DV?$string_output_adapter@D@__crt_stdio_output@@V?$positional_parameter_base@DV?$string_output_adapter@D@__crt_stdio_output@@@2@@__crt_stdio_output@@AAE_NXZ 100897b0 f i libucrtd:output.obj
 0001:000887d0       ?type_case_u@?$output_processor@DV?$string_output_adapter@D@__crt_stdio_output@@V?$standard_base@DV?$string_output_adapter@D@__crt_stdio_output@@@2@@__crt_stdio_output@@AAE_NXZ 100897d0 f i libucrtd:output.obj
 0001:000887f0       ?type_case_u@?$output_processor@_WV?$stream_output_adapter@_W@__crt_stdio_output@@V?$format_validation_base@_WV?$stream_output_adapter@_W@__crt_stdio_output@@@2@@__crt_stdio_output@@AAE_NXZ 100897f0 f i libucrtd:output.obj
 0001:00088810       ?type_case_u@?$output_processor@_WV?$stream_output_adapter@_W@__crt_stdio_output@@V?$positional_parameter_base@_WV?$stream_output_adapter@_W@__crt_stdio_output@@@2@@__crt_stdio_output@@AAE_NXZ 10089810 f i libucrtd:output.obj
 0001:00088830       ?type_case_u@?$output_processor@_WV?$stream_output_adapter@_W@__crt_stdio_output@@V?$standard_base@_WV?$stream_output_adapter@_W@__crt_stdio_output@@@2@@__crt_stdio_output@@AAE_NXZ 10089830 f i libucrtd:output.obj
 0001:00088850       ?type_case_u@?$output_processor@_WV?$string_output_adapter@_W@__crt_stdio_output@@V?$format_validation_base@_WV?$string_output_adapter@_W@__crt_stdio_output@@@2@@__crt_stdio_output@@AAE_NXZ 10089850 f i libucrtd:output.obj
 0001:00088870       ?type_case_u@?$output_processor@_WV?$string_output_adapter@_W@__crt_stdio_output@@V?$positional_parameter_base@_WV?$string_output_adapter@_W@__crt_stdio_output@@@2@@__crt_stdio_output@@AAE_NXZ 10089870 f i libucrtd:output.obj
 0001:00088890       ?type_case_u@?$output_processor@_WV?$string_output_adapter@_W@__crt_stdio_output@@V?$standard_base@_WV?$string_output_adapter@_W@__crt_stdio_output@@@2@@__crt_stdio_output@@AAE_NXZ 10089890 f i libucrtd:output.obj
 0001:000888b0       ?type_case_x@?$output_processor@DV?$stream_output_adapter@D@__crt_stdio_output@@V?$format_validation_base@DV?$stream_output_adapter@D@__crt_stdio_output@@@2@@__crt_stdio_output@@AAE_NXZ 100898b0 f i libucrtd:output.obj
 0001:000888d0       ?type_case_x@?$output_processor@DV?$stream_output_adapter@D@__crt_stdio_output@@V?$positional_parameter_base@DV?$stream_output_adapter@D@__crt_stdio_output@@@2@@__crt_stdio_output@@AAE_NXZ 100898d0 f i libucrtd:output.obj
 0001:000888f0       ?type_case_x@?$output_processor@DV?$stream_output_adapter@D@__crt_stdio_output@@V?$standard_base@DV?$stream_output_adapter@D@__crt_stdio_output@@@2@@__crt_stdio_output@@AAE_NXZ 100898f0 f i libucrtd:output.obj
 0001:00088910       ?type_case_x@?$output_processor@DV?$string_output_adapter@D@__crt_stdio_output@@V?$format_validation_base@DV?$string_output_adapter@D@__crt_stdio_output@@@2@@__crt_stdio_output@@AAE_NXZ 10089910 f i libucrtd:output.obj
 0001:00088930       ?type_case_x@?$output_processor@DV?$string_output_adapter@D@__crt_stdio_output@@V?$positional_parameter_base@DV?$string_output_adapter@D@__crt_stdio_output@@@2@@__crt_stdio_output@@AAE_NXZ 10089930 f i libucrtd:output.obj
 0001:00088950       ?type_case_x@?$output_processor@DV?$string_output_adapter@D@__crt_stdio_output@@V?$standard_base@DV?$string_output_adapter@D@__crt_stdio_output@@@2@@__crt_stdio_output@@AAE_NXZ 10089950 f i libucrtd:output.obj
 0001:00088970       ?type_case_x@?$output_processor@_WV?$stream_output_adapter@_W@__crt_stdio_output@@V?$format_validation_base@_WV?$stream_output_adapter@_W@__crt_stdio_output@@@2@@__crt_stdio_output@@AAE_NXZ 10089970 f i libucrtd:output.obj
 0001:00088990       ?type_case_x@?$output_processor@_WV?$stream_output_adapter@_W@__crt_stdio_output@@V?$positional_parameter_base@_WV?$stream_output_adapter@_W@__crt_stdio_output@@@2@@__crt_stdio_output@@AAE_NXZ 10089990 f i libucrtd:output.obj
 0001:000889b0       ?type_case_x@?$output_processor@_WV?$stream_output_adapter@_W@__crt_stdio_output@@V?$standard_base@_WV?$stream_output_adapter@_W@__crt_stdio_output@@@2@@__crt_stdio_output@@AAE_NXZ 100899b0 f i libucrtd:output.obj
 0001:000889d0       ?type_case_x@?$output_processor@_WV?$string_output_adapter@_W@__crt_stdio_output@@V?$format_validation_base@_WV?$string_output_adapter@_W@__crt_stdio_output@@@2@@__crt_stdio_output@@AAE_NXZ 100899d0 f i libucrtd:output.obj
 0001:000889f0       ?type_case_x@?$output_processor@_WV?$string_output_adapter@_W@__crt_stdio_output@@V?$positional_parameter_base@_WV?$string_output_adapter@_W@__crt_stdio_output@@@2@@__crt_stdio_output@@AAE_NXZ 100899f0 f i libucrtd:output.obj
 0001:00088a10       ?type_case_x@?$output_processor@_WV?$string_output_adapter@_W@__crt_stdio_output@@V?$standard_base@_WV?$string_output_adapter@_W@__crt_stdio_output@@@2@@__crt_stdio_output@@AAE_NXZ 10089a10 f i libucrtd:output.obj
 0001:00088a30       ?unget@?$c_string_character_source@D@__crt_strtox@@QAEXD@Z 10089a30 f i libucrtd:output.obj
 0001:00088ae0       ?unget@?$c_string_character_source@_W@__crt_strtox@@QAEX_W@Z 10089ae0 f i libucrtd:output.obj
 0001:00088b90       ?unsafe_value@?$cached@H@__crt_cached_ptd_host@@QAEHXZ 10089b90 f i libucrtd:output.obj
 0001:00088bb0       ?unsafe_value@?$cached@K@__crt_cached_ptd_host@@QAEKXZ 10089bb0 f i libucrtd:output.obj
 0001:00088bd0       ?unset_flag@?$output_processor@DV?$stream_output_adapter@D@__crt_stdio_output@@V?$format_validation_base@DV?$stream_output_adapter@D@__crt_stdio_output@@@2@@__crt_stdio_output@@AAEXI@Z 10089bd0 f i libucrtd:output.obj
 0001:00088bf0       ?unset_flag@?$output_processor@DV?$stream_output_adapter@D@__crt_stdio_output@@V?$positional_parameter_base@DV?$stream_output_adapter@D@__crt_stdio_output@@@2@@__crt_stdio_output@@AAEXI@Z 10089bf0 f i libucrtd:output.obj
 0001:00088c10       ?unset_flag@?$output_processor@DV?$stream_output_adapter@D@__crt_stdio_output@@V?$standard_base@DV?$stream_output_adapter@D@__crt_stdio_output@@@2@@__crt_stdio_output@@AAEXI@Z 10089c10 f i libucrtd:output.obj
 0001:00088c30       ?unset_flag@?$output_processor@DV?$string_output_adapter@D@__crt_stdio_output@@V?$format_validation_base@DV?$string_output_adapter@D@__crt_stdio_output@@@2@@__crt_stdio_output@@AAEXI@Z 10089c30 f i libucrtd:output.obj
 0001:00088c50       ?unset_flag@?$output_processor@DV?$string_output_adapter@D@__crt_stdio_output@@V?$positional_parameter_base@DV?$string_output_adapter@D@__crt_stdio_output@@@2@@__crt_stdio_output@@AAEXI@Z 10089c50 f i libucrtd:output.obj
 0001:00088c70       ?unset_flag@?$output_processor@DV?$string_output_adapter@D@__crt_stdio_output@@V?$standard_base@DV?$string_output_adapter@D@__crt_stdio_output@@@2@@__crt_stdio_output@@AAEXI@Z 10089c70 f i libucrtd:output.obj
 0001:00088c90       ?unset_flag@?$output_processor@_WV?$stream_output_adapter@_W@__crt_stdio_output@@V?$format_validation_base@_WV?$stream_output_adapter@_W@__crt_stdio_output@@@2@@__crt_stdio_output@@AAEXI@Z 10089c90 f i libucrtd:output.obj
 0001:00088cb0       ?unset_flag@?$output_processor@_WV?$stream_output_adapter@_W@__crt_stdio_output@@V?$positional_parameter_base@_WV?$stream_output_adapter@_W@__crt_stdio_output@@@2@@__crt_stdio_output@@AAEXI@Z 10089cb0 f i libucrtd:output.obj
 0001:00088cd0       ?unset_flag@?$output_processor@_WV?$stream_output_adapter@_W@__crt_stdio_output@@V?$standard_base@_WV?$stream_output_adapter@_W@__crt_stdio_output@@@2@@__crt_stdio_output@@AAEXI@Z 10089cd0 f i libucrtd:output.obj
 0001:00088cf0       ?unset_flag@?$output_processor@_WV?$string_output_adapter@_W@__crt_stdio_output@@V?$format_validation_base@_WV?$string_output_adapter@_W@__crt_stdio_output@@@2@@__crt_stdio_output@@AAEXI@Z 10089cf0 f i libucrtd:output.obj
 0001:00088d10       ?unset_flag@?$output_processor@_WV?$string_output_adapter@_W@__crt_stdio_output@@V?$positional_parameter_base@_WV?$string_output_adapter@_W@__crt_stdio_output@@@2@@__crt_stdio_output@@AAEXI@Z 10089d10 f i libucrtd:output.obj
 0001:00088d30       ?unset_flag@?$output_processor@_WV?$string_output_adapter@_W@__crt_stdio_output@@V?$standard_base@_WV?$string_output_adapter@_W@__crt_stdio_output@@@2@@__crt_stdio_output@@AAEXI@Z 10089d30 f i libucrtd:output.obj
 0001:00088d50       ?update_field_width@?$positional_parameter_base@DV?$stream_output_adapter@D@__crt_stdio_output@@@__crt_stdio_output@@IAE_NXZ 10089d50 f i libucrtd:output.obj
 0001:00088ee0       ?update_field_width@?$positional_parameter_base@DV?$string_output_adapter@D@__crt_stdio_output@@@__crt_stdio_output@@IAE_NXZ 10089ee0 f i libucrtd:output.obj
 0001:00089070       ?update_field_width@?$positional_parameter_base@_WV?$stream_output_adapter@_W@__crt_stdio_output@@@__crt_stdio_output@@IAE_NXZ 1008a070 f i libucrtd:output.obj
 0001:00089200       ?update_field_width@?$positional_parameter_base@_WV?$string_output_adapter@_W@__crt_stdio_output@@@__crt_stdio_output@@IAE_NXZ 1008a200 f i libucrtd:output.obj
 0001:00089390       ?update_field_width@?$standard_base@DV?$stream_output_adapter@D@__crt_stdio_output@@@__crt_stdio_output@@IAE_NXZ 1008a390 f i libucrtd:output.obj
 0001:000893c0       ?update_field_width@?$standard_base@DV?$string_output_adapter@D@__crt_stdio_output@@@__crt_stdio_output@@IAE_NXZ 1008a3c0 f i libucrtd:output.obj
 0001:000893f0       ?update_field_width@?$standard_base@_WV?$stream_output_adapter@_W@__crt_stdio_output@@@__crt_stdio_output@@IAE_NXZ 1008a3f0 f i libucrtd:output.obj
 0001:00089420       ?update_field_width@?$standard_base@_WV?$string_output_adapter@_W@__crt_stdio_output@@@__crt_stdio_output@@IAE_NXZ 1008a420 f i libucrtd:output.obj
 0001:00089450       ?update_locale@__crt_cached_ptd_host@@AAEXXZ 1008a450 f i libucrtd:output.obj
 0001:00089470       ?update_locale_slow@__crt_cached_ptd_host@@AAEXXZ 1008a470 f i libucrtd:output.obj
 0001:00089500       ?update_precision@?$positional_parameter_base@DV?$stream_output_adapter@D@__crt_stdio_output@@@__crt_stdio_output@@IAE_NXZ 1008a500 f i libucrtd:output.obj
 0001:00089690       ?update_precision@?$positional_parameter_base@DV?$string_output_adapter@D@__crt_stdio_output@@@__crt_stdio_output@@IAE_NXZ 1008a690 f i libucrtd:output.obj
 0001:00089820       ?update_precision@?$positional_parameter_base@_WV?$stream_output_adapter@_W@__crt_stdio_output@@@__crt_stdio_output@@IAE_NXZ 1008a820 f i libucrtd:output.obj
 0001:000899b0       ?update_precision@?$positional_parameter_base@_WV?$string_output_adapter@_W@__crt_stdio_output@@@__crt_stdio_output@@IAE_NXZ 1008a9b0 f i libucrtd:output.obj
 0001:00089b40       ?update_precision@?$standard_base@DV?$stream_output_adapter@D@__crt_stdio_output@@@__crt_stdio_output@@IAE_NXZ 1008ab40 f i libucrtd:output.obj
 0001:00089b70       ?update_precision@?$standard_base@DV?$string_output_adapter@D@__crt_stdio_output@@@__crt_stdio_output@@IAE_NXZ 1008ab70 f i libucrtd:output.obj
 0001:00089ba0       ?update_precision@?$standard_base@_WV?$stream_output_adapter@_W@__crt_stdio_output@@@__crt_stdio_output@@IAE_NXZ 1008aba0 f i libucrtd:output.obj
 0001:00089bd0       ?update_precision@?$standard_base@_WV?$string_output_adapter@_W@__crt_stdio_output@@@__crt_stdio_output@@IAE_NXZ 1008abd0 f i libucrtd:output.obj
 0001:00089c00       ?valid@?$cached@H@__crt_cached_ptd_host@@QBE_NXZ 1008ac00 f i libucrtd:output.obj
 0001:00089c20       ?valid@?$cached@K@__crt_cached_ptd_host@@QBE_NXZ 1008ac20 f i libucrtd:output.obj
 0001:00089c40       ?valid@__crt_stdio_stream@@QBE_NXZ 1008ac40 f i libucrtd:output.obj
 0001:00089c70       ?validate@?$c_string_character_source@D@__crt_strtox@@QBE_NXZ 1008ac70 f i libucrtd:output.obj
 0001:00089d00       ?validate@?$c_string_character_source@_W@__crt_strtox@@QBE_NXZ 1008ad00 f i libucrtd:output.obj
 0001:00089d90       ?validate@?$stream_output_adapter@D@__crt_stdio_output@@QBE_NAAV__crt_cached_ptd_host@@@Z 1008ad90 f i libucrtd:output.obj
 0001:00089e50       ?validate@?$stream_output_adapter@_W@__crt_stdio_output@@QBE_NAAV__crt_cached_ptd_host@@@Z 1008ae50 f i libucrtd:output.obj
 0001:00089f10       ?validate@?$string_output_adapter@D@__crt_stdio_output@@QBE_NAAV__crt_cached_ptd_host@@@Z 1008af10 f i libucrtd:output.obj
 0001:00089fb0       ?validate@?$string_output_adapter@_W@__crt_stdio_output@@QBE_NAAV__crt_cached_ptd_host@@@Z 1008afb0 f i libucrtd:output.obj
 0001:0008a050       ?validate_and_store_parameter_data@?$positional_parameter_base@DV?$stream_output_adapter@D@__crt_stdio_output@@@__crt_stdio_output@@AAE_NAAUparameter_data@12@W4parameter_type@12@DW4length_modifier@2@@Z 1008b050 f i libucrtd:output.obj
 0001:0008a140       ?validate_and_store_parameter_data@?$positional_parameter_base@DV?$string_output_adapter@D@__crt_stdio_output@@@__crt_stdio_output@@AAE_NAAUparameter_data@12@W4parameter_type@12@DW4length_modifier@2@@Z 1008b140 f i libucrtd:output.obj
 0001:0008a230       ?validate_and_store_parameter_data@?$positional_parameter_base@_WV?$stream_output_adapter@_W@__crt_stdio_output@@@__crt_stdio_output@@AAE_NAAUparameter_data@12@W4parameter_type@12@_WW4length_modifier@2@@Z 1008b230 f i libucrtd:output.obj
 0001:0008a320       ?validate_and_store_parameter_data@?$positional_parameter_base@_WV?$string_output_adapter@_W@__crt_stdio_output@@@__crt_stdio_output@@AAE_NAAUparameter_data@12@W4parameter_type@12@_WW4length_modifier@2@@Z 1008b320 f i libucrtd:output.obj
 0001:0008a410       ?validate_and_update_state_at_beginning_of_format_character@?$positional_parameter_base@DV?$stream_output_adapter@D@__crt_stdio_output@@@__crt_stdio_output@@IAE_NXZ 1008b410 f i libucrtd:output.obj
 0001:0008a640       ?validate_and_update_state_at_beginning_of_format_character@?$positional_parameter_base@DV?$string_output_adapter@D@__crt_stdio_output@@@__crt_stdio_output@@IAE_NXZ 1008b640 f i libucrtd:output.obj
 0001:0008a870       ?validate_and_update_state_at_beginning_of_format_character@?$positional_parameter_base@_WV?$stream_output_adapter@_W@__crt_stdio_output@@@__crt_stdio_output@@IAE_NXZ 1008b870 f i libucrtd:output.obj
 0001:0008aaa0       ?validate_and_update_state_at_beginning_of_format_character@?$positional_parameter_base@_WV?$string_output_adapter@_W@__crt_stdio_output@@@__crt_stdio_output@@IAE_NXZ 1008baa0 f i libucrtd:output.obj
 0001:0008acd0       ?validate_and_update_state_at_beginning_of_format_character@?$standard_base@DV?$stream_output_adapter@D@__crt_stdio_output@@@__crt_stdio_output@@IAE_NXZ 1008bcd0 f i libucrtd:output.obj
 0001:0008ace0       ?validate_and_update_state_at_beginning_of_format_character@?$standard_base@DV?$string_output_adapter@D@__crt_stdio_output@@@__crt_stdio_output@@IAE_NXZ 1008bce0 f i libucrtd:output.obj
 0001:0008acf0       ?validate_and_update_state_at_beginning_of_format_character@?$standard_base@_WV?$stream_output_adapter@_W@__crt_stdio_output@@@__crt_stdio_output@@IAE_NXZ 1008bcf0 f i libucrtd:output.obj
 0001:0008ad00       ?validate_and_update_state_at_beginning_of_format_character@?$standard_base@_WV?$string_output_adapter@_W@__crt_stdio_output@@@__crt_stdio_output@@IAE_NXZ 1008bd00 f i libucrtd:output.obj
 0001:0008ad10       ?validate_and_update_state_at_end_of_format_string@?$format_validation_base@DV?$stream_output_adapter@D@__crt_stdio_output@@@__crt_stdio_output@@IAE_NXZ 1008bd10 f i libucrtd:output.obj
 0001:0008adc0       ?validate_and_update_state_at_end_of_format_string@?$format_validation_base@DV?$string_output_adapter@D@__crt_stdio_output@@@__crt_stdio_output@@IAE_NXZ 1008bdc0 f i libucrtd:output.obj
 0001:0008ae70       ?validate_and_update_state_at_end_of_format_string@?$format_validation_base@_WV?$stream_output_adapter@_W@__crt_stdio_output@@@__crt_stdio_output@@IAE_NXZ 1008be70 f i libucrtd:output.obj
 0001:0008af20       ?validate_and_update_state_at_end_of_format_string@?$format_validation_base@_WV?$string_output_adapter@_W@__crt_stdio_output@@@__crt_stdio_output@@IAE_NXZ 1008bf20 f i libucrtd:output.obj
 0001:0008afd0       ?validate_and_update_state_at_end_of_format_string@?$positional_parameter_base@DV?$stream_output_adapter@D@__crt_stdio_output@@@__crt_stdio_output@@IAE_NXZ 1008bfd0 f i libucrtd:output.obj
 0001:0008b180       ?validate_and_update_state_at_end_of_format_string@?$positional_parameter_base@DV?$string_output_adapter@D@__crt_stdio_output@@@__crt_stdio_output@@IAE_NXZ 1008c180 f i libucrtd:output.obj
 0001:0008b330       ?validate_and_update_state_at_end_of_format_string@?$positional_parameter_base@_WV?$stream_output_adapter@_W@__crt_stdio_output@@@__crt_stdio_output@@IAE_NXZ 1008c330 f i libucrtd:output.obj
 0001:0008b4e0       ?validate_and_update_state_at_end_of_format_string@?$positional_parameter_base@_WV?$string_output_adapter@_W@__crt_stdio_output@@@__crt_stdio_output@@IAE_NXZ 1008c4e0 f i libucrtd:output.obj
 0001:0008b690       ?validate_and_update_state_at_end_of_format_string@?$standard_base@DV?$stream_output_adapter@D@__crt_stdio_output@@@__crt_stdio_output@@IBE_NXZ 1008c690 f i libucrtd:output.obj
 0001:0008b6a0       ?validate_and_update_state_at_end_of_format_string@?$standard_base@DV?$string_output_adapter@D@__crt_stdio_output@@@__crt_stdio_output@@IBE_NXZ 1008c6a0 f i libucrtd:output.obj
 0001:0008b6b0       ?validate_and_update_state_at_end_of_format_string@?$standard_base@_WV?$stream_output_adapter@_W@__crt_stdio_output@@@__crt_stdio_output@@IBE_NXZ 1008c6b0 f i libucrtd:output.obj
 0001:0008b6c0       ?validate_and_update_state_at_end_of_format_string@?$standard_base@_WV?$string_output_adapter@_W@__crt_stdio_output@@@__crt_stdio_output@@IBE_NXZ 1008c6c0 f i libucrtd:output.obj
 0001:0008b6d0       ?validate_state_for_type_case_a@?$positional_parameter_base@DV?$stream_output_adapter@D@__crt_stdio_output@@@__crt_stdio_output@@IAE_NXZ 1008c6d0 f i libucrtd:output.obj
 0001:0008b7e0       ?validate_state_for_type_case_a@?$positional_parameter_base@DV?$string_output_adapter@D@__crt_stdio_output@@@__crt_stdio_output@@IAE_NXZ 1008c7e0 f i libucrtd:output.obj
 0001:0008b8f0       ?validate_state_for_type_case_a@?$positional_parameter_base@_WV?$stream_output_adapter@_W@__crt_stdio_output@@@__crt_stdio_output@@IAE_NXZ 1008c8f0 f i libucrtd:output.obj
 0001:0008ba00       ?validate_state_for_type_case_a@?$positional_parameter_base@_WV?$string_output_adapter@_W@__crt_stdio_output@@@__crt_stdio_output@@IAE_NXZ 1008ca00 f i libucrtd:output.obj
 0001:0008bb10       ?validate_state_for_type_case_a@?$standard_base@DV?$stream_output_adapter@D@__crt_stdio_output@@@__crt_stdio_output@@IBE_NXZ 1008cb10 f i libucrtd:output.obj
 0001:0008bb20       ?validate_state_for_type_case_a@?$standard_base@DV?$string_output_adapter@D@__crt_stdio_output@@@__crt_stdio_output@@IBE_NXZ 1008cb20 f i libucrtd:output.obj
 0001:0008bb30       ?validate_state_for_type_case_a@?$standard_base@_WV?$stream_output_adapter@_W@__crt_stdio_output@@@__crt_stdio_output@@IBE_NXZ 1008cb30 f i libucrtd:output.obj
 0001:0008bb40       ?validate_state_for_type_case_a@?$standard_base@_WV?$string_output_adapter@_W@__crt_stdio_output@@@__crt_stdio_output@@IBE_NXZ 1008cb40 f i libucrtd:output.obj
 0001:0008bb50       ?validate_stream_is_ansi_if_required@?$__acrt_stdio_char_traits@D@@SA_NQAU_iobuf@@@Z 1008cb50 f i libucrtd:output.obj
 0001:0008bc80       ?validate_stream_is_ansi_if_required@?$__acrt_stdio_char_traits@_W@@SA_NQAU_iobuf@@@Z 1008cc80 f i libucrtd:output.obj
 0001:0008bc90       ?wide_character_to_digit@__crt_strtox@@YAH_W@Z 1008cc90 f i libucrtd:output.obj
 0001:0008bfc0       ?wide_null_string@?$output_processor@DV?$stream_output_adapter@D@__crt_stdio_output@@V?$format_validation_base@DV?$stream_output_adapter@D@__crt_stdio_output@@@2@@__crt_stdio_output@@CAPA_WXZ 1008cfc0 f i libucrtd:output.obj
 0001:0008bfd0       ?wide_null_string@?$output_processor@DV?$stream_output_adapter@D@__crt_stdio_output@@V?$positional_parameter_base@DV?$stream_output_adapter@D@__crt_stdio_output@@@2@@__crt_stdio_output@@CAPA_WXZ 1008cfd0 f i libucrtd:output.obj
 0001:0008bfe0       ?wide_null_string@?$output_processor@DV?$stream_output_adapter@D@__crt_stdio_output@@V?$standard_base@DV?$stream_output_adapter@D@__crt_stdio_output@@@2@@__crt_stdio_output@@CAPA_WXZ 1008cfe0 f i libucrtd:output.obj
 0001:0008bff0       ?wide_null_string@?$output_processor@DV?$string_output_adapter@D@__crt_stdio_output@@V?$format_validation_base@DV?$string_output_adapter@D@__crt_stdio_output@@@2@@__crt_stdio_output@@CAPA_WXZ 1008cff0 f i libucrtd:output.obj
 0001:0008c000       ?wide_null_string@?$output_processor@DV?$string_output_adapter@D@__crt_stdio_output@@V?$positional_parameter_base@DV?$string_output_adapter@D@__crt_stdio_output@@@2@@__crt_stdio_output@@CAPA_WXZ 1008d000 f i libucrtd:output.obj
 0001:0008c010       ?wide_null_string@?$output_processor@DV?$string_output_adapter@D@__crt_stdio_output@@V?$standard_base@DV?$string_output_adapter@D@__crt_stdio_output@@@2@@__crt_stdio_output@@CAPA_WXZ 1008d010 f i libucrtd:output.obj
 0001:0008c020       ?wide_null_string@?$output_processor@_WV?$stream_output_adapter@_W@__crt_stdio_output@@V?$format_validation_base@_WV?$stream_output_adapter@_W@__crt_stdio_output@@@2@@__crt_stdio_output@@CAPA_WXZ 1008d020 f i libucrtd:output.obj
 0001:0008c030       ?wide_null_string@?$output_processor@_WV?$stream_output_adapter@_W@__crt_stdio_output@@V?$positional_parameter_base@_WV?$stream_output_adapter@_W@__crt_stdio_output@@@2@@__crt_stdio_output@@CAPA_WXZ 1008d030 f i libucrtd:output.obj
 0001:0008c040       ?wide_null_string@?$output_processor@_WV?$stream_output_adapter@_W@__crt_stdio_output@@V?$standard_base@_WV?$stream_output_adapter@_W@__crt_stdio_output@@@2@@__crt_stdio_output@@CAPA_WXZ 1008d040 f i libucrtd:output.obj
 0001:0008c050       ?wide_null_string@?$output_processor@_WV?$string_output_adapter@_W@__crt_stdio_output@@V?$format_validation_base@_WV?$string_output_adapter@_W@__crt_stdio_output@@@2@@__crt_stdio_output@@CAPA_WXZ 1008d050 f i libucrtd:output.obj
 0001:0008c060       ?wide_null_string@?$output_processor@_WV?$string_output_adapter@_W@__crt_stdio_output@@V?$positional_parameter_base@_WV?$string_output_adapter@_W@__crt_stdio_output@@@2@@__crt_stdio_output@@CAPA_WXZ 1008d060 f i libucrtd:output.obj
 0001:0008c070       ?wide_null_string@?$output_processor@_WV?$string_output_adapter@_W@__crt_stdio_output@@V?$standard_base@_WV?$string_output_adapter@_W@__crt_stdio_output@@@2@@__crt_stdio_output@@CAPA_WXZ 1008d070 f i libucrtd:output.obj
 0001:0008c080       ?write_character@?$output_adapter_common@DV?$stream_output_adapter@D@__crt_stdio_output@@@__crt_stdio_output@@QBEXDQAHAAV__crt_cached_ptd_host@@@Z 1008d080 f i libucrtd:output.obj
 0001:0008c0c0       ?write_character@?$output_adapter_common@_WV?$stream_output_adapter@_W@__crt_stdio_output@@@__crt_stdio_output@@QBEX_WQAHAAV__crt_cached_ptd_host@@@Z 1008d0c0 f i libucrtd:output.obj
 0001:0008c100       ?write_character@?$string_output_adapter@D@__crt_stdio_output@@QBE_NDQAHAAV__crt_cached_ptd_host@@@Z 1008d100 f i libucrtd:output.obj
 0001:0008c190       ?write_character@?$string_output_adapter@_W@__crt_stdio_output@@QBE_N_WQAHAAV__crt_cached_ptd_host@@@Z 1008d190 f i libucrtd:output.obj
 0001:0008c230       ?write_character_without_count_update@?$stream_output_adapter@D@__crt_stdio_output@@QBE_NDAAV__crt_cached_ptd_host@@@Z 1008d230 f i libucrtd:output.obj
 0001:0008c2a0       ?write_character_without_count_update@?$stream_output_adapter@_W@__crt_stdio_output@@QBE_N_WAAV__crt_cached_ptd_host@@@Z 1008d2a0 f i libucrtd:output.obj
 0001:0008c310       ?write_stored_string_tchar@?$output_processor@DV?$stream_output_adapter@D@__crt_stdio_output@@V?$format_validation_base@DV?$stream_output_adapter@D@__crt_stdio_output@@@2@@__crt_stdio_output@@AAE_ND@Z 1008d310 f i libucrtd:output.obj
 0001:0008c430       ?write_stored_string_tchar@?$output_processor@DV?$stream_output_adapter@D@__crt_stdio_output@@V?$positional_parameter_base@DV?$stream_output_adapter@D@__crt_stdio_output@@@2@@__crt_stdio_output@@AAE_ND@Z 1008d430 f i libucrtd:output.obj
 0001:0008c550       ?write_stored_string_tchar@?$output_processor@DV?$stream_output_adapter@D@__crt_stdio_output@@V?$standard_base@DV?$stream_output_adapter@D@__crt_stdio_output@@@2@@__crt_stdio_output@@AAE_ND@Z 1008d550 f i libucrtd:output.obj
 0001:0008c670       ?write_stored_string_tchar@?$output_processor@DV?$string_output_adapter@D@__crt_stdio_output@@V?$format_validation_base@DV?$string_output_adapter@D@__crt_stdio_output@@@2@@__crt_stdio_output@@AAE_ND@Z 1008d670 f i libucrtd:output.obj
 0001:0008c790       ?write_stored_string_tchar@?$output_processor@DV?$string_output_adapter@D@__crt_stdio_output@@V?$positional_parameter_base@DV?$string_output_adapter@D@__crt_stdio_output@@@2@@__crt_stdio_output@@AAE_ND@Z 1008d790 f i libucrtd:output.obj
 0001:0008c8b0       ?write_stored_string_tchar@?$output_processor@DV?$string_output_adapter@D@__crt_stdio_output@@V?$standard_base@DV?$string_output_adapter@D@__crt_stdio_output@@@2@@__crt_stdio_output@@AAE_ND@Z 1008d8b0 f i libucrtd:output.obj
 0001:0008c9d0       ?write_stored_string_tchar@?$output_processor@_WV?$stream_output_adapter@_W@__crt_stdio_output@@V?$format_validation_base@_WV?$stream_output_adapter@_W@__crt_stdio_output@@@2@@__crt_stdio_output@@AAE_N_W@Z 1008d9d0 f i libucrtd:output.obj
 0001:0008cae0       ?write_stored_string_tchar@?$output_processor@_WV?$stream_output_adapter@_W@__crt_stdio_output@@V?$positional_parameter_base@_WV?$stream_output_adapter@_W@__crt_stdio_output@@@2@@__crt_stdio_output@@AAE_N_W@Z 1008dae0 f i libucrtd:output.obj
 0001:0008cbf0       ?write_stored_string_tchar@?$output_processor@_WV?$stream_output_adapter@_W@__crt_stdio_output@@V?$standard_base@_WV?$stream_output_adapter@_W@__crt_stdio_output@@@2@@__crt_stdio_output@@AAE_N_W@Z 1008dbf0 f i libucrtd:output.obj
 0001:0008cd00       ?write_stored_string_tchar@?$output_processor@_WV?$string_output_adapter@_W@__crt_stdio_output@@V?$format_validation_base@_WV?$string_output_adapter@_W@__crt_stdio_output@@@2@@__crt_stdio_output@@AAE_N_W@Z 1008dd00 f i libucrtd:output.obj
 0001:0008ce10       ?write_stored_string_tchar@?$output_processor@_WV?$string_output_adapter@_W@__crt_stdio_output@@V?$positional_parameter_base@_WV?$string_output_adapter@_W@__crt_stdio_output@@@2@@__crt_stdio_output@@AAE_N_W@Z 1008de10 f i libucrtd:output.obj
 0001:0008cf20       ?write_stored_string_tchar@?$output_processor@_WV?$string_output_adapter@_W@__crt_stdio_output@@V?$standard_base@_WV?$string_output_adapter@_W@__crt_stdio_output@@@2@@__crt_stdio_output@@AAE_N_W@Z 1008df20 f i libucrtd:output.obj
 0001:0008d030       ?write_string@?$stream_output_adapter@D@__crt_stdio_output@@QBEXQBDHQAHAAV__crt_cached_ptd_host@@@Z 1008e030 f i libucrtd:output.obj
 0001:0008d090       ?write_string@?$stream_output_adapter@_W@__crt_stdio_output@@QBEXQB_WHQAHAAV__crt_cached_ptd_host@@@Z 1008e090 f i libucrtd:output.obj
 0001:0008d0f0       ?write_string@?$string_output_adapter@D@__crt_stdio_output@@QBEXQBDHQAHAAV__crt_cached_ptd_host@@@Z 1008e0f0 f i libucrtd:output.obj
 0001:0008d1f0       ?write_string@?$string_output_adapter@_W@__crt_stdio_output@@QBEXQB_WHQAHAAV__crt_cached_ptd_host@@@Z 1008e1f0 f i libucrtd:output.obj
 0001:0008d300       ?write_string_impl@?$output_adapter_common@DV?$stream_output_adapter@D@__crt_stdio_output@@@__crt_stdio_output@@IBEXQBDHQAHAAV__crt_cached_ptd_host@@@Z 1008e300 f i libucrtd:output.obj
 0001:0008d3c0       ?write_string_impl@?$output_adapter_common@_WV?$stream_output_adapter@_W@__crt_stdio_output@@@__crt_stdio_output@@IBEXQB_WHQAHAAV__crt_cached_ptd_host@@@Z 1008e3c0 f i libucrtd:output.obj
 0001:0008d480       ___acrt_isleadbyte_l_noupdate 1008e480 f i libucrtd:output.obj
 0001:0008d4a0       ___acrt_locale_get_ctype_array_value 1008e4a0 f i libucrtd:output.obj
 0001:0008d4d0       ___ascii_iswalpha          1008e4d0 f i libucrtd:output.obj
 0001:0008d510       ___ascii_toupper           1008e510 f i libucrtd:output.obj
 0001:0008d530       ___ascii_towupper          1008e530 f i libucrtd:output.obj
 0001:0008d550       ___stdio_common_vfprintf   1008e550 f   libucrtd:output.obj
 0001:0008d5a0       ___stdio_common_vfprintf_p 1008e5a0 f   libucrtd:output.obj
 0001:0008d5f0       ___stdio_common_vfprintf_s 1008e5f0 f   libucrtd:output.obj
 0001:0008d640       ___stdio_common_vfwprintf  1008e640 f   libucrtd:output.obj
 0001:0008d690       ___stdio_common_vfwprintf_p 1008e690 f   libucrtd:output.obj
 0001:0008d6e0       ___stdio_common_vfwprintf_s 1008e6e0 f   libucrtd:output.obj
 0001:0008d730       ___stdio_common_vsnprintf_s 1008e730 f   libucrtd:output.obj
 0001:0008d780       ___stdio_common_vsnwprintf_s 1008e780 f   libucrtd:output.obj
 0001:0008d7d0       ___stdio_common_vsprintf   1008e7d0 f   libucrtd:output.obj
 0001:0008d820       ___stdio_common_vsprintf_p 1008e820 f   libucrtd:output.obj
 0001:0008d870       ___stdio_common_vsprintf_s 1008e870 f   libucrtd:output.obj
 0001:0008d8c0       ___stdio_common_vswprintf  1008e8c0 f   libucrtd:output.obj
 0001:0008d910       ___stdio_common_vswprintf_p 1008e910 f   libucrtd:output.obj
 0001:0008d960       ___stdio_common_vswprintf_s 1008e960 f   libucrtd:output.obj
 0001:0008d9b0       __ctype_fast_check_internal 1008e9b0 f i libucrtd:output.obj
 0001:0008d9d0       __isdigit_fast_internal    1008e9d0 f i libucrtd:output.obj
 0001:0008d9f0       __tolower_fast_internal    1008e9f0 f i libucrtd:output.obj
 0001:0008e380       __makepath                 1008f380 f   libucrtd:makepath.obj
 0001:0008e3b0       __makepath_s               1008f3b0 f   libucrtd:makepath.obj
 0001:0008e3e0       __wmakepath                1008f3e0 f   libucrtd:makepath.obj
 0001:0008e410       __wmakepath_s              1008f410 f   libucrtd:makepath.obj
 0001:0008fee0       ??$tcsncpy_s@AAPADIAAPBDABI@?$__crt_char_traits@D@@SAHAAPAD$$QAIAAPBDABI@Z 10090ee0 f i libucrtd:splitpath.obj
 0001:0008ff10       ??$tcsncpy_s@AAPADIAAPBDH@?$__crt_char_traits@D@@SAHAAPAD$$QAIAAPBD$$QAH@Z 10090f10 f i libucrtd:splitpath.obj
 0001:0008ff40       ??$tcsncpy_s@AAPA_WIAAPB_WABI@?$__crt_char_traits@_W@@SAHAAPA_W$$QAIAAPB_WABI@Z 10090f40 f i libucrtd:splitpath.obj
 0001:0008ff70       ??$tcsncpy_s@AAPA_WIAAPB_WH@?$__crt_char_traits@_W@@SAHAAPA_W$$QAIAAPB_W$$QAH@Z 10090f70 f i libucrtd:splitpath.obj
 0001:000901b0       __splitpath                100911b0 f   libucrtd:splitpath.obj
 0001:000901e0       __splitpath_s              100911e0 f   libucrtd:splitpath.obj
 0001:00090230       __wsplitpath               10091230 f   libucrtd:splitpath.obj
 0001:00090260       __wsplitpath_s             10091260 f   libucrtd:splitpath.obj
 0001:000905d0       _wcscpy_s                  100915d0 f   libucrtd:wcscpy_s.obj
 0001:000905f0       __set_abort_behavior       100915f0 f   libucrtd:abort.obj
 0001:00090620       _abort                     10091620 f   libucrtd:abort.obj
 0001:00090690       _strlen                    10091690 f   libucrtd:strlen.obj
 0001:00090720       ??$__crt_fast_decode_pointer@P6AXPB_W00II@Z@@YAP6AXPB_W00II@ZQ6AX000II@Z@Z 10091720 f i libucrtd:invalid_parameter.obj
 0001:00090750       ??$__crt_fast_encode_pointer@P6AXPB_W00II@Z@@YAP6AXPB_W00II@ZQ6AX000II@Z@Z 10091750 f i libucrtd:invalid_parameter.obj
 0001:00090780       ??$initialize_from_array@$$BY00Q6AXPB_W00II@Z@?$dual_state_global@P6AXPB_W00II@Z@__crt_state_management@@QAAXAAY00Q6AXPB_W00II@Z@Z 10091780 f i libucrtd:invalid_parameter.obj
 0001:000907d0       ?check_synchronize_global_state_index@__crt_cached_ptd_host@@AAEIXZ 100917d0 f i libucrtd:invalid_parameter.obj
 0001:00090820       ?dangerous_get_state_array@?$dual_state_global@P6AXPB_W00II@Z@__crt_state_management@@QAEPAP6AXPB_W00II@ZXZ 10091820 f i libucrtd:invalid_parameter.obj
 0001:00090830       ?get_current_global_state_index@__crt_cached_ptd_host@@QAEIXZ 10091830 f i libucrtd:invalid_parameter.obj
 0001:00090850       ?get_raw_ptd_noexit@__crt_cached_ptd_host@@QAEPAU__acrt_ptd@@XZ 10091850 f i libucrtd:invalid_parameter.obj
 0001:00090870       ?try_synchronize_per_thread_data@__crt_cached_ptd_host@@AAEPAU__acrt_ptd@@XZ 10091870 f i libucrtd:invalid_parameter.obj
 0001:000908a0       ?value@?$dual_state_global@P6AXPB_W00II@Z@__crt_state_management@@QAEAAP6AXPB_W00II@ZAAV__crt_cached_ptd_host@@@Z 100918a0 f i libucrtd:invalid_parameter.obj
 0001:000908c0       ?value@?$dual_state_global@P6AXPB_W00II@Z@__crt_state_management@@QAEAAP6AXPB_W00II@ZXZ 100918c0 f i libucrtd:invalid_parameter.obj
 0001:000908e0       ___acrt_call_reportfault   100918e0 f   libucrtd:invalid_parameter.obj
 0001:00090a40       ___acrt_initialize_invalid_parameter_handler 10091a40 f   libucrtd:invalid_parameter.obj
 0001:00090a70       __get_invalid_parameter_handler 10091a70 f   libucrtd:invalid_parameter.obj
 0001:00090a90       __get_thread_local_invalid_parameter_handler 10091a90 f   libucrtd:invalid_parameter.obj
 0001:00090ac0       __invalid_parameter        10091ac0 f   libucrtd:invalid_parameter.obj
 0001:00090b00       __invalid_parameter_internal 10091b00 f   libucrtd:invalid_parameter.obj
 0001:00090bd0       __invalid_parameter_noinfo 10091bd0 f   libucrtd:invalid_parameter.obj
 0001:00090bf0       __invalid_parameter_noinfo_noreturn 10091bf0 f   libucrtd:invalid_parameter.obj
 0001:00090c20       __invoke_watson            10091c20 f   libucrtd:invalid_parameter.obj
 0001:00090c60       __set_invalid_parameter_handler 10091c60 f   libucrtd:invalid_parameter.obj
 0001:00090cb0       __set_thread_local_invalid_parameter_handler 10091cb0 f   libucrtd:invalid_parameter.obj
 0001:00090ce0       ??$is_overflow_condition@_K@__crt_strtox@@YA_NI_K@Z 10091ce0 f i libucrtd:atox.obj
 0001:00090d70       ??$make_c_string_character_source@D$$T@__crt_strtox@@YA?AV?$c_string_character_source@D@0@QBD$$T@Z 10091d70 f i libucrtd:atox.obj
 0001:00090d90       ??$make_c_string_character_source@_W$$T@__crt_strtox@@YA?AV?$c_string_character_source@_W@0@QB_W$$T@Z 10091d90 f i libucrtd:atox.obj
 0001:00090db0       ??$parse_integer@KV?$c_string_character_source@D@__crt_strtox@@$00@__crt_strtox@@YAKAAV__crt_cached_ptd_host@@V?$c_string_character_source@D@0@H_N@Z 10091db0 f i libucrtd:atox.obj
 0001:00091110       ??$parse_integer@KV?$c_string_character_source@_W@__crt_strtox@@$00@__crt_strtox@@YAKAAV__crt_cached_ptd_host@@V?$c_string_character_source@_W@0@H_N@Z 10092110 f i libucrtd:atox.obj
 0001:00091480       ??$parse_integer@_KV?$c_string_character_source@D@__crt_strtox@@$00@__crt_strtox@@YA_KAAV__crt_cached_ptd_host@@V?$c_string_character_source@D@0@H_N@Z 10092480 f i libucrtd:atox.obj
 0001:00091870       ??$parse_integer@_KV?$c_string_character_source@_W@__crt_strtox@@$00@__crt_strtox@@YA_KAAV__crt_cached_ptd_host@@V?$c_string_character_source@_W@0@H_N@Z 10092870 f i libucrtd:atox.obj
 0001:00091c60       ??$parse_integer_from_string@JD$$T@__crt_strtox@@YAJQBD$$THQAU__crt_locale_pointers@@@Z 10092c60 f i libucrtd:atox.obj
 0001:00091cc0       ??$parse_integer_from_string@J_W$$T@__crt_strtox@@YAJQB_W$$THQAU__crt_locale_pointers@@@Z 10092cc0 f i libucrtd:atox.obj
 0001:00091d20       ??$parse_integer_from_string@_JD$$T@__crt_strtox@@YA_JQBD$$THQAU__crt_locale_pointers@@@Z 10092d20 f i libucrtd:atox.obj
 0001:00091d80       ??$parse_integer_from_string@_J_W$$T@__crt_strtox@@YA_JQB_W$$THQAU__crt_locale_pointers@@@Z 10092d80 f i libucrtd:atox.obj
 0001:00091de0       ?is_space@__crt_strtox@@YA_NDQAU__crt_locale_pointers@@@Z 10092de0 f i libucrtd:atox.obj
 0001:00091e20       ?is_space@__crt_strtox@@YA_N_WPAU__crt_locale_pointers@@@Z 10092e20 f i libucrtd:atox.obj
 0001:00091e50       ?maximum_signed_value@__crt_strtox@@YA_J_K@Z 10092e50 f i libucrtd:atox.obj
 0001:00091e60       ?minimum_signed_value@__crt_strtox@@YA_J_K@Z 10092e60 f i libucrtd:atox.obj
 0001:00091e70       __atoi64                   10092e70 f   libucrtd:atox.obj
 0001:00091e90       __atoi64_l                 10092e90 f   libucrtd:atox.obj
 0001:00091eb0       __atoi_l                   10092eb0 f   libucrtd:atox.obj
 0001:00091ed0       __atol_l                   10092ed0 f   libucrtd:atox.obj
 0001:00091ef0       __atoll_l                  10092ef0 f   libucrtd:atox.obj
 0001:00091f10       __wtoi                     10092f10 f   libucrtd:atox.obj
 0001:00091f30       __wtoi64                   10092f30 f   libucrtd:atox.obj
 0001:00091f50       __wtoi64_l                 10092f50 f   libucrtd:atox.obj
 0001:00091f70       __wtoi_l                   10092f70 f   libucrtd:atox.obj
 0001:00091f90       __wtol                     10092f90 f   libucrtd:atox.obj
 0001:00091fb0       __wtol_l                   10092fb0 f   libucrtd:atox.obj
 0001:00091fd0       __wtoll                    10092fd0 f   libucrtd:atox.obj
 0001:00091ff0       __wtoll_l                  10092ff0 f   libucrtd:atox.obj
 0001:00092010       _atoi                      10093010 f   libucrtd:atox.obj
 0001:00092030       _atol                      10093030 f   libucrtd:atox.obj
 0001:00092050       _atoll                     10093050 f   libucrtd:atox.obj
 0001:00092070       _strncmp                   10093070 f   libucrtd:strncmp.obj
 0001:000920f0       _wcsncmp                   100930f0 f   libucrtd:wcsncmp.obj
 0001:00092150       _free                      10093150 f   libucrtd:free.obj
 0001:00092180       _malloc                    10093180 f   libucrtd:malloc.obj
 0001:000921c0       __fFATN2                   100931c0 f   libucrtd:87triga.obj
 0001:00092210       __rtpiby2                  10093210     libucrtd:87triga.obj
 0001:00092220       __rtforatn20               10093220 f   libucrtd:87triga.obj
 0001:00092250       __rtforatnby0              10093250 f   libucrtd:87triga.obj
 0001:00092260       __cintrindisp2             10093260 f   libucrtd:87cdisp.obj
 0001:000922b0       __cintrindisp1             100932b0 f   libucrtd:87cdisp.obj
 0001:000922f9       __ctrandisp2               100932f9 f   libucrtd:87cdisp.obj
 0001:00092488       __ctrandisp1               10093488 f   libucrtd:87cdisp.obj
 0001:000924bb       __fload                    100934bb f   libucrtd:87cdisp.obj
 0001:00092500       __twoToTOS                 10093500 f   libucrtd:common.obj
 0001:00092515       __load_CW                  10093515 f   libucrtd:common.obj
 0001:0009252c       __convertTOStoQNaN         1009352c f   libucrtd:common.obj
 0001:00092545       __fload_withFB             10093545 f   libucrtd:common.obj
 0001:00092588       __checkTOS_withFB          10093588 f   libucrtd:common.obj
 0001:0009259e       __fast_exit                1009359e f   libucrtd:common.obj
 0001:000925ab       __math_exit                100935ab f   libucrtd:common.obj
 0001:000925d5       __check_overflow_exit      100935d5 f   libucrtd:common.obj
 0001:000925e9       __check_range_exit         100935e9 f   libucrtd:common.obj
 0001:00092690       __CIsqrt                   10093690 f   libucrtd:sqrt_impl.obj
 0001:000926a4       __sqrt_common              100936a4     libucrtd:sqrt_impl.obj
 0001:00092750       ___libm_error_support      10093750 f   libucrtd:libm_error.obj
 0001:00092d10       ___libm_setusermatherr     10093d10 f   libucrtd:libm_error.obj
 0001:00092d50       ___acrt_initialize_sse2    10093d50 f   libucrtd:mathfcns.obj
 0001:00092d70       __set_SSE2_enable          10093d70 f   libucrtd:mathfcns.obj
 0001:00092dc0       __floor_default            10093dc0 f   libucrtd:floor.obj
 0001:00092ee0       __add_exp                  10093ee0 f   libucrtd:util.obj
 0001:00092f20       __decomp                   10093f20 f   libucrtd:util.obj
 0001:00093050       __get_exp                  10094050 f   libucrtd:util.obj
 0001:00093080       __set_bexp                 10094080 f   libucrtd:util.obj
 0001:000930b0       __set_exp                  100940b0 f   libucrtd:util.obj
 0001:000930f0       __sptype                   100940f0 f   libucrtd:util.obj
 0001:00093170       ___clrfp_sse2              10094170 f   libucrtd:fpctrl.obj
 0001:000931b0       ___ctrlfp_sse2             100941b0 f   libucrtd:fpctrl.obj
 0001:00093210       ___fclrf_sse2              10094210 f   libucrtd:fpctrl.obj
 0001:00093230       ___get_fpsr_sse2           10094230 f   libucrtd:fpctrl.obj
 0001:00093260       ___set_fpsr_sse2           10094260 f   libucrtd:fpctrl.obj
 0001:00093340       ___set_statfp_sse2         10094340 f   libucrtd:fpctrl.obj
 0001:00093370       ___statfp_sse2             10094370 f   libucrtd:fpctrl.obj
 0001:000933a0       __clrfp                    100943a0 f   libucrtd:fpctrl.obj
 0001:000933c0       __ctrlfp                   100943c0 f   libucrtd:fpctrl.obj
 0001:000933f0       __set_statfp               100943f0 f   libucrtd:fpctrl.obj
 0001:00093460       __statfp                   10094460 f   libucrtd:fpctrl.obj
 0001:00093480       _ldexp                     10094480 f   libucrtd:ldexp.obj
 0001:00093780       _nextafter                 10094780 f   libucrtd:nextafter.obj
 0001:00093960       ___acrt_report_runtime_error 10094960 f   libucrtd:report_runtime_error.obj
 0001:00093b50       __query_app_type           10094b50 f   libucrtd:report_runtime_error.obj
 0001:00093b60       __set_app_type             10094b60 f   libucrtd:report_runtime_error.obj
 0001:00093b70       ?get_doserrno@__crt_cached_ptd_host@@QAE@XZ 10094b70 f i libucrtd:errno.obj
 0001:00093b90       ?set@?$cached@K@__crt_cached_ptd_host@@QAEKK@Z 10094b90 f i libucrtd:errno.obj
 0001:00093bc0       ___acrt_errno_from_os_error 10094bc0 f   libucrtd:errno.obj
 0001:00093c40       ___acrt_errno_map_os_error 10094c40 f   libucrtd:errno.obj
 0001:00093c70       ___acrt_errno_map_os_error_ptd 10094c70 f   libucrtd:errno.obj
 0001:00093cc0       ___doserrno                10094cc0 f   libucrtd:errno.obj
 0001:00093cf0       __errno                    10094cf0 f   libucrtd:errno.obj
 0001:00093d20       __get_doserrno             10094d20 f   libucrtd:errno.obj
 0001:00093db0       __get_errno                10094db0 f   libucrtd:errno.obj
 0001:00093e40       __set_doserrno             10094e40 f   libucrtd:errno.obj
 0001:00093e70       __set_errno                10094e70 f   libucrtd:errno.obj
 0001:00094fb0       __i64toa                   10095fb0 f   libucrtd:xtoa.obj
 0001:00095000       __i64toa_s                 10096000 f   libucrtd:xtoa.obj
 0001:00095050       __i64tow                   10096050 f   libucrtd:xtoa.obj
 0001:000950a0       __i64tow_s                 100960a0 f   libucrtd:xtoa.obj
 0001:000950f0       __itoa                     100960f0 f   libucrtd:xtoa.obj
 0001:00095140       __itoa_s                   10096140 f   libucrtd:xtoa.obj
 0001:00095190       __itow                     10096190 f   libucrtd:xtoa.obj
 0001:000951e0       __itow_s                   100961e0 f   libucrtd:xtoa.obj
 0001:00095230       __ltoa                     10096230 f   libucrtd:xtoa.obj
 0001:00095280       __ltoa_s                   10096280 f   libucrtd:xtoa.obj
 0001:000952d0       __ltow                     100962d0 f   libucrtd:xtoa.obj
 0001:00095320       __ltow_s                   10096320 f   libucrtd:xtoa.obj
 0001:00095370       __ui64toa                  10096370 f   libucrtd:xtoa.obj
 0001:000953a0       __ui64toa_s                100963a0 f   libucrtd:xtoa.obj
 0001:000953d0       __ui64tow                  100963d0 f   libucrtd:xtoa.obj
 0001:00095400       __ui64tow_s                10096400 f   libucrtd:xtoa.obj
 0001:00095430       __ultoa                    10096430 f   libucrtd:xtoa.obj
 0001:00095460       __ultoa_s                  10096460 f   libucrtd:xtoa.obj
 0001:00095490       __ultow                    10096490 f   libucrtd:xtoa.obj
 0001:000954c0       __ultow_s                  100964c0 f   libucrtd:xtoa.obj
 0001:000954f0       __set_error_mode           100964f0 f   libucrtd:set_error_mode.obj
 0001:000959f0       _wcscat_s                  100969f0 f   libucrtd:wcscat_s.obj
 0001:00095ef0       _wcsncat_s                 10096ef0 f   libucrtd:wcsncat_s.obj
 0001:00096be0       ??1?$__crt_simd_cleanup_guard@$00@@QAE@XZ 10097be0 f i libucrtd:strnlen.obj
 0001:00096bf0       ??1?$__crt_simd_cleanup_guard@$0A@@@QAE@XZ 10097bf0 f i libucrtd:strnlen.obj
 0001:00096c00       ?compare_equals@?$__crt_simd_traits@$00E@@SA?AT__m256i@@T2@0@Z 10097c00 f i libucrtd:strnlen.obj
 0001:00096c40       ?compare_equals@?$__crt_simd_traits@$00G@@SA?AT__m256i@@T2@0@Z 10097c40 f i libucrtd:strnlen.obj
 0001:00096c80       ?compare_equals@?$__crt_simd_traits@$0A@E@@SA?AT__m128i@@T2@0@Z 10097c80 f i libucrtd:strnlen.obj
 0001:00096cc0       ?compare_equals@?$__crt_simd_traits@$0A@G@@SA?AT__m128i@@T2@0@Z 10097cc0 f i libucrtd:strnlen.obj
 0001:00096d00       ?compute_byte_mask@?$__crt_simd_pack_traits@$00@@SAHT__m256i@@@Z 10097d00 f i libucrtd:strnlen.obj
 0001:00096d30       ?compute_byte_mask@?$__crt_simd_pack_traits@$0A@@@SAHT__m128i@@@Z 10097d30 f i libucrtd:strnlen.obj
 0001:00096d60       ?get_zero_pack@?$__crt_simd_pack_traits@$00@@SA?AT__m256i@@XZ 10097d60 f i libucrtd:strnlen.obj
 0001:00096d90       ?get_zero_pack@?$__crt_simd_pack_traits@$0A@@@SA?AT__m128i@@XZ 10097d90 f i libucrtd:strnlen.obj
 0001:00096dc0       _strnlen                   10097dc0 f   libucrtd:strnlen.obj
 0001:00096de0       _wcslen                    10097de0 f   libucrtd:strnlen.obj
 0001:00096e00       _wcsnlen                   10097e00 f   libucrtd:strnlen.obj
 0001:000972e0       _strncat_s                 100982e0 f   libucrtd:strncat_s.obj
 0001:00097300       ??$__acrt_convert_wcs_mbs_cp@_WDV<lambda_0fec1a7b3f42a53036604e18c2d5e07e>@@U__crt_win32_buffer_no_resizing@@@@YAHQB_WAAV?$__crt_win32_buffer@DU__crt_win32_buffer_no_resizing@@@@ABV<lambda_0fec1a7b3f42a53036604e18c2d5e07e>@@I@Z 10098300 f i libucrtd:getmodulefilenamea.obj
 0001:00097440       ??$__acrt_wcs_to_mbs_cp@U__crt_win32_buffer_no_resizing@@@@YAHQB_WAAV?$__crt_win32_buffer@DU__crt_win32_buffer_no_resizing@@@@I@Z 10098440 f i libucrtd:getmodulefilenamea.obj
 0001:00097470       ??0?$__crt_win32_buffer@DU__crt_win32_buffer_no_resizing@@@@QAE@QADI@Z 10098470 f i libucrtd:getmodulefilenamea.obj
 0001:000974c0       ??1?$__crt_win32_buffer@DU__crt_win32_buffer_no_resizing@@@@QAE@XZ 100984c0 f i libucrtd:getmodulefilenamea.obj
 0001:00097510       ??R<lambda_0fec1a7b3f42a53036604e18c2d5e07e>@@QBE@IQB_WQADI@Z 10098510 f i libucrtd:getmodulefilenamea.obj
