 PhysXCooking_32

 Timestamp is 6446ca38 (Mon Apr 24 20:28:08 2023)

 Preferred load address is 10000000

 Start         Length     Name                   Class
 0001:00000000 00000640H .text$di                CODE
 0001:00000640 0003929fH .text$mn                CODE
 0001:000398df 000000e5H .text$x                 CODE
 0002:00000000 00000120H .idata$5                DATA
 0002:00000120 00000004H .00cfg                  DATA
 0002:00000124 00000004H .CRT$XCA                DATA
 0002:00000128 000000f0H .CRT$XCU                DATA
 0002:00000218 00000004H .CRT$XCZ                DATA
 0002:0000021c 00000004H .CRT$XIA                DATA
 0002:00000220 0000000cH .CRT$XIC                DATA
 0002:0000022c 00000004H .CRT$XIZ                DATA
 0002:00000230 00000004H .CRT$XPA                DATA
 0002:00000234 00000008H .CRT$XPX                DATA
 0002:0000023c 00000004H .CRT$XPXA               DATA
 0002:00000240 00000004H .CRT$XPZ                DATA
 0002:00000244 00000004H .CRT$XTA                DATA
 0002:00000248 00000008H .CRT$XTZ                DATA
 0002:0000024c 00000000H .gfids$y                DATA
 0002:00000250 00008130H .rdata                  DATA
 0002:00008380 00000000H .rdata$CastGuardVftablesA DATA
 0002:00008380 00000000H .rdata$CastGuardVftablesC DATA
 0002:00008380 0000028cH .rdata$r                DATA
 0002:0000860c 0000002cH .rdata$sxdata           DATA
 0002:00008638 00000104H .rdata$voltmd           DATA
 0002:0000873c 000003fcH .rdata$zzzdbg           DATA
 0002:00008b38 00000004H .rtc$IAA                DATA
 0002:00008b3c 00000004H .rtc$IZZ                DATA
 0002:00008b40 00000004H .rtc$TAA                DATA
 0002:00008b44 00000004H .rtc$TZZ                DATA
 0002:00008b48 00000614H .xdata$x                DATA
 0002:0000915c 00000040H .didat$2                DATA
 0002:0000919c 00000020H .didat$3                DATA
 0002:000091bc 000000c4H .didat$4                DATA
 0002:00009280 00000904H .didat$6                DATA
 0002:00009b84 000000ccH .didat$7                DATA
 0002:00009c50 00001c38H .edata                  DATA
 0002:0000b888 00000014H .idata$2                DATA
 0002:0000b89c 00000014H .idata$3                DATA
 0002:0000b8b0 00000120H .idata$4                DATA
 0002:0000b9d0 00000534H .idata$6                DATA
 0003:00000000 00000890H .data                   DATA
 0003:00000890 00000470H .data$r                 DATA
 0003:00000d00 000000b4H .data$rs                DATA
 0003:00000db4 000000ccH .didat$5                DATA
 0003:00000e80 00000e1cH .bss                    DATA
 0004:00000000 00002608H _RDATA                  DATA
 0005:00000000 000000a0H .rsrc$01                DATA
 0005:000000a0 000004b0H .rsrc$02                DATA

  Address         Publics by Value              Rva+Base       Lib:Object

 0000:00000000       ___guard_longjmp_table     00000000     <absolute>
 0000:00000000       ___arm64x_redirection_metadata 00000000     <absolute>
 0000:00000000       ___arm64x_native_entrypoint 00000000     <absolute>
 0000:00000000       ___guard_eh_cont_count     00000000     <absolute>
 0000:00000000       ___guard_fids_count        00000000     <absolute>
 0000:00000000       ___hybrid_code_map_count   00000000     <absolute>
 0000:00000000       ___guard_eh_cont_table     00000000     <absolute>
 0000:00000000       ___x64_code_ranges_to_entry_points 00000000     <absolute>
 0000:00000000       ___guard_iat_count         00000000     <absolute>
 0000:00000000       __except_list              00000000     <absolute>
 0000:00000000       ___x64_code_ranges_to_entry_points_count 00000000     <absolute>
 0000:00000000       ___arm64x_extra_rfe_table  00000000     <absolute>
 0000:00000000       ___hybrid_code_map         00000000     <absolute>
 0000:00000000       ___guard_iat_table         00000000     <absolute>
 0000:00000000       ___arm64x_extra_rfe_table_size 00000000     <absolute>
 0000:00000000       ___guard_longjmp_count     00000000     <absolute>
 0000:00000000       ___guard_check_icall_a64n_fptr 00000000     <absolute>
 0000:00000000       ___hybrid_auxiliary_iat    00000000     <absolute>
 0000:00000000       ___arm64x_redirection_metadata_count 00000000     <absolute>
 0000:00000000       ___dynamic_value_reloc_table 00000000     <absolute>
 0000:00000000       ___AbsoluteZero            00000000     <absolute>
 0000:00000000       ___enclave_config          00000000     <absolute>
 0000:00000000       ___guard_fids_table        00000000     <absolute>
 0000:00000000       ___hybrid_auxiliary_iat_copy 00000000     <absolute>
 0000:0000000b       ___safe_se_handler_count   0000000b     <absolute>
 0000:00000100       ___guard_flags             00000100     <absolute>
 0000:00000000       ___ImageBase               10000000     <linker-defined>
 0001:00000640       ??0AdjacenciesBuilder@physx@@QAE@XZ 10001640 f   Adjacencies.obj
 0001:00000640       ??0BuildStats@Gu@physx@@QAE@XZ 10001640 f   BVHStructureBuilder.obj
 0001:00000650       ??0HeightFieldData@Gu@physx@@QAE@W4PxEMPTY@2@@Z 10001650 f i Cooking.obj
 0001:00000650       ??4Allocator@shdfnd@physx@@QAEAAV012@ABV012@@Z 10001650 f i Adjacencies.obj
 0001:00000650       ??0BigConvexData@physx@@QAE@W4PxEMPTY@1@@Z 10001650 f i BigConvexDataBuilder.obj
 0001:00000650       ??0Allocator@shdfnd@physx@@QAE@PBD@Z 10001650 f i Adjacencies.obj
 0001:00000650       ??4MutexImpl@shdfnd@physx@@QAEAAV012@ABV012@@Z 10001650 f i Adjacencies.obj
 0001:00000650       ??4PxFoundation@physx@@QAEAAV01@ABV01@@Z 10001650 f i Adjacencies.obj
 0001:00000650       ??4Allocator@shdfnd@physx@@QAEAAV012@$$QAV012@@Z 10001650 f i Adjacencies.obj
 0001:00000660       ??0PxFoundation@physx@@QAE@ABV01@@Z 10001660 f i Adjacencies.obj
 0001:00000670       ??0PxFoundation@physx@@QAE@XZ 10001670 f i Adjacencies.obj
 0001:00000680       ??1AdjacenciesBuilder@physx@@QAE@XZ 10001680 f   Adjacencies.obj
 0001:000006c0       ??1PxFoundation@physx@@MAE@XZ 100016c0 f i Adjacencies.obj
 0001:000006d0       ??_EPxFoundation@physx@@MAEPAXI@Z 100016d0 f i Adjacencies.obj
 0001:00000740       ??1AABBTreeBuildNode@Gu@physx@@QAE@XZ 10001740 f i BVHStructureBuilder.obj
 0001:00000740       ??1HeightFieldData@Gu@physx@@QAE@XZ 10001740 f i Cooking.obj
 0001:00000740       ?onMeshIndexFormatChange@TriangleMeshBuilder@physx@@UAEXXZ 10001740 f i TriangleMeshBuilder.obj
 0001:00000740       ??1BigConvexDataBuilder@physx@@QAE@XZ 10001740 f i BigConvexDataBuilder.obj
 0001:00000740       @_guard_check_icall_nop@4  10001740 f i LIBCMT:guard_support.obj
 0001:00000740       ??1Box@Gu@physx@@QAE@XZ    10001740 f i ConvexHullUtils.obj
 0001:00000740       ??_FAllocator@shdfnd@physx@@QAEXXZ 10001740 f i Adjacencies.obj
 0001:00000750       ?ComputeNbBoundaryEdges@Adjacencies@physx@@QBEIXZ 10001750 f   Adjacencies.obj
 0001:000009b0       ?GetNbHits@RadixSort@Cm@physx@@QBEIXZ 100019b0 f i Adjacencies.obj
 0001:000009c0       ?GetNbTotalCalls@RadixSort@Cm@physx@@QBEIXZ 100019c0 f i Adjacencies.obj
 0001:000009c0       ?getPos@AABBTreeBuildNode@Gu@physx@@QBEPBV123@XZ 100019c0 f i BVHStructureBuilder.obj
 0001:000009d0       ?GetNbVerts@BigConvexData@physx@@QBEIXZ 100019d0 f i BigConvexDataBuilder.obj
 0001:000009d0       ?raw_length@pcharNode@@UBEHXZ 100019d0 f i libvcruntime:undname.obj
 0001:000009d0       ?raw_length@DNameStatusNode@@UBEHXZ 100019d0 f i libvcruntime:undname.obj
 0001:000009d0       ?getErrorCallback@Foundation@shdfnd@physx@@UAEAAVPxErrorCallback@3@XZ 100019d0 f i Adjacencies.obj
 0001:000009d0       ?length@DNameStatusNode@@UBEHXZ 100019d0 f i libvcruntime:undname.obj
 0001:000009d0       ?length@pcharNode@@UBEHXZ  100019d0 f i libvcruntime:undname.obj
 0001:000009d0       ?GetRanks@RadixSort@Cm@physx@@QBEPBIXZ 100019d0 f i Adjacencies.obj
 0001:000009e0       ?GetRecyclable@RadixSort@Cm@physx@@QBEPAIXZ 100019e0 f i Adjacencies.obj
 0001:000009e0       ?raw_length@pairNode@@UBEHXZ 100019e0 f i libvcruntime:undname.obj
 0001:000009f0       ?Init@AdjacenciesBuilder@physx@@QAE_NABUADJACENCIESCREATE@2@@Z 100019f0 f   Adjacencies.obj
 0001:00000f00       ?getAllocator@Foundation@shdfnd@physx@@QAEAAVPxAllocatorCallback@3@XZ 10001f00 f i Adjacencies.obj
 0001:00000f10       ?getAllocatorCallback@Foundation@shdfnd@physx@@UAEAAVPxAllocatorCallback@3@XZ 10001f10 f i Adjacencies.obj
 0001:00000f20       ?getErrorLevel@Foundation@shdfnd@physx@@UBE?AW4Enum@PxErrorCode@3@XZ 10001f20 f i Adjacencies.obj
 0001:00000f30       ?getInternalErrorCallback@Foundation@shdfnd@physx@@QAEAAVPxErrorCallback@3@XZ 10001f30 f i Adjacencies.obj
 0001:00000f40       ?getNamedAllocMap@Foundation@shdfnd@physx@@QAEAAV?$HashMap@PBVNamedAllocator@shdfnd@physx@@PBDU?$Hash@PBVNamedAllocator@shdfnd@physx@@@23@VNonTrackingAllocator@23@@23@XZ 10001f40 f i Adjacencies.obj
 0001:00000f50       ?getNamedAllocMutex@Foundation@shdfnd@physx@@QAEAAV?$MutexT@VAllocator@shdfnd@physx@@@23@XZ 10001f50 f i Adjacencies.obj
 0001:00000f60       ?getReportAllocationNames@Foundation@shdfnd@physx@@UBE_NXZ 10001f60 f i Adjacencies.obj
 0001:00000f70       ?getTempAllocFreeTable@Foundation@shdfnd@physx@@QAEAAV?$Array@PATTempAllocatorChunk@shdfnd@physx@@VAllocator@23@@23@XZ 10001f70 f i Adjacencies.obj
 0001:00000f80       ?getTempAllocMutex@Foundation@shdfnd@physx@@QAEAAV?$MutexT@VAllocator@shdfnd@physx@@@23@XZ 10001f80 f i Adjacencies.obj
 0001:00000f90       ?invalidateRanks@RadixSort@Cm@physx@@QAEXXZ 10001f90 f i Adjacencies.obj
 0001:00000fa0       ?setErrorLevel@Foundation@shdfnd@physx@@UAEXW4Enum@PxErrorCode@3@@Z 10001fa0 f i Adjacencies.obj
 0001:00000fb0       ?setReportAllocationNames@Foundation@shdfnd@physx@@UAEX_N@Z 10001fb0 f i Adjacencies.obj
 0001:00000fc0       ??0DebugText@Cm@physx@@QAE@ABU012@@Z 10001fc0 f i Cooking.obj
 0001:00000fc0       ??0DebugText@Cm@physx@@QAE@$$QAU012@@Z 10001fc0 f i Cooking.obj
 0001:00001010       ??4HeightFieldData@Gu@physx@@QAEAAU012@$$QAU012@@Z 10002010 f i Cooking.obj
 0001:00001010       ??0HeightFieldData@Gu@physx@@QAE@ABU012@@Z 10002010 f i Cooking.obj
 0001:00001010       ??0HeightFieldData@Gu@physx@@QAE@$$QAU012@@Z 10002010 f i Cooking.obj
 0001:00001010       ??4HeightFieldData@Gu@physx@@QAEAAU012@ABU012@@Z 10002010 f i Cooking.obj
 0001:00001080       ??0HeightFieldData@Gu@physx@@QAE@XZ 10002080 f i Cooking.obj
 0001:00001090       ??0PxConvexMeshDesc@physx@@QAE@ABV01@@Z 10002090 f i Cooking.obj
 0001:000010e0       ??0RenderOutput@Cm@physx@@QAE@AAVRenderBuffer@12@@Z 100020e0 f i Cooking.obj
 0001:000011a0       ??0RenderOutput@Cm@physx@@QAE@ABV012@@Z 100021a0 f i Cooking.obj
 0001:00001250       ??1PxConvexMesh@physx@@MAE@XZ 10002250 f i Cooking.obj
 0001:00001250       ??1PxHeightField@physx@@MAE@XZ 10002250 f i Cooking.obj
 0001:00001260       ??4DebugText@Cm@physx@@QAEAAU012@ABU012@@Z 10002260 f i Cooking.obj
 0001:00001260       ??4DebugText@Cm@physx@@QAEAAU012@$$QAU012@@Z 10002260 f i Cooking.obj
 0001:000012f0       ??4FPUGuard@shdfnd@physx@@QAEAAV012@ABV012@@Z 100022f0 f i Cooking.obj
 0001:00001310       ??_ECooking@physx@@UAEPAXI@Z 10002310 f i Cooking.obj
 0001:00001310       ??_GCooking@physx@@UAEPAXI@Z 10002310 f i Cooking.obj
 0001:00001350       ??_EPxBase@physx@@MAEPAXI@Z 10002350 f i Cooking.obj
 0001:00001350       ??_GPxBase@physx@@MAEPAXI@Z 10002350 f i Cooking.obj
 0001:00001380       ??_EPxCooking@physx@@MAEPAXI@Z 10002380 f i Cooking.obj
 0001:00001380       ??_GPxCooking@physx@@MAEPAXI@Z 10002380 f i Cooking.obj
 0001:000013b0       ?allocate@?$Array@UPxDebugLine@physx@@V?$ReflectionAllocator@UPxDebugLine@physx@@@shdfnd@2@@shdfnd@physx@@IAEPAUPxDebugLine@3@I@Z 100023b0 f i Cooking.obj
 0001:00001420       ?computeHullPolygons@Cooking@physx@@UBE_NABVPxSimpleTriangleMesh@2@AAVPxAllocatorCallback@2@AAIAAPAVPxVec3@2@2AAPAI2AAPAUPxHullPolygon@2@@Z 10002420 f   Cooking.obj
 0001:00001550       ?cookBVHStructure@Cooking@physx@@UBE_NABVPxBVHStructureDesc@2@AAVPxOutputStream@2@@Z 10002550 f   Cooking.obj
 0001:00001600       ?cookConvexMesh@Cooking@physx@@UBE_NABVPxConvexMeshDesc@2@AAVPxOutputStream@2@PAW4Enum@PxConvexMeshCookingResult@2@@Z 10002600 f   Cooking.obj
 0001:00001780       ?cookConvexMeshInternal@Cooking@physx@@ABE_NABVPxConvexMeshDesc@2@AAVConvexMeshBuilder@2@PAVConvexHullLib@2@PAW4Enum@PxConvexMeshCookingResult@2@@Z 10002780 f   Cooking.obj
 0001:00001950       ?cookHeightField@Cooking@physx@@UBE_NABVPxHeightFieldDesc@2@AAVPxOutputStream@2@@Z 10002950 f   Cooking.obj
 0001:00001a10       ?cookTriangleMesh@Cooking@physx@@UBE_NABVPxTriangleMeshDesc@2@AAVPxOutputStream@2@PAW4Enum@PxTriangleMeshCookingResult@2@@Z 10002a10 f   Cooking.obj
 0001:00001b20       ?copy@?$Array@UPxDebugLine@physx@@V?$ReflectionAllocator@UPxDebugLine@physx@@@shdfnd@2@@shdfnd@physx@@KAXPAUPxDebugLine@3@0PBU43@@Z 10002b20 f i Cooking.obj
 0001:00001b90       ?createBVHStructure@Cooking@physx@@UBEPAVPxBVHStructure@2@ABVPxBVHStructureDesc@2@AAVPxPhysicsInsertionCallback@2@@Z 10002b90 f   Cooking.obj
 0001:00001c40       ?createConvexMesh@Cooking@physx@@UBEPAVPxConvexMesh@2@ABVPxConvexMeshDesc@2@AAVPxPhysicsInsertionCallback@2@PAW4Enum@PxConvexMeshCookingResult@2@@Z 10002c40 f   Cooking.obj
 0001:00001de0       ?createHeightField@Cooking@physx@@UBEPAVPxHeightField@2@ABVPxHeightFieldDesc@2@AAVPxPhysicsInsertionCallback@2@@Z 10002de0 f   Cooking.obj
 0001:00001f10       ?createTriangleMesh@Cooking@physx@@ABEPAVPxTriangleMesh@2@AAVTriangleMeshBuilder@2@ABVPxTriangleMeshDesc@2@AAVPxPhysicsInsertionCallback@2@PAW4Enum@PxTriangleMeshCookingResult@2@@Z 10002f10 f   Cooking.obj
 0001:00001fa0       ?createTriangleMesh@Cooking@physx@@UBEPAVPxTriangleMesh@2@ABVPxTriangleMeshDesc@2@AAVPxPhysicsInsertionCallback@2@PAW4Enum@PxTriangleMeshCookingResult@2@@Z 10002fa0 f   Cooking.obj
 0001:00002020       ?getConcreteTypeName@PxConvexMesh@physx@@UBEPBDXZ 10003020 f i Cooking.obj
 0001:00002030       ?getConcreteTypeName@PxHeightField@physx@@UBEPBDXZ 10003030 f i Cooking.obj
 0001:00002040       ?getConvexEdgeThreshold@HeightField@Gu@physx@@UBEMXZ 10003040 f i Cooking.obj
 0001:00002050       ?getFlags@HeightField@Gu@physx@@UBE?AV?$PxFlags@W4Enum@PxHeightFieldFlag@physx@@G@3@XZ 10003050 f i Cooking.obj
 0001:00002060       ?getFormat@HeightField@Gu@physx@@UBE?AW4Enum@PxHeightFieldFormat@3@XZ 10003060 f i Cooking.obj
 0001:00002070       ?getHeight@HeightField@Gu@physx@@UBEMMM@Z 10003070 f i Cooking.obj
 0001:000020d0       ?getHeightInternal2@HeightField@Gu@physx@@QBEMIMM@Z 100030d0 f i Cooking.obj
 0001:00002220       ?getIndexBuffer@ConvexMesh@Gu@physx@@UBEPBEXZ 10003220 f i Cooking.obj
 0001:00002260       ?getNbColumns@HeightField@Gu@physx@@UBEIXZ 10003260 f i Cooking.obj
 0001:00002270       ?getNbPolygons@ConvexMesh@Gu@physx@@UBEIXZ 10003270 f i Cooking.obj
 0001:00002280       ?getNbRows@HeightField@Gu@physx@@UBEIXZ 10003280 f i Cooking.obj
 0001:00002290       ?getNbVertices@ConvexMesh@Gu@physx@@UBEIXZ 10003290 f i Cooking.obj
 0001:000022a0       ??0AABBTreeBuildNode@Gu@physx@@QAE@XZ 100032a0 f i BVHStructureBuilder.obj
 0001:000022a0       ?getPaddedBounds@HeightFieldData@Gu@physx@@QBEABVCenterExtentsPadded@23@XZ 100032a0 f i Cooking.obj
 0001:000022a0       ?getAABB@AABBTreeBuildNode@Gu@physx@@QBEABVPxBounds3@3@XZ 100032a0 f i BVHStructureBuilder.obj
 0001:000022a0       ??0Box@Gu@physx@@QAE@XZ    100032a0 f i ConvexHullUtils.obj
 0001:000022b0       ?getDenormalizeScale@QuantizerImpl@@UBEABVPxVec3@physx@@XZ 100032b0 f   Quantizer.obj
 0001:000022b0       ?getParams@Cooking@physx@@UBEABUPxCookingParams@2@XZ 100032b0 f   Cooking.obj
 0001:000022c0       ?getSample@HeightField@Gu@physx@@UBEABUPxHeightFieldSample@3@II@Z 100032c0 f i Cooking.obj
 0001:000022e0       ?getSampleStride@HeightField@Gu@physx@@UBEIXZ 100032e0 f i Cooking.obj
 0001:000022f0       ?getTimestamp@HeightField@Gu@physx@@UBEIXZ 100032f0 f i Cooking.obj
 0001:00002300       ?getTriangleMaterialIndex@HeightField@Gu@physx@@UBEGI@Z 10003300 f i Cooking.obj
 0001:00002330       ?getTriangleNormal@HeightField@Gu@physx@@UBE?AVPxVec3@3@I@Z 10003330 f i Cooking.obj
 0001:00002420       ?getVertices@ConvexMesh@Gu@physx@@UBEPBVPxVec3@3@XZ 10003420 f i Cooking.obj
 0001:00002430       ?isKindOf@PxBase@physx@@MBE_NPBD@Z 10003430 f i Cooking.obj
 0001:00002480       ?isKindOf@PxConvexMesh@physx@@MBE_NPBD@Z 10003480 f i Cooking.obj
 0001:00002500       ?isKindOf@PxHeightField@physx@@MBE_NPBD@Z 10003500 f i Cooking.obj
 0001:00002580       ?isReleasable@PxBase@physx@@UBE_NXZ 10003580 f i Cooking.obj
 0001:00002590       ?outputSegment@RenderOutput@Cm@physx@@QAEXABVPxVec3@3@0@Z 10003590 f i Cooking.obj
 0001:00002620       ?platformMismatch@Cooking@physx@@UBE_NXZ 10003620 f   Cooking.obj
 0001:00002630       ?preExportDataReset@ConvexMesh@Gu@physx@@QAEXXZ 10003630 f i Cooking.obj
 0001:00002630       ?preExportDataReset@HeightField@Gu@physx@@QAEXXZ 10003630 f i Cooking.obj
 0001:00002640       ?recreate@?$Array@UPxDebugLine@physx@@V?$ReflectionAllocator@UPxDebugLine@physx@@@shdfnd@2@@shdfnd@physx@@IAEXI@Z 10003640 f i Cooking.obj
 0001:000026a0       ?release@Cooking@physx@@UAEXXZ 100036a0 f   Cooking.obj
 0001:000026b0       ?reserveSegments@RenderOutput@Cm@physx@@QAEPAUPxDebugLine@3@I@Z 100036b0 f i Cooking.obj
 0001:00002710       ?setParams@Cooking@physx@@UAEXABUPxCookingParams@2@@Z 10003710 f   Cooking.obj
 0001:00002770       ?validateConvexMesh@Cooking@physx@@UBE_NABVPxConvexMeshDesc@2@@Z 10003770 f   Cooking.obj
 0001:000027c0       ?validateTriangleMesh@Cooking@physx@@UBE_NABVPxTriangleMeshDesc@2@@Z 100037c0 f   Cooking.obj
 0001:000028a0       _PxCreateCooking           100038a0 f   Cooking.obj
 0001:00002960       ??0ReducedVertexCloud@physx@@QAE@PBVPxVec3@1@I@Z 10003960 f   CookingUtils.obj
 0001:00002990       ??1ReducedVertexCloud@physx@@QAE@XZ 10003990 f   CookingUtils.obj
 0001:000029d0       ?Reduce@ReducedVertexCloud@physx@@QAE_NPAUREDUCEDCLOUD@2@@Z 100039d0 f   CookingUtils.obj
 0001:00002c70       ??$?_UI@@YAPAXIV?$ReflectionAllocator@I@shdfnd@physx@@PBDH@Z 10003c70 f i EdgeList.obj
 0001:00002cd0       ??0EdgeListBuilder@Gu@physx@@QAE@XZ 10003cd0 f   EdgeList.obj
 0001:00002d00       ??1EdgeList@Gu@physx@@QAE@XZ 10003d00 f   EdgeList.obj
 0001:00002d80       ??1EdgeListBuilder@Gu@physx@@QAE@XZ 10003d80 f   EdgeList.obj
 0001:00002d90       ?computeActiveEdges@EdgeListBuilder@Gu@physx@@AAE_NIPBIPBGPBVPxVec3@3@M@Z 10003d90 f   EdgeList.obj
 0001:00004590       ?createEdgesToFaces@EdgeListBuilder@Gu@physx@@AAE_NIPBIPBG@Z 10005590 f   EdgeList.obj
 0001:00004750       ?createFacesToEdges@EdgeListBuilder@Gu@physx@@AAE_NIPBIPBG@Z 10005750 f   EdgeList.obj
 0001:00004b10       ?init@EdgeListBuilder@Gu@physx@@QAE_NABUEDGELISTCREATE@23@@Z 10005b10 f   EdgeList.obj
 0001:00004bf0       ??0MeshCleaner@physx@@QAE@IPBVPxVec3@1@IPBIM@Z 10005bf0 f   MeshCleaner.obj
 0001:00005470       ??1MeshCleaner@physx@@QAE@XZ 10006470 f   MeshCleaner.obj
 0001:000054d0       ??$kmeans_cluster@VPxVec3@physx@@M@@YAIPBVPxVec3@physx@@IIPAV01@PAIMM@Z 100064d0 f i Quantizer.obj
 0001:00005ad0       ??_GQuantizer@physx@@MAEPAXI@Z 10006ad0 f i Quantizer.obj
 0001:00005ad0       ??_EQuantizer@physx@@MAEPAXI@Z 10006ad0 f i Quantizer.obj
 0001:00005b00       ??_GQuantizerImpl@@EAEPAXI@Z 10006b00 f i Quantizer.obj
 0001:00005b00       ??_EQuantizerImpl@@EAEPAXI@Z 10006b00 f i Quantizer.obj
 0001:00005b90       ?createQuantizer@physx@@YAPAVQuantizer@1@XZ 10006b90 f   Quantizer.obj
 0001:00005c40       ?getDenormalizeCenter@QuantizerImpl@@UBEABVPxVec3@physx@@XZ 10006c40 f i Quantizer.obj
 0001:00005c50       ?growAndPushBack@?$Array@VPxVec3@physx@@V?$ReflectionAllocator@VPxVec3@physx@@@shdfnd@2@@shdfnd@physx@@IAEAAVPxVec3@3@ABV43@@Z 10006c50 f i Quantizer.obj
 0001:00005e00       ?kmeansQuantize3D@QuantizerImpl@@UAEPBVPxVec3@physx@@IPBV23@I_NIAAI@Z 10006e00 f i Quantizer.obj
 0001:00006000       ?normalizeInput@QuantizerImpl@@AAEXIPBVPxVec3@physx@@I@Z 10007000 f i Quantizer.obj
 0001:00006280       ?release@QuantizerImpl@@UAEXXZ 10007280 f i Quantizer.obj
 0001:00006290       ??$copy@V?$ReflectionAllocator@USlab@NodeAllocator@Gu@physx@@@shdfnd@physx@@@?$Array@USlab@NodeAllocator@Gu@physx@@V?$ReflectionAllocator@USlab@NodeAllocator@Gu@physx@@@shdfnd@4@@shdfnd@physx@@IAEXABV012@@Z 10007290 f i BVHStructureBuilder.obj
 0001:00006300       ??0AABBTreeBuildNode@Gu@physx@@QAE@ABV012@@Z 10007300 f i BVHStructureBuilder.obj
 0001:00006300       ??4AABBTreeBuildNode@Gu@physx@@QAEAAV012@ABV012@@Z 10007300 f i BVHStructureBuilder.obj
 0001:00006340       ??0AABBTreeBuildParams@Gu@physx@@QAE@IIPBVPxBounds3@2@@Z 10007340 f i BVHStructureBuilder.obj
 0001:00006360       ??0BVHStructureBuilder@physx@@QAE@XZ 10007360 f   BVHStructureBuilder.obj
 0001:00006390       ??0NodeAllocator@Gu@physx@@QAE@ABV012@@Z 10007390 f i BVHStructureBuilder.obj
 0001:000063c0       ?reset@AABBTreeBuildParams@Gu@physx@@QAEXXZ 100073c0 f i BVHStructureBuilder.obj
 0001:000063c0       ??1AABBTreeBuildParams@Gu@physx@@QAE@XZ 100073c0 f i BVHStructureBuilder.obj
 0001:00006400       ??1BVHStructureBuilder@physx@@QAE@XZ 10007400 f   BVHStructureBuilder.obj
 0001:00006460       ??4AABBTreeBuildParams@Gu@physx@@QAEAAV012@ABV012@@Z 10007460 f i BVHStructureBuilder.obj
 0001:00006470       ??4BuildStats@Gu@physx@@QAEAAU012@$$QAU012@@Z 10007470 f i BVHStructureBuilder.obj
 0001:00006490       ??4BuildStats@Gu@physx@@QAEAAU012@ABU012@@Z 10007490 f i BVHStructureBuilder.obj
 0001:000064b0       ??4NodeAllocator@Gu@physx@@QAEAAV012@ABV012@@Z 100074b0 f i BVHStructureBuilder.obj
 0001:00006540       ??_FAABBTreeBuildParams@Gu@physx@@QAEXXZ 10007540 f i BVHStructureBuilder.obj
 0001:00006560       ?__global_delete@@YAXPAXI@Z 10007560 f i BVHStructureBuilder.obj
 0001:00006570       ?allocate@?$Array@USlab@NodeAllocator@Gu@physx@@V?$ReflectionAllocator@USlab@NodeAllocator@Gu@physx@@@shdfnd@4@@shdfnd@physx@@IAEPAUSlab@NodeAllocator@Gu@3@I@Z 10007570 f i BVHStructureBuilder.obj
 0001:000065e0       ?getCount@BuildStats@Gu@physx@@QBEIXZ 100075e0 f i BVHStructureBuilder.obj
 0001:000065f0       ?getNbRuntimePrimitives@AABBTreeBuildNode@Gu@physx@@QBEIXZ 100075f0 f i BVHStructureBuilder.obj
 0001:000065f0       ?getNbPrimitives@AABBTreeBuildNode@Gu@physx@@QBEIXZ 100075f0 f i BVHStructureBuilder.obj
 0001:00006600       ?getNeg@AABBTreeBuildNode@Gu@physx@@QBEPBV123@XZ 10007600 f i BVHStructureBuilder.obj
 0001:00006610       ?getPrimitives@AABBTreeBuildNode@Gu@physx@@QAEPAIPAI@Z 10007610 f i BVHStructureBuilder.obj
 0001:00006610       ?getPrimitives@AABBTreeBuildNode@Gu@physx@@QBEPBIPBI@Z 10007610 f i BVHStructureBuilder.obj
 0001:00006620       ?increaseCount@BuildStats@Gu@physx@@QAEXI@Z 10007620 f i BVHStructureBuilder.obj
 0001:00006630       ?isLeaf@AABBTreeBuildNode@Gu@physx@@QBE_NXZ 10007630 f i BVHStructureBuilder.obj
 0001:00006640       ?loadFromDesc@BVHStructureBuilder@physx@@QAE_NABVPxBVHStructureDesc@2@@Z 10007640 f   BVHStructureBuilder.obj
 0001:00006960       ?moveData@BVHStructureBuilder@physx@@QAEXAAUBVHStructureData@Gu@2@@Z 10007960 f   BVHStructureBuilder.obj
 0001:000069b0       ?recreate@?$Array@USlab@NodeAllocator@Gu@physx@@V?$ReflectionAllocator@USlab@NodeAllocator@Gu@physx@@@shdfnd@4@@shdfnd@physx@@IAEXI@Z 100079b0 f i BVHStructureBuilder.obj
 0001:00006a10       ?reset@BuildStats@Gu@physx@@QAEXXZ 10007a10 f i BVHStructureBuilder.obj
 0001:00006a20       ?save@BVHStructureBuilder@physx@@QBE_NAAVPxOutputStream@2@_N@Z 10007a20 f   BVHStructureBuilder.obj
 0001:00006b30       ?setCount@BuildStats@Gu@physx@@QAEXI@Z 10007b30 f i BVHStructureBuilder.obj
 0001:00006b40       ?setNbRunTimePrimitives@AABBTreeBuildNode@Gu@physx@@QAEXI@Z 10007b40 f i BVHStructureBuilder.obj
 0001:00006b50       ?saveHeightField@physx@@YA_NABVHeightField@Gu@1@AAVPxOutputStream@1@_N@Z 10007b50 f   HeightFieldCooking.obj
 0001:00006d30       ??$sort@IU?$Less@I@shdfnd@physx@@V?$ReflectionAllocator@I@23@@shdfnd@physx@@YAXPAIIABU?$Less@I@01@ABV?$ReflectionAllocator@I@01@I@Z 10007d30 f i RTreeCooking.obj
 0001:000070b0       ??$sort@IUSortBoundsPredicate@physx@@V?$ReflectionAllocator@I@shdfnd@2@@shdfnd@physx@@YAXPAIIABUSortBoundsPredicate@1@ABV?$ReflectionAllocator@I@01@I@Z 100080b0 f i RTreeCooking.obj
 0001:00007590       ?allocate@?$Array@UInterval@physx@@V?$InlineAllocator@$0CAAA@V?$ReflectionAllocator@UInterval@physx@@@shdfnd@physx@@@shdfnd@2@@shdfnd@physx@@IAEPAUInterval@3@I@Z 10008590 f i RTreeCooking.obj
 0001:00007620       ?allocate@?$Array@UPxBounds3V@physx@@V?$ReflectionAllocator@UPxBounds3V@physx@@@shdfnd@2@@shdfnd@physx@@IAEPAUPxBounds3V@3@I@Z 10008620 f i RTreeCooking.obj
 0001:00007690       ?allocate@?$Array@URTreeNodeNQ@physx@@V?$ReflectionAllocator@URTreeNodeNQ@physx@@@shdfnd@2@@shdfnd@physx@@IAEPAURTreeNodeNQ@3@I@Z 10008690 f i RTreeCooking.obj
 0001:00007700       ?allocate@?$Array@URTreeNodeQ@Gu@physx@@V?$ReflectionAllocator@URTreeNodeQ@Gu@physx@@@shdfnd@3@@shdfnd@physx@@IAEPAURTreeNodeQ@Gu@3@I@Z 10008700 f i RTreeCooking.obj
 0001:00007770       ?allocate@?$Array@VPxVec3@physx@@V?$ReflectionAllocator@VPxVec3@physx@@@shdfnd@2@@shdfnd@physx@@IAEPAVPxVec3@3@I@Z 10008770 f i RTreeCooking.obj
 0001:000077e0       ?allocate@?$ReflectionAllocator@I@shdfnd@physx@@QAEPAXIPBDH@Z 100087e0 f i RTreeCooking.obj
 0001:00008480       ?buildFromTriangles@RTreeCooker@physx@@SAXAAURTree@Gu@2@PBVPxVec3@2@IPBGPBIIAAV?$Array@IV?$ReflectionAllocator@I@shdfnd@physx@@@shdfnd@2@PAURemapCallback@12@MW4Enum@PxMeshCookingHint@2@@Z 10009480 f   RTreeCooking.obj
 0001:000086b0       ?copy@?$Array@URTreeNodeNQ@physx@@V?$ReflectionAllocator@URTreeNodeNQ@physx@@@shdfnd@2@@shdfnd@physx@@KAXPAURTreeNodeNQ@3@0PBU43@@Z 100096b0 f i RTreeCooking.obj
 0001:00008720       ?copy@?$Array@VPxVec3@physx@@V?$ReflectionAllocator@VPxVec3@physx@@@shdfnd@2@@shdfnd@physx@@KAXPAVPxVec3@3@0PBV43@@Z 10009720 f i RTreeCooking.obj
 0001:000087e0       ?growAndPushBack@?$Array@IV?$ReflectionAllocator@I@shdfnd@physx@@@shdfnd@physx@@IAEAAIABI@Z 100097e0 f i RTreeCooking.obj
 0001:00008880       ?growAndPushBack@?$Array@UInterval@physx@@V?$InlineAllocator@$0CAAA@V?$ReflectionAllocator@UInterval@physx@@@shdfnd@physx@@@shdfnd@2@@shdfnd@physx@@IAEAAUInterval@3@ABU43@@Z 10009880 f i RTreeCooking.obj
 0001:00008950       ?growAndPushBack@?$Array@UPxBounds3V@physx@@V?$ReflectionAllocator@UPxBounds3V@physx@@@shdfnd@2@@shdfnd@physx@@IAEAAUPxBounds3V@3@ABU43@@Z 10009950 f i RTreeCooking.obj
 0001:000089f0       ?growAndPushBack@?$Array@URTreeNodeNQ@physx@@V?$ReflectionAllocator@URTreeNodeNQ@physx@@@shdfnd@2@@shdfnd@physx@@IAEAAURTreeNodeNQ@3@ABU43@@Z 100099f0 f i RTreeCooking.obj
 0001:00008aa0       ?growAndPushBack@?$Array@URTreeNodeQ@Gu@physx@@V?$ReflectionAllocator@URTreeNodeQ@Gu@physx@@@shdfnd@3@@shdfnd@physx@@IAEAAURTreeNodeQ@Gu@3@ABU453@@Z 10009aa0 f i RTreeCooking.obj
 0001:00008b70       ?recreate@?$Array@IV?$ReflectionAllocator@I@shdfnd@physx@@@shdfnd@physx@@IAEXI@Z 10009b70 f i RTreeCooking.obj
 0001:00008bf0       ?recreate@?$Array@UPxBounds3V@physx@@V?$ReflectionAllocator@UPxBounds3V@physx@@@shdfnd@2@@shdfnd@physx@@IAEXI@Z 10009bf0 f i RTreeCooking.obj
 0001:00008c50       ?recreate@?$Array@URTreeNodeNQ@physx@@V?$ReflectionAllocator@URTreeNodeNQ@physx@@@shdfnd@2@@shdfnd@physx@@IAEXI@Z 10009c50 f i RTreeCooking.obj
 0001:00008cb0       ?recreate@?$Array@URTreeNodeQ@Gu@physx@@V?$ReflectionAllocator@URTreeNodeQ@Gu@physx@@@shdfnd@3@@shdfnd@physx@@IAEXI@Z 10009cb0 f i RTreeCooking.obj
 0001:00008d30       ?recreate@?$Array@VPxVec3@physx@@V?$ReflectionAllocator@VPxVec3@physx@@@shdfnd@2@@shdfnd@physx@@IAEXI@Z 10009d30 f i RTreeCooking.obj
 0001:00008d90       ?resize@?$Array@IV?$ReflectionAllocator@I@shdfnd@physx@@@shdfnd@physx@@QAEXIABI@Z 10009d90 f i RTreeCooking.obj
 0001:00008e30       ?resizeUninitialized@?$Array@URTreeNodeNQ@physx@@V?$ReflectionAllocator@URTreeNodeNQ@physx@@@shdfnd@2@@shdfnd@physx@@QAEXI@Z 10009e30 f i RTreeCooking.obj
 0001:00008e60       ?sort4@SubSortQuick@physx@@QAEXPIAIIAAV?$Array@URTreeNodeNQ@physx@@V?$ReflectionAllocator@URTreeNodeNQ@physx@@@shdfnd@2@@shdfnd@2@AAIAAUPxBounds3V@2@I@Z 10009e60 f i RTreeCooking.obj
 0001:00009270       ?sort4@SubSortSAH@physx@@QAEXPAIIAAV?$Array@URTreeNodeNQ@physx@@V?$ReflectionAllocator@URTreeNodeNQ@physx@@@shdfnd@2@@shdfnd@2@AAIIPAURTreeNodeNQ@2@@Z 1000a270 f i RTreeCooking.obj
 0001:000099d0       ?split@SubSortSAH@physx@@QAEIPAII@Z 1000a9d0 f i RTreeCooking.obj
 0001:00009df0       ?computeLocalBounds@MeshBulider@physx@@IAEXAAVMeshDataBase@Gu@2@@Z 1000adf0 f   MeshBuilder.obj
 0001:00009e70       ??$?_UG@@YAPAXIV?$ReflectionAllocator@G@shdfnd@physx@@PBDH@Z 1000ae70 f i TriangleMeshBuilder.obj
 0001:00009ed0       ??$sort@UEdgeTriLookup@physx@@U?$Less@UEdgeTriLookup@physx@@@shdfnd@2@V?$ReflectionAllocator@UEdgeTriLookup@physx@@@42@@shdfnd@physx@@YAXPAUEdgeTriLookup@1@IABU?$Less@UEdgeTriLookup@physx@@@01@ABV?$ReflectionAllocator@UEdgeTriLookup@physx@@@01@I@Z 1000aed0 f i TriangleMeshBuilder.obj
 0001:0000a350       ??0BV4TriangleMeshBuilder@physx@@QAE@ABUPxCookingParams@1@@Z 1000b350 f   TriangleMeshBuilder.obj
 0001:0000a3a0       ??0RTreeTriangleMeshBuilder@physx@@QAE@ABUPxCookingParams@1@@Z 1000b3a0 f   TriangleMeshBuilder.obj
 0001:0000a410       ??0TriangleMeshData@Gu@physx@@QAE@XZ 1000b410 f i TriangleMeshBuilder.obj
 0001:0000a4b0       ??1BV4TriangleMeshBuilder@physx@@UAE@XZ 1000b4b0 f   TriangleMeshBuilder.obj
 0001:0000a510       ??1MeshDataBase@Gu@physx@@UAE@XZ 1000b510 f i TriangleMeshBuilder.obj
 0001:0000a5c0       ??1RTreeTriangleMeshBuilder@physx@@UAE@XZ 1000b5c0 f   TriangleMeshBuilder.obj
 0001:0000a640       ??1TriangleMeshData@Gu@physx@@UAE@XZ 1000b640 f i TriangleMeshBuilder.obj
 0001:0000a6c0       ??_GBV4TriangleData@Gu@physx@@UAEPAXI@Z 1000b6c0 f i TriangleMeshBuilder.obj
 0001:0000a6c0       ??_EBV4TriangleData@Gu@physx@@UAEPAXI@Z 1000b6c0 f i TriangleMeshBuilder.obj
 0001:0000a720       ??_EBV4TriangleMeshBuilder@physx@@UAEPAXI@Z 1000b720 f i TriangleMeshBuilder.obj
 0001:0000a720       ??_GBV4TriangleMeshBuilder@physx@@UAEPAXI@Z 1000b720 f i TriangleMeshBuilder.obj
 0001:0000a790       ??_GMeshDataBase@Gu@physx@@UAEPAXI@Z 1000b790 f i TriangleMeshBuilder.obj
 0001:0000a790       ??_EMeshDataBase@Gu@physx@@UAEPAXI@Z 1000b790 f i TriangleMeshBuilder.obj
 0001:0000a7d0       ??_ERTreeCookerRemap@physx@@UAEPAXI@Z 1000b7d0 f i TriangleMeshBuilder.obj
 0001:0000a7d0       ??_GRTreeCookerRemap@physx@@UAEPAXI@Z 1000b7d0 f i TriangleMeshBuilder.obj
 0001:0000a800       ??_ERTreeTriangleData@Gu@physx@@UAEPAXI@Z 1000b800 f i TriangleMeshBuilder.obj
 0001:0000a800       ??_GRTreeTriangleData@Gu@physx@@UAEPAXI@Z 1000b800 f i TriangleMeshBuilder.obj
 0001:0000a880       ??_GRTreeTriangleMeshBuilder@physx@@UAEPAXI@Z 1000b880 f i TriangleMeshBuilder.obj
 0001:0000a880       ??_ERTreeTriangleMeshBuilder@physx@@UAEPAXI@Z 1000b880 f i TriangleMeshBuilder.obj
 0001:0000a910       ??_ERemapCallback@RTreeCooker@physx@@UAEPAXI@Z 1000b910 f i TriangleMeshBuilder.obj
 0001:0000a910       ??_GRemapCallback@RTreeCooker@physx@@UAEPAXI@Z 1000b910 f i TriangleMeshBuilder.obj
 0001:0000a940       ??_ETriangleMeshBuilder@physx@@UAEPAXI@Z 1000b940 f i TriangleMeshBuilder.obj
 0001:0000a940       ??_GTriangleMeshBuilder@physx@@UAEPAXI@Z 1000b940 f i TriangleMeshBuilder.obj
 0001:0000a990       ??_GTriangleMeshData@Gu@physx@@UAEPAXI@Z 1000b990 f i TriangleMeshBuilder.obj
 0001:0000a990       ??_ETriangleMeshData@Gu@physx@@UAEPAXI@Z 1000b990 f i TriangleMeshBuilder.obj
 0001:0000a9d0       ?allocateTriangles@TriangleMeshData@Gu@physx@@QAEPAXI_NI@Z 1000b9d0 f i TriangleMeshBuilder.obj
 0001:0000ae10       ?checkMeshIndicesSize@TriangleMeshBuilder@physx@@QAEXXZ 1000be10 f   TriangleMeshBuilder.obj
 0001:0000aec0       ?cleanMesh@TriangleMeshBuilder@physx@@QAE_N_NPAW4Enum@PxTriangleMeshCookingResult@2@@Z 1000bec0 f   TriangleMeshBuilder.obj
 0001:0000b2b0       ?createGRBMidPhaseAndData@TriangleMeshBuilder@physx@@QAEXI@Z 1000c2b0 f   TriangleMeshBuilder.obj
 0001:0000b590       ?createMidPhaseStructure@BV4TriangleMeshBuilder@physx@@UAEXXZ 1000c590 f   TriangleMeshBuilder.obj
 0001:0000b790       ?createMidPhaseStructure@RTreeTriangleMeshBuilder@physx@@UAEXXZ 1000c790 f   TriangleMeshBuilder.obj
 0001:0000b850       ?createSharedEdgeData@TriangleMeshBuilder@physx@@QAEX_N0@Z 1000c850 f   TriangleMeshBuilder.obj
 0001:0000bdb0       ?getMidphaseID@BV4TriangleMeshBuilder@physx@@UBE?AW4Enum@PxMeshMidPhase@2@XZ 1000cdb0 f i TriangleMeshBuilder.obj
 0001:0000bdc0       ?getMidphaseID@RTreeTriangleMeshBuilder@physx@@UBE?AW4Enum@PxMeshMidPhase@2@XZ 1000cdc0 f i TriangleMeshBuilder.obj
 0001:0000bdd0       ?importMesh@TriangleMeshBuilder@physx@@IAE_NABVPxTriangleMeshDesc@2@ABUPxCookingParams@2@PAW4Enum@PxTriangleMeshCookingResult@2@_N@Z 1000cdd0 f   TriangleMeshBuilder.obj
 0001:0000c050       ?loadFromDesc@TriangleMeshBuilder@physx@@QAE_NABVPxTriangleMeshDesc@2@PAW4Enum@PxTriangleMeshCookingResult@2@_N@Z 1000d050 f   TriangleMeshBuilder.obj
 0001:0000c360       ?onMeshIndexFormatChange@BV4TriangleMeshBuilder@physx@@UAEXXZ 1000d360 f   TriangleMeshBuilder.obj
 0001:0000c390       ?remap@RTreeCookerRemap@physx@@UAEXPAIII@Z 1000d390 f i TriangleMeshBuilder.obj
 0001:0000c3b0       ?remapTopology@TriangleMeshBuilder@physx@@QAEXPBI@Z 1000d3b0 f   TriangleMeshBuilder.obj
 0001:0000c600       ?save@TriangleMeshBuilder@physx@@QBE_NAAVPxOutputStream@2@_NABUPxCookingParams@2@@Z 1000d600 f   TriangleMeshBuilder.obj
 0001:0000cb10       ?saveMidPhaseStructure@BV4TriangleMeshBuilder@physx@@UBEXAAVPxOutputStream@2@_N@Z 1000db10 f   TriangleMeshBuilder.obj
 0001:0000ccb0       ?saveMidPhaseStructure@RTreeTriangleMeshBuilder@physx@@UBEXAAVPxOutputStream@2@_N@Z 1000dcb0 f   TriangleMeshBuilder.obj
 0001:0000ce40       ??0BigConvexDataBuilder@physx@@QAE@PBUConvexHullData@Gu@1@PAVBigConvexData@1@PBVPxVec3@1@@Z 1000de40 f   BigConvexDataBuilder.obj
 0001:0000ce60       ??4BigConvexData@physx@@QAEAAV01@ABV01@@Z 1000de60 f i BigConvexDataBuilder.obj
 0001:0000ce80       ?GetAdjacentVerts@BigConvexData@physx@@QBEPBEXZ 1000de80 f i BigConvexDataBuilder.obj
 0001:0000ce90       ?GetValency@BigConvexData@physx@@QBEGI@Z 1000de90 f i BigConvexDataBuilder.obj
 0001:0000ce90       ?GetNbNeighbors@BigConvexData@physx@@QBEGI@Z 1000de90 f i BigConvexDataBuilder.obj
 0001:0000cea0       ?GetNbSamples@BigConvexData@physx@@QBEIXZ 1000dea0 f i BigConvexDataBuilder.obj
 0001:0000ceb0       ?GetNeighbors@BigConvexData@physx@@QBEPBEI@Z 1000deb0 f i BigConvexDataBuilder.obj
 0001:0000ced0       ?GetOffset@BigConvexData@physx@@QBEGI@Z 1000ded0 f i BigConvexDataBuilder.obj
 0001:0000cee0       ?GetSubdiv@BigConvexData@physx@@QBEIXZ 1000dee0 f i BigConvexDataBuilder.obj
 0001:0000cef0       ?GetValencies@BigConvexData@physx@@QBEPBUValency@Gu@2@XZ 1000def0 f i BigConvexDataBuilder.obj
 0001:0000cf00       ?computeValencies@BigConvexDataBuilder@physx@@QAE_NABVConvexHullBuilder@2@@Z 1000df00 f   BigConvexDataBuilder.obj
 0001:0000d270       ?precompute@BigConvexDataBuilder@physx@@QAE_NI@Z 1000e270 f   BigConvexDataBuilder.obj
 0001:0000dbd0       ?save@BigConvexDataBuilder@physx@@QBE_NAAVPxOutputStream@2@_N@Z 1000ebd0 f   BigConvexDataBuilder.obj
 0001:0000dd80       ??0ConvexHullBuilder@physx@@QAE@PAUConvexHullData@Gu@1@_N@Z 1000ed80 f   ConvexHullBuilder.obj
 0001:0000ddd0       ??1ConvexHullBuilder@physx@@QAE@XZ 1000edd0 f   ConvexHullBuilder.obj
 0001:0000dea0       ?calculateVertexMapTable@ConvexHullBuilder@physx@@QAE_NI_N@Z 1000eea0 f   ConvexHullBuilder.obj
 0001:0000e060       ?checkHullPolygons@ConvexHullBuilder@physx@@QBE_NXZ 1000f060 f   ConvexHullBuilder.obj
 0001:0000e460       ?computeGeomCenter@ConvexHullBuilder@physx@@IBE_NAAVPxVec3@2@IPAUHullTriangleData@2@@Z 1000f460 f   ConvexHullBuilder.obj
 0001:0000e6a0       ?copy@ConvexHullBuilder@physx@@QAE_NAAUConvexHullData@Gu@2@AAI@Z 1000f6a0 f   ConvexHullBuilder.obj
 0001:0000e8d0       ?createEdgeList@ConvexHullBuilder@physx@@QAE_N_NI@Z 1000f8d0 f   ConvexHullBuilder.obj
 0001:0000f040       ?init@ConvexHullBuilder@physx@@QAE_NIPBVPxVec3@2@PBIIIPBUPxHullPolygon@2@_NPAVConvexHullLib@2@@Z 10010040 f   ConvexHullBuilder.obj
 0001:0000f870       ?save@ConvexHullBuilder@physx@@QBE_NAAVPxOutputStream@2@_N@Z 10010870 f   ConvexHullBuilder.obj
 0001:0000fb20       ??1ConvexHullLib@physx@@UAE@XZ 10010b20 f   ConvexHullLib.obj
 0001:0000fb60       ??_EConvexHullLib@physx@@UAEPAXI@Z 10010b60 f i ConvexHullLib.obj
 0001:0000fb60       ??_GConvexHullLib@physx@@UAEPAXI@Z 10010b60 f i ConvexHullLib.obj
 0001:0000fec0       ?cleanupVertices@ConvexHullLib@physx@@IAE_NIPBVPxVec3@2@IAAIPAV32@AAV32@3@Z 10010ec0 f   ConvexHullLib.obj
 0001:00010250       ?shiftAndcleanupVertices@ConvexHullLib@physx@@IAE_NIPBVPxVec3@2@IAAIPAV32@AAV32@3@Z 10011250 f   ConvexHullLib.obj
 0001:000103e0       ?shiftConvexMeshDesc@ConvexHullLib@physx@@IAEXAAVPxConvexMeshDesc@2@@Z 100113e0 f   ConvexHullLib.obj
 0001:00010480       ?swapLargestFace@ConvexHullLib@physx@@IAEXAAVPxConvexMeshDesc@2@@Z 10011480 f   ConvexHullLib.obj
 0001:00010650       ??4Box@Gu@physx@@QAEABV012@ABV012@@Z 10011650 f i ConvexHullUtils.obj
 0001:00010650       ??0Box@Gu@physx@@QAE@ABV012@@Z 10011650 f i ConvexHullUtils.obj
 0001:000106c0       ??0Box@Gu@physx@@QAE@ABVPxVec3@2@0ABVPxMat33@2@@Z 100116c0 f i ConvexHullUtils.obj
 0001:00010730       ??0ConvexHull@physx@@QAE@ABVPxVec3@1@ABVPxTransform@1@ABV?$Array@VPxPlane@physx@@V?$ReflectionAllocator@VPxPlane@physx@@@shdfnd@2@@shdfnd@1@@Z 10011730 f   ConvexHullUtils.obj
 0001:00011aa0       ??0PxQuat@physx@@QAE@ABVPxMat33@1@@Z 10012aa0 f i ConvexHullUtils.obj
 0001:00011c60       ?allocate@?$Array@VHalfEdge@ConvexHull@physx@@V?$ReflectionAllocator@VHalfEdge@ConvexHull@physx@@@shdfnd@3@@shdfnd@physx@@IAEPAVHalfEdge@ConvexHull@3@I@Z 10012c60 f i ConvexHullUtils.obj
 0001:00011cd0       ?allocate@?$Array@VPxPlane@physx@@V?$ReflectionAllocator@VPxPlane@physx@@@shdfnd@2@@shdfnd@physx@@IAEPAVPxPlane@3@I@Z 10012cd0 f i ConvexHullUtils.obj
 0001:00011d40       ?assertIntact@ConvexHull@physx@@QBE_NM@Z 10012d40 f   ConvexHullUtils.obj
 0001:00012010       ?computeAABBExtent@Box@Gu@physx@@QBE?AVPxVec3@3@XZ 10013010 f i ConvexHullUtils.obj
 0001:000120c0       ?computeBoxPoints@Box@Gu@physx@@QBEXPIAVPxVec3@3@@Z 100130c0 f i ConvexHullUtils.obj
 0001:000120e0       ?computeOBBFromConvex@physx@@YA_NABVPxConvexMeshDesc@1@AAVPxVec3@1@AAVPxTransform@1@@Z 100130e0 f   ConvexHullUtils.obj
 0001:000129d0       ?convexHullCrop@physx@@YAPAVConvexHull@1@ABV21@ABVPxPlane@1@M@Z 100139d0 f   ConvexHullUtils.obj
 0001:00013b10       ?copy@?$Array@VPxPlane@physx@@V?$ReflectionAllocator@VPxPlane@physx@@@shdfnd@2@@shdfnd@physx@@KAXPAVPxPlane@3@0PBV43@@Z 10014b10 f i ConvexHullUtils.obj
 0001:00013b60       ?findCandidatePlane@ConvexHull@physx@@QBEHMM@Z 10014b60 f   ConvexHullUtils.obj
 0001:00013de0       ?getInverse@PxMat33@physx@@QBE?BV12@XZ 10014de0 f i ConvexHullUtils.obj
 0001:00014030       ?getTransform@Box@Gu@physx@@QBE?AVPxTransform@3@XZ 10015030 f i ConvexHullUtils.obj
 0001:00014080       ?growAndPushBack@?$Array@VHalfEdge@ConvexHull@physx@@V?$ReflectionAllocator@VHalfEdge@ConvexHull@physx@@@shdfnd@3@@shdfnd@physx@@IAEAAVHalfEdge@ConvexHull@3@ABV453@@Z 10015080 f i ConvexHullUtils.obj
 0001:00014100       ?growAndPushBack@?$Array@VPxPlane@physx@@V?$ReflectionAllocator@VPxPlane@physx@@@shdfnd@2@@shdfnd@physx@@IAEAAVPxPlane@3@ABV43@@Z 10015100 f i ConvexHullUtils.obj
 0001:00014190       ?isValid@Box@Gu@physx@@QBE_NXZ 10015190 f i ConvexHullUtils.obj
 0001:000141b0       ?maxNumVertsPerFace@ConvexHull@physx@@QBEIXZ 100151b0 f   ConvexHullUtils.obj
 0001:00014230       ?recreate@?$Array@VHalfEdge@ConvexHull@physx@@V?$ReflectionAllocator@VHalfEdge@ConvexHull@physx@@@shdfnd@3@@shdfnd@physx@@IAEXI@Z 10015230 f i ConvexHullUtils.obj
 0001:00014290       ?recreate@?$Array@VPxPlane@physx@@V?$ReflectionAllocator@VPxPlane@physx@@@shdfnd@2@@shdfnd@physx@@IAEXI@Z 10015290 f i ConvexHullUtils.obj
 0001:000142f0       ?resize@?$Array@VHalfEdge@ConvexHull@physx@@V?$ReflectionAllocator@VHalfEdge@ConvexHull@physx@@@shdfnd@3@@shdfnd@physx@@QAEXIABVHalfEdge@ConvexHull@3@@Z 100152f0 f i ConvexHullUtils.obj
 0001:00014390       ?resize@?$Array@VPxPlane@physx@@V?$ReflectionAllocator@VPxPlane@physx@@@shdfnd@2@@shdfnd@physx@@QAEXIABVPxPlane@3@@Z 10015390 f i ConvexHullUtils.obj
 0001:00014490       ?resize@?$Array@VPxVec3@physx@@V?$ReflectionAllocator@VPxVec3@physx@@@shdfnd@2@@shdfnd@physx@@QAEXIABVPxVec3@3@@Z 10015490 f i ConvexHullUtils.obj
 0001:00014560       ?rotate@Box@Gu@physx@@QBE?AVPxVec3@3@ABV43@@Z 10015560 f i ConvexHullUtils.obj
 0001:000145e0       ?rotateInv@Box@Gu@physx@@QBE?AVPxVec3@3@ABV43@@Z 100155e0 f i ConvexHullUtils.obj
 0001:00014660       ?setAxes@Box@Gu@physx@@QAEXABVPxVec3@3@00@Z 10015660 f i ConvexHullUtils.obj
 0001:000146b0       ?setEmpty@Box@Gu@physx@@QAEXXZ 100156b0 f i ConvexHullUtils.obj
 0001:00014720       ?transform@Box@Gu@physx@@QBE?AVPxVec3@3@ABV43@@Z 10015720 f i ConvexHullUtils.obj
 0001:000147b0       ??0ConvexMeshBuilder@physx@@QAE@_N@Z 100157b0 f   ConvexMeshBuilder.obj
 0001:00014810       ??1ConvexMeshBuilder@physx@@QAE@XZ 10015810 f   ConvexMeshBuilder.obj
 0001:00014c70       ?build@ConvexMeshBuilder@physx@@QAE_NABVPxConvexMeshDesc@2@I_NPAVConvexHullLib@2@@Z 10015c70 f   ConvexMeshBuilder.obj
 0001:00014f10       ?computeHullPolygons@ConvexMeshBuilder@physx@@QAE_NABIPBVPxVec3@2@0PBIAAVPxAllocatorCallback@2@AAIAAPAV32@4AAPAI4AAPAUPxHullPolygon@2@@Z 10015f10 f   ConvexMeshBuilder.obj
 0001:00015090       ?computeMassInfo@ConvexMeshBuilder@physx@@QAEX_N@Z 10016090 f   ConvexMeshBuilder.obj
 0001:00015500       ?copy@ConvexMeshBuilder@physx@@QAE_NAAUConvexHullInitData@Gu@2@@Z 10016500 f   ConvexMeshBuilder.obj
 0001:000155f0       ?isFinite@PxVec3@physx@@QBE_NXZ 100165f0 f i ConvexMeshBuilder.obj
 0001:00015660       ?loadConvexHull@ConvexMeshBuilder@physx@@QAE_NABVPxConvexMeshDesc@2@PAVConvexHullLib@2@@Z 10016660 f   ConvexMeshBuilder.obj
 0001:00015840       ?save@ConvexMeshBuilder@physx@@QBE_NAAVPxOutputStream@2@_N@Z 10016840 f   ConvexMeshBuilder.obj
 0001:00015a30       ??$?_UE@@YAPAXIV?$ReflectionAllocator@E@shdfnd@physx@@PBDH@Z 10016a30 f i ConvexPolygonsBuilder.obj
 0001:00015a90       ??$copy@V?$ReflectionAllocator@VPair@@@shdfnd@physx@@@?$Array@VPair@@V?$ReflectionAllocator@VPair@@@shdfnd@physx@@@shdfnd@physx@@IAEXABV012@@Z 10016a90 f i ConvexPolygonsBuilder.obj
 0001:00015b00       ??0ConvexPolygonsBuilder@physx@@QAE@PAUConvexHullData@Gu@1@_N@Z 10016b00 f   ConvexPolygonsBuilder.obj
 0001:00015b30       ??1ConvexPolygonsBuilder@physx@@QAE@XZ 10016b30 f   ConvexPolygonsBuilder.obj
 0001:00015b60       ??4?$Array@IV?$ReflectionAllocator@I@shdfnd@physx@@@shdfnd@physx@@QAEAAV012@ABV012@@Z 10016b60 f i ConvexPolygonsBuilder.obj
 0001:000162f0       ?allocate@?$Array@VPair@@V?$ReflectionAllocator@VPair@@@shdfnd@physx@@@shdfnd@physx@@IAEPAVPair@@I@Z 100172f0 f i ConvexPolygonsBuilder.obj
 0001:000168a0       ?computeHullPolygons@ConvexPolygonsBuilder@physx@@QAE_NABIPBVPxVec3@2@0PBI@Z 100178a0 f   ConvexPolygonsBuilder.obj
 0001:00017740       ?createPolygonData@ConvexPolygonsBuilder@physx@@AAE_NXZ 10018740 f   ConvexPolygonsBuilder.obj
 0001:00018240       ?createTrianglesFromPolygons@ConvexPolygonsBuilder@physx@@AAE_NXZ 10019240 f   ConvexPolygonsBuilder.obj
 0001:00019220       ?growAndPushBack@?$Array@VPair@@V?$ReflectionAllocator@VPair@@@shdfnd@physx@@@shdfnd@physx@@IAEAAVPair@@ABV4@@Z 1001a220 f i ConvexPolygonsBuilder.obj
 0001:000192d0       ??0QuickHull@local@@QAE@ABUPxCookingParams@physx@@ABVPxConvexMeshDesc@3@@Z 1001a2d0 f   QuickHullConvexHullLib.obj
 0001:00019420       ??0QuickHullConvexHullLib@physx@@QAE@ABVPxConvexMeshDesc@1@ABUPxCookingParams@1@@Z 1001a420 f   QuickHullConvexHullLib.obj
 0001:000194e0       ??1?$MemBlock@UQuickHullHalfEdge@local@@$0A@@local@@QAE@XZ 1001a4e0 f i QuickHullConvexHullLib.obj
 0001:000194e0       ??1?$MemBlock@UQuickHullFace@local@@$00@local@@QAE@XZ 1001a4e0 f i QuickHullConvexHullLib.obj
 0001:00019540       ??1QuickHull@local@@QAE@XZ 1001a540 f   QuickHullConvexHullLib.obj
 0001:00019640       ??_GConvexHull@physx@@QAEPAXI@Z 1001a640 f i QuickHullConvexHullLib.obj
 0001:000196e0       ??_GQuickHullConvexHullLib@physx@@UAEPAXI@Z 1001a6e0 f i QuickHullConvexHullLib.obj
 0001:000196e0       ??_EQuickHullConvexHullLib@physx@@UAEPAXI@Z 1001a6e0 f i QuickHullConvexHullLib.obj
 0001:00019790       ?addExpandPoint@local@@YAXABUExpandPoint@1@AAV?$Array@UExpandPoint@local@@V?$ReflectionAllocator@UExpandPoint@local@@@shdfnd@physx@@@shdfnd@physx@@@Z 1001a790 f   QuickHullConvexHullLib.obj
 0001:00019870       ?addPointToHull@QuickHull@local@@IAE_NPBUQuickHullVertex@2@AAUQuickHullFace@2@AA_N@Z 1001a870 f   QuickHullConvexHullLib.obj
 0001:00019b90       ?addSimplex@QuickHull@local@@IAEXPAUQuickHullVertex@2@_N@Z 1001ab90 f   QuickHullConvexHullLib.obj
 0001:00019f30       ?allocate@?$Array@PAUQuickHullFace@local@@V?$ReflectionAllocator@PAUQuickHullFace@local@@@shdfnd@physx@@@shdfnd@physx@@IAEPAPAUQuickHullFace@local@@I@Z 1001af30 f i QuickHullConvexHullLib.obj
 0001:00019fa0       ?allocate@?$Array@PAUQuickHullHalfEdge@local@@V?$ReflectionAllocator@PAUQuickHullHalfEdge@local@@@shdfnd@physx@@@shdfnd@physx@@IAEPAPAUQuickHullHalfEdge@local@@I@Z 1001afa0 f i QuickHullConvexHullLib.obj
 0001:0001a010       ?allocate@?$Array@PAUQuickHullVertex@local@@V?$ReflectionAllocator@PAUQuickHullVertex@local@@@shdfnd@physx@@@shdfnd@physx@@IAEPAPAUQuickHullVertex@local@@I@Z 1001b010 f i QuickHullConvexHullLib.obj
 0001:0001a080       ?allocate@?$Array@UExpandPoint@local@@V?$ReflectionAllocator@UExpandPoint@local@@@shdfnd@physx@@@shdfnd@physx@@IAEPAUExpandPoint@local@@I@Z 1001b080 f i QuickHullConvexHullLib.obj
 0001:0001a0f0       ?buildHull@QuickHull@local@@QAE?AW4Enum@QuickHullResult@2@XZ 1001b0f0 f   QuickHullConvexHullLib.obj
 0001:0001a370       ?calculateHorizon@QuickHull@local@@IAEXABVPxVec3@physx@@PAUQuickHullHalfEdge@2@AAUQuickHullFace@2@AAV?$Array@PAUQuickHullHalfEdge@local@@V?$ReflectionAllocator@PAUQuickHullHalfEdge@local@@@shdfnd@physx@@@shdfnd@4@AAV?$Array@PAUQuickHullFace@local@@V?$ReflectionAllocator@PAUQuickHullFace@local@@@shdfnd@physx@@@84@@Z 1001b370 f   QuickHullConvexHullLib.obj
 0001:0001a480       ?canMergeFaces@QuickHull@local@@IAE_NABUQuickHullHalfEdge@2@@Z 1001b480 f   QuickHullConvexHullLib.obj
 0001:0001ab90       ?cleanupForSimplex@QuickHullConvexHullLib@physx@@IAE_NPAVPxVec3@2@IPAUQuickHullVertex@local@@1AAM2@Z 1001bb90 f   QuickHullConvexHullLib.obj
 0001:0001b290       ?computeMinMaxVerts@QuickHull@local@@IAEXXZ 1001c290 f   QuickHullConvexHullLib.obj
 0001:0001b5e0       ?connectHalfEdges@QuickHullFace@local@@AAEPAU12@PAUQuickHullHalfEdge@2@0@Z 1001c5e0 f   QuickHullConvexHullLib.obj
 0001:0001b8f0       ?copy@?$Array@UExpandPoint@local@@V?$ReflectionAllocator@UExpandPoint@local@@@shdfnd@physx@@@shdfnd@physx@@KAXPAUExpandPoint@local@@0PBU45@@Z 1001c8f0 f i QuickHullConvexHullLib.obj
 0001:0001b980       ?createConvexHull@QuickHullConvexHullLib@physx@@UAE?AW4Enum@PxConvexMeshCookingResult@2@XZ 1001c980 f   QuickHullConvexHullLib.obj
 0001:0001be70       ?createEdgeList@QuickHullConvexHullLib@physx@@UAE_NIPBEPAPAEPAPAG2@Z 1001ce70 f   QuickHullConvexHullLib.obj
 0001:0001c0b0       ?createTriangle@QuickHull@local@@IAEPAUQuickHullFace@2@ABUQuickHullVertex@2@00@Z 1001d0b0 f   QuickHullConvexHullLib.obj
 0001:0001c410       ?deleteFacePoints@QuickHull@local@@IAEXAAUQuickHullFace@2@PAU32@@Z 1001d410 f   QuickHullConvexHullLib.obj
 0001:0001c500       ?doAdjacentMerge@QuickHull@local@@IAE_NAAUQuickHullFace@2@_NAA_N@Z 1001d500 f   QuickHullConvexHullLib.obj
 0001:0001c740       ?expandHull@QuickHullConvexHullLib@physx@@IAE?AW4Enum@PxConvexMeshCookingResult@2@XZ 1001d740 f   QuickHullConvexHullLib.obj
 0001:0001cd90       ?expandHullOBB@QuickHullConvexHullLib@physx@@IAE?AW4Enum@PxConvexMeshCookingResult@2@XZ 1001dd90 f   QuickHullConvexHullLib.obj
 0001:0001d190       ?fillConvexMeshDesc@QuickHullConvexHullLib@physx@@UAEXAAVPxConvexMeshDesc@2@@Z 1001e190 f   QuickHullConvexHullLib.obj
 0001:0001d1d0       ?fillConvexMeshDescFromCroppedHull@QuickHullConvexHullLib@physx@@IAEXAAVPxConvexMeshDesc@2@@Z 1001e1d0 f   QuickHullConvexHullLib.obj
 0001:0001d390       ?fillConvexMeshDescFromQuickHull@QuickHullConvexHullLib@physx@@IAEXAAVPxConvexMeshDesc@2@@Z 1001e390 f   QuickHullConvexHullLib.obj
 0001:0001d750       ?findSimplex@QuickHull@local@@IAE_NXZ 1001e750 f   QuickHullConvexHullLib.obj
 0001:0001dbf0       ?getFreeItem@?$MemBlock@UQuickHullFace@local@@$00@local@@QAEPAUQuickHullFace@2@XZ 1001ebf0 f i QuickHullConvexHullLib.obj
 0001:0001dcd0       ?getFreeItem@?$MemBlock@UQuickHullHalfEdge@local@@$0A@@local@@QAEPAUQuickHullHalfEdge@2@XZ 1001ecd0 f i QuickHullConvexHullLib.obj
 0001:0001dd70       ?growAndPushBack@?$Array@PAUQuickHullFace@local@@V?$ReflectionAllocator@PAUQuickHullFace@local@@@shdfnd@physx@@@shdfnd@physx@@IAEAAPAUQuickHullFace@local@@ABQAU45@@Z 1001ed70 f i QuickHullConvexHullLib.obj
 0001:0001ddf0       ?growAndPushBack@?$Array@PAUQuickHullHalfEdge@local@@V?$ReflectionAllocator@PAUQuickHullHalfEdge@local@@@shdfnd@physx@@@shdfnd@physx@@IAEAAPAUQuickHullHalfEdge@local@@ABQAU45@@Z 1001edf0 f i QuickHullConvexHullLib.obj
 0001:0001de70       ?growAndPushBack@?$Array@PAUQuickHullVertex@local@@V?$ReflectionAllocator@PAUQuickHullVertex@local@@@shdfnd@physx@@@shdfnd@physx@@IAEAAPAUQuickHullVertex@local@@ABQAU45@@Z 1001ee70 f i QuickHullConvexHullLib.obj
 0001:0001def0       ?growAndPushBack@?$Array@UExpandPoint@local@@V?$ReflectionAllocator@UExpandPoint@local@@@shdfnd@physx@@@shdfnd@physx@@IAEAAUExpandPoint@local@@ABU45@@Z 1001eef0 f i QuickHullConvexHullLib.obj
 0001:0001dfe0       ?init@?$MemBlock@UQuickHullFace@local@@$00@local@@QAEXI@Z 1001efe0 f i QuickHullConvexHullLib.obj
 0001:0001e080       ?mergeAdjacentFace@QuickHullFace@local@@QAE_NPAUQuickHullHalfEdge@2@AAV?$Array@PAUQuickHullFace@local@@V?$ReflectionAllocator@PAUQuickHullFace@local@@@shdfnd@physx@@@shdfnd@physx@@@Z 1001f080 f   QuickHullConvexHullLib.obj
 0001:0001e470       ?parseInputVertices@QuickHull@local@@QAEXPBVPxVec3@physx@@I@Z 1001f470 f   QuickHullConvexHullLib.obj
 0001:0001e4d0       ?preallocate@QuickHull@local@@QAEXI@Z 1001f4d0 f   QuickHullConvexHullLib.obj
 0001:0001e640       ?recreate@?$Array@PAUQuickHullFace@local@@V?$ReflectionAllocator@PAUQuickHullFace@local@@@shdfnd@physx@@@shdfnd@physx@@IAEXI@Z 1001f640 f i QuickHullConvexHullLib.obj
 0001:0001e6a0       ?recreate@?$Array@PAUQuickHullHalfEdge@local@@V?$ReflectionAllocator@PAUQuickHullHalfEdge@local@@@shdfnd@physx@@@shdfnd@physx@@IAEXI@Z 1001f6a0 f i QuickHullConvexHullLib.obj
 0001:0001e700       ?recreate@?$Array@PAUQuickHullVertex@local@@V?$ReflectionAllocator@PAUQuickHullVertex@local@@@shdfnd@physx@@@shdfnd@physx@@IAEXI@Z 1001f700 f i QuickHullConvexHullLib.obj
 0001:0001e760       ?recreate@?$Array@UExpandPoint@local@@V?$ReflectionAllocator@UExpandPoint@local@@@shdfnd@physx@@@shdfnd@physx@@IAEXI@Z 1001f760 f i QuickHullConvexHullLib.obj
 0001:0001f410       ?computeVolumeIntegralsEberly@physx@@YA_NABVPxConvexMeshDesc@1@MAAUPxIntegrals@1@ABVPxVec3@1@@Z 10020410 f   VolumeIntegration.obj
 0001:0001f460       ?computeVolumeIntegralsEberlySIMD@physx@@YA_NABVPxConvexMeshDesc@1@MAAUPxIntegrals@1@ABVPxVec3@1@@Z 10020460 f   VolumeIntegration.obj
 0001:0001faf0       ?cookingDelayHook@@YGP6GHXZIPAUDelayLoadInfo@@@Z 10020af0 f   WindowsCookingDelayLoadHook.obj
 0001:0001fb90       _PxSetPhysXCookingDelayLoadHook 10020b90 f   WindowsCookingDelayLoadHook.obj
 0001:0001fb9a       __imp_load_??0RadixSortBuffered@Cm@physx@@QAE@XZ 10020b9a f   PhysXCommon_32:PhysXCommon_32.dll
 0001:0001fba4       ??0RadixSortBuffered@Cm@physx@@QAE@XZ 10020ba4 f   PhysXCommon_32:PhysXCommon_32.dll
 0001:0001fbaa       __tailMerge_physxcommon_32_dll 10020baa     PhysXCommon_32:PhysXCommon_32.dll
 0001:0001fbbb       __imp_load_??1RadixSortBuffered@Cm@physx@@UAE@XZ 10020bbb f   PhysXCommon_32:PhysXCommon_32.dll
 0001:0001fbc5       ??1RadixSortBuffered@Cm@physx@@UAE@XZ 10020bc5 f   PhysXCommon_32:PhysXCommon_32.dll
 0001:0001fbcb       __imp_load_?Sort@RadixSortBuffered@Cm@physx@@QAEAAV123@PBIIW4RadixHint@23@@Z 10020bcb f   PhysXCommon_32:PhysXCommon_32.dll
 0001:0001fbd5       ?Sort@RadixSortBuffered@Cm@physx@@QAEAAV123@PBIIW4RadixHint@23@@Z 10020bd5 f   PhysXCommon_32:PhysXCommon_32.dll
 0001:0001fbdb       __imp_load_??0HeightField@Gu@physx@@QAE@PAVGuMeshFactory@2@@Z 10020bdb f   PhysXCommon_32:PhysXCommon_32.dll
 0001:0001fbe5       ??0HeightField@Gu@physx@@QAE@PAVGuMeshFactory@2@@Z 10020be5 f   PhysXCommon_32:PhysXCommon_32.dll
 0001:0001fbeb       __imp_load_?loadFromDesc@HeightField@Gu@physx@@QAE_NABVPxHeightFieldDesc@3@@Z 10020beb f   PhysXCommon_32:PhysXCommon_32.dll
 0001:0001fbf5       ?loadFromDesc@HeightField@Gu@physx@@QAE_NABVPxHeightFieldDesc@3@@Z 10020bf5 f   PhysXCommon_32:PhysXCommon_32.dll
 0001:0001fbfb       __imp_load_?computeCellCoordinates@HeightField@Gu@physx@@QBEIMMAAM0@Z 10020bfb f   PhysXCommon_32:PhysXCommon_32.dll
 0001:0001fc05       ?computeCellCoordinates@HeightField@Gu@physx@@QBEIMMAAM0@Z 10020c05 f   PhysXCommon_32:PhysXCommon_32.dll
 0001:0001fc0b       __imp_load_?releaseMemory@HeightField@Gu@physx@@QAEXXZ 10020c0b f   PhysXCommon_32:PhysXCommon_32.dll
 0001:0001fc15       ?releaseMemory@HeightField@Gu@physx@@QAEXXZ 10020c15 f   PhysXCommon_32:PhysXCommon_32.dll
 0001:0001fc1b       __imp_load_??1HeightField@Gu@physx@@UAE@XZ 10020c1b f   PhysXCommon_32:PhysXCommon_32.dll
 0001:0001fc25       ??1HeightField@Gu@physx@@UAE@XZ 10020c25 f   PhysXCommon_32:PhysXCommon_32.dll
 0001:0001fc2b       __imp_load_??0NodeAllocator@Gu@physx@@QAE@XZ 10020c2b f   PhysXCommon_32:PhysXCommon_32.dll
 0001:0001fc35       ??0NodeAllocator@Gu@physx@@QAE@XZ 10020c35 f   PhysXCommon_32:PhysXCommon_32.dll
 0001:0001fc3b       __imp_load_??1NodeAllocator@Gu@physx@@QAE@XZ 10020c3b f   PhysXCommon_32:PhysXCommon_32.dll
 0001:0001fc45       ??1NodeAllocator@Gu@physx@@QAE@XZ 10020c45 f   PhysXCommon_32:PhysXCommon_32.dll
 0001:0001fc4b       __imp_load_?release@NodeAllocator@Gu@physx@@QAEXXZ 10020c4b f   PhysXCommon_32:PhysXCommon_32.dll
 0001:0001fc55       ?release@NodeAllocator@Gu@physx@@QAEXXZ 10020c55 f   PhysXCommon_32:PhysXCommon_32.dll
 0001:0001fc5b       __imp_load_?buildAABBTree@Gu@physx@@YA_NAAVAABBTreeBuildParams@12@AAVNodeAllocator@12@AAUBuildStats@12@AAPAI@Z 10020c5b f   PhysXCommon_32:PhysXCommon_32.dll
 0001:0001fc65       ?buildAABBTree@Gu@physx@@YA_NAAVAABBTreeBuildParams@12@AAVNodeAllocator@12@AAUBuildStats@12@AAPAI@Z 10020c65 f   PhysXCommon_32:PhysXCommon_32.dll
 0001:0001fc6b       __imp_load_?writeDword@physx@@YAXI_NAAVPxOutputStream@1@@Z 10020c6b f   PhysXCommon_32:PhysXCommon_32.dll
 0001:0001fc75       ?writeDword@physx@@YAXI_NAAVPxOutputStream@1@@Z 10020c75 f   PhysXCommon_32:PhysXCommon_32.dll
 0001:0001fc7b       __imp_load_?writeFloatBuffer@physx@@YAXPBMI_NAAVPxOutputStream@1@@Z 10020c7b f   PhysXCommon_32:PhysXCommon_32.dll
 0001:0001fc85       ?writeFloatBuffer@physx@@YAXPBMI_NAAVPxOutputStream@1@@Z 10020c85 f   PhysXCommon_32:PhysXCommon_32.dll
 0001:0001fc8b       __imp_load_?writeHeader@physx@@YA_NCCCCI_NAAVPxOutputStream@1@@Z 10020c8b f   PhysXCommon_32:PhysXCommon_32.dll
 0001:0001fc95       ?writeHeader@physx@@YA_NCCCCI_NAAVPxOutputStream@1@@Z 10020c95 f   PhysXCommon_32:PhysXCommon_32.dll
 0001:0001fc9b       __imp_load_?writeWord@physx@@YAXG_NAAVPxOutputStream@1@@Z 10020c9b f   PhysXCommon_32:PhysXCommon_32.dll
 0001:0001fca5       ?writeWord@physx@@YAXG_NAAVPxOutputStream@1@@Z 10020ca5 f   PhysXCommon_32:PhysXCommon_32.dll
 0001:0001fcab       __imp_load_?writeFloat@physx@@YAXM_NAAVPxOutputStream@1@@Z 10020cab f   PhysXCommon_32:PhysXCommon_32.dll
 0001:0001fcb5       ?writeFloat@physx@@YAXM_NAAVPxOutputStream@1@@Z 10020cb5 f   PhysXCommon_32:PhysXCommon_32.dll
 0001:0001fcbb       __imp_load_?computeBoundsAroundVertices@Gu@physx@@YAXAAVPxBounds3@2@IPIBVPxVec3@2@@Z 10020cbb f   PhysXCommon_32:PhysXCommon_32.dll
 0001:0001fcc5       ?computeBoundsAroundVertices@Gu@physx@@YAXAAVPxBounds3@2@IPIBVPxVec3@2@@Z 10020cc5 f   PhysXCommon_32:PhysXCommon_32.dll
 0001:0001fccb       __imp_load_??0SourceMesh@Gu@physx@@QAE@XZ 10020ccb f   PhysXCommon_32:PhysXCommon_32.dll
 0001:0001fcd5       ??0SourceMesh@Gu@physx@@QAE@XZ 10020cd5 f   PhysXCommon_32:PhysXCommon_32.dll
 0001:0001fcdb       __imp_load_??1SourceMesh@Gu@physx@@QAE@XZ 10020cdb f   PhysXCommon_32:PhysXCommon_32.dll
 0001:0001fce5       ??1SourceMesh@Gu@physx@@QAE@XZ 10020ce5 f   PhysXCommon_32:PhysXCommon_32.dll
 0001:0001fceb       __imp_load_??0BV4Tree@Gu@physx@@QAE@XZ 10020ceb f   PhysXCommon_32:PhysXCommon_32.dll
 0001:0001fcf5       ??0BV4Tree@Gu@physx@@QAE@XZ 10020cf5 f   PhysXCommon_32:PhysXCommon_32.dll
 0001:0001fcfb       __imp_load_??1BV4Tree@Gu@physx@@QAE@XZ 10020cfb f   PhysXCommon_32:PhysXCommon_32.dll
 0001:0001fd05       ??1BV4Tree@Gu@physx@@QAE@XZ 10020d05 f   PhysXCommon_32:PhysXCommon_32.dll
 0001:0001fd0b       __imp_load_??0BV32Tree@Gu@physx@@QAE@XZ 10020d0b f   PhysXCommon_32:PhysXCommon_32.dll
 0001:0001fd15       ??0BV32Tree@Gu@physx@@QAE@XZ 10020d15 f   PhysXCommon_32:PhysXCommon_32.dll
 0001:0001fd1b       __imp_load_??1BV32Tree@Gu@physx@@QAE@XZ 10020d1b f   PhysXCommon_32:PhysXCommon_32.dll
 0001:0001fd25       ??1BV32Tree@Gu@physx@@QAE@XZ 10020d25 f   PhysXCommon_32:PhysXCommon_32.dll
 0001:0001fd2b       __imp_load_?writeWordBuffer@physx@@YAXPBGI_NAAVPxOutputStream@1@@Z 10020d2b f   PhysXCommon_32:PhysXCommon_32.dll
 0001:0001fd35       ?writeWordBuffer@physx@@YAXPBGI_NAAVPxOutputStream@1@@Z 10020d35 f   PhysXCommon_32:PhysXCommon_32.dll
 0001:0001fd3b       __imp_load_?computeMaxIndex@physx@@YAIPBII@Z 10020d3b f   PhysXCommon_32:PhysXCommon_32.dll
 0001:0001fd45       ?computeMaxIndex@physx@@YAIPBII@Z 10020d45 f   PhysXCommon_32:PhysXCommon_32.dll
 0001:0001fd4b       __imp_load_?storeIndices@physx@@YAXIIPBIAAVPxOutputStream@1@_N@Z 10020d4b f   PhysXCommon_32:PhysXCommon_32.dll
 0001:0001fd55       ?storeIndices@physx@@YAXIIPBIAAVPxOutputStream@1@_N@Z 10020d55 f   PhysXCommon_32:PhysXCommon_32.dll
 0001:0001fd5b       __imp_load_?BuildBV4Ex@Gu@physx@@YA_NAAVBV4Tree@12@AAVSourceMesh@12@MI@Z 10020d5b f   PhysXCommon_32:PhysXCommon_32.dll
 0001:0001fd65       ?BuildBV4Ex@Gu@physx@@YA_NAAVBV4Tree@12@AAVSourceMesh@12@MI@Z 10020d65 f   PhysXCommon_32:PhysXCommon_32.dll
 0001:0001fd6b       __imp_load_?BuildBV32Ex@Gu@physx@@YA_NAAVBV32Tree@12@AAVSourceMesh@12@MI@Z 10020d6b f   PhysXCommon_32:PhysXCommon_32.dll
 0001:0001fd75       ?BuildBV32Ex@Gu@physx@@YA_NAAVBV32Tree@12@AAVSourceMesh@12@MI@Z 10020d75 f   PhysXCommon_32:PhysXCommon_32.dll
 0001:0001fd7b       __imp_load_?computeMaxIndex@physx@@YAGPBGI@Z 10020d7b f   PhysXCommon_32:PhysXCommon_32.dll
 0001:0001fd85       ?computeMaxIndex@physx@@YAGPBGI@Z 10020d85 f   PhysXCommon_32:PhysXCommon_32.dll
 0001:0001fd8b       __imp_load_?WriteHeader@Gu@physx@@YA_NEEEEI_NAAVPxOutputStream@2@@Z 10020d8b f   PhysXCommon_32:PhysXCommon_32.dll
 0001:0001fd95       ?WriteHeader@Gu@physx@@YA_NEEEEI_NAAVPxOutputStream@2@@Z 10020d95 f   PhysXCommon_32:PhysXCommon_32.dll
 0001:0001fd9b       __imp_load_?StoreIndices@Gu@physx@@YAXGIPBGAAVPxOutputStream@2@_N@Z 10020d9b f   PhysXCommon_32:PhysXCommon_32.dll
 0001:0001fda5       ?StoreIndices@Gu@physx@@YAXGIPBGAAVPxOutputStream@2@_N@Z 10020da5 f   PhysXCommon_32:PhysXCommon_32.dll
 0001:0001fdab       __imp_load_?CreateOffsets@BigConvexData@physx@@IAEXXZ 10020dab f   PhysXCommon_32:PhysXCommon_32.dll
 0001:0001fdb5       ?CreateOffsets@BigConvexData@physx@@IAEXXZ 10020db5 f   PhysXCommon_32:PhysXCommon_32.dll
 0001:0001fdbb       __imp_load_?computeOBBPoints@Gu@physx@@YAXPIAVPxVec3@2@ABV32@1111@Z 10020dbb f   PhysXCommon_32:PhysXCommon_32.dll
 0001:0001fdc5       ?computeOBBPoints@Gu@physx@@YAXPIAVPxVec3@2@ABV32@1111@Z 10020dc5 f   PhysXCommon_32:PhysXCommon_32.dll
 0001:0001fdcb       __imp_load_??0BigConvexData@physx@@QAE@XZ 10020dcb f   PhysXCommon_32:PhysXCommon_32.dll
 0001:0001fdd5       ??0BigConvexData@physx@@QAE@XZ 10020dd5 f   PhysXCommon_32:PhysXCommon_32.dll
 0001:0001fddb       __imp_load_??1BigConvexData@physx@@QAE@XZ 10020ddb f   PhysXCommon_32:PhysXCommon_32.dll
 0001:0001fde5       ??1BigConvexData@physx@@QAE@XZ 10020de5 f   PhysXCommon_32:PhysXCommon_32.dll
 0001:0001fdeb       __imp_load__PxGetFoundation 10020deb f   PhysXFoundation_32:PhysXFoundation_32.dll
 0001:0001fdf5       _PxGetFoundation           10020df5 f   PhysXFoundation_32:PhysXFoundation_32.dll
 0001:0001fdfb       __tailMerge_physxfoundation_32_dll 10020dfb     PhysXFoundation_32:PhysXFoundation_32.dll
 0001:0001fe0c       __imp_load_?getAllocator@shdfnd@physx@@YAAAVPxAllocatorCallback@2@XZ 10020e0c f   PhysXFoundation_32:PhysXFoundation_32.dll
 0001:0001fe16       ?getAllocator@shdfnd@physx@@YAAAVPxAllocatorCallback@2@XZ 10020e16 f   PhysXFoundation_32:PhysXFoundation_32.dll
 0001:0001fe1c       __imp_load_?getInstance@Foundation@shdfnd@physx@@SAAAV123@XZ 10020e1c f   PhysXFoundation_32:PhysXFoundation_32.dll
 0001:0001fe26       ?getInstance@Foundation@shdfnd@physx@@SAAAV123@XZ 10020e26 f   PhysXFoundation_32:PhysXFoundation_32.dll
 0001:0001fe2c       __imp_load_?error@Foundation@shdfnd@physx@@QAAXW4Enum@PxErrorCode@3@PBDH1ZZ 10020e2c f   PhysXFoundation_32:PhysXFoundation_32.dll
 0001:0001fe36       ?error@Foundation@shdfnd@physx@@QAAXW4Enum@PxErrorCode@3@PBDH1ZZ 10020e36 f   PhysXFoundation_32:PhysXFoundation_32.dll
 0001:0001fe3c       __imp_load_?incRefCount@Foundation@shdfnd@physx@@SAXXZ 10020e3c f   PhysXFoundation_32:PhysXFoundation_32.dll
 0001:0001fe46       ?incRefCount@Foundation@shdfnd@physx@@SAXXZ 10020e46 f   PhysXFoundation_32:PhysXFoundation_32.dll
 0001:0001fe4c       __imp_load_?decRefCount@Foundation@shdfnd@physx@@SAXXZ 10020e4c f   PhysXFoundation_32:PhysXFoundation_32.dll
 0001:0001fe56       ?decRefCount@Foundation@shdfnd@physx@@SAXXZ 10020e56 f   PhysXFoundation_32:PhysXFoundation_32.dll
 0001:0001fe5c       __imp_load_??0FPUGuard@shdfnd@physx@@QAE@XZ 10020e5c f   PhysXFoundation_32:PhysXFoundation_32.dll
 0001:0001fe66       ??0FPUGuard@shdfnd@physx@@QAE@XZ 10020e66 f   PhysXFoundation_32:PhysXFoundation_32.dll
 0001:0001fe6c       __imp_load_??1FPUGuard@shdfnd@physx@@QAE@XZ 10020e6c f   PhysXFoundation_32:PhysXFoundation_32.dll
 0001:0001fe76       ??1FPUGuard@shdfnd@physx@@QAE@XZ 10020e76 f   PhysXFoundation_32:PhysXFoundation_32.dll
 0001:0001fe7c       __imp_load_?allocate@TempAllocator@shdfnd@physx@@QAEPAXIPBDH@Z 10020e7c f   PhysXFoundation_32:PhysXFoundation_32.dll
 0001:0001fe86       ?allocate@TempAllocator@shdfnd@physx@@QAEPAXIPBDH@Z 10020e86 f   PhysXFoundation_32:PhysXFoundation_32.dll
 0001:0001fe8c       __imp_load_?deallocate@TempAllocator@shdfnd@physx@@QAEXPAX@Z 10020e8c f   PhysXFoundation_32:PhysXFoundation_32.dll
 0001:0001fe96       ?deallocate@TempAllocator@shdfnd@physx@@QAEXPAX@Z 10020e96 f   PhysXFoundation_32:PhysXFoundation_32.dll
 0001:0001fe9c       __imp_load_?PxDiagonalize@physx@@YA?AVPxVec3@1@ABVPxMat33@1@AAVPxQuat@1@@Z 10020e9c f   PhysXFoundation_32:PhysXFoundation_32.dll
 0001:0001fea6       ?PxDiagonalize@physx@@YA?AVPxVec3@1@ABVPxMat33@1@AAVPxQuat@1@@Z 10020ea6 f   PhysXFoundation_32:PhysXFoundation_32.dll
 0001:0001feac       ?DloadAcquireSectionWriteAccess@@YGXXZ 10020eac f i Delayimp:delayhlp.obj
 0001:0001fedf       ?DloadGetSRWLockFunctionPointers@@YGEXZ 10020edf f i Delayimp:delayhlp.obj
 0001:0001ff52       ?DloadLock@@YGXXZ          10020f52 f i Delayimp:delayhlp.obj
 0001:0001ff91       ?DloadMakePermanentImageCommit@@YGXPAXK@Z 10020f91 f i Delayimp:delayhlp.obj
 0001:00020000       ?DloadObtainSection@@YGPAXPAK0@Z 10021000 f i Delayimp:delayhlp.obj
 0001:0002007b       ?DloadProtectSection@@YGXKPAK@Z 1002107b f i Delayimp:delayhlp.obj
 0001:000200e9       ?DloadReleaseSectionWriteAccess@@YGXXZ 100210e9 f i Delayimp:delayhlp.obj
 0001:0002011f       ?DloadUnlock@@YGXXZ        1002111f f i Delayimp:delayhlp.obj
 0001:0002014b       ___delayLoadHelper2@8      1002114b f   Delayimp:delayhlp.obj
 0001:000203ba       ??3@YAXPAXI@Z              100213ba f   LIBCMT:delete_scalar_size.obj
 0001:000203c8       ??_V@YAXPAXI@Z             100213c8 f   LIBCMT:delete_array_size.obj
 0001:000203d6       ??_Etype_info@@UAEPAXI@Z   100213d6 f i LIBCMT:std_type_info_static.obj
 0001:000203d6       ??_Gtype_info@@UAEPAXI@Z   100213d6 f i LIBCMT:std_type_info_static.obj
 0001:000203f9       ?__scrt_initialize_type_info@@YAXXZ 100213f9 f   LIBCMT:tncleanup.obj
 0001:00020405       ?__scrt_uninitialize_type_info@@YAXXZ 10021405 f   LIBCMT:tncleanup.obj
 0001:00020420       __alloca_probe_16          10021420 f   LIBCMT:alloca16.obj
 0001:00020436       __alloca_probe_8           10021436     LIBCMT:alloca16.obj
 0001:0002044c       ??3@YAXPAX@Z               1002144c f   LIBCMT:delete_scalar.obj
 0001:00020451       ??_V@YAXPAX@Z              10021451 f   LIBCMT:delete_array.obj
 0001:00020460       __alloca_probe             10021460 f   LIBCMT:chkstk.obj
 0001:00020460       __chkstk                   10021460 f   LIBCMT:chkstk.obj
 0001:00020490       __ftoui3                   10021490 f   LIBCMT:ftol3.obj
 0001:000204e0       ___vdecl_sinf4             100214e0 f   LIBCMT:svml_ssinf4_dispatch.obj
 0001:00020500       ___libm_sse2_sincosf_      10021500 f   LIBCMT:svml_ssinf4_dispatch.obj
 0001:0002088a       __DllMainCRTStartup@12     1002188a f   LIBCMT:dll_dllmain.obj
 0001:000208ad       ___isa_available_init      100218ad f   LIBCMT:cpu_disp.obj
 0001:00020a80       ___sse2_sinf4@@16          10021a80 f   LIBCMT:svml_ssinf4_sse2.obj
 0001:00020c40       ___sse4_sinf4@@16          10021c40 f   LIBCMT:svml_ssinf4_sse4.obj
 0001:00021322       ___security_init_cookie    10022322 f   LIBCMT:gs_support.obj
 0001:0002136d       _DllMain@12                1002236d f   LIBCMT:dll_dllmain_stub.obj
 0001:00021373       ___local_stdio_printf_options 10022373 f i LIBCMT:default_local_stdio_options.obj
 0001:00021379       ___local_stdio_scanf_options 10022379 f i LIBCMT:default_local_stdio_options.obj
 0001:0002137f       ___scrt_initialize_default_local_stdio_options 1002237f f   LIBCMT:default_local_stdio_options.obj
 0001:000213e0       ___scrt_acquire_startup_lock 100223e0 f   LIBCMT:utility.obj
 0001:00021412       ___scrt_dllmain_after_initialize_c 10022412 f   LIBCMT:utility.obj
 0001:0002143d       ___scrt_dllmain_before_initialize_c 1002243d f   LIBCMT:utility.obj
 0001:0002144b       ___scrt_dllmain_crt_thread_attach 1002244b f   LIBCMT:utility.obj
 0001:0002146a       ___scrt_dllmain_crt_thread_detach 1002246a f   LIBCMT:utility.obj
 0001:00021477       ___scrt_dllmain_exception_filter 10022477 f   LIBCMT:utility.obj
 0001:000214ab       ___scrt_dllmain_uninitialize_c 100224ab f   LIBCMT:utility.obj
 0001:000214ce       ___scrt_dllmain_uninitialize_critical 100224ce f   LIBCMT:utility.obj
 0001:000214db       ___scrt_initialize_crt     100224db f   LIBCMT:utility.obj
 0001:00021514       ___scrt_initialize_onexit_tables 10022514 f   LIBCMT:utility.obj
 0001:0002159b       ___scrt_is_nonwritable_in_current_image 1002259b f   LIBCMT:utility.obj
 0001:0002162f       ___scrt_release_startup_lock 1002262f f   LIBCMT:utility.obj
 0001:0002164c       ___scrt_uninitialize_crt   1002264c f   LIBCMT:utility.obj
 0001:00021674       ___scrt_get_dyn_tls_init_callback 10022674 f   LIBCMT:dyn_tls_init.obj
 0001:0002167a       ___scrt_fastfail           1002267a f   LIBCMT:utility_desktop.obj
 0001:00021795       __crt_debugger_hook        10022795 f   LIBCMT:utility_desktop.obj
 0001:0002179d       __RTC_Initialize           1002279d f   LIBCMT:initsect.obj
 0001:000217c9       __RTC_Terminate            100227c9 f   LIBCMT:initsect.obj
 0001:00021800       __SEH_prolog4              10022800 f   LIBCMT:sehprolg4.obj
 0001:00021850       ___common_sin_reduction_LA 10022850 f   LIBCMT:svml_dtrig.obj
 0001:00021be0       ___common_ssin_cout_rare   10022be0 f   LIBCMT:svml_s_sin_cout.obj
 0001:00021c59       ?raw_length@charNode@@UBEHXZ 10022c59 f   libvcruntime:undname.obj
 0001:00021c59       __get_startup_argv_mode    10022c59 f   LIBCMT:argv_mode.obj
 0001:00021c59       ?length@charNode@@UBEHXZ   10022c59 f   libvcruntime:undname.obj
 0001:00021c5d       ___scrt_is_ucrt_dll_in_use 10022c5d f   LIBCMT:ucrt_detection.obj
 0001:00021c69       @__security_check_cookie@4 10022c69 f   LIBCMT:secchk.obj
 0001:00021c77       ___raise_securityfailure   10022c77 f   LIBCMT:gs_report.obj
 0001:00021c9f       ___report_gsfailure        10022c9f f   LIBCMT:gs_report.obj
 0001:00021d99       __get_purecall_handler     10022d99 f   libvcruntime:purevirt.obj
 0001:00021d9f       __purecall                 10022d9f f   libvcruntime:purevirt.obj
 0001:00021dc4       ___std_type_info_compare   10022dc4 f   libvcruntime:std_type_info.obj
 0001:00021e00       ___std_type_info_destroy_list 10022e00 f   libvcruntime:std_type_info.obj
 0001:00021e23       ___std_type_info_name      10022e23 f   libvcruntime:std_type_info.obj
 0001:00021ef0       _memset                    10022ef0 f   libvcruntime:memset.obj
 0001:00022050       _memcpy                    10023050 f   libvcruntime:memcpy.obj
 0001:00022050       _memmove                   10023050 f   libvcruntime:memmove.obj
 0001:000225d0       _strstr                    100235d0 f   libvcruntime:strstr.obj
 0001:00022880       __except_handler4          10023880 f   libvcruntime:chandler4.obj
 0001:000229de       ___vcrt_initialize         100239de f   libvcruntime:initialization.obj
 0001:000229fd       ___vcrt_thread_attach      100239fd f   libvcruntime:initialization.obj
 0001:00022a08       ___vcrt_thread_detach      10023a08 f   libvcruntime:initialization.obj
 0001:00022a13       ___vcrt_uninitialize       10023a13 f   libvcruntime:initialization.obj
 0001:00022a2a       ___vcrt_uninitialize_critical 10023a2a f   libvcruntime:initialization.obj
 0001:00022a32       ___DestructExceptionObject 10023a32 f   libvcruntime:ehhelpers.obj
 0001:00022ad3       ?_CallMemberFunction0@@YGXQAX0@Z 10023ad3 f i libvcruntime:ehhelpers.obj
 0001:00022b38       __IsExceptionObjectToBeDestroyed 10023b38 f   libvcruntime:ehhelpers.obj
 0001:00022b5e       ___AdjustPointer           10023b5e f   libvcruntime:ehhelpers.obj
 0001:00022b83       ___FrameUnwindFilter       10023b83 f   libvcruntime:ehhelpers.obj
 0001:00022bd9       ___std_terminate           10023bd9 f   libvcruntime:ehhelpers.obj
 0001:00022bde       ??$?0$00@DName@@QAE@PBDU?$StringLifeSelector@$00@@@Z 10023bde f i libvcruntime:undname.obj
 0001:00022c11       ??$?0$01@DName@@QAE@PBDU?$StringLifeSelector@$01@@@Z 10023c11 f i libvcruntime:undname.obj
 0001:00022c11       ??$?0$0A@@DName@@QAE@PBDU?$StringLifeSelector@$0A@@@@Z 10023c11 f i libvcruntime:undname.obj
 0001:00022c44       ??$?0$01@pcharNode@@QAE@PBDHU?$StringLifeSelector@$01@@@Z 10023c44 f i libvcruntime:undname.obj
 0001:00022c44       ??$?0$0A@@pcharNode@@QAE@PBDHU?$StringLifeSelector@$0A@@@@Z 10023c44 f i libvcruntime:undname.obj
 0001:00022c84       ??$append@VpcharNode@@@DName@@AAEXPBVpcharNode@@@Z 10023c84 f i libvcruntime:undname.obj
 0001:00022c84       ??$append@VDNameNode@@@DName@@AAEXPBVDNameNode@@@Z 10023c84 f i libvcruntime:undname.obj
 0001:00022c84       ??$append@VcharNode@@@DName@@AAEXPBVcharNode@@@Z 10023c84 f i libvcruntime:undname.obj
 0001:00022c84       ??$append@VDNameStatusNode@@@DName@@AAEXPBVDNameStatusNode@@@Z 10023c84 f i libvcruntime:undname.obj
 0001:00022cc5       ??$doPchar@$00@DName@@AAEXPBDH@Z 10023cc5 f i libvcruntime:undname.obj
 0001:00022d30       ??$doPchar@$01@DName@@AAEXPBDH@Z 10023d30 f i libvcruntime:undname.obj
 0001:00022d30       ??$doPchar@$0A@@DName@@AAEXPBDH@Z 10023d30 f i libvcruntime:undname.obj
 0001:00022da1       ??$forward@_K@std@@YA$$QA_KAA_K@Z 10023da1 f i libvcruntime:undname.obj
 0001:00022da9       ??0DName@@QAE@AAPBDD@Z     10023da9 f   libvcruntime:undname.obj
 0001:00022e29       ??0DName@@QAE@ABUStringLiteral@@@Z 10023e29 f   libvcruntime:undname.obj
 0001:00022e50       ??0DName@@QAE@PAV0@@Z      10023e50 f   libvcruntime:undname.obj
 0001:00022e97       ??0DName@@QAE@W4DNameStatus@@@Z 10023e97 f   libvcruntime:undname.obj
 0001:00022ed7       ??0DName@@QAE@_J@Z         10023ed7 f   libvcruntime:undname.obj
 0001:00022f63       ??0DName@@QAE@_K@Z         10023f63 f   libvcruntime:undname.obj
 0001:00022fca       ??0UnDecorator@@QAE@PBDP6APADJ@ZK@Z 10023fca f i libvcruntime:undname.obj
 0001:00023016       ??0pDNameNode@@QAE@PAVDName@@@Z 10024016 f   libvcruntime:undname.obj
 0001:00023045       ??2@YAPAXIAAV_HeapManager@@H@Z 10024045 f   libvcruntime:undname.obj
 0001:00023064       ??4DName@@QAEAAV0@ABUStringLiteral@@@Z 10024064 f   libvcruntime:undname.obj
 0001:00023085       ??4DName@@QAEAAV0@W4DNameStatus@@@Z 10024085 f   libvcruntime:undname.obj
 0001:000230b7       ??AReplicator@@QBE?AVDName@@H@Z 100240b7 f   libvcruntime:undname.obj
 0001:000230fd       ??H@YA?AVDName@@ABUStringLiteral@@ABV0@@Z 100240fd f i libvcruntime:undname.obj
 0001:0002311f       ??H@YA?AVDName@@DABV0@@Z   1002411f f i libvcruntime:undname.obj
 0001:0002314a       ??H@YA?AVDName@@W4DNameStatus@@ABV0@@Z 1002414a f i libvcruntime:undname.obj
 0001:0002316c       ??HDName@@QBE?AV0@ABUStringLiteral@@@Z 1002416c f   libvcruntime:undname.obj
 0001:0002318e       ??HDName@@QBE?AV0@ABV0@@Z  1002418e f   libvcruntime:undname.obj
 0001:000231b0       ??HDName@@QBE?AV0@D@Z      100241b0 f   libvcruntime:undname.obj
 0001:000231d2       ??HDName@@QBE?AV0@W4DNameStatus@@@Z 100241d2 f   libvcruntime:undname.obj
 0001:000231f4       ??YDName@@QAEAAV0@ABUStringLiteral@@@Z 100241f4 f   libvcruntime:undname.obj
 0001:0002324c       ??YDName@@QAEAAV0@ABV0@@Z  1002424c f   libvcruntime:undname.obj
 0001:000232a3       ??YDName@@QAEAAV0@D@Z      100242a3 f   libvcruntime:undname.obj
 0001:000232f8       ??YDName@@QAEAAV0@W4DNameStatus@@@Z 100242f8 f   libvcruntime:undname.obj
 0001:00023338       ??YReplicator@@QAEAAV0@ABVDName@@@Z 10024338 f   libvcruntime:undname.obj
 0001:00023376       ??_5DName@@QAEAAV0@ABV0@@Z 10024376 f   libvcruntime:undname.obj
 0001:00023392       ?Destructor@_HeapManager@@QAEXXZ 10024392 f i libvcruntime:undname.obj
 0001:000233ca       ?UScore@UnDecorator@@SA?AUStringLiteral@@W4Tokens@@@Z 100243ca f   libvcruntime:undname.obj
 0001:000233f1       ?composeDeclaration@UnDecorator@@CA?AVDName@@ABV2@@Z 100243f1 f i libvcruntime:undname.obj
 0001:00024124       ?doPchar@DName@@AAEXD@Z    10025124 f   libvcruntime:undname.obj
 0001:0002415c       ?getAddressOf@UnDecorator@@CA?AVDName@@XZ 1002515c f   libvcruntime:undname.obj
 0001:000241cf       ?getArgumentList@UnDecorator@@CA?AVDName@@XZ 100251cf f   libvcruntime:undname.obj
 0001:000242dc       ?getArgumentTypes@UnDecorator@@CA?AVDName@@XZ 100252dc f   libvcruntime:undname.obj
 0001:000243f5       ?getArrayAccess@UnDecorator@@CA?AVDName@@XZ 100253f5 f   libvcruntime:undname.obj
 0001:00024474       ?getArrayObject@UnDecorator@@CA?AVDName@@XZ 10025474 f   libvcruntime:undname.obj
 0001:00024516       ?getArrayType@UnDecorator@@CA?AVDName@@ABV2@@Z 10025516 f i libvcruntime:undname.obj
 0001:000246b3       ?getBasedType@UnDecorator@@CA?AVDName@@XZ 100256b3 f   libvcruntime:undname.obj
 0001:0002476e       ?getBasicDataType@UnDecorator@@CA?AVDName@@ABV2@@Z 1002576e f   libvcruntime:undname.obj
 0001:00024ca2       ?getCallingConvention@UnDecorator@@CA?AVDName@@XZ 10025ca2 f   libvcruntime:undname.obj
 0001:00024d7f       ?getDataIndirectType@UnDecorator@@CA?AVDName@@ABV2@W4IndirectionKind@@0H@Z 10025d7f f   libvcruntime:undname.obj
 0001:00025415       ?getDataIndirectType@UnDecorator@@CA?AVDName@@XZ 10026415 f i libvcruntime:undname.obj
 0001:00025443       ?getDataType@UnDecorator@@CA?AVDName@@PAV2@@Z 10026443 f   libvcruntime:undname.obj
 0001:0002551a       ?getDecoratedName@UnDecorator@@CA?AVDName@@XZ 1002651a f   libvcruntime:undname.obj
 0001:00025784       ?getDimension@UnDecorator@@CA?AVDName@@_N@Z 10026784 f   libvcruntime:undname.obj
 0001:0002589b       ?getDispatchTarget@UnDecorator@@CA?AVDName@@XZ 1002689b f   libvcruntime:undname.obj
 0001:000258ef       ?getECSUDataType@UnDecorator@@CA?AVDName@@XZ 100268ef f   libvcruntime:undname.obj
 0001:00025a7f       ?getEnumType@UnDecorator@@CA?AVDName@@XZ 10026a7f f i libvcruntime:undname.obj
 0001:00025b9f       ?getExtendedDataIndirectType@UnDecorator@@CA?AVDName@@AAW4IndirectionKind@@AA_NH@Z 10026b9f f   libvcruntime:undname.obj
 0001:00025d52       ?getExternalDataType@UnDecorator@@CA?AVDName@@ABV2@@Z 10026d52 f i libvcruntime:undname.obj
 0001:00025db7       ?getFloatingPoint@UnDecorator@@CA?AVDName@@H@Z 10026db7 f   libvcruntime:undname.obj
 0001:00025eab       ?getFunctionIndirectType@UnDecorator@@CA?AVDName@@ABV2@@Z 10026eab f   libvcruntime:undname.obj
 0001:00026264       ?getLastChar@DName@@QBEDXZ 10027264 f i libvcruntime:undname.obj
 0001:00026284       ?getLastChar@DNameStatusNode@@UBEDXZ 10027284 f i libvcruntime:undname.obj
 0001:00026290       ?getLastChar@charNode@@UBEDXZ 10027290 f i libvcruntime:undname.obj
 0001:00026294       ?getLastChar@pDNameNode@@UBEDXZ 10027294 f i libvcruntime:undname.obj
 0001:000262a2       ?getLastChar@pairNode@@UBEDXZ 100272a2 f i libvcruntime:undname.obj
 0001:000262d7       ?getLastChar@pcharNode@@UBEDXZ 100272d7 f i libvcruntime:undname.obj
 0001:000262e9       ?getLexicalFrame@UnDecorator@@CA?AVDName@@XZ 100272e9 f i libvcruntime:undname.obj
 0001:0002631a       ?getMemberAccess@UnDecorator@@CA?AVDName@@XZ 1002731a f   libvcruntime:undname.obj
 0001:00026395       ?getMemoryWithBuffer@_HeapManager@@QAEPAXI@Z 10027395 f   libvcruntime:undname.obj
 0001:000263ff       ?getMemoryWithoutBuffer@_HeapManager@@QAEPAXI@Z 100273ff f   libvcruntime:undname.obj
 0001:0002641f       ?getNoexcept@UnDecorator@@CA?AVDName@@XZ 1002741f f   libvcruntime:undname.obj
 0001:00026473       ?getNumberOfDimensions@UnDecorator@@CAHXZ 10027473 f   libvcruntime:undname.obj
 0001:000264d4       ?getOperatorName@UnDecorator@@CA?AVDName@@_NPA_N@Z 100274d4 f i libvcruntime:undname.obj
 0001:00026c3a       ?getPointerToMember@UnDecorator@@CA?AVDName@@XZ 10027c3a f   libvcruntime:undname.obj
 0001:00026cf5       ?getPrimaryDataType@UnDecorator@@CA?AVDName@@ABV2@@Z 10027cf5 f   libvcruntime:undname.obj
 0001:00026f46       ?getPtrRefDataType@UnDecorator@@CA?AVDName@@ABV2@H@Z 10027f46 f   libvcruntime:undname.obj
 0001:000270b3       ?getPtrRefType@UnDecorator@@CA?AVDName@@ABV2@0W4IndirectionKind@@@Z 100280b3 f   libvcruntime:undname.obj
 0001:000271c4       ?getRestrictionSpec@UnDecorator@@CA?AVDName@@XZ 100281c4 f   libvcruntime:undname.obj
 0001:000272ec       ?getReturnType@UnDecorator@@CA?AVDName@@PAV2@@Z 100282ec f   libvcruntime:undname.obj
 0001:0002731b       ?getScope@UnDecorator@@CA?AVDName@@XZ 1002831b f   libvcruntime:undname.obj
 0001:000276cd       ?getScopedName@UnDecorator@@CA?AVDName@@XZ 100286cd f   libvcruntime:undname.obj
 0001:000277b8       ?getSignedDimension@UnDecorator@@CA?AVDName@@XZ 100287b8 f   libvcruntime:undname.obj
 0001:00027809       ?getString@DName@@QBEPADPAD0@Z 10028809 f i libvcruntime:undname.obj
 0001:00027836       ?getString@DName@@QBEPADPADH@Z 10028836 f i libvcruntime:undname.obj
 0001:0002788b       ?getString@DNameStatusNode@@UBEPADPAD0@Z 1002888b f i libvcruntime:undname.obj
 0001:000278d1       ?getString@charNode@@UBEPADPAD0@Z 100288d1 f i libvcruntime:undname.obj
 0001:000278e6       ?getString@pDNameNode@@UBEPADPAD0@Z 100288e6 f i libvcruntime:undname.obj
 0001:000278fd       ?getString@pairNode@@UBEPADPAD0@Z 100288fd f i libvcruntime:undname.obj
 0001:00027943       ?getString@pcharNode@@UBEPADPAD0@Z 10028943 f i libvcruntime:undname.obj
 0001:0002795e       ?getStringEncoding@UnDecorator@@CA?AVDName@@W4PrefixKind@@H@Z 1002895e f   libvcruntime:undname.obj
 0001:00027a16       ?getStringHelper@@YAPADPADPBD1H@Z 10028a16 f i libvcruntime:undname.obj
 0001:00027a40       ?getStringObject@UnDecorator@@CA?AVDName@@XZ 10028a40 f   libvcruntime:undname.obj
 0001:00027a97       ?getSymbolName@UnDecorator@@CA?AVDName@@XZ 10028a97 f i libvcruntime:undname.obj
 0001:00027adf       ?getTemplateArgumentList@UnDecorator@@CA?AVDName@@XZ 10028adf f   libvcruntime:undname.obj
 0001:00027c9b       ?getTemplateName@UnDecorator@@CA?AVDName@@_N@Z 10028c9b f   libvcruntime:undname.obj
 0001:00027dfc       ?getTemplateNonTypeArgument@UnDecorator@@CA?AVDName@@XZ 10028dfc f   libvcruntime:undname.obj
 0001:000281b0       ?getTemplateTypeArgument@UnDecorator@@CA?AVDName@@XZ 100291b0 f   libvcruntime:undname.obj
 0001:000282b6       ?getThisType@UnDecorator@@CA?AVDName@@XZ 100292b6 f i libvcruntime:undname.obj
 0001:000282e5       ?getThrowTypes@UnDecorator@@CA?AVDName@@XZ 100292e5 f   libvcruntime:undname.obj
 0001:00028308       ?getTypeEncoding@UnDecorator@@CAHXZ 10029308 f i libvcruntime:undname.obj
 0001:00028668       ?getUndecoratedName@UnDecorator@@QAEPADPADH@Z 10029668 f i libvcruntime:undname.obj
 0001:00028787       ?getUnionObject@UnDecorator@@CA?AVDName@@XZ 10029787 f   libvcruntime:undname.obj
 0001:00028836       ?getVCallThunkType@UnDecorator@@CA?AVDName@@XZ 10029836 f i libvcruntime:undname.obj
 0001:0002888c       ?getValue@UnDecorator@@CA?AV?$optional@_K@std@@XZ 1002988c f   libvcruntime:undname.obj
 0001:000288fa       ?getValueObject@UnDecorator@@CA?AVDName@@XZ 100298fa f   libvcruntime:undname.obj
 0001:00028a12       ?getVdispMapType@UnDecorator@@CA?AVDName@@ABV2@@Z 10029a12 f i libvcruntime:undname.obj
 0001:00028a73       ?getVfTableType@UnDecorator@@CA?AVDName@@ABV2@@Z 10029a73 f i libvcruntime:undname.obj
 0001:00028bc9       ?getZName@UnDecorator@@CA?AVDName@@_N0@Z 10029bc9 f   libvcruntime:undname.obj
 0001:00028dde       ?length@DName@@QBEHXZ      10029dde f i libvcruntime:undname.obj
 0001:00028dfd       ?length@pDNameNode@@UBEHXZ 10029dfd f i libvcruntime:undname.obj
 0001:00028e0b       ?length@pairNode@@UBEHXZ   10029e0b f i libvcruntime:undname.obj
 0001:00028e54       ?make@DNameStatusNode@@SAPBV1@W4DNameStatus@@@Z 10029e54 f i libvcruntime:undname.obj
 0001:00028e70       ?parseDecoratedName@UnDecorator@@CA?AVDName@@XZ 10029e70 f   libvcruntime:undname.obj
 0001:00028f6a       ?raw_length@pDNameNode@@UBEHXZ 10029f6a f i libvcruntime:undname.obj
 0001:00028fc0       ___unDName                 10029fc0 f   libvcruntime:undname.obj
 0001:00028fe3       ___unDNameEx               10029fe3 f   libvcruntime:undname.obj
 0001:00029082       __vsprintf_s_l             1002a082 f i libvcruntime:undname.obj
 0001:000290af       _sprintf_s                 1002a0af f i libvcruntime:undname.obj
 0001:000290d0       _strchr                    1002a0d0 f   libvcruntime:strchr.obj
 0001:0002913e       ___from_strstr_to_strchr   1002a13e     libvcruntime:strchr.obj
 0001:00029200       __local_unwind4            1002a200 f   libvcruntime:exsup4.obj
 0001:000292f0       @_EH4_CallFilterFunc@8     1002a2f0 f   libvcruntime:exsup4.obj
 0001:00029310       @_EH4_TransferToHandler@8  1002a310 f   libvcruntime:exsup4.obj
 0001:00029330       @_EH4_GlobalUnwind2@8      1002a330 f   libvcruntime:exsup4.obj
 0001:00029350       @_EH4_LocalUnwind@16       1002a350 f   libvcruntime:exsup4.obj
 0001:00029367       ___except_validate_context_record 1002a367 f   libvcruntime:jbcxrval.obj
 0001:00029397       ___vcrt_freefls@4          1002a397 f   libvcruntime:per_thread_data.obj
 0001:000293b3       ___vcrt_freeptd            1002a3b3 f   libvcruntime:per_thread_data.obj
 0001:000293e9       ___vcrt_getptd             1002a3e9 f   libvcruntime:per_thread_data.obj
 0001:000293f7       ___vcrt_getptd_noexit      1002a3f7 f   libvcruntime:per_thread_data.obj
 0001:00029489       ___vcrt_initialize_ptd     1002a489 f   libvcruntime:per_thread_data.obj
 0001:000294bc       ___vcrt_uninitialize_ptd   1002a4bc f   libvcruntime:per_thread_data.obj
 0001:000294d7       ___vcrt_initialize_locks   1002a4d7 f   libvcruntime:locks.obj
 0001:00029513       ___vcrt_lock               1002a513 f   libvcruntime:locks.obj
 0001:00029528       ___vcrt_uninitialize_locks 1002a528 f   libvcruntime:locks.obj
 0001:00029557       ___vcrt_unlock             1002a557 f   libvcruntime:locks.obj
 0001:0002956c       ?GetRangeOfTrysToCheck@__FrameHandler3@@SA?AU?$pair@Viterator@TryBlockMap@__FrameHandler3@@V123@@std@@AAVTryBlockMap@1@HPAXPBU_s_FuncInfo@@H@Z 1002a56c f   libvcruntime:trnsctrl.obj
 0001:000295dc       ?_CallCatchBlock2@@YAPAXPAUEHRegistrationNode@@PBU_s_FuncInfo@@PAXHK@Z 1002a5dc f   libvcruntime:trnsctrl.obj
 0001:00029639       ?_CallSETranslator@@YAHPAUEHExceptionRecord@@PAUEHRegistrationNode@@PAX2PBU_s_FuncInfo@@H1@Z 1002a639 f   libvcruntime:trnsctrl.obj
 0001:0002972f       ?_JumpToContinuation@@YGXPAXPAUEHRegistrationNode@@@Z 1002a72f f   libvcruntime:trnsctrl.obj
 0001:0002975f       ?_UnwindNestedFrames@@YGXPAUEHRegistrationNode@@PAUEHExceptionRecord@@@Z 1002a75f f   libvcruntime:trnsctrl.obj
 0001:000297b2       __CatchGuardHandler        1002a7b2 f   libvcruntime:trnsctrl.obj
 0001:000297e3       __CreateFrameInfo          1002a7e3 f   libvcruntime:trnsctrl.obj
 0001:00029807       __FindAndUnlinkFrame       1002a807 f   libvcruntime:trnsctrl.obj
 0001:0002984f       __TranslatorGuardHandler   1002a84f f   libvcruntime:trnsctrl.obj
 0001:000298ec       ___CxxFrameHandler3        1002a8ec f   libvcruntime:trnsctrl.obj
 0001:00029930       __NLG_Notify1              1002a930 f   libvcruntime:exsup.obj
 0001:00029940       __NLG_Notify               1002a940 f   libvcruntime:exsup.obj
 0001:00029957       __NLG_Dispatch2            1002a957     libvcruntime:exsup.obj
 0001:00029957       __NLG_Dispatch             1002a957     libvcruntime:exsup.obj
 0001:00029960       __NLG_Call                 1002a960 f   libvcruntime:exsup.obj
 0001:00029962       __NLG_Return2              1002a962     libvcruntime:exsup.obj
 0001:00029a46       ___vcrt_FlsAlloc           1002aa46 f   libvcruntime:winapi_downlevel.obj
 0001:00029a81       ___vcrt_FlsFree            1002aa81 f   libvcruntime:winapi_downlevel.obj
 0001:00029abc       ___vcrt_FlsGetValue        1002aabc f   libvcruntime:winapi_downlevel.obj
 0001:00029af7       ___vcrt_FlsSetValue        1002aaf7 f   libvcruntime:winapi_downlevel.obj
 0001:00029b35       ___vcrt_InitializeCriticalSectionEx 1002ab35 f   libvcruntime:winapi_downlevel.obj
 0001:0002a2b3       ??$TypeMatchHelper@V__FrameHandler3@@@@YAHPBU_s_HandlerType@@PBU_s_CatchableType@@PBU_s_ThrowInfo@@@Z 1002b2b3 f i libvcruntime:frame.obj
 0001:0002a341       ??$__InternalCxxFrameHandler@V__FrameHandler3@@@@YA?AW4_EXCEPTION_DISPOSITION@@PAUEHExceptionRecord@@PAUEHRegistrationNode@@PAU_CONTEXT@@PAXPBU_s_FuncInfo@@H1E@Z 1002b341 f i libvcruntime:frame.obj
 0001:0002a443       ??0bad_exception@std@@QAE@ABV01@@Z 1002b443 f i libvcruntime:frame.obj
 0001:0002a45e       ??0bad_exception@std@@QAE@XZ 1002b45e f i libvcruntime:frame.obj
 0001:0002a476       ??0exception@std@@QAE@ABV01@@Z 1002b476 f i libvcruntime:frame.obj
 0001:0002a4a2       ??1bad_exception@std@@UAE@XZ 1002b4a2 f i libvcruntime:frame.obj
 0001:0002a4b3       ??8type_info@@QBE_NABV0@@Z 1002b4b3 f i libvcruntime:frame.obj
 0001:0002a4d2       ??_Gbad_exception@std@@UAEPAXI@Z 1002b4d2 f i libvcruntime:frame.obj
 0001:0002a4d2       ??_Gexception@std@@UAEPAXI@Z 1002b4d2 f i libvcruntime:frame.obj
 0001:0002a4d2       ??_Eexception@std@@UAEPAXI@Z 1002b4d2 f i libvcruntime:frame.obj
 0001:0002a4d2       ??_Ebad_exception@std@@UAEPAXI@Z 1002b4d2 f i libvcruntime:frame.obj
 0001:0002a74c       ?FrameUnwindToEmptyState@__FrameHandler3@@SAXPAUEHRegistrationNode@@PAXPBU_s_FuncInfo@@@Z 1002b74c f   libvcruntime:frame.obj
 0001:0002a764       ?FrameUnwindToState@__FrameHandler3@@SAXPAUEHRegistrationNode@@PAXPBU_s_FuncInfo@@H@Z 1002b764 f   libvcruntime:frame.obj
 0001:0002a8e6       ?_CallMemberFunction1@@YGXQAX00@Z 1002b8e6 f i libvcruntime:frame.obj
 0001:0002a8f6       ?_CallMemberFunction2@@YGXQAX00H@Z 1002b8f6 f i libvcruntime:frame.obj
 0001:0002a909       ?getESTypes@__FrameHandler3@@SAPBU_s_ESTypeList@@PBU_s_FuncInfo@@@Z 1002b909 f i libvcruntime:frame.obj
 0001:0002a914       ?what@exception@std@@UBEPBDXZ 1002b914 f i libvcruntime:frame.obj
 0001:0002a930       __CallSettingFrame@12      1002b930 f   libvcruntime:lowhelpr.obj
 0001:0002a957       __NLG_Return               1002b957     libvcruntime:lowhelpr.obj
 0001:0002a97c       _unexpected                1002b97c f   libvcruntime:unexpected.obj
 0001:0002a999       ?GetCurrentState@__FrameHandler3@@SAHPAUEHRegistrationNode@@PAXPBU_s_FuncInfo@@@Z 1002b999 f   libvcruntime:ehstate.obj
 0001:0002a9b6       ?SetState@__FrameHandler3@@SAXPAUEHRegistrationNode@@PBU_s_FuncInfo@@H@Z 1002b9b6 f   libvcruntime:ehstate.obj
 0001:0002a9c4       ___std_exception_copy      1002b9c4 f   libvcruntime:std_exception.obj
 0001:0002aa27       ___std_exception_destroy   1002ba27 f   libvcruntime:std_exception.obj
 0001:0002aa46       __CxxThrowException@8      1002ba46 f   libvcruntime:throw.obj
 0001:0002aac0       __fpclass                  1002bac0 f   libucrt:ieeemisc.obj
 0001:0002ab64       _free                      1002bb64 f   libucrt:free.obj
 0001:0002ab7f       __errcode                  1002bb7f f   libucrt:fpexcept.obj
 0001:0002abb3       __except1                  1002bbb3 f   libucrt:fpexcept.obj
 0001:0002ac81       __handle_exc               1002bc81 f   libucrt:fpexcept.obj
 0001:0002af01       __raise_exc                1002bf01 f   libucrt:fpexcept.obj
 0001:0002af24       __raise_exc_ex             1002bf24 f   libucrt:fpexcept.obj
 0001:0002b215       __set_errno_from_matherr   1002c215 f   libucrt:fpexcept.obj
 0001:0002b246       __umatherr                 1002c246 f   libucrt:fpexcept.obj
 0001:0002b2e6       __initterm                 1002c2e6 f   libucrt:initterm.obj
 0001:0002b311       __initterm_e               1002c311 f   libucrt:initterm.obj
 0001:0002b33f       __seh_filter_dll           1002c33f f   libucrt:exception_filter.obj
 0001:0002b35f       __seh_filter_exe           1002c35f f   libucrt:exception_filter.obj
 0001:0002b4f2       ??$__crt_fast_decode_pointer@P6AHI@Z@@YAP6AHI@ZQ6AHI@Z@Z 1002c4f2 f i libucrt:new_handler.obj
 0001:0002b4f2       ??$__crt_fast_decode_pointer@P6AXH@Z@@YAP6AXH@ZQ6AXH@Z@Z 1002c4f2 f i libucrt:signal.obj
 0001:0002b4f2       ??$__crt_fast_decode_pointer@P6GXPAXK0@Z@@YAP6GXPAXK0@ZQ6GX0K0@Z@Z 1002c4f2 f i libucrt:exit.obj
 0001:0002b79a       ___acrt_initialize_thread_local_exit_callback 1002c79a f   libucrt:exit.obj
 0001:0002b7a9       __cexit                    1002c7a9 f   libucrt:exit.obj
 0001:0002b7b8       __exit                     1002c7b8 f   libucrt:exit.obj
 0001:0002b7ce       __is_c_termination_complete 1002c7ce f   libucrt:exit.obj
 0001:0002ba86       ___acrt_allocate_buffer_for_argv 1002ca86 f   libucrt:argv_parsing.obj
 0001:0002bad5       __configure_narrow_argv    1002cad5 f   libucrt:argv_parsing.obj
 0001:0002bc81       ___dcrt_uninitialize_environments_nolock 1002cc81 f   libucrt:environment_initialization.obj
 0001:0002bcd2       __initialize_narrow_environment 1002ccd2 f   libucrt:environment_initialization.obj
 0001:0002be0c       __execute_onexit_table     1002ce0c f   libucrt:onexit.obj
 0001:0002be4a       __initialize_onexit_table  1002ce4a f   libucrt:onexit.obj
 0001:0002be9a       ___acrt_uninitialize_command_line 1002ce9a f   libucrt:argv_data.obj
 0001:0002bf43       ??$__crt_fast_encode_pointer@PAX@@YAPAXQAX@Z 1002cf43 f i libucrt:initialization.obj
 0001:0002bf90       ___acrt_initialize         1002cf90 f   libucrt:initialization.obj
 0001:0002bfa2       ___acrt_thread_attach      1002cfa2 f   libucrt:initialization.obj
 0001:0002bfad       ___acrt_thread_detach      1002cfad f   libucrt:initialization.obj
 0001:0002bfb5       ___acrt_uninitialize       1002cfb5 f   libucrt:initialization.obj
 0001:0002bfe5       ___acrt_uninitialize_critical 1002cfe5 f   libucrt:initialization.obj
 0001:0002bff7       _terminate                 1002cff7 f   libucrt:terminate.obj
 0001:0002c033       _abort                     1002d033 f   libucrt:abort.obj
 0001:0002c077       _malloc                    1002d077 f   libucrt:malloc.obj
 0001:0002c082       _strcpy_s                  1002d082 f   libucrt:strcpy_s.obj
 0001:0002c2ef       ??$count@D@formatting_buffer@__crt_stdio_output@@QBEIXZ 1002d2ef f i libucrt:output.obj
 0001:0002c307       ??$ensure_buffer_is_big_enough@D@formatting_buffer@__crt_stdio_output@@QAE_NIAAV__crt_cached_ptd_host@@@Z 1002d307 f i libucrt:output.obj
 0001:0002c388       ??$is_overflow_condition@K@__crt_strtox@@YA_NIK@Z 1002d388 f i libucrt:output.obj
 0001:0002c3bc       ??$is_wide_character_specifier@D@__crt_stdio_output@@YA_N_KDW4length_modifier@0@@Z 1002d3bc f i libucrt:output.obj
 0001:0002c3ed       ??$parse_integer@KV?$c_string_character_source@D@__crt_strtox@@$0A@@__crt_strtox@@YAKAAV__crt_cached_ptd_host@@V?$c_string_character_source@D@0@H_N@Z 1002d3ed f i libucrt:output.obj
 0001:0002c5fc       ??$scratch_data@D@formatting_buffer@__crt_stdio_output@@QAEPADXZ 1002d5fc f i libucrt:output.obj
 0001:0002c61a       ??$type_case_integer@$07@?$output_processor@DV?$string_output_adapter@D@__crt_stdio_output@@V?$format_validation_base@DV?$string_output_adapter@D@__crt_stdio_output@@@2@@__crt_stdio_output@@AAE_N_N@Z 1002d61a f i libucrt:output.obj
 0001:0002c7a7       ??$type_case_integer@$09@?$output_processor@DV?$string_output_adapter@D@__crt_stdio_output@@V?$format_validation_base@DV?$string_output_adapter@D@__crt_stdio_output@@@2@@__crt_stdio_output@@AAE_N_N@Z 1002d7a7 f i libucrt:output.obj
 0001:0002c934       ??$type_case_integer@$0BA@@?$output_processor@DV?$string_output_adapter@D@__crt_stdio_output@@V?$format_validation_base@DV?$string_output_adapter@D@__crt_stdio_output@@@2@@__crt_stdio_output@@AAE_N_N@Z 1002d934 f i libucrt:output.obj
 0001:0002cac1       ??$type_case_integer_parse_into_buffer@I$07@?$output_processor@DV?$string_output_adapter@D@__crt_stdio_output@@V?$format_validation_base@DV?$string_output_adapter@D@__crt_stdio_output@@@2@@__crt_stdio_output@@AAEXI_N@Z 1002dac1 f i libucrt:output.obj
 0001:0002cb24       ??$type_case_integer_parse_into_buffer@I$09@?$output_processor@DV?$string_output_adapter@D@__crt_stdio_output@@V?$format_validation_base@DV?$string_output_adapter@D@__crt_stdio_output@@@2@@__crt_stdio_output@@AAEXI_N@Z 1002db24 f i libucrt:output.obj
 0001:0002cbab       ??$type_case_integer_parse_into_buffer@I$0BA@@?$output_processor@DV?$string_output_adapter@D@__crt_stdio_output@@V?$format_validation_base@DV?$string_output_adapter@D@__crt_stdio_output@@@2@@__crt_stdio_output@@AAEXI_N@Z 1002dbab f i libucrt:output.obj
 0001:0002cc28       ??$type_case_integer_parse_into_buffer@_K$07@?$output_processor@DV?$string_output_adapter@D@__crt_stdio_output@@V?$format_validation_base@DV?$string_output_adapter@D@__crt_stdio_output@@@2@@__crt_stdio_output@@AAEX_K_N@Z 1002dc28 f i libucrt:output.obj
 0001:0002cca0       ??$type_case_integer_parse_into_buffer@_K$09@?$output_processor@DV?$string_output_adapter@D@__crt_stdio_output@@V?$format_validation_base@DV?$string_output_adapter@D@__crt_stdio_output@@@2@@__crt_stdio_output@@AAEX_K_N@Z 1002dca0 f i libucrt:output.obj
 0001:0002cd47       ??$type_case_integer_parse_into_buffer@_K$0BA@@?$output_processor@DV?$string_output_adapter@D@__crt_stdio_output@@V?$format_validation_base@DV?$string_output_adapter@D@__crt_stdio_output@@@2@@__crt_stdio_output@@AAEX_K_N@Z 1002dd47 f i libucrt:output.obj
 0001:0002cdd1       ??0?$output_adapter_data@DV?$string_output_adapter@D@__crt_stdio_output@@@__crt_stdio_output@@IAE@ABV?$string_output_adapter@D@1@_KQBDAAV__crt_cached_ptd_host@@QAD@Z 1002ddd1 f i libucrt:output.obj
 0001:0002ce40       ??0__crt_cached_ptd_host@@QAE@QAU__crt_locale_pointers@@@Z 1002de40 f i libucrt:output.obj
 0001:0002cea0       ??1__crt_cached_ptd_host@@QAE@XZ 1002dea0 f i libucrt:output.obj
 0001:0002cedc       ??1formatting_buffer@__crt_stdio_output@@QAE@XZ 1002dedc f i libucrt:output.obj
 0001:0002cef6       ??4?$__crt_unique_heap_ptr@DU__crt_internal_free_policy@@@@QAEAAV0@$$QAV0@@Z 1002def6 f i libucrt:output.obj
 0001:0002cf1a       ?crop_zeroes@__crt_stdio_output@@YAXPADQAU__crt_locale_pointers@@@Z 1002df1a f i libucrt:output.obj
 0001:0002cf7a       ?find_next_state@?$output_processor@DV?$string_output_adapter@D@__crt_stdio_output@@V?$format_validation_base@DV?$string_output_adapter@D@__crt_stdio_output@@@2@@__crt_stdio_output@@ABE?AW4state@2@DW432@@Z 1002df7a f i libucrt:output.obj
 0001:0002cfb7       ?force_decimal_point@__crt_stdio_output@@YAXPADQAU__crt_locale_pointers@@@Z 1002dfb7 f i libucrt:output.obj
 0001:0002d020       ?force_synchronize_per_thread_data@__crt_cached_ptd_host@@AAEPAU__acrt_ptd@@XZ 1002e020 f i libucrt:output.obj
 0001:0002d070       ?get_raw_ptd@__crt_cached_ptd_host@@QAEPAU__acrt_ptd@@XZ 1002e070 f i libucrt:output.obj
 0001:0002d0cc       ?parse_int_from_format_string@?$output_processor@DV?$string_output_adapter@D@__crt_stdio_output@@V?$format_validation_base@DV?$string_output_adapter@D@__crt_stdio_output@@@2@@__crt_stdio_output@@AAE_NQAH@Z 1002e0cc f i libucrt:output.obj
 0001:0002d144       ?process@?$output_processor@DV?$string_output_adapter@D@__crt_stdio_output@@V?$format_validation_base@DV?$string_output_adapter@D@__crt_stdio_output@@@2@@__crt_stdio_output@@QAEHXZ 1002e144 f i libucrt:output.obj
 0001:0002d428       ?state_case_size@?$output_processor@DV?$string_output_adapter@D@__crt_stdio_output@@V?$format_validation_base@DV?$string_output_adapter@D@__crt_stdio_output@@@2@@__crt_stdio_output@@AAE_NXZ 1002e428 f i libucrt:output.obj
 0001:0002d581       ?state_case_type@?$output_processor@DV?$string_output_adapter@D@__crt_stdio_output@@V?$format_validation_base@DV?$string_output_adapter@D@__crt_stdio_output@@@2@@__crt_stdio_output@@AAE_NXZ 1002e581 f i libucrt:output.obj
 0001:0002d8e0       ?to_integer_size@__crt_stdio_output@@YAIW4length_modifier@1@@Z 1002e8e0 f i libucrt:output.obj
 0001:0002d934       ?type_case_Z@?$output_processor@DV?$string_output_adapter@D@__crt_stdio_output@@V?$format_validation_base@DV?$string_output_adapter@D@__crt_stdio_output@@@2@@__crt_stdio_output@@AAE_NXZ 1002e934 f i libucrt:output.obj
 0001:0002d997       ?type_case_a@?$output_processor@DV?$string_output_adapter@D@__crt_stdio_output@@V?$format_validation_base@DV?$string_output_adapter@D@__crt_stdio_output@@@2@@__crt_stdio_output@@AAE_NXZ 1002e997 f i libucrt:output.obj
 0001:0002db28       ?type_case_c_tchar@?$output_processor@DV?$string_output_adapter@D@__crt_stdio_output@@V?$format_validation_base@DV?$string_output_adapter@D@__crt_stdio_output@@@2@@__crt_stdio_output@@AAE_ND@Z 1002eb28 f i libucrt:output.obj
 0001:0002dbbd       ?type_case_n@?$output_processor@DV?$string_output_adapter@D@__crt_stdio_output@@V?$format_validation_base@DV?$string_output_adapter@D@__crt_stdio_output@@@2@@__crt_stdio_output@@AAE_NXZ 1002ebbd f i libucrt:output.obj
 0001:0002dc42       ?type_case_o@?$output_processor@DV?$string_output_adapter@D@__crt_stdio_output@@V?$format_validation_base@DV?$string_output_adapter@D@__crt_stdio_output@@@2@@__crt_stdio_output@@AAE_NXZ 1002ec42 f i libucrt:output.obj
 0001:0002dc5f       ?type_case_p@?$output_processor@DV?$string_output_adapter@D@__crt_stdio_output@@V?$format_validation_base@DV?$string_output_adapter@D@__crt_stdio_output@@@2@@__crt_stdio_output@@AAE_NXZ 1002ec5f f i libucrt:output.obj
 0001:0002dc75       ?type_case_s@?$output_processor@DV?$string_output_adapter@D@__crt_stdio_output@@V?$format_validation_base@DV?$string_output_adapter@D@__crt_stdio_output@@@2@@__crt_stdio_output@@AAE_NXZ 1002ec75 f i libucrt:output.obj
 0001:0002dce7       ?unget@?$c_string_character_source@D@__crt_strtox@@QAEXD@Z 1002ece7 f i libucrt:output.obj
 0001:0002dd10       ?update_locale_slow@__crt_cached_ptd_host@@AAEXXZ 1002ed10 f i libucrt:output.obj
 0001:0002dd6b       ?validate@?$c_string_character_source@D@__crt_strtox@@QBE_NXZ 1002ed6b f i libucrt:output.obj
 0001:0002dd86       ?validate@?$string_output_adapter@D@__crt_stdio_output@@QBE_NAAV__crt_cached_ptd_host@@@Z 1002ed86 f i libucrt:output.obj
 0001:0002ddb7       ?write_string@?$string_output_adapter@D@__crt_stdio_output@@QBEXQBDHQAHAAV__crt_cached_ptd_host@@@Z 1002edb7 f i libucrt:output.obj
 0001:0002de1e       ___acrt_locale_get_ctype_array_value 1002ee1e f i libucrt:output.obj
 0001:0002de40       ___stdio_common_vsprintf_s 1002ee40 f   libucrt:output.obj
 0001:0002de81       ??$parse_integer@KV?$c_string_character_source@D@__crt_strtox@@$00@__crt_strtox@@YAKAAV__crt_cached_ptd_host@@V?$c_string_character_source@D@0@H_N@Z 1002ee81 f i libucrt:atox.obj
 0001:0002e0c8       __ischartype_l             1002f0c8 f i libucrt:atox.obj
 0001:0002e11f       _atol                      1002f11f f   libucrt:atox.obj
 0001:0002e160       _strncmp                   1002f160 f   libucrt:strncmp.obj
 0001:0002e1d8       _calloc                    1002f1d8 f   libucrt:calloc.obj
 0001:0002e1e3       _wcsncmp                   1002f1e3 f   libucrt:wcsncmp.obj
 0001:0002e220       _cos                       1002f220 f   libucrt:cos.obj
 0001:0002e270       _sin                       1002f270 f   libucrt:sin.obj
 0001:0002e2b3       __decomp                   1002f2b3 f   libucrt:util.obj
 0001:0002e385       __set_exp                  1002f385 f   libucrt:util.obj
 0001:0002e3b2       __sptype                   1002f3b2 f   libucrt:util.obj
 0001:0002e415       ___set_fpsr_sse2           1002f415 f   libucrt:fpctrl.obj
 0001:0002e495       __clrfp                    1002f495 f   libucrt:fpctrl.obj
 0001:0002e4a6       __ctrlfp                   1002f4a6 f   libucrt:fpctrl.obj
 0001:0002e4d0       __set_statfp               1002f4d0 f   libucrt:fpctrl.obj
 0001:0002e529       __statfp                   1002f529 f   libucrt:fpctrl.obj
 0001:0002e539       __free_base                1002f539 f   libucrt:free_base.obj
 0001:0002e573       ___acrt_errno_from_os_error 1002f573 f   libucrt:errno.obj
 0001:0002e5b6       ___acrt_errno_map_os_error 1002f5b6 f   libucrt:errno.obj
 0001:0002e5d9       ___acrt_errno_map_os_error_ptd 1002f5d9 f   libucrt:errno.obj
 0001:0002e5fd       ___doserrno                1002f5fd f   libucrt:errno.obj
 0001:0002e610       __errno                    1002f610 f   libucrt:errno.obj
 0001:0002e623       ___acrt_has_user_matherr   1002f623 f   libucrt:matherr.obj
 0001:0002e640       ___acrt_initialize_user_matherr 1002f640 f   libucrt:matherr.obj
 0001:0002e64f       ___acrt_invoke_user_matherr 1002f64f f   libucrt:matherr.obj
 0001:0002e685       _fegetround                1002f685 f   libucrt:fegetround.obj
 0001:0002e9d0       ___acrt_freeptd            1002f9d0 f   libucrt:per_thread_data.obj
 0001:0002e9fc       ___acrt_getptd             1002f9fc f   libucrt:per_thread_data.obj
 0001:0002eab7       ___acrt_getptd_head        1002fab7 f   libucrt:per_thread_data.obj
 0001:0002eb4d       ___acrt_getptd_noexit      1002fb4d f   libucrt:per_thread_data.obj
 0001:0002ebfe       ___acrt_getptd_noexit_explicit 1002fbfe f   libucrt:per_thread_data.obj
 0001:0002eca1       ___acrt_initialize_ptd     1002fca1 f   libucrt:per_thread_data.obj
 0001:0002eccd       ___acrt_uninitialize_ptd   1002fccd f   libucrt:per_thread_data.obj
 0001:0002ece7       ___acrt_initialize_locks   1002fce7 f   libucrt:locks.obj
 0001:0002ed28       ___acrt_lock               1002fd28 f   libucrt:locks.obj
 0001:0002ed3f       ___acrt_uninitialize_locks 1002fd3f f   libucrt:locks.obj
 0001:0002ed70       ___acrt_unlock             1002fd70 f   libucrt:locks.obj
 0001:0002ed87       ___acrt_app_verifier_enabled 1002fd87 f   libucrt:peb_access.obj
 0001:0002ed99       ___acrt_is_secure_process  1002fd99 f   libucrt:peb_access.obj
 0001:0002edac       ___acrt_get_process_end_policy 1002fdac f   libucrt:win_policies.obj
 0001:0002edd3       ?check_synchronize_global_state_index@__crt_cached_ptd_host@@AAEIXZ 1002fdd3 f i libucrt:invalid_parameter.obj
 0001:0002edfc       ___acrt_call_reportfault   1002fdfc f   libucrt:invalid_parameter.obj
 0001:0002ef35       ___acrt_initialize_invalid_parameter_handler 1002ff35 f   libucrt:invalid_parameter.obj
 0001:0002ef44       __invalid_parameter        1002ff44 f   libucrt:invalid_parameter.obj
 0001:0002ef7b       __invalid_parameter_internal 1002ff7b f   libucrt:invalid_parameter.obj
 0001:0002eff8       __invalid_parameter_noinfo 1002fff8 f   libucrt:invalid_parameter.obj
 0001:0002f008       __invoke_watson            10030008 f   libucrt:invalid_parameter.obj
 0001:0002f03c       __calloc_base              1003003c f   libucrt:calloc_base.obj
 0001:0002f0b1       ??$__acrt_convert_wcs_mbs_cp@D_WV<lambda_62f6974d9771e494a5ea317cc32e971c>@@U__crt_win32_buffer_internal_dynamic_resizing@@@@YAHQBDAAV?$__crt_win32_buffer@_WU__crt_win32_buffer_internal_dynamic_resizing@@@@ABV<lambda_62f6974d9771e494a5ea317cc32e971c>@@I@Z 100300b1 f i libucrt:argv_wildcards.obj
 0001:0002f163       ??$__acrt_convert_wcs_mbs_cp@_WDV<lambda_28bda7af82a03b66c1cb3803a755f95d>@@U__crt_win32_buffer_internal_dynamic_resizing@@@@YAHQB_WAAV?$__crt_win32_buffer@DU__crt_win32_buffer_internal_dynamic_resizing@@@@ABV<lambda_28bda7af82a03b66c1cb3803a755f95d>@@I@Z 10030163 f i libucrt:argv_wildcards.obj
 0001:0002f229       ??$__acrt_mbs_to_wcs_cp@U__crt_win32_buffer_internal_dynamic_resizing@@@@YAHQBDAAV?$__crt_win32_buffer@_WU__crt_win32_buffer_internal_dynamic_resizing@@@@I@Z 10030229 f i libucrt:argv_wildcards.obj
 0001:0002f6f9       ??0_LocaleUpdate@@QAE@QAU__crt_locale_pointers@@@Z 100306f9 f i libucrt:argv_wildcards.obj
 0001:0002f7a0       ??R<lambda_0fec1a7b3f42a53036604e18c2d5e07e>@@QBE@IQB_WQADI@Z 100307a0 f i libucrt:getmodulefilenamea.obj
 0001:0002f7a0       ??R<lambda_28bda7af82a03b66c1cb3803a755f95d>@@QBE@IQB_WQADI@Z 100307a0 f i libucrt:argv_wildcards.obj
 0001:0002f7c4       ?__acrt_get_utf8_acp_compatibility_codepage@@YAIXZ 100307c4 f i libucrt:argv_wildcards.obj
 0001:0002f803       ?_deallocate@?$__crt_win32_buffer@_WU__crt_win32_buffer_internal_dynamic_resizing@@@@AAEXXZ 10030803 f i libucrt:argv_wildcards.obj
 0001:0002f803       ?_deallocate@?$__crt_win32_buffer@DU__crt_win32_buffer_internal_dynamic_resizing@@@@AAEXXZ 10030803 f i libucrt:argv_wildcards.obj
 0001:0002f81d       ?allocate@?$__crt_win32_buffer@DU__crt_win32_buffer_internal_dynamic_resizing@@@@QAEHI@Z 1003081d f i libucrt:argv_wildcards.obj
 0001:0002f859       ?allocate@?$__crt_win32_buffer@_WU__crt_win32_buffer_internal_dynamic_resizing@@@@QAEHI@Z 10030859 f i libucrt:argv_wildcards.obj
 0001:0002f898       ?allocate@__crt_win32_buffer_internal_dynamic_resizing@@SAHQAPAXIABV__crt_win32_buffer_empty_debug_info@@@Z 10030898 f i libucrt:argv_wildcards.obj
 0001:0002f93e       ___acrt_expand_narrow_argv_wildcards 1003093e f   libucrt:argv_wildcards.obj
 0001:0002f949       ??$__acrt_convert_wcs_mbs_cp@_WDV<lambda_0fec1a7b3f42a53036604e18c2d5e07e>@@U__crt_win32_buffer_no_resizing@@@@YAHQB_WAAV?$__crt_win32_buffer@DU__crt_win32_buffer_no_resizing@@@@ABV<lambda_0fec1a7b3f42a53036604e18c2d5e07e>@@I@Z 10030949 f i libucrt:getmodulefilenamea.obj
 0001:0002fa0b       ?allocate@?$__crt_win32_buffer@DU__crt_win32_buffer_no_resizing@@@@QAEHI@Z 10030a0b f i libucrt:getmodulefilenamea.obj
 0001:0002fa32       ?set_to_nullptr@?$__crt_win32_buffer@DU__crt_win32_buffer_no_resizing@@@@QAEXXZ 10030a32 f i libucrt:getmodulefilenamea.obj
 0001:0002fa46       ___acrt_GetModuleFileNameA 10030a46 f   libucrt:getmodulefilenamea.obj
 0001:00030063       ___acrt_initialize_multibyte 10031063 f   libucrt:mbctype.obj
 0001:000300ab       ___acrt_update_thread_multibyte_data 100310ab f   libucrt:mbctype.obj
 0001:000300be       __setmbcp_nolock           100310be f   libucrt:mbctype.obj
 0001:00030394       __ismbblead                10031394 f   libucrt:ismbbyte.obj
 0001:000303ac       ___acrt_initialize_command_line 100313ac f   libucrt:argv_data.obj
 0001:0003045d       ___acrt_MultiByteToWideChar 1003145d f   libucrt:multibytetowidechar.obj
 0001:00030517       ___acrt_WideCharToMultiByte 10031517 f   libucrt:widechartomultibyte.obj
 0001:000305ba       ___dcrt_get_narrow_environment_from_os 100315ba f   libucrt:get_environment_from_os.obj
 0001:0003065a       __recalloc_base            1003165a f   libucrt:recalloc.obj
 0001:00030865       ___acrt_AppPolicyGetProcessTerminationMethodInternal@4 10031865 f   libucrt:winapi_thunks.obj
 0001:000308a5       ___acrt_AreFileApisANSI@0  100318a5 f   libucrt:winapi_thunks.obj
 0001:000308c4       ___acrt_FlsAlloc@4         100318c4 f   libucrt:winapi_thunks.obj
 0001:00030903       ___acrt_FlsFree@4          10031903 f   libucrt:winapi_thunks.obj
 0001:00030942       ___acrt_FlsGetValue@4      10031942 f   libucrt:winapi_thunks.obj
 0001:00030981       ___acrt_FlsSetValue@8      10031981 f   libucrt:winapi_thunks.obj
 0001:000309c3       ___acrt_InitializeCriticalSectionEx@12 100319c3 f   libucrt:winapi_thunks.obj
 0001:00030a0e       ___acrt_LCMapStringEx@36   10031a0e f   libucrt:winapi_thunks.obj
 0001:00030a6b       ___acrt_LocaleNameToLCID@8 10031a6b f   libucrt:winapi_thunks.obj
 0001:00030a9c       ___acrt_initialize_winapi_thunks 10031a9c f   libucrt:winapi_thunks.obj
 0001:00030ab0       ___acrt_uninitialize_winapi_thunks 10031ab0 f   libucrt:winapi_thunks.obj
 0001:00030ae6       ___acrt_initialize_heap    10031ae6 f   libucrt:heap_handle.obj
 0001:00030af7       ___acrt_uninitialize_heap  10031af7 f   libucrt:heap_handle.obj
 0001:00030c67       ___acrt_initialize_lowio   10031c67 f   libucrt:ioinit.obj
 0001:00030cc7       ___acrt_uninitialize_lowio 10031cc7 f   libucrt:ioinit.obj
 0001:00030cf3       ___acrt_execute_initializers 10031cf3 f   libucrt:shared_initialization.obj
 0001:00030d5b       ___acrt_execute_uninitializers 10031d5b f   libucrt:shared_initialization.obj
 0001:00030d8c       ___acrt_initialize_new_handler 10031d8c f   libucrt:new_handler.obj
 0001:00030d9b       __callnewh                 10031d9b f   libucrt:new_handler.obj
 0001:00030dc7       __query_new_handler        10031dc7 f   libucrt:new_handler.obj
 0001:00030ef0       ___acrt_get_sigabrt_handler 10031ef0 f   libucrt:signal.obj
 0001:00030f17       ___acrt_initialize_signal_handlers 10031f17 f   libucrt:signal.obj
 0001:00030f35       _raise                     10031f35 f   libucrt:signal.obj
 0001:00031300       ___acrt_stdio_flush_nolock 10032300 f   libucrt:fflush.obj
 0001:00031369       __fflush_nolock            10032369 f   libucrt:fflush.obj
 0001:000313ce       __flushall                 100323ce f   libucrt:fflush.obj
 0001:000313d7       ___acrt_initialize_stdio   100323d7 f   libucrt:_file.obj
 0001:0003149f       ___acrt_uninitialize_stdio 1003249f f   libucrt:_file.obj
 0001:000314eb       __lock_file                100324eb f   libucrt:_file.obj
 0001:000314ff       __unlock_file              100324ff f   libucrt:_file.obj
 0001:00031513       __malloc_base              10032513 f   libucrt:malloc_base.obj
 0001:00031561       _strnlen                   10032561 f   libucrt:strnlen.obj
 0001:00031683       _wcsnlen                   10032683 f   libucrt:strnlen.obj
 0001:00031833       ___acrt_update_locale_info 10032833 f   libucrt:locale_update.obj
 0001:00031860       ___acrt_update_locale_info_explicit 10032860 f   libucrt:locale_update.obj
 0001:00031891       ___acrt_update_multibyte_info 10032891 f   libucrt:locale_update.obj
 0001:000318be       ___acrt_update_multibyte_info_explicit 100328be f   libucrt:locale_update.obj
 0001:000318ef       ?__acrt_fp_classify@@YA?AW4__acrt_fp_class@@ABN@Z 100328ef f i libucrt:cvt.obj
 0001:000322c7       ___acrt_fp_format          100332c7 f   libucrt:cvt.obj
 0001:00032448       __wctomb_internal          10033448 f   libucrt:wctomb.obj
 0001:000325b2       __mbtowc_internal          100335b2 f   libucrt:mbtowc.obj
 0001:000326e5       __fileno                   100336e5 f   libucrt:fileno.obj
 0001:0003270c       __get_printf_count_output  1003370c f   libucrt:printf_count_output.obj
 0001:0003278f       ___acrt_set_locale_changed 1003378f f   libucrt:wsetlocale.obj
 0001:0003279a       ___acrt_uninitialize_locale 1003379a f   libucrt:wsetlocale.obj
 0001:000327c1       ___pctype_func             100337c1 f   libucrt:ctype.obj
 0001:000327e5       __isctype_l                100337e5 f   libucrt:isctype.obj
 0001:000328b0       ___acrt_initialize_sse2    100338b0 f   libucrt:mathfcns.obj
 0001:000328c0       __CIcos                    100338c0 f   libucrt:cos_impl.obj
 0001:000328fb       __CIcos_default            100338fb f   libucrt:cos_impl.obj
 0001:0003290f       __cos_default              1003390f     libucrt:cos_impl.obj
 0001:000329b0       __CIcos_pentium4           100339b0 f   libucrt:cos_pentium4.obj
 0001:000329c8       __cos_pentium4             100339c8     libucrt:cos_pentium4.obj
 0001:00032b60       __CIsin                    10033b60 f   libucrt:sin_impl.obj
 0001:00032b9b       __CIsin_default            10033b9b f   libucrt:sin_impl.obj
 0001:00032baf       __sin_default              10033baf     libucrt:sin_impl.obj
 0001:00032c50       __CIsin_pentium4           10033c50 f   libucrt:sin_pentium4.obj
 0001:00032c68       __sin_pentium4             10033c68     libucrt:sin_pentium4.obj
 0001:000330e1       ___acrt_fenv_get_common_round_control 100340e1 f   libucrt:_fenvutils.obj
 0001:00033103       ___acrt_fenv_get_control   10034103 f   libucrt:_fenvutils.obj
 0001:00033183       ___acrt_fenv_get_status    10034183 f   libucrt:_fenvutils.obj
 0001:0003322d       ___acrt_fenv_set_control   1003422d f   libucrt:_fenvutils.obj
 0001:000332a8       ___acrt_fenv_set_status    100342a8 f   libucrt:_fenvutils.obj
 0001:000333a4       ___acrt_add_locale_ref     100343a4 f   libucrt:locale_refcounting.obj
 0001:00033421       ___acrt_free_locale        10034421 f   libucrt:locale_refcounting.obj
 0001:00033569       ___acrt_locale_add_lc_time_reference 10034569 f   libucrt:locale_refcounting.obj
 0001:00033592       ___acrt_locale_free_lc_time_if_unreferenced 10034592 f   libucrt:locale_refcounting.obj
 0001:000335c3       ___acrt_locale_release_lc_time_reference 100345c3 f   libucrt:locale_refcounting.obj
 0001:000335ec       ___acrt_release_locale_ref 100345ec f   libucrt:locale_refcounting.obj
 0001:0003366d       ___acrt_update_thread_locale_data 1003466d f   libucrt:locale_refcounting.obj
 0001:000336ee       __updatetlocinfoEx_nolock  100346ee f   libucrt:locale_refcounting.obj
 0001:0003373e       __query_new_mode           1003473e f   libucrt:new_mode.obj
 0001:00033750       _qsort                     10034750 f   libucrt:qsort.obj
 0001:00033cf5       _strncpy_s                 10034cf5 f   libucrt:strncpy_s.obj
 0001:00033d00       _strpbrk                   10034d00 f   libucrt:strpbrk.obj
 0001:00033d40       __mbsdec                   10034d40 f   libucrt:mbsdec.obj
 0001:00033d57       __mbsdec_l                 10034d57 f   libucrt:mbsdec.obj
 0001:00033de4       ___acrt_GetStringTypeA     10034de4 f   libucrt:getstringtypea.obj
 0001:00033ee5       __freea_crt                10034ee5 f i libucrt:getstringtypea.obj
 0001:000340f4       ___acrt_LCMapStringA       100350f4 f   libucrt:lcmapstringa.obj
 0001:0003414c       __msize_base               1003514c f   libucrt:msize.obj
 0001:0003417f       __realloc_base             1003517f f   libucrt:realloc_base.obj
 0001:00034238       ___acrt_DownlevelLocaleNameToLCID 10035238 f   libucrt:lcidtoname_downlevel.obj
 0001:00034264       ___acrt_lowio_create_handle_array 10035264 f   libucrt:osfinfo.obj
 0001:000342df       ___acrt_lowio_destroy_handle_array 100352df f   libucrt:osfinfo.obj
 0001:00034314       ___acrt_lowio_ensure_fh_exists 10035314 f   libucrt:osfinfo.obj
 0001:000343b2       ___acrt_lowio_lock_fh      100353b2 f   libucrt:osfinfo.obj
 0001:000343d5       ___acrt_lowio_unlock_fh    100353d5 f   libucrt:osfinfo.obj
 0001:000343f8       __free_osfhnd              100353f8 f   libucrt:osfinfo.obj
 0001:00034489       __get_osfhandle            10035489 f   libucrt:osfinfo.obj
 0001:00034595       __commit                   10035595 f   libucrt:commit.obj
 0001:00034db4       __write_internal           10035db4 f   libucrt:write.obj
 0001:00034ec5       __write_nolock             10035ec5 f   libucrt:write.obj
 0001:000350e1       __fcloseall                100360e1 f   libucrt:closeall.obj
 0001:0003518c       ___acrt_stdio_free_buffer_nolock 1003618c f   libucrt:_freebuf.obj
 0001:000351cc       __isatty                   100361cc f   libucrt:isatty.obj
 0001:000352d3       ___acrt_fp_strflt_to_string 100362d3 f   libucrt:_fptostr.obj
 0001:000353d0       ?divide@__crt_strtox@@YA_KAAUbig_integer@1@ABU21@@Z 100363d0 f i libucrt:cfout.obj
 0001:0003587b       ___acrt_fltout             1003687b f   libucrt:cfout.obj
 0001:00036e63       ?__c32rtomb_utf8@__crt_mbstring@@YAIPAD_UPAU_Mbstatet@@AAV__crt_cached_ptd_host@@@Z 10037e63 f   libucrt:c32rtomb.obj
 0001:00036f3f       ?__mbrtowc_utf8@__crt_mbstring@@YAIPA_WPBDIPAU_Mbstatet@@AAV__crt_cached_ptd_host@@@Z 10037f3f f   libucrt:mbrtowc.obj
 0001:00036f82       ?__mbsrtowcs_utf8@__crt_mbstring@@YAIPA_WPAPBDIPAU_Mbstatet@@AAV__crt_cached_ptd_host@@@Z 10037f82 f   libucrt:mbrtowc.obj
 0001:0003708a       ___acrt_locale_free_monetary 1003808a f   libucrt:initmon.obj
 0001:00037188       ___acrt_locale_free_numeric 10038188 f   libucrt:initnum.obj
 0001:00037216       ___acrt_locale_free_time   10038216 f   libucrt:inittime.obj
 0001:00037300       __trandisp1                10038300 f   libucrt:87disp.obj
 0001:00037375       __trandisp2                10038375 f   libucrt:87disp.obj
 0001:0003740f       __rttospopde               1003840f     libucrt:87disp.obj
 0001:00037414       __rttospop                 10038414     libucrt:87disp.obj
 0001:00037420       __rtnospop                 10038420 f   libucrt:87disp.obj
 0001:00037430       __rttosnpop                10038430 f   libucrt:87disp.obj
 0001:00037431       __rtnospopde               10038431     libucrt:87disp.obj
 0001:00037438       __rtzeropop                10038438     libucrt:87disp.obj
 0001:0003743a       __rtzeronpop               1003843a     libucrt:87disp.obj
 0001:00037440       __rtzerospop               10038440 f   libucrt:87disp.obj
 0001:0003744d       __rtonepop                 1003844d     libucrt:87disp.obj
 0001:00037450       __rtonenpop                10038450 f   libucrt:87disp.obj
 0001:00037460       __tosnan1                  10038460 f   libucrt:87disp.obj
 0001:00037490       __nosnan2                  10038490 f   libucrt:87disp.obj
 0001:000374a0       __tosnan2                  100384a0 f   libucrt:87disp.obj
 0001:000374d0       __nan2                     100384d0 f   libucrt:87disp.obj
 0001:00037510       __rtindfpop                10038510 f   libucrt:87disp.obj
 0001:00037512       __rtindfnpop               10038512     libucrt:87disp.obj
 0001:00037523       __rttosnpopde              10038523     libucrt:87disp.obj
 0001:00037530       __rtatan2inf               10038530 f   libucrt:87disp.obj
 0001:0003754d       __rtchsifneg               1003854d     libucrt:87disp.obj
 0001:00037560       __twoToTOS                 10038560 f   libucrt:common.obj
 0001:00037575       __load_CW                  10038575 f   libucrt:common.obj
 0001:0003758c       __convertTOStoQNaN         1003858c f   libucrt:common.obj
 0001:000375a5       __fload_withFB             100385a5 f   libucrt:common.obj
 0001:000375e8       __checkTOS_withFB          100385e8 f   libucrt:common.obj
 0001:000375fe       __fast_exit                100385fe f   libucrt:common.obj
 0001:0003760b       __math_exit                1003860b f   libucrt:common.obj
 0001:00037635       __check_overflow_exit      10038635 f   libucrt:common.obj
 0001:00037649       __check_range_exit         10038649 f   libucrt:common.obj
 0001:000376f0       __startTwoArgErrorHandling 100386f0 f   libucrt:genexcep.obj
 0001:00037707       __startOneArgErrorHandling 10038707 f   libucrt:genexcep.obj
 0001:00037743       ___strncnt                 10038743 f   libucrt:strncnt.obj
 0001:0003775f       ___ascii_wcsnicmp          1003875f f   libucrt:wcsnicmp.obj
 0001:000377ae       __query_app_type           100387ae f   libucrt:report_runtime_error.obj
 0001:00037837       __lseeki64_nolock_internal 10038837 f   libucrt:lseek.obj
 0001:00037855       __putwch_nolock            10038855 f   libucrt:putwch.obj
 0001:000379ac       _fclose                    100389ac f   libucrt:fclose.obj
 0001:000379dc       __controlfp_s              100389dc f   libucrt:contrlfp.obj
 0001:00037a3b       _fegetenv                  10038a3b f   libucrt:fegetenv.obj
 0001:00037a58       _fesetenv                  10038a58 f   libucrt:fesetenv.obj
 0001:00037aa4       _feholdexcept              10038aa4 f   libucrt:feholdexcept.obj
 0001:00037b00       __CIlog10                  10038b00 f   libucrt:log10_impl.obj
 0001:00037b3b       __CIlog10_default          10038b3b f   libucrt:log10_impl.obj
 0001:00037b4f       __log10_default            10038b4f     libucrt:log10_impl.obj
 0001:00037c10       _ceil                      10038c10 f   libucrt:ceil_pentium4.obj
 0001:00037c50       __ceil_pentium4            10038c50 f   libucrt:ceil_pentium4.obj
 0001:00037d2d       ?reset_and_return@__crt_mbstring@@YAIIPAU_Mbstatet@@@Z 10038d2d f   libucrt:common_utf8.obj
 0001:00037d41       ?return_illegal_sequence@__crt_mbstring@@YAIPAU_Mbstatet@@AAV__crt_cached_ptd_host@@@Z 10038d41 f   libucrt:common_utf8.obj
 0001:00037d63       ?__mbrtoc32_utf8@__crt_mbstring@@YAIPA_UPBDIPAU_Mbstatet@@AAV__crt_cached_ptd_host@@@Z 10038d63 f   libucrt:mbrtoc32.obj
 0001:00037f14       __87except                 10038f14 f   libucrt:87except.obj
 0001:00038030       ___ascii_strnicmp          10039030 f   libucrt:_strnicm.obj
 0001:000380b0       ___dcrt_lowio_ensure_console_output_initialized 100390b0 f   libucrt:initcon.obj
 0001:000380cf       ___dcrt_terminate_console_output 100390cf f   libucrt:initcon.obj
 0001:000380e6       ___dcrt_write_console      100390e6 f   libucrt:initcon.obj
 0001:000381cc       __close_internal           100391cc f   libucrt:close.obj
 0001:0003826f       __close_nolock_internal    1003926f f   libucrt:close.obj
 0001:0003830f       ?__acrt_stdio_free_stream@@YAXV__crt_stdio_stream@@@Z 1003930f f   libucrt:stream.obj
 0001:000383f1       __clearfp                  100393f1 f   libucrt:ieee87.obj
 0001:000384cf       __control87                100394cf f   libucrt:ieee87.obj
 0001:00038870       __CIlog10_pentium4         10039870 f   libucrt:log10_pentium4.obj
 0001:00038888       __log10_pentium4           10039888     libucrt:log10_pentium4.obj
 0001:00038b20       __fFEXP                    10039b20 f   libucrt:87tran.obj
 0001:00038b77       __rtinfpopse               10039b77     libucrt:87tran.obj
 0001:00038b79       __rtinfnpopse              10039b79     libucrt:87tran.obj
 0001:00038b89       __fFLN                     10039b89     libucrt:87tran.obj
 0001:00038c3e       __rtinfpop                 10039c3e     libucrt:87tran.obj
 0001:00038c40       __rtinfnpop                10039c40     libucrt:87tran.obj
 0001:00038c50       __rtforexpinf              10039c50 f   libucrt:87tran.obj
 0001:00038c5d       __ffexpm1                  10039c5d     libucrt:87tran.obj
 0001:00038d06       ___libm_error_support      10039d06 f   libucrt:libm_error.obj
 0001:00038efa       __ceil_default             10039efa f   libucrt:ceil.obj
 0001:00038fb8       __d_inttype                10039fb8 f   libucrt:powhlp.obj
 0001:00039020       __powhlp                   1003a020 f   libucrt:powhlp.obj
 0001:0003914b       __frnd                     1003a14b f   libucrt:frnd.obj
 0001:00039160       __FindPESection            1003a160 f   LIBCMT:pesect.obj
 0001:000391b0       __IsNonwritableInCurrentImage 1003a1b0 f   LIBCMT:pesect.obj
 0001:00039270       __ValidateImageBase        1003a270 f   LIBCMT:pesect.obj
 0001:000392a3       __EH_epilog3               1003a2a3 f   LIBCMT:ehprolg3.obj
 0001:000392b7       __EH_prolog3               1003a2b7 f   LIBCMT:ehprolg3.obj
 0001:000392ea       __EH_prolog3_catch         1003a2ea f   LIBCMT:ehprolg3.obj
 0001:00039320       __aulldvrm                 1003a320 f   LIBCMT:ulldvrm.obj
 0001:000393c0       __aulldiv                  1003a3c0 f   LIBCMT:ulldiv.obj
 0001:00039430       __aullrem                  1003a430 f   LIBCMT:ullrem.obj
 0001:000394b0       __allmul                   1003a4b0 f   LIBCMT:llmul.obj
 0001:000394f0       __alldiv                   1003a4f0 f   LIBCMT:lldiv.obj
 0001:000395a0       __allrem                   1003a5a0 f   LIBCMT:llrem.obj
 0001:00039660       __allshl                   1003a660 f   LIBCMT:llshl.obj
 0001:00039680       __aullshr                  1003a680 f   LIBCMT:ullshr.obj
 0001:000396a0       __ftol2_sse                1003a6a0 f   LIBCMT:ftol2.obj
 0001:000396b0       __ftoi2                    1003a6b0 f   LIBCMT:ftol2.obj
 0001:00039730       _strrchr                   1003a730 f   libvcruntime:strrchr.obj
 0001:00039867       __filter_x86_sse2_floating_point_exception 1003a867 f   LIBCMT:x86_exception_filter.obj
 0001:00039867       __filter_x86_sse2_floating_point_exception_default 1003a867 f   LIBCMT:x86_exception_filter.obj
 0002:00000000       __imp__LoadLibraryA@4      1003b000     kernel32:KERNEL32.dll
 0002:00000004       __imp__WriteConsoleW@20    1003b004     kernel32:KERNEL32.dll
 0002:00000008       __imp__RaiseException@16   1003b008     kernel32:KERNEL32.dll
 0002:0000000c       __imp__GetLastError@0      1003b00c     kernel32:KERNEL32.dll
 0002:00000010       __imp__GetSystemInfo@4     1003b010     kernel32:KERNEL32.dll
 0002:00000014       __imp__VirtualProtect@16   1003b014     kernel32:KERNEL32.dll
 0002:00000018       __imp__VirtualQuery@12     1003b018     kernel32:KERNEL32.dll
 0002:0000001c       __imp__FreeLibrary@4       1003b01c     kernel32:KERNEL32.dll
 0002:00000020       __imp__GetModuleHandleW@4  1003b020     kernel32:KERNEL32.dll
 0002:00000024       __imp__GetProcAddress@8    1003b024     kernel32:KERNEL32.dll
 0002:00000028       __imp__LoadLibraryExA@12   1003b028     kernel32:KERNEL32.dll
 0002:0000002c       __imp__InitializeSListHead@4 1003b02c     kernel32:KERNEL32.dll
 0002:00000030       __imp__IsProcessorFeaturePresent@4 1003b030     kernel32:KERNEL32.dll
 0002:00000034       __imp__QueryPerformanceCounter@4 1003b034     kernel32:KERNEL32.dll
 0002:00000038       __imp__GetCurrentProcessId@0 1003b038     kernel32:KERNEL32.dll
 0002:0000003c       __imp__GetCurrentThreadId@0 1003b03c     kernel32:KERNEL32.dll
 0002:00000040       __imp__GetSystemTimeAsFileTime@4 1003b040     kernel32:KERNEL32.dll
 0002:00000044       __imp__IsDebuggerPresent@0 1003b044     kernel32:KERNEL32.dll
 0002:00000048       __imp__UnhandledExceptionFilter@4 1003b048     kernel32:KERNEL32.dll
 0002:0000004c       __imp__SetUnhandledExceptionFilter@4 1003b04c     kernel32:KERNEL32.dll
 0002:00000050       __imp__GetStartupInfoW@4   1003b050     kernel32:KERNEL32.dll
 0002:00000054       __imp__GetCurrentProcess@0 1003b054     kernel32:KERNEL32.dll
 0002:00000058       __imp__TerminateProcess@8  1003b058     kernel32:KERNEL32.dll
 0002:0000005c       __imp__InterlockedPushEntrySList@8 1003b05c     kernel32:KERNEL32.dll
 0002:00000060       __imp__InterlockedFlushSList@4 1003b060     kernel32:KERNEL32.dll
 0002:00000064       __imp__RtlUnwind@16        1003b064     kernel32:KERNEL32.dll
 0002:00000068       __imp__SetLastError@4      1003b068     kernel32:KERNEL32.dll
 0002:0000006c       __imp__EnterCriticalSection@4 1003b06c     kernel32:KERNEL32.dll
 0002:00000070       __imp__LeaveCriticalSection@4 1003b070     kernel32:KERNEL32.dll
 0002:00000074       __imp__DeleteCriticalSection@4 1003b074     kernel32:KERNEL32.dll
 0002:00000078       __imp__InitializeCriticalSectionAndSpinCount@8 1003b078     kernel32:KERNEL32.dll
 0002:0000007c       __imp__TlsAlloc@0          1003b07c     kernel32:KERNEL32.dll
 0002:00000080       __imp__TlsGetValue@4       1003b080     kernel32:KERNEL32.dll
 0002:00000084       __imp__TlsSetValue@8       1003b084     kernel32:KERNEL32.dll
 0002:00000088       __imp__TlsFree@4           1003b088     kernel32:KERNEL32.dll
 0002:0000008c       __imp__LoadLibraryExW@12   1003b08c     kernel32:KERNEL32.dll
 0002:00000090       __imp__EncodePointer@4     1003b090     kernel32:KERNEL32.dll
 0002:00000094       __imp__ExitProcess@4       1003b094     kernel32:KERNEL32.dll
 0002:00000098       __imp__GetModuleHandleExW@12 1003b098     kernel32:KERNEL32.dll
 0002:0000009c       __imp__GetModuleFileNameW@12 1003b09c     kernel32:KERNEL32.dll
 0002:000000a0       __imp__HeapFree@12         1003b0a0     kernel32:KERNEL32.dll
 0002:000000a4       __imp__HeapAlloc@12        1003b0a4     kernel32:KERNEL32.dll
 0002:000000a8       __imp__FindClose@4         1003b0a8     kernel32:KERNEL32.dll
 0002:000000ac       __imp__FindFirstFileExW@24 1003b0ac     kernel32:KERNEL32.dll
 0002:000000b0       __imp__FindNextFileW@8     1003b0b0     kernel32:KERNEL32.dll
 0002:000000b4       __imp__IsValidCodePage@4   1003b0b4     kernel32:KERNEL32.dll
 0002:000000b8       __imp__GetACP@0            1003b0b8     kernel32:KERNEL32.dll
 0002:000000bc       __imp__GetOEMCP@0          1003b0bc     kernel32:KERNEL32.dll
 0002:000000c0       __imp__GetCPInfo@8         1003b0c0     kernel32:KERNEL32.dll
 0002:000000c4       __imp__GetCommandLineA@0   1003b0c4     kernel32:KERNEL32.dll
 0002:000000c8       __imp__GetCommandLineW@0   1003b0c8     kernel32:KERNEL32.dll
 0002:000000cc       __imp__MultiByteToWideChar@24 1003b0cc     kernel32:KERNEL32.dll
 0002:000000d0       __imp__WideCharToMultiByte@32 1003b0d0     kernel32:KERNEL32.dll
 0002:000000d4       __imp__GetEnvironmentStringsW@0 1003b0d4     kernel32:KERNEL32.dll
 0002:000000d8       __imp__FreeEnvironmentStringsW@4 1003b0d8     kernel32:KERNEL32.dll
 0002:000000dc       __imp__LCMapStringW@24     1003b0dc     kernel32:KERNEL32.dll
 0002:000000e0       __imp__GetProcessHeap@0    1003b0e0     kernel32:KERNEL32.dll
 0002:000000e4       __imp__GetStdHandle@4      1003b0e4     kernel32:KERNEL32.dll
 0002:000000e8       __imp__GetFileType@4       1003b0e8     kernel32:KERNEL32.dll
 0002:000000ec       __imp__GetStringTypeW@16   1003b0ec     kernel32:KERNEL32.dll
 0002:000000f0       __imp__HeapSize@12         1003b0f0     kernel32:KERNEL32.dll
 0002:000000f4       __imp__HeapReAlloc@16      1003b0f4     kernel32:KERNEL32.dll
 0002:000000f8       __imp__SetStdHandle@8      1003b0f8     kernel32:KERNEL32.dll
 0002:000000fc       __imp__FlushFileBuffers@4  1003b0fc     kernel32:KERNEL32.dll
 0002:00000100       __imp__WriteFile@20        1003b100     kernel32:KERNEL32.dll
 0002:00000104       __imp__GetConsoleOutputCP@0 1003b104     kernel32:KERNEL32.dll
 0002:00000108       __imp__GetConsoleMode@8    1003b108     kernel32:KERNEL32.dll
 0002:0000010c       __imp__SetFilePointerEx@20 1003b10c     kernel32:KERNEL32.dll
 0002:00000110       __imp__CreateFileW@28      1003b110     kernel32:KERNEL32.dll
 0002:00000114       __imp__CloseHandle@4       1003b114     kernel32:KERNEL32.dll
 0002:00000118       __imp__DecodePointer@4     1003b118     kernel32:KERNEL32.dll
 0002:0000011c       \177KERNEL32_NULL_THUNK_DATA 1003b11c     kernel32:KERNEL32.dll
 0002:00000120       ___guard_check_icall_fptr  1003b120     LIBCMT:guard_support.obj
 0002:00000124       ___xc_a                    1003b124     LIBCMT:initializers.obj
 0002:00000218       ___xc_z                    1003b218     LIBCMT:initializers.obj
 0002:0000021c       ___xi_a                    1003b21c     LIBCMT:initializers.obj
 0002:00000220       ___acrt_multibyte_initializer 1003b220     libucrt:multibyte_initializer.obj
 0002:00000224       ___acrt_stdio_initializer  1003b224     libucrt:stdio_initializer.obj
 0002:00000228       ___acrt_tran_sse2_initializer 1003b228     libucrt:sse2_initializer.obj
 0002:0000022c       ___xi_z                    1003b22c     LIBCMT:initializers.obj
 0002:00000230       ___xp_a                    1003b230     LIBCMT:initializers.obj
 0002:00000234       ___acrt_locale_terminator  1003b234     libucrt:locale_initializer.obj
 0002:00000238       ___dcrt_console_output_terminator 1003b238     libucrt:console_output_initializer.obj
 0002:0000023c       ___acrt_stdio_terminator   1003b23c     libucrt:stdio_initializer.obj
 0002:00000240       ___xp_z                    1003b240     LIBCMT:initializers.obj
 0002:00000244       ___xt_a                    1003b244     LIBCMT:initializers.obj
 0002:00000248       ___xt_z                    1003b248     LIBCMT:initializers.obj
 0002:00000250       ??_7PxFoundation@physx@@6B@ 1003b250     Adjacencies.obj
 0002:00000270       ??_C@_0EO@IJPFIDJK@C?3?2Users?2marc?2Desktop?2PhysX?94?41@ 1003b270     Adjacencies.obj
 0002:000002c0       ??_C@_0DA@FMEHLBKI@Adjacencies?3?3UpdateLink?3?5invali@ 1003b2c0     Adjacencies.obj
 0002:000002f0       ??_C@_0EA@CPHOACLK@Adjacencies?3?3CreateDatabase?3?5ca@ 1003b2f0     Adjacencies.obj
 0002:00000330       ??_C@_0BM@OIFKLHDN@?$DMallocation?5names?5disabled?$DO@ 1003b330     Adjacencies.obj
 0002:00000370       ?sBufferSize@DebugText@Cm@physx@@2HB 1003b370     Cooking.obj
 0002:00000374       ??_C@_06EJKDJEDO@PxBase@   1003b374     Cooking.obj
 0002:0000037c       ??_C@_0N@CDGINLLF@PxConvexMesh@ 1003b37c     Cooking.obj
 0002:0000038c       ??_C@_0O@PBAKPCEC@PxHeightField@ 1003b38c     Cooking.obj
 0002:0000039c       ??_7PxBase@physx@@6B@      1003b39c     Cooking.obj
 0002:000003b0       ??_7PxCooking@physx@@6B@   1003b3b0     Cooking.obj
 0002:000003f0       ??_7Cooking@physx@@6B@     1003b3f0     Cooking.obj
 0002:00000430       ??_C@_0FC@PJIHAFK@Cooking?3?3validateTriangleMesh?3?5@ 1003b430     Cooking.obj
 0002:00000488       ??_C@_0EK@EOJIFDMM@C?3?2Users?2marc?2Desktop?2PhysX?94?41@ 1003b488     Cooking.obj
 0002:000004d8       ??_C@_0EK@EKAIJEBL@Cooking?3?3cookConvexMesh?3?5user?9p@ 1003b4d8     Cooking.obj
 0002:00000528       ??_C@_0FA@GFFGAPML@Cooking?3?3cookConvexMesh?3?5provid@ 1003b528     Cooking.obj
 0002:00000578       ??_C@_0EP@PKDCPNNO@Cooking?3?3cookConvexMesh?3?5provid@ 1003b578     Cooking.obj
 0002:000005c8       ??_C@_0EO@LKFMMDE@Cooking?3?3cookConvexMesh?3?5user?9p@ 1003b5c8     Cooking.obj
 0002:00000618       ??_C@_0EK@EFPADHKB@C?3?2Users?2marc?2Desktop?2PhysX?94?41@ 1003b618     Cooking.obj
 0002:00000664       __real@3a83126f            1003b664     Cooking.obj
 0002:00000668       __real@3f800000            1003b668     Cooking.obj
 0002:0000066c       __real@ba83126f            1003b66c     Cooking.obj
 0002:00000670       __xmm@000000003a83126f3a83126f3a83126f 1003b670     Cooking.obj
 0002:00000680       __xmm@00000000ba83126fba83126fba83126f 1003b680     Cooking.obj
 0002:00000690       __xmm@80000000800000008000000080000000 1003b690     Cooking.obj
 0002:000006a0       ??_C@_0BA@DLCJDKDM@NonTrackedAlloc@ 1003b6a0     CookingUtils.obj
 0002:000006b0       ??_C@_0EP@MMDPAEHJ@C?3?2Users?2marc?2Desktop?2PhysX?94?41@ 1003b6b0     CookingUtils.obj
 0002:00000700       ??_C@_0EL@NGDGPMCL@C?3?2Users?2marc?2Desktop?2PhysX?94?41@ 1003b700     EdgeList.obj
 0002:0000074c       ??_C@_0CO@GBNJFPN@EdgeList?3?3CreateFacesToEdges?3?5N@ 1003b74c     EdgeList.obj
 0002:0000077c       ??_C@_0CO@EHJBBMNK@EdgeList?3?3ComputeActiveEdges?3?5N@ 1003b77c     EdgeList.obj
 0002:000007ac       ??_C@_0DI@GBHLFOFP@ActiveEdges?3?3ComputeConvexEdges@ 1003b7ac     EdgeList.obj
 0002:000007e4       ??_C@_0DM@JOGBLHDI@ActiveEdges?3?3ComputeConvexEdges@ 1003b7e4     EdgeList.obj
 0002:00000820       ??_C@_0ED@FEMJKPEL@ActiveEdges?3?3ComputeConvexEdges@ 1003b820     EdgeList.obj
 0002:00000868       ??_C@_0EB@BFDPMFCD@ActiveEdges?3?3ComputeConvexEdges@ 1003b868     EdgeList.obj
 0002:000008ac       __real@00000000            1003b8ac     EdgeList.obj
 0002:000008b0       __real@bf7fbe77            1003b8b0     EdgeList.obj
 0002:000008c0       __xmm@7fffffff7fffffff7fffffff7fffffff 1003b8c0     EdgeList.obj
 0002:000008d0       ??_C@_0EO@KMKOKOMO@C?3?2Users?2marc?2Desktop?2PhysX?94?41@ 1003b8d0     MeshCleaner.obj
 0002:00000920       __real@3f000000            1003b920     MeshCleaner.obj
 0002:00000924       __real@4b000000            1003b924     MeshCleaner.obj
 0002:00000928       __real@80000000            1003b928     MeshCleaner.obj
 0002:0000092c       ??_7Quantizer@physx@@6B@   1003b92c     Quantizer.obj
 0002:00000940       ??_7QuantizerImpl@@6B@     1003b940     Quantizer.obj
 0002:00000958       ??_C@_0EM@GFIHLKFO@C?3?2Users?2marc?2Desktop?2PhysX?94?41@ 1003b958     Quantizer.obj
 0002:000009a4       __real@3f8020c5            1003b9a4     Quantizer.obj
 0002:000009a8       __real@7f7fffff            1003b9a8     Quantizer.obj
 0002:000009ac       __real@fe7fffff            1003b9ac     Quantizer.obj
 0002:000009b0       __xmm@41f00000000000000000000000000000 1003b9b0     Quantizer.obj
 0002:000009c0       __xmm@fe7fffff7e7fffff7e7fffff7e7fffff 1003b9c0     Quantizer.obj
 0002:000009f0       ??_C@_0FG@EFKHHLNH@C?3?2Users?2marc?2Desktop?2PhysX?94?41@ 1003b9f0     BVHStructureBuilder.obj
 0002:00000a48       __real@3ba3d70a            1003ba48     BVHStructureBuilder.obj
 0002:00000a70       ?reductionFactors@SubSortQuick@physx@@2QBMB 1003ba70     RTreeCooking.obj
 0002:00000a7c       ?stopAtTrisPerLeaf1@SubSortQuick@physx@@2QBIB 1003ba7c     RTreeCooking.obj
 0002:00000b18       ??_C@_0FE@NJCCMNBI@C?3?2Users?2marc?2Desktop?2PhysX?94?41@ 1003bb18     RTreeCooking.obj
 0002:00000b70       ??_C@_0EJ@ILBMNGPO@C?3?2Users?2marc?2Desktop?2PhysX?94?41@ 1003bb70     RTreeCooking.obj
 0002:00000bc0       ??_C@_0FC@FLINLJCO@C?3?2Users?2marc?2Desktop?2PhysX?94?41@ 1003bbc0     RTreeCooking.obj
 0002:00000c14       __real@37800080            1003bc14     RTreeCooking.obj
 0002:00000c18       __real@3a03126f            1003bc18     RTreeCooking.obj
 0002:00000c1c       __real@41100000            1003bc1c     RTreeCooking.obj
 0002:00000c20       __real@41700000            1003bc20     RTreeCooking.obj
 0002:00000c24       __real@42200000            1003bc24     RTreeCooking.obj
 0002:00000c28       __real@ff7fffff            1003bc28     RTreeCooking.obj
 0002:00000c30       __xmm@00000004000000030000000200000001 1003bc30     RTreeCooking.obj
 0002:00000c60       __real@34800000            1003bc60     MeshBuilder.obj
 0002:00000c90       ??_7MeshDataBase@Gu@physx@@6B@ 1003bc90     TriangleMeshBuilder.obj
 0002:00000c98       ??_C@_0EN@HILNMOL@C?3?2Users?2marc?2Desktop?2PhysX?94?41@ 1003bc98     TriangleMeshBuilder.obj
 0002:00000ce8       ??_7TriangleMeshData@Gu@physx@@6B@ 1003bce8     TriangleMeshBuilder.obj
 0002:00000cec       ??_7RTreeTriangleData@Gu@physx@@6B@ 1003bcec     TriangleMeshBuilder.obj
 0002:00000cf0       ??_7BV4TriangleData@Gu@physx@@6B@ 1003bcf0     TriangleMeshBuilder.obj
 0002:00000cf4       ??_7RemapCallback@RTreeCooker@physx@@6B@ 1003bcf4     TriangleMeshBuilder.obj
 0002:00000cfc       ??_7TriangleMeshBuilder@physx@@6B@ 1003bcfc     TriangleMeshBuilder.obj
 0002:00000d10       ??_7RTreeTriangleMeshBuilder@physx@@6B@ 1003bd10     TriangleMeshBuilder.obj
 0002:00000d24       ??_7BV4TriangleMeshBuilder@physx@@6B@ 1003bd24     TriangleMeshBuilder.obj
 0002:00000d38       ??_C@_0FM@HLDMJKAO@C?3?2Users?2marc?2Desktop?2PhysX?94?41@ 1003bd38     TriangleMeshBuilder.obj
 0002:00000d98       ??_C@_0FL@LCFHPBNH@C?3?2Users?2marc?2Desktop?2PhysX?94?41@ 1003bd98     TriangleMeshBuilder.obj
 0002:00000df4       ??_C@_0DJ@IGODLHLP@TriangleMesh?3?5Enable?5mesh?5weldi@ 1003bdf4     TriangleMeshBuilder.obj
 0002:00000e30       ??_C@_0FJ@HHJLKGDF@TriangleMesh?3?5triangles?5are?5too@ 1003be30     TriangleMeshBuilder.obj
 0002:00000e8c       ??_C@_0CN@KGPHHHLK@TriangleMesh?3?5mesh?5is?5too?5big?5f@ 1003be8c     TriangleMeshBuilder.obj
 0002:00000ebc       ??_C@_0DD@CMJGDCNN@TriangleMesh?3?3loadFromDesc?3?5des@ 1003bebc     TriangleMeshBuilder.obj
 0002:00000ef0       ??_C@_0ED@ILJJNHIP@TriangleMesh?3?3loadFromDesc?3?5mPa@ 1003bef0     TriangleMeshBuilder.obj
 0002:00000f34       ??_C@_0BJ@BKHDBBHO@cleaning?5the?5mesh?5failed@ 1003bf34     TriangleMeshBuilder.obj
 0002:00000f50       ??_C@_0BK@JIDHMMCE@BV4?5tree?5failed?5to?5build?4@ 1003bf50     TriangleMeshBuilder.obj
 0002:00000f6c       ??_C@_0BL@DHNECNBE@BV32?5tree?5failed?5to?5build?4@ 1003bf6c     TriangleMeshBuilder.obj
 0002:00000f88       ??_7RTreeCookerRemap@physx@@6B@ 1003bf88     TriangleMeshBuilder.obj
 0002:00000f90       __real@48742400            1003bf90     TriangleMeshBuilder.obj
 0002:00000fa0       __xmm@00000003000000020000000100000000 1003bfa0     TriangleMeshBuilder.obj
 0002:00000fd0       ??_C@_0FO@ENAJGIJM@C?3?2Users?2marc?2Desktop?2PhysX?94?41@ 1003bfd0     BigConvexDataBuilder.obj
 0002:00001030       __real@40000000            1003c030     BigConvexDataBuilder.obj
 0002:00001060       ??_C@_0FL@CAOJBDLC@C?3?2Users?2marc?2Desktop?2PhysX?94?41@ 1003c060     ConvexHullBuilder.obj
 0002:000010c0       ??_C@_0EB@DCEIFDGC@ConvexHullBuilder?3?3init?3?5convex@ 1003c0c0     ConvexHullBuilder.obj
 0002:00001108       ??_C@_0FM@KICBLCBH@Gu?3?3ConvexMesh?3?3checkHullPolygo@ 1003c108     ConvexHullBuilder.obj
 0002:00001168       ??_C@_0GO@HBFIOGLL@Gu?3?3ConvexMesh?3?3checkHullPolygo@ 1003c168     ConvexHullBuilder.obj
 0002:000011d8       ??_C@_0HF@OLJFBIEL@ConvexHullBuilder?3?5convex?5hull?5@ 1003c1d8     ConvexHullBuilder.obj
 0002:00001250       ??_C@_0OG@JNHFOIL@ConvexHullBuilder?3?5convex?5hull?5@ 1003c250     ConvexHullBuilder.obj
 0002:00001338       ??_C@_0EJ@NIOIBAKH@Cooking?3?3cookConvexMesh?3?5non?9ma@ 1003c338     ConvexHullBuilder.obj
 0002:00001384       __real@3ca3d70a            1003c384     ConvexHullBuilder.obj
 0002:00001388       __real@3eaaaaab            1003c388     ConvexHullBuilder.obj
 0002:0000138c       ??_7ConvexHullLib@physx@@6B@ 1003c38c     ConvexHullLib.obj
 0002:000013a0       ??_C@_0FH@NPBEEMKF@C?3?2Users?2marc?2Desktop?2PhysX?94?41@ 1003c3a0     ConvexHullLib.obj
 0002:000013f8       ??_C@_0JE@PABBNGEL@ConvexHullLib?3?3cleanupVertices?3@ 1003c3f8     ConvexHullLib.obj
 0002:0000148c       __real@358637bd            1003c48c     ConvexHullLib.obj
 0002:00001490       __real@38d1b717            1003c490     ConvexHullLib.obj
 0002:00001494       __real@3c23d70a            1003c494     ConvexHullLib.obj
 0002:00001498       __real@3d4ccccd            1003c498     ConvexHullLib.obj
 0002:000014c0       ??_C@_0FJ@BJEHHHOH@C?3?2Users?2marc?2Desktop?2PhysX?94?41@ 1003c4c0     ConvexHullUtils.obj
 0002:0000151c       __real@00800000            1003c51c     ConvexHullUtils.obj
 0002:00001520       __real@3e20d97c            1003c520     ConvexHullUtils.obj
 0002:00001524       __real@bf000000            1003c524     ConvexHullUtils.obj
 0002:00001550       ??_C@_0DF@LLFJIJGM@Gu?3?3ConvexMesh?3?3loadFromDesc?3?5d@ 1003c550     ConvexMeshBuilder.obj
 0002:00001588       ??_C@_0FL@OOENLDOH@C?3?2Users?2marc?2Desktop?2PhysX?94?41@ 1003c588     ConvexMeshBuilder.obj
 0002:000015e8       ??_C@_0HK@JOGKIEAA@Gu?3?3ConvexMesh?3?5Mesh?5has?5a?5nega@ 1003c5e8     ConvexMeshBuilder.obj
 0002:00001664       ??_C@_0DH@NJPPHFFD@Gu?3?3ConvexMesh?3?5Error?5computing@ 1003c664     ConvexMeshBuilder.obj
 0002:0000169c       ??_C@_0DJ@LJDLGLDJ@Gu?3?3ConvexMesh?3?3loadConvexHull?3@ 1003c69c     ConvexMeshBuilder.obj
 0002:000016d8       ??_C@_0HJ@KJANPPOE@ConvexMeshBuilder?3?3computeHullP@ 1003c6d8     ConvexMeshBuilder.obj
 0002:00001754       ??_C@_06KDGGGLIJ@PxVec3@   1003c754     ConvexMeshBuilder.obj
 0002:0000175c       ??_C@_05LMJPANIN@PxU32@    1003c75c     ConvexMeshBuilder.obj
 0002:00001764       ??_C@_0O@JMAGMMGG@PxHullPolygon@ 1003c764     ConvexMeshBuilder.obj
 0002:00001774       __real@33d6bf95            1003c774     ConvexMeshBuilder.obj
 0002:00001778       __real@3f13cd3a            1003c778     ConvexMeshBuilder.obj
 0002:0000177c       __real@b3d6bf95            1003c77c     ConvexMeshBuilder.obj
 0002:00001780       __xmm@80000000000000008000000000000000 1003c780     ConvexMeshBuilder.obj
 0002:00001790       ??_C@_0DP@PJBJBEGF@Meshmerizer?3?3extractHullPolygon@ 1003c790     ConvexPolygonsBuilder.obj
 0002:000017d0       ??_C@_0FP@HNFKGOEI@C?3?2Users?2marc?2Desktop?2PhysX?94?41@ 1003c7d0     ConvexPolygonsBuilder.obj
 0002:00001830       ??_C@_0DL@IAFKOCCK@ConvexHullBuilder?3?5convex?5hull?5@ 1003c830     ConvexPolygonsBuilder.obj
 0002:00001870       ??_C@_0GF@OJLJHAMH@ConvexHullBuilder?3?3CreateTriang@ 1003c870     ConvexPolygonsBuilder.obj
 0002:000018d8       __real@bf800000            1003c8d8     ConvexPolygonsBuilder.obj
 0002:000018dc       ??_7QuickHullConvexHullLib@physx@@6B@ 1003c8dc     QuickHullConvexHullLib.obj
 0002:000018f0       ??_C@_0GA@JDPLLINI@C?3?2Users?2marc?2Desktop?2PhysX?94?41@ 1003c8f0     QuickHullConvexHullLib.obj
 0002:00001950       ??_C@_0GA@EPPAEJPM@QuickHullConvexHullLib?3?3findSim@ 1003c950     QuickHullConvexHullLib.obj
 0002:000019b0       ??_C@_0FB@NEBIJMML@QuickHullConvexHullLib?3?3findSim@ 1003c9b0     QuickHullConvexHullLib.obj
 0002:00001a08       ??_C@_0FB@CLLCBEMM@QuickHullConvexHullLib?3?3findSim@ 1003ca08     QuickHullConvexHullLib.obj
 0002:00001a5c       __real@34c00000            1003ca5c     QuickHullConvexHullLib.obj
 0002:00001a60       __real@3e800000            1003ca60     QuickHullConvexHullLib.obj
 0002:00001a90       __real@3c088889            1003ca90     VolumeIntegration.obj
 0002:00001a94       __real@3c888889            1003ca94     VolumeIntegration.obj
 0002:00001a98       __real@3d2aaaab            1003ca98     VolumeIntegration.obj
 0002:00001a9c       __real@3e2aaaab            1003ca9c     VolumeIntegration.obj
 0002:00001aa0       __real@3fe0000000000000    1003caa0     VolumeIntegration.obj
 0002:00001aa8       __real@3ff0000000000000    1003caa8     VolumeIntegration.obj
 0002:00001ab0       __xmm@3f811111111111113f81111111111111 1003cab0     VolumeIntegration.obj
 0002:00001ac0       __xmm@3f811111111111113f91111111111111 1003cac0     VolumeIntegration.obj
 0002:00001ad0       __xmm@3f911111111111113f91111111111111 1003cad0     VolumeIntegration.obj
 0002:00001ae0       __xmm@3fa55555555555553fa5555555555555 1003cae0     VolumeIntegration.obj
 0002:00001af0       __xmm@3fa55555555555553fc5555555555555 1003caf0     VolumeIntegration.obj
 0002:00001b00       ??_C@_0BA@EGLNOO@PhysXFoundation@ 1003cb00     WindowsCookingDelayLoadHook.obj
 0002:00001b10       ??_C@_0M@ILKNCJKN@PhysXCommon@ 1003cb10     WindowsCookingDelayLoadHook.obj
 0002:00001b20       __sz_PhysXCommon_32_dll    1003cb20     PhysXCommon_32:PhysXCommon_32.dll
 0002:00001b40       __sz_PhysXFoundation_32_dll 1003cb40     PhysXFoundation_32:PhysXFoundation_32.dll
 0002:00001b58       ??_C@_1BK@DBDEIDLH@?$AAK?$AAE?$AAR?$AAN?$AAE?$AAL?$AA3?$AA2?$AA?4?$AAD?$AAL?$AAL@ 1003cb58     Delayimp:delayhlp.obj
 0002:00001b74       ??_C@_0BI@OMNLIJDB@AcquireSRWLockExclusive@ 1003cb74     Delayimp:delayhlp.obj
 0002:00001b8c       ??_C@_0BI@HMIEPCNJ@ReleaseSRWLockExclusive@ 1003cb8c     Delayimp:delayhlp.obj
 0002:00001ba4       ___pfnDliFailureHook2      1003cba4     Delayimp:delayhk1.obj
 0002:00001bac       ??_7type_info@@6B@         1003cbac     LIBCMT:std_type_info_static.obj
 0002:00001c30       __pDefaultRawDllMain       1003cc30     LIBCMT:dll_dllmain.obj
 0002:00001c30       __pRawDllMain              1003cc30     LIBCMT:dll_dllmain.obj
 0002:00001c38       __load_config_used         1003cc38     LIBCMT:loadcfg.obj
 0002:00001cfc       __pDestructExceptionObject 1003ccfc     libvcruntime:ehhelpers.obj
 0002:00002080       ??_C@_08EHJDFFNH@__based?$CI@ 1003d080     libvcruntime:undname.obj
 0002:0000208c       ??_C@_07KOLFKCDI@__cdecl@  1003d08c     libvcruntime:undname.obj
 0002:00002094       ??_C@_08GHMPAG@__pascal@   1003d094     libvcruntime:undname.obj
 0002:000020a0       ??_C@_09IFJBGAPI@__stdcall@ 1003d0a0     libvcruntime:undname.obj
 0002:000020ac       ??_C@_0L@NPHFGOKO@__thiscall@ 1003d0ac     libvcruntime:undname.obj
 0002:000020b8       ??_C@_0L@JMKHOMEK@__fastcall@ 1003d0b8     libvcruntime:undname.obj
 0002:000020c4       ??_C@_0N@BCKKPABJ@__vectorcall@ 1003d0c4     libvcruntime:undname.obj
 0002:000020d4       ??_C@_09HIJEGCPM@__clrcall@ 1003d0d4     libvcruntime:undname.obj
 0002:000020e0       ??_C@_06GHPCKEAG@__eabi@   1003d0e0     libvcruntime:undname.obj
 0002:000020e8       ??_C@_09IOPIDJLG@__swift_1@ 1003d0e8     libvcruntime:undname.obj
 0002:000020f4       ??_C@_09KFNFGKHF@__swift_2@ 1003d0f4     libvcruntime:undname.obj
 0002:00002100       ??_C@_07JOMMBBKO@__ptr64@  1003d100     libvcruntime:undname.obj
 0002:00002108       ??_C@_0L@PILCLIHE@__restrict@ 1003d108     libvcruntime:undname.obj
 0002:00002114       ??_C@_0M@GFIIJFMG@__unaligned@ 1003d114     libvcruntime:undname.obj
 0002:00002120       ??_C@_09DHDLOLLB@restrict?$CI@ 1003d120     libvcruntime:undname.obj
 0002:0000212a       ??_C@_00CNPNBAHC@@         1003d12a     libvcruntime:undname.obj
 0002:0000212c       ??_C@_04NIHEBCM@?5new@     1003d12c     libvcruntime:undname.obj
 0002:00002134       ??_C@_07FPCDHGMM@?5delete@ 1003d134     libvcruntime:undname.obj
 0002:0000213c       ??_C@_01NEMOKFLO@?$DN@     1003d13c     libvcruntime:undname.obj
 0002:00002140       ??_C@_02GPIOPFAK@?$DO?$DO@ 1003d140     libvcruntime:undname.obj
 0002:00002144       ??_C@_02FODMEDOG@?$DM?$DM@ 1003d144     libvcruntime:undname.obj
 0002:00002148       ??_C@_01DCLJPIOD@?$CB@     1003d148     libvcruntime:undname.obj
 0002:0000214c       ??_C@_02EGOFBIJA@?$DN?$DN@ 1003d14c     libvcruntime:undname.obj
 0002:00002150       ??_C@_02FDNJECIE@?$CB?$DN@ 1003d150     libvcruntime:undname.obj
 0002:00002154       ??_C@_02GPECMEKF@?$FL?$FN@ 1003d154     libvcruntime:undname.obj
 0002:00002158       ??_C@_08LHJFAFGD@operator@ 1003d158     libvcruntime:undname.obj
 0002:00002164       ??_C@_02HBOOOICD@?9?$DO@   1003d164     libvcruntime:undname.obj
 0002:00002168       ??_C@_01NBENCBCI@?$CK@     1003d168     libvcruntime:undname.obj
 0002:0000216c       ??_C@_02ECNGHCIF@?$CL?$CL@ 1003d16c     libvcruntime:undname.obj
 0002:00002170       ??_C@_02BAABKJLB@?9?9@     1003d170     libvcruntime:undname.obj
 0002:00002174       ??_C@_01JOAMLHOP@?9@       1003d174     libvcruntime:undname.obj
 0002:00002178       ??_C@_01MIFGBAGJ@?$CL@     1003d178     libvcruntime:undname.obj
 0002:0000217c       ??_C@_01HNPIGOCE@?$CG@     1003d17c     libvcruntime:undname.obj
 0002:00002180       ??_C@_03MNHNFDLC@?9?$DO?$CK@ 1003d180     libvcruntime:undname.obj
 0002:00002184       ??_C@_01KMDKNFGN@?1@       1003d184     libvcruntime:undname.obj
 0002:00002188       ??_C@_01FGNFDNOH@?$CF@     1003d188     libvcruntime:undname.obj
 0002:0000218c       ??_C@_01MNNFJEPP@?$DM@     1003d18c     libvcruntime:undname.obj
 0002:00002190       ??_C@_02EHCHHCKH@?$DM?$DN@ 1003d190     libvcruntime:undname.obj
 0002:00002194       ??_C@_01PPODPGHN@?$DO@     1003d194     libvcruntime:undname.obj
 0002:00002198       ??_C@_02EEKDKGMJ@?$DO?$DN@ 1003d198     libvcruntime:undname.obj
 0002:0000219c       ??_C@_01IHBHIGKO@?0@       1003d19c     libvcruntime:undname.obj
 0002:000021a0       ??_C@_02HCKGKOFO@?$CI?$CJ@ 1003d1a0     libvcruntime:undname.obj
 0002:000021a4       ??_C@_01PJKLJHI@?$HO@      1003d1a4     libvcruntime:undname.obj
 0002:000021a8       ??_C@_01JKBOJNNK@?$FO@     1003d1a8     libvcruntime:undname.obj
 0002:000021ac       ??_C@_01DNKMNLPK@?$HM@     1003d1ac     libvcruntime:undname.obj
 0002:000021b0       ??_C@_02PPKAJPJL@?$CG?$CG@ 1003d1b0     libvcruntime:undname.obj
 0002:000021b4       ??_C@_02NONPIBCD@?$HM?$HM@ 1003d1b4     libvcruntime:undname.obj
 0002:000021b8       ??_C@_02FPIMKNGF@?$CK?$DN@ 1003d1b8     libvcruntime:undname.obj
 0002:000021bc       ??_C@_02FOEOMHFC@?$CL?$DN@ 1003d1bc     libvcruntime:undname.obj
 0002:000021c0       ??_C@_02FKMDLLOA@?9?$DN@   1003d1c0     libvcruntime:undname.obj
 0002:000021c4       ??_C@_02FJEHGPIO@?1?$DN@   1003d1c4     libvcruntime:undname.obj
 0002:000021c8       ??_C@_02FENAOKFI@?$CF?$DN@ 1003d1c8     libvcruntime:undname.obj
 0002:000021cc       ??_C@_03IKFCCPFF@?$DO?$DO?$DN@ 1003d1cc     libvcruntime:undname.obj
 0002:000021d0       ??_C@_03CDNPDDLA@?$DM?$DM?$DN@ 1003d1d0     libvcruntime:undname.obj
 0002:000021d4       ??_C@_02FGJGFEAB@?$CG?$DN@ 1003d1d4     libvcruntime:undname.obj
 0002:000021d8       ??_C@_02DHLNPPGH@?$HM?$DN@ 1003d1d8     libvcruntime:undname.obj
 0002:000021dc       ??_C@_02MHEGNOJ@?$FO?$DN@  1003d1dc     libvcruntime:undname.obj
 0002:000021e0       ??_C@_09IFPLHPGF@?$GAvftable?8@ 1003d1e0     libvcruntime:undname.obj
 0002:000021ec       ??_C@_09BLBHBJP@?$GAvbtable?8@ 1003d1ec     libvcruntime:undname.obj
 0002:000021f8       ??_C@_07FEEIOKP@?$GAvcall?8@ 1003d1f8     libvcruntime:undname.obj
 0002:00002200       ??_C@_08LLFFHHDJ@?$GAtypeof?8@ 1003d200     libvcruntime:undname.obj
 0002:0000220c       ??_C@_0BF@KDPPACIK@?$GAlocal?5static?5guard?8@ 1003d20c     libvcruntime:undname.obj
 0002:00002224       ??_C@_08OBABFOLI@?$GAstring?8@ 1003d224     libvcruntime:undname.obj
 0002:00002230       ??_C@_0BD@JDLKDPAB@?$GAvbase?5destructor?8@ 1003d230     libvcruntime:undname.obj
 0002:00002244       ??_C@_0BN@DEGPLNFK@?$GAvector?5deleting?5destructor?8@ 1003d244     libvcruntime:undname.obj
 0002:00002264       ??_C@_0BO@OBMKPJIG@?$GAdefault?5constructor?5closure?8@ 1003d264     libvcruntime:undname.obj
 0002:00002284       ??_C@_0BN@IMDCHIKM@?$GAscalar?5deleting?5destructor?8@ 1003d284     libvcruntime:undname.obj
 0002:000022a4       ??_C@_0BO@PFGOCPJJ@?$GAvector?5constructor?5iterator?8@ 1003d2a4     libvcruntime:undname.obj
 0002:000022c4       ??_C@_0BN@LFPFMEDL@?$GAvector?5destructor?5iterator?8@ 1003d2c4     libvcruntime:undname.obj
 0002:000022e4       ??_C@_0CE@IKBNEHA@?$GAvector?5vbase?5constructor?5itera@ 1003d2e4     libvcruntime:undname.obj
 0002:00002308       ??_C@_0BL@NILFHHPC@?$GAvirtual?5displacement?5map?8@ 1003d308     libvcruntime:undname.obj
 0002:00002324       ??_C@_0CB@JONCMFFK@?$GAeh?5vector?5constructor?5iterator@ 1003d324     libvcruntime:undname.obj
 0002:00002348       ??_C@_0CA@GCEOPDGL@?$GAeh?5vector?5destructor?5iterator?8@ 1003d348     libvcruntime:undname.obj
 0002:00002368       ??_C@_0CH@OOJPLCPH@?$GAeh?5vector?5vbase?5constructor?5it@ 1003d368     libvcruntime:undname.obj
 0002:00002390       ??_C@_0BL@LLKPOHJI@?$GAcopy?5constructor?5closure?8@ 1003d390     libvcruntime:undname.obj
 0002:000023ac       ??_C@_0BA@KBCDOMBN@?$GAudt?5returning?8@ 1003d3ac     libvcruntime:undname.obj
 0002:000023bc       ??_C@_03KLGMFNMG@?$GAEH@   1003d3bc     libvcruntime:undname.obj
 0002:000023c0       ??_C@_05KHLCHHI@?$GARTTI@  1003d3c0     libvcruntime:undname.obj
 0002:000023c8       ??_C@_0BA@KKLDJDLB@?$GAlocal?5vftable?8@ 1003d3c8     libvcruntime:undname.obj
 0002:000023d8       ??_C@_0CE@IIHCMGGL@?$GAlocal?5vftable?5constructor?5clos@ 1003d3d8     libvcruntime:undname.obj
 0002:000023fc       ??_C@_06FHBGPFGH@?5new?$FL?$FN@ 1003d3fc     libvcruntime:undname.obj
 0002:00002404       ??_C@_09LBNFPBCA@?5delete?$FL?$FN@ 1003d404     libvcruntime:undname.obj
 0002:00002410       ??_C@_0P@HJKNJFNN@?$GAomni?5callsig?8@ 1003d410     libvcruntime:undname.obj
 0002:00002420       ??_C@_0BL@CNOONJFP@?$GAplacement?5delete?5closure?8@ 1003d420     libvcruntime:undname.obj
 0002:0000243c       ??_C@_0BN@CKNJLHMB@?$GAplacement?5delete?$FL?$FN?5closure?8@ 1003d43c     libvcruntime:undname.obj
 0002:0000245c       ??_C@_0CG@CFDHKGGD@?$GAmanaged?5vector?5constructor?5ite@ 1003d45c     libvcruntime:undname.obj
 0002:00002484       ??_C@_0CF@IMGKMJNO@?$GAmanaged?5vector?5destructor?5iter@ 1003d484     libvcruntime:undname.obj
 0002:000024ac       ??_C@_0CG@HLDDJMAG@?$GAeh?5vector?5copy?5constructor?5ite@ 1003d4ac     libvcruntime:undname.obj
 0002:000024d4       ??_C@_0CM@FCBBDIGB@?$GAeh?5vector?5vbase?5copy?5construct@ 1003d4d4     libvcruntime:undname.obj
 0002:00002500       ??_C@_0BL@CLIPGLGB@?$GAdynamic?5initializer?5for?5?8@ 1003d500     libvcruntime:undname.obj
 0002:0000251c       ??_C@_0CB@PDBIFEP@?$GAdynamic?5atexit?5destructor?5for?5@ 1003d51c     libvcruntime:undname.obj
 0002:00002540       ??_C@_0CD@CGAJBKEJ@?$GAvector?5copy?5constructor?5iterat@ 1003d540     libvcruntime:undname.obj
 0002:00002564       ??_C@_0CJ@GJELGAMM@?$GAvector?5vbase?5copy?5constructor?5@ 1003d564     libvcruntime:undname.obj
 0002:00002590       ??_C@_0CL@FGIJHLCE@?$GAmanaged?5vector?5copy?5constructo@ 1003d590     libvcruntime:undname.obj
 0002:000025bc       ??_C@_0BM@PMGGMLDN@?$GAlocal?5static?5thread?5guard?8@ 1003d5bc     libvcruntime:undname.obj
 0002:000025d8       ??_C@_0N@BDNMDMOL@operator?5?$CC?$CC?5@ 1003d5d8     libvcruntime:undname.obj
 0002:000025e8       ??_C@_0BC@GGEBGALA@operator?5co_await@ 1003d5e8     libvcruntime:undname.obj
 0002:000025fc       ??_C@_0M@GAAIMMOH@operator?$DM?$DN?$DO@ 1003d5fc     libvcruntime:undname.obj
 0002:00002608       ??_C@_0BC@DAFEJGAK@?5Type?5Descriptor?8@ 1003d608     libvcruntime:undname.obj
 0002:0000261c       ??_C@_0BM@LDKODKLH@?5Base?5Class?5Descriptor?5at?5?$CI@ 1003d61c     libvcruntime:undname.obj
 0002:00002638       ??_C@_0BD@LGICGFMM@?5Base?5Class?5Array?8@ 1003d638     libvcruntime:undname.obj
 0002:0000264c       ??_C@_0BN@MECKDCOJ@?5Class?5Hierarchy?5Descriptor?8@ 1003d64c     libvcruntime:undname.obj
 0002:0000266c       ??_C@_0BK@CFCOFLF@?5Complete?5Object?5Locator?8@ 1003d66c     libvcruntime:undname.obj
 0002:00002688       ??_C@_0BG@JNJLAMPM@?$GAanonymous?5namespace?8@ 1003d688     libvcruntime:undname.obj
 0002:000026a0       ??_C@_04HEJADOOB@CV?3?5@   1003d6a0     libvcruntime:undname.obj
 0002:000026a8       ??_C@_02MOLJINC@?3?3@      1003d6a8     libvcruntime:undname.obj
 0002:000026ac       ??_C@_0BE@JAEOCHPE@template?9parameter?9@ 1003d6ac     libvcruntime:undname.obj
 0002:000026c0       ??_C@_0BF@LNLGBBNL@?$GAtemplate?9parameter?9@ 1003d6c0     libvcruntime:undname.obj
 0002:000026d8       ??_C@_0O@KHGCOMHP@generic?9type?9@ 1003d6d8     libvcruntime:undname.obj
 0002:000026e8       ??_C@_0P@ODDENDLM@?$GAgeneric?9type?9@ 1003d6e8     libvcruntime:undname.obj
 0002:000026f8       ??_C@_02OHHJMEON@?8?8@     1003d6f8     libvcruntime:undname.obj
 0002:000026fc       ??_C@_0BN@IBLMMFAP@?$GAnon?9type?9template?9parameter@ 1003d6fc     libvcruntime:undname.obj
 0002:0000271c       ??_C@_03DLDNIBIK@?$CFlf@   1003d71c     libvcruntime:undname.obj
 0002:00002720       ??_C@_04OFALKAJ@?$DP?$DP_C@ 1003d720     libvcruntime:undname.obj
 0002:00002728       ??_C@_03KHICJKCI@?4?4?4@   1003d728     libvcruntime:undname.obj
 0002:0000272c       ??_C@_04HIBGFPH@NULL@      1003d72c     libvcruntime:undname.obj
 0002:00002734       ??_C@_02DPKJAMEF@?$CFd@    1003d734     libvcruntime:undname.obj
 0002:00002738       ??_C@_0BK@IHCCFNEL@?$GAtemplate?9type?9parameter?9@ 1003d738     libvcruntime:undname.obj
 0002:00002754       ??_C@_0BK@OFCNNNKO@?$GAgeneric?9class?9parameter?9@ 1003d754     libvcruntime:undname.obj
 0002:00002770       ??_C@_0BL@NGJBLFIL@?$GAgeneric?9method?9parameter?9@ 1003d770     libvcruntime:undname.obj
 0002:0000278c       ??_C@_07OHNGEDJK@nullptr@  1003d78c     libvcruntime:undname.obj
 0002:00002794       ??_C@_04GKJNKENE@void@     1003d794     libvcruntime:undname.obj
 0002:0000279c       ??_C@_0BE@EODMJLIF@?$GAtemplate?9parameter@ 1003d79c     libvcruntime:undname.obj
 0002:000027b0       ??_C@_03OPGICMGF@?$HN?8?5@ 1003d7b0     libvcruntime:undname.obj
 0002:000027b4       ??_C@_02IGFCGPIL@?$HN?8@   1003d7b4     libvcruntime:undname.obj
 0002:000027b8       ??_C@_0N@CBHHHENL@?$GAvtordispex?$HL@ 1003d7b8     libvcruntime:undname.obj
 0002:000027c8       ??_C@_0L@GHPFDFH@?$GAvtordisp?$HL@ 1003d7c8     libvcruntime:undname.obj
 0002:000027d4       ??_C@_0L@HNGCOGAE@?$GAadjustor?$HL@ 1003d7d4     libvcruntime:undname.obj
 0002:000027e0       ??_C@_0CB@KJDOOODE@?$GAlocal?5static?5destructor?5helper@ 1003d7e0     libvcruntime:undname.obj
 0002:00002804       ??_C@_0DB@ILEFOCIJ@?$GAtemplate?5static?5data?5member?5co@ 1003d804     libvcruntime:undname.obj
 0002:00002838       ??_C@_0DA@HGFJFBBE@?$GAtemplate?5static?5data?5member?5de@ 1003d838     libvcruntime:undname.obj
 0002:00002868       ??_C@_07PGOEDBHP@static?5@ 1003d868     libvcruntime:undname.obj
 0002:00002870       ??_C@_08NIEOINHE@virtual?5@ 1003d870     libvcruntime:undname.obj
 0002:0000287c       ??_C@_09LAPHOOG@private?3?5@ 1003d87c     libvcruntime:undname.obj
 0002:00002888       ??_C@_0M@GAIFPFIP@protected?3?5@ 1003d888     libvcruntime:undname.obj
 0002:00002894       ??_C@_08GPDDCMKI@public?3?5@ 1003d894     libvcruntime:undname.obj
 0002:000028a0       ??_C@_08KJLFOPNE@?$FLthunk?$FN?3@ 1003d8a0     libvcruntime:undname.obj
 0002:000028ac       ??_C@_0M@DHNBOJMP@extern?5?$CCC?$CC?5@ 1003d8ac     libvcruntime:undname.obj
 0002:000028b8       ??_C@_02KCKGHPCA@?$CJ?5@   1003d8b8     libvcruntime:undname.obj
 0002:000028bc       ??_C@_05CIHEBHNO@char?5@   1003d8bc     libvcruntime:undname.obj
 0002:000028c4       ??_C@_06EHJMALKF@short?5@  1003d8c4     libvcruntime:undname.obj
 0002:000028cc       ??_C@_04LAHKHJMA@int?5@    1003d8cc     libvcruntime:undname.obj
 0002:000028d4       ??_C@_05CJIMAING@long?5@   1003d8d4     libvcruntime:undname.obj
 0002:000028dc       ??_C@_09EBBEKKIH@unsigned?5@ 1003d8dc     libvcruntime:undname.obj
 0002:000028e8       ??_C@_05BEFAKPML@void?5@   1003d8e8     libvcruntime:undname.obj
 0002:000028f0       ??_C@_09GAIEOBLP@volatile?5@ 1003d8f0     libvcruntime:undname.obj
 0002:000028fc       ??_C@_08PABEKFH@volatile@  1003d8fc     libvcruntime:undname.obj
 0002:00002908       ??_C@_0BA@LKIJLKPP@std?3?3nullptr_t?5@ 1003d908     libvcruntime:undname.obj
 0002:00002918       ??_C@_0P@GCOCNKDM@std?3?3nullptr_t@ 1003d918     libvcruntime:undname.obj
 0002:00002928       ??_C@_0L@EGPHHEKN@?$DMellipsis?$DO@ 1003d928     libvcruntime:undname.obj
 0002:00002934       ??_C@_04EENFHACM@?0?4?4?4@ 1003d934     libvcruntime:undname.obj
 0002:0000293c       ??_C@_0M@ELJOJFFH@?0?$DMellipsis?$DO@ 1003d93c     libvcruntime:undname.obj
 0002:00002948       ??_C@_09DNHFEOJI@?5noexcept@ 1003d948     libvcruntime:undname.obj
 0002:00002954       ??_C@_03PBJBJNON@cpu@      1003d954     libvcruntime:undname.obj
 0002:00002958       ??_C@_03DCBBJBAA@amp@      1003d958     libvcruntime:undname.obj
 0002:0000295c       ??_C@_02KEGNLNML@?0?5@     1003d95c     libvcruntime:undname.obj
 0002:00002960       ??_C@_04ENMBGAPA@char@     1003d960     libvcruntime:undname.obj
 0002:00002968       ??_C@_05BFKKPKCG@short@    1003d968     libvcruntime:undname.obj
 0002:00002970       ??_C@_03JBIPMCLC@int@      1003d970     libvcruntime:undname.obj
 0002:00002974       ??_C@_04GOKPGOLB@long@     1003d974     libvcruntime:undname.obj
 0002:0000297c       ??_C@_05KNFBNCOH@float@    1003d97c     libvcruntime:undname.obj
 0002:00002984       ??_C@_06BNJCAIGJ@double@   1003d984     libvcruntime:undname.obj
 0002:0000298c       ??_C@_04DDKJGDCM@bool@     1003d98c     libvcruntime:undname.obj
 0002:00002994       ??_C@_06EBGKOKIG@__int8@   1003d994     libvcruntime:undname.obj
 0002:0000299c       ??_C@_07ICFHOGAF@__int16@  1003d99c     libvcruntime:undname.obj
 0002:000029a4       ??_C@_07OFLPPHGP@__int32@  1003d9a4     libvcruntime:undname.obj
 0002:000029ac       ??_C@_07LFCOJCAC@__int64@  1003d9ac     libvcruntime:undname.obj
 0002:000029b4       ??_C@_08GAHOLHEO@__int128@ 1003d9b4     libvcruntime:undname.obj
 0002:000029c0       ??_C@_09EEKGDCPH@?$DMunknown?$DO@ 1003d9c0     libvcruntime:undname.obj
 0002:000029cc       ??_C@_07CFHGOPCN@char8_t@  1003d9cc     libvcruntime:undname.obj
 0002:000029d4       ??_C@_08HBIPOFJB@char16_t@ 1003d9d4     libvcruntime:undname.obj
 0002:000029e0       ??_C@_08IECNCBKG@char32_t@ 1003d9e0     libvcruntime:undname.obj
 0002:000029ec       ??_C@_07CLGGIAMF@wchar_t@  1003d9ec     libvcruntime:undname.obj
 0002:000029f4       ??_C@_04HAPDLBFF@auto@     1003d9f4     libvcruntime:undname.obj
 0002:000029fc       ??_C@_0P@LHCGKIGK@decltype?$CIauto?$CJ@ 1003d9fc     libvcruntime:undname.obj
 0002:00002a0c       ??_C@_06GCICPBLB@__w64?5@  1003da0c     libvcruntime:undname.obj
 0002:00002a14       ??_C@_07NFANNNEC@UNKNOWN@  1003da14     libvcruntime:undname.obj
 0002:00002a1c       ??_C@_07EDHNAJHC@signed?5@ 1003da1c     libvcruntime:undname.obj
 0002:00002a24       ??_C@_05BNCCCJPP@const@    1003da24     libvcruntime:undname.obj
 0002:00002a2c       ??_C@_09EFNPDFFP@?5volatile@ 1003da2c     libvcruntime:undname.obj
 0002:00002a38       ??_C@_0P@GCIFDJCJ@?$GAunknown?5ecsu?8@ 1003da38     libvcruntime:undname.obj
 0002:00002a48       ??_C@_06MOJHIBMG@union?5@  1003da48     libvcruntime:undname.obj
 0002:00002a50       ??_C@_07DIBCDNGL@struct?5@ 1003da50     libvcruntime:undname.obj
 0002:00002a58       ??_C@_06LJBABKPM@class?5@  1003da58     libvcruntime:undname.obj
 0002:00002a60       ??_C@_08KOFANOFK@coclass?5@ 1003da60     libvcruntime:undname.obj
 0002:00002a6c       ??_C@_0N@DLIEFKNA@cointerface?5@ 1003da6c     libvcruntime:undname.obj
 0002:00002a7c       ??_C@_05LJGMCFOG@enum?5@   1003da7c     libvcruntime:undname.obj
 0002:00002a84       ??_C@_06LIJLOJAG@const?5@  1003da84     libvcruntime:undname.obj
 0002:00002a8c       ??_C@_02KJPKDIBN@?$CG?5@   1003da8c     libvcruntime:undname.obj
 0002:00002a90       ??_C@_03PCKGMOPB@?$CG?$CG?5@ 1003da90     libvcruntime:undname.obj
 0002:00002a94       ??_C@_0M@EALIELKG@cli?3?3array?$DM@ 1003da94     libvcruntime:undname.obj
 0002:00002aa0       ??_C@_0O@GKABPPIF@cli?3?3pin_ptr?$DM@ 1003daa0     libvcruntime:undname.obj
 0002:00002ab0       ??_C@_02GOGNNPBN@?$CJ?$FL@ 1003dab0     libvcruntime:undname.obj
 0002:00002ab4       ??_C@_06EEGAIFAK@?$HLflat?$HN@ 1003dab4     libvcruntime:undname.obj
 0002:00002abc       ??_C@_05JIBOFOHK@?$HLfor?5@ 1003dabc     libvcruntime:undname.obj
 0002:00002ac4       ??_C@_02MDINNEEG@s?5@      1003dac4     libvcruntime:undname.obj
 0002:00002acc       ??_7charNode@@6B@          1003dacc     libvcruntime:undname.obj
 0002:00002ae0       ??_7pcharNode@@6B@         1003dae0     libvcruntime:undname.obj
 0002:00002af4       ??_7pDNameNode@@6B@        1003daf4     libvcruntime:undname.obj
 0002:00002b08       ??_7DNameStatusNode@@6B@   1003db08     libvcruntime:undname.obj
 0002:00002b1c       ??_7pairNode@@6B@          1003db1c     libvcruntime:undname.obj
 0002:00002c30       ??_C@_04OKOHEJBO@?5?$DP?$DP?5@ 1003dc30     libvcruntime:undname.obj
 0002:00002c38       ?nodes@?1??make@DNameStatusNode@@SAPBV2@W4DNameStatus@@@Z@4QBV2@B 1003dc38     libvcruntime:undname.obj
 0002:00002c74       ??_C@_1DM@KHCHBNEB@?$AAa?$AAp?$AAi?$AA?9?$AAm?$AAs?$AA?9?$AAw?$AAi?$AAn?$AA?9?$AAc?$AAo?$AAr?$AAe@ 1003dc74     libvcruntime:winapi_downlevel.obj
 0002:00002cb0       ??_C@_1DK@LPPGFMPP@?$AAa?$AAp?$AAi?$AA?9?$AAm?$AAs?$AA?9?$AAw?$AAi?$AAn?$AA?9?$AAc?$AAo?$AAr?$AAe@ 1003dcb0     libvcruntime:winapi_downlevel.obj
 0002:00002cec       ??_C@_1BC@GDMECMAK@?$AAk?$AAe?$AAr?$AAn?$AAe?$AAl?$AA3?$AA2@ 1003dcec     libvcruntime:winapi_downlevel.obj
 0002:00002d00       ??_C@_1BA@PFFKHIOG@?$AAa?$AAp?$AAi?$AA?9?$AAm?$AAs?$AA?9@ 1003dd00     libvcruntime:winapi_downlevel.obj
 0002:00002d18       ??_C@_08KNHFBNJ@FlsAlloc@  1003dd18     libvcruntime:winapi_downlevel.obj
 0002:00002d2c       ??_C@_07PEJMOBNF@FlsFree@  1003dd2c     libvcruntime:winapi_downlevel.obj
 0002:00002d3c       ??_C@_0M@GDNOONDI@FlsGetValue@ 1003dd3c     libvcruntime:winapi_downlevel.obj
 0002:00002d50       ??_C@_0M@JCPCPOEF@FlsSetValue@ 1003dd50     libvcruntime:winapi_downlevel.obj
 0002:00002d64       ??_C@_0BM@HCFOFFN@InitializeCriticalSectionEx@ 1003dd64     libvcruntime:winapi_downlevel.obj
 0002:00002d84       ??_7exception@std@@6B@     1003dd84     libvcruntime:frame.obj
 0002:00002d8c       ??_C@_0BC@EOODALEL@Unknown?5exception@ 1003dd8c     libvcruntime:frame.obj
 0002:00002da4       ??_7bad_exception@std@@6B@ 1003dda4     libvcruntime:frame.obj
 0002:00002dac       ??_C@_0O@DPKOEFFH@bad?5exception@ 1003ddac     libvcruntime:frame.obj
 0002:00002ea8       ??_C@_03KHJOGHMM@exp@      1003dea8     libucrt:fpexcept.obj
 0002:00002eac       ??_C@_03JGHBODFD@pow@      1003deac     libucrt:fpexcept.obj
 0002:00002eb0       ??_C@_03MGHMBJCF@log@      1003deb0     libucrt:fpexcept.obj
 0002:00002eb4       ??_C@_05HGHHAHAP@log10@    1003deb4     libucrt:fpexcept.obj
 0002:00002ebc       ??_C@_04COOMCNPB@sinh@     1003debc     libucrt:fpexcept.obj
 0002:00002ec4       ??_C@_04HPJJNFIM@cosh@     1003dec4     libucrt:fpexcept.obj
 0002:00002ecc       ??_C@_04FJHINJAO@tanh@     1003decc     libucrt:fpexcept.obj
 0002:00002ed4       ??_C@_04FIHNOPOL@asin@     1003ded4     libucrt:fpexcept.obj
 0002:00002edc       ??_C@_04PDIFKINK@acos@     1003dedc     libucrt:fpexcept.obj
 0002:00002ee4       ??_C@_04MLLJIGOK@atan@     1003dee4     libucrt:fpexcept.obj
 0002:00002eec       ??_C@_05KNGEOGJB@atan2@    1003deec     libucrt:fpexcept.obj
 0002:00002ef4       ??_C@_04EIAKFFMI@sqrt@     1003def4     libucrt:fpexcept.obj
 0002:00002efc       ??_C@_03BLEJJJBH@sin@      1003defc     libucrt:fpexcept.obj
 0002:00002f00       ??_C@_03LALBNOCG@cos@      1003df00     libucrt:fpexcept.obj
 0002:00002f04       ??_C@_03IIINPABG@tan@      1003df04     libucrt:fpexcept.obj
 0002:00002f08       ??_C@_04GFPJNGEK@ceil@     1003df08     libucrt:fpexcept.obj
 0002:00002f10       ??_C@_05PBJFFIGL@floor@    1003df10     libucrt:fpexcept.obj
 0002:00002f18       ??_C@_04ODHECPBC@fabs@     1003df18     libucrt:fpexcept.obj
 0002:00002f20       ??_C@_04EHEDPDJG@modf@     1003df20     libucrt:fpexcept.obj
 0002:00002f28       ??_C@_05CEJMAHNP@ldexp@    1003df28     libucrt:fpexcept.obj
 0002:00002f30       ??_C@_05KBKMEMPO@_cabs@    1003df30     libucrt:fpexcept.obj
 0002:00002f38       ??_C@_06MEIMCGCF@_hypot@   1003df38     libucrt:fpexcept.obj
 0002:00002f40       ??_C@_04KEPJIHGP@fmod@     1003df40     libucrt:fpexcept.obj
 0002:00002f48       ??_C@_05GKKHEGJL@frexp@    1003df48     libucrt:fpexcept.obj
 0002:00002f50       ??_C@_03MJLDFKDL@_y0@      1003df50     libucrt:fpexcept.obj
 0002:00002f54       ??_C@_03NAKIGLHK@_y1@      1003df54     libucrt:fpexcept.obj
 0002:00002f58       ??_C@_03ONILCKOB@_yn@      1003df58     libucrt:fpexcept.obj
 0002:00002f5c       ??_C@_05JGDBENOH@_logb@    1003df5c     libucrt:fpexcept.obj
 0002:00002f64       ??_C@_0L@KDOEJCKC@_nextafter@ 1003df64     libucrt:fpexcept.obj
 0002:00002f70       ___acrt_exception_action_table 1003df70     libucrt:exception_filter.obj
 0002:00003000       ___acrt_signal_action_table_count 1003e000     libucrt:exception_filter.obj
 0002:00003004       ___acrt_signal_action_first_fpe_index 1003e004     libucrt:exception_filter.obj
 0002:00003008       ___acrt_signal_action_fpe_count 1003e008     libucrt:exception_filter.obj
 0002:0000300c       ??_C@_1BI@BGOHAHKC@?$AAm?$AAs?$AAc?$AAo?$AAr?$AAe?$AAe?$AA?4?$AAd?$AAl?$AAl@ 1003e00c     libucrt:exit.obj
 0002:00003024       ??_C@_0P@MIGLKIOC@CorExitProcess@ 1003e024     libucrt:exit.obj
 0002:000030b8       ?format_validation_lookup_table_spectre@__crt_stdio_output@@3V?$spectre_mitigated_lookup_table@Ustate_transition_pair@__crt_stdio_output@@$0IA@@1@B 1003e0b8     libucrt:output.obj
 0002:000031b8       ??_C@_1O@CEDCILHN@?$AA?$CI?$AAn?$AAu?$AAl?$AAl?$AA?$CJ@ 1003e1b8     libucrt:output.obj
 0002:000031c8       ??_C@_06OJHGLDPL@?$CInull?$CJ@ 1003e1c8     libucrt:output.obj
 0002:000031d0       __d_inf                    1003e1d0     libucrt:util.obj
 0002:000031d8       __d_max                    1003e1d8     libucrt:util.obj
 0002:000031e0       __d_mzero                  1003e1e0     libucrt:util.obj
 0002:00003378       ??_C@_1M@HPNHIDJI@?$AAj?$AAa?$AA?9?$AAJ?$AAP@ 1003e378     libucrt:mbctype.obj
 0002:00003384       ??_C@_1M@BIBDDEMK@?$AAz?$AAh?$AA?9?$AAC?$AAN@ 1003e384     libucrt:mbctype.obj
 0002:00003390       ??_C@_1M@JLOOOEGK@?$AAk?$AAo?$AA?9?$AAK?$AAR@ 1003e390     libucrt:mbctype.obj
 0002:0000339c       ??_C@_1M@CLNBBOPM@?$AAz?$AAh?$AA?9?$AAT?$AAW@ 1003e39c     libucrt:mbctype.obj
 0002:00003400       ??_C@_1EA@JGEFHKEI@?$AAa?$AAp?$AAi?$AA?9?$AAm?$AAs?$AA?9?$AAw?$AAi?$AAn?$AA?9?$AAc?$AAo?$AAr?$AAe@ 1003e400     libucrt:winapi_thunks.obj
 0002:00003440       ??_C@_1DI@KMEPCBPN@?$AAa?$AAp?$AAi?$AA?9?$AAm?$AAs?$AA?9?$AAw?$AAi?$AAn?$AA?9?$AAc?$AAo?$AAr?$AAe@ 1003e440     libucrt:winapi_thunks.obj
 0002:00003478       ??_C@_1DI@IJCEHOCB@?$AAa?$AAp?$AAi?$AA?9?$AAm?$AAs?$AA?9?$AAw?$AAi?$AAn?$AA?9?$AAc?$AAo?$AAr?$AAe@ 1003e478     libucrt:winapi_thunks.obj
 0002:000034b0       ??_C@_1EI@MPIAOHOC@?$AAa?$AAp?$AAi?$AA?9?$AAm?$AAs?$AA?9?$AAw?$AAi?$AAn?$AA?9?$AAc?$AAo?$AAr?$AAe@ 1003e4b0     libucrt:winapi_thunks.obj
 0002:000034f8       ??_C@_1FK@FPHCKFIE@?$AAa?$AAp?$AAi?$AA?9?$AAm?$AAs?$AA?9?$AAw?$AAi?$AAn?$AA?9?$AAc?$AAo?$AAr?$AAe@ 1003e4f8     libucrt:winapi_thunks.obj
 0002:00003558       ??_C@_1EM@DILCGIIO@?$AAa?$AAp?$AAi?$AA?9?$AAm?$AAs?$AA?9?$AAw?$AAi?$AAn?$AA?9?$AAc?$AAo?$AAr?$AAe@ 1003e558     libucrt:winapi_thunks.obj
 0002:000035a4       ??_C@_1DM@LNCGDDPN@?$AAa?$AAp?$AAi?$AA?9?$AAm?$AAs?$AA?9?$AAw?$AAi?$AAn?$AA?9?$AAc?$AAo?$AAr?$AAe@ 1003e5a4     libucrt:winapi_thunks.obj
 0002:000035e0       ??_C@_1DO@FPAPJEMD@?$AAa?$AAp?$AAi?$AA?9?$AAm?$AAs?$AA?9?$AAw?$AAi?$AAn?$AA?9?$AAc?$AAo?$AAr?$AAe@ 1003e5e0     libucrt:winapi_thunks.obj
 0002:00003620       ??_C@_1DK@NDHNAHIO@?$AAa?$AAp?$AAi?$AA?9?$AAm?$AAs?$AA?9?$AAw?$AAi?$AAn?$AA?9?$AAc?$AAo?$AAr?$AAe@ 1003e620     libucrt:winapi_thunks.obj
 0002:0000365c       ??_C@_1DM@KGHDGBCM@?$AAa?$AAp?$AAi?$AA?9?$AAm?$AAs?$AA?9?$AAw?$AAi?$AAn?$AA?9?$AAc?$AAo?$AAr?$AAe@ 1003e65c     libucrt:winapi_thunks.obj
 0002:00003698       ??_C@_1EO@IJIOEFOH@?$AAa?$AAp?$AAi?$AA?9?$AAm?$AAs?$AA?9?$AAw?$AAi?$AAn?$AA?9?$AAr?$AAt?$AAc?$AAo@ 1003e698     libucrt:winapi_thunks.obj
 0002:000036e8       ??_C@_1FG@HHGEKANL@?$AAa?$AAp?$AAi?$AA?9?$AAm?$AAs?$AA?9?$AAw?$AAi?$AAn?$AA?9?$AAs?$AAe?$AAc?$AAu@ 1003e6e8     libucrt:winapi_thunks.obj
 0002:00003740       ??_C@_1EG@DBIOJECG@?$AAe?$AAx?$AAt?$AA?9?$AAm?$AAs?$AA?9?$AAw?$AAi?$AAn?$AA?9?$AAn?$AAt?$AAu?$AAs@ 1003e740     libucrt:winapi_thunks.obj
 0002:00003788       ??_C@_1EO@FIHMJCLF@?$AAe?$AAx?$AAt?$AA?9?$AAm?$AAs?$AA?9?$AAw?$AAi?$AAn?$AA?9?$AAn?$AAt?$AAu?$AAs@ 1003e788     libucrt:winapi_thunks.obj
 0002:000037d8       ??_C@_1BC@DNHGCMLG@?$AAa?$AAd?$AAv?$AAa?$AAp?$AAi?$AA3?$AA2@ 1003e7d8     libucrt:winapi_thunks.obj
 0002:000037ec       ??_C@_1BG@CJPGBMEF@?$AAk?$AAe?$AAr?$AAn?$AAe?$AAl?$AAb?$AAa?$AAs?$AAe@ 1003e7ec     libucrt:winapi_thunks.obj
 0002:00003804       ??_C@_1M@OAIMIKLP@?$AAn?$AAt?$AAd?$AAl?$AAl@ 1003e804     libucrt:winapi_thunks.obj
 0002:00003810       ??_C@_1EG@DPGNFKGC@?$AAa?$AAp?$AAi?$AA?9?$AAm?$AAs?$AA?9?$AAw?$AAi?$AAn?$AA?9?$AAa?$AAp?$AAp?$AAm@ 1003e810     libucrt:winapi_thunks.obj
 0002:00003858       ??_C@_1O@BCCLBEOE@?$AAu?$AAs?$AAe?$AAr?$AA3?$AA2@ 1003e858     libucrt:winapi_thunks.obj
 0002:00003868       ??_C@_1DM@BPJLHKCE@?$AAa?$AAp?$AAi?$AA?9?$AAm?$AAs?$AA?9?$AAw?$AAi?$AAn?$AA?9?$AAc?$AAo?$AAr?$AAe@ 1003e868     libucrt:winapi_thunks.obj
 0002:000038a4       ??_C@_1BA@IAIFMGEF@?$AAe?$AAx?$AAt?$AA?9?$AAm?$AAs?$AA?9@ 1003e8a4     libucrt:winapi_thunks.obj
 0002:000038b8       ??_C@_0BA@FHFNEAED@AreFileApisANSI@ 1003e8b8     libucrt:winapi_thunks.obj
 0002:000038d8       ??_C@_0O@KKBNKAPF@LCMapStringEx@ 1003e8d8     libucrt:winapi_thunks.obj
 0002:000038f0       ??_C@_0BB@HBDEELFH@LocaleNameToLCID@ 1003e8f0     libucrt:winapi_thunks.obj
 0002:00003908       ??_C@_0CF@OJOFEIGO@AppPolicyGetProcessTerminationM@ 1003e908     libucrt:winapi_thunks.obj
 0002:00003950       ___lc_time_c               1003e950     libucrt:nlsdata.obj
 0002:00003ab4       ??_C@_03KOEHGMDN@Sun@      1003eab4     libucrt:nlsdata.obj
 0002:00003ab8       ??_C@_03PDAGKDH@Mon@       1003eab8     libucrt:nlsdata.obj
 0002:00003abc       ??_C@_03NAGEINEP@Tue@      1003eabc     libucrt:nlsdata.obj
 0002:00003ac0       ??_C@_03MHOMLAJA@Wed@      1003eac0     libucrt:nlsdata.obj
 0002:00003ac4       ??_C@_03IOFIKPDN@Thu@      1003eac4     libucrt:nlsdata.obj
 0002:00003ac8       ??_C@_03IDIOELNC@Fri@      1003eac8     libucrt:nlsdata.obj
 0002:00003acc       ??_C@_03FEFJNEK@Sat@       1003eacc     libucrt:nlsdata.obj
 0002:00003ad0       ??_C@_06OOPIFAJ@Sunday@    1003ead0     libucrt:nlsdata.obj
 0002:00003ad8       ??_C@_06JLEDEDGH@Monday@   1003ead8     libucrt:nlsdata.obj
 0002:00003ae0       ??_C@_07BAAGCFCM@Tuesday@  1003eae0     libucrt:nlsdata.obj
 0002:00003ae8       ??_C@_09DLIGFAKA@Wednesday@ 1003eae8     libucrt:nlsdata.obj
 0002:00003af4       ??_C@_08HACCIKIA@Thursday@ 1003eaf4     libucrt:nlsdata.obj
 0002:00003b00       ??_C@_06JECMNKMI@Friday@   1003eb00     libucrt:nlsdata.obj
 0002:00003b08       ??_C@_08INBOOONO@Saturday@ 1003eb08     libucrt:nlsdata.obj
 0002:00003b14       ??_C@_03JIHJHPIE@Jan@      1003eb14     libucrt:nlsdata.obj
 0002:00003b18       ??_C@_03HJBDCHOM@Feb@      1003eb18     libucrt:nlsdata.obj
 0002:00003b1c       ??_C@_03ODNJBKGA@Mar@      1003eb1c     libucrt:nlsdata.obj
 0002:00003b20       ??_C@_03LEOLGMJP@Apr@      1003eb20     libucrt:nlsdata.obj
 0002:00003b24       ??_C@_03CNMDKL@May@        1003eb24     libucrt:nlsdata.obj
 0002:00003b28       ??_C@_03IDFGHECI@Jun@      1003eb28     libucrt:nlsdata.obj
 0002:00003b2c       ??_C@_03LBGABGKK@Jul@      1003eb2c     libucrt:nlsdata.obj
 0002:00003b30       ??_C@_03IFJFEIGA@Aug@      1003eb30     libucrt:nlsdata.obj
 0002:00003b34       ??_C@_03GGCAPAJC@Sep@      1003eb34     libucrt:nlsdata.obj
 0002:00003b38       ??_C@_03BMAOKBAD@Oct@      1003eb38     libucrt:nlsdata.obj
 0002:00003b3c       ??_C@_03JPJOFNIA@Nov@      1003eb3c     libucrt:nlsdata.obj
 0002:00003b40       ??_C@_03MKABNOCG@Dec@      1003eb40     libucrt:nlsdata.obj
 0002:00003b44       ??_C@_07CGJPFGJA@January@  1003eb44     libucrt:nlsdata.obj
 0002:00003b4c       ??_C@_08GNJGEPFN@February@ 1003eb4c     libucrt:nlsdata.obj
 0002:00003b58       ??_C@_05HPCKOFNC@March@    1003eb58     libucrt:nlsdata.obj
 0002:00003b60       ??_C@_05DMJDNLEJ@April@    1003eb60     libucrt:nlsdata.obj
 0002:00003b68       ??_C@_04CNLMGBGM@June@     1003eb68     libucrt:nlsdata.obj
 0002:00003b70       ??_C@_04MIEPOIFP@July@     1003eb70     libucrt:nlsdata.obj
 0002:00003b78       ??_C@_06LBBHFDDG@August@   1003eb78     libucrt:nlsdata.obj
 0002:00003b80       ??_C@_09BHHEALKD@September@ 1003eb80     libucrt:nlsdata.obj
 0002:00003b8c       ??_C@_07JJNFCEND@October@  1003eb8c     libucrt:nlsdata.obj
 0002:00003b94       ??_C@_08HCHEGEOA@November@ 1003eb94     libucrt:nlsdata.obj
 0002:00003ba0       ??_C@_08EDHMEBNP@December@ 1003eba0     libucrt:nlsdata.obj
 0002:00003bac       ??_C@_02DEDBPAFC@AM@       1003ebac     libucrt:nlsdata.obj
 0002:00003bb0       ??_C@_02CJNFDJBF@PM@       1003ebb0     libucrt:nlsdata.obj
 0002:00003bb4       ??_C@_08BPBNCDIB@MM?1dd?1yy@ 1003ebb4     libucrt:nlsdata.obj
 0002:00003bc0       ??_C@_0BE@CKGJFCPC@dddd?0?5MMMM?5dd?0?5yyyy@ 1003ebc0     libucrt:nlsdata.obj
 0002:00003bd4       ??_C@_08JCCMCCIL@HH?3mm?3ss@ 1003ebd4     libucrt:nlsdata.obj
 0002:00003be0       ??_C@_17MBGCMIPB@?$AAS?$AAu?$AAn@ 1003ebe0     libucrt:nlsdata.obj
 0002:00003be8       ??_C@_17KBOMKBF@?$AAM?$AAo?$AAn@ 1003ebe8     libucrt:nlsdata.obj
 0002:00003bf0       ??_C@_17BMKGEGOJ@?$AAT?$AAu?$AAe@ 1003ebf0     libucrt:nlsdata.obj
 0002:00003bf8       ??_C@_17CJEDCEPE@?$AAW?$AAe?$AAd@ 1003ebf8     libucrt:nlsdata.obj
 0002:00003c00       ??_C@_17PDPHAADD@?$AAT?$AAh?$AAu@ 1003ec00     libucrt:nlsdata.obj
 0002:00003c08       ??_C@_17HFOLPPLP@?$AAF?$AAr?$AAi@ 1003ec08     libucrt:nlsdata.obj
 0002:00003c10       ??_C@_17GGIBDPIH@?$AAS?$AAa?$AAt@ 1003ec10     libucrt:nlsdata.obj
 0002:00003c18       ??_C@_1O@IHNHDHPB@?$AAS?$AAu?$AAn?$AAd?$AAa?$AAy@ 1003ec18     libucrt:nlsdata.obj
 0002:00003c28       ??_C@_1O@MMNBFLIA@?$AAM?$AAo?$AAn?$AAd?$AAa?$AAy@ 1003ec28     libucrt:nlsdata.obj
 0002:00003c38       ??_C@_1BA@ENFBFFEK@?$AAT?$AAu?$AAe?$AAs?$AAd?$AAa?$AAy@ 1003ec38     libucrt:nlsdata.obj
 0002:00003c48       ??_C@_1BE@EBOGMDOH@?$AAW?$AAe?$AAd?$AAn?$AAe?$AAs?$AAd?$AAa?$AAy@ 1003ec48     libucrt:nlsdata.obj
 0002:00003c5c       ??_C@_1BC@HHMNLIHE@?$AAT?$AAh?$AAu?$AAr?$AAs?$AAd?$AAa?$AAy@ 1003ec5c     libucrt:nlsdata.obj
 0002:00003c70       ??_C@_1O@PDICJHAG@?$AAF?$AAr?$AAi?$AAd?$AAa?$AAy@ 1003ec70     libucrt:nlsdata.obj
 0002:00003c80       ??_C@_1BC@ENMNNPAJ@?$AAS?$AAa?$AAt?$AAu?$AAr?$AAd?$AAa?$AAy@ 1003ec80     libucrt:nlsdata.obj
 0002:00003c94       ??_C@_17DKNBKCHM@?$AAJ?$AAa?$AAn@ 1003ec94     libucrt:nlsdata.obj
 0002:00003c9c       ??_C@_17LMDJEKJN@?$AAF?$AAe?$AAb@ 1003ec9c     libucrt:nlsdata.obj
 0002:00003ca4       ??_C@_17CKNLEDEC@?$AAM?$AAa?$AAr@ 1003eca4     libucrt:nlsdata.obj
 0002:00003cac       ??_C@_17LFPOIHDD@?$AAA?$AAp?$AAr@ 1003ecac     libucrt:nlsdata.obj
 0002:00003cb4       ??_C@_17PNNKMEED@?$AAM?$AAa?$AAy@ 1003ecb4     libucrt:nlsdata.obj
 0002:00003cbc       ??_C@_17KCJGOCPB@?$AAJ?$AAu?$AAn@ 1003ecbc     libucrt:nlsdata.obj
 0002:00003cc4       ??_C@_17IJPCKHK@?$AAJ?$AAu?$AAl@ 1003ecc4     libucrt:nlsdata.obj
 0002:00003ccc       ??_C@_17ICPELBCN@?$AAA?$AAu?$AAg@ 1003eccc     libucrt:nlsdata.obj
 0002:00003cd4       ??_C@_17HCHCOKMG@?$AAS?$AAe?$AAp@ 1003ecd4     libucrt:nlsdata.obj
 0002:00003cdc       ??_C@_17FNLKOI@?$AAO?$AAc?$AAt@ 1003ecdc     libucrt:nlsdata.obj
 0002:00003ce4       ??_C@_17BBDMLCIG@?$AAN?$AAo?$AAv@ 1003ece4     libucrt:nlsdata.obj
 0002:00003cec       ??_C@_17EGKACKIF@?$AAD?$AAe?$AAc@ 1003ecec     libucrt:nlsdata.obj
 0002:00003cf4       ??_C@_1BA@EFMEIEBA@?$AAJ?$AAa?$AAn?$AAu?$AAa?$AAr?$AAy@ 1003ecf4     libucrt:nlsdata.obj
 0002:00003d04       ??_C@_1BC@JGDDFFAM@?$AAF?$AAe?$AAb?$AAr?$AAu?$AAa?$AAr?$AAy@ 1003ed04     libucrt:nlsdata.obj
 0002:00003d18       ??_C@_1M@IKEENEDF@?$AAM?$AAa?$AAr?$AAc?$AAh@ 1003ed18     libucrt:nlsdata.obj
 0002:00003d24       ??_C@_1M@GJNLMHFD@?$AAA?$AAp?$AAr?$AAi?$AAl@ 1003ed24     libucrt:nlsdata.obj
 0002:00003d30       ??_C@_19EPFLPGAP@?$AAJ?$AAu?$AAn?$AAe@ 1003ed30     libucrt:nlsdata.obj
 0002:00003d3c       ??_C@_19BIFMLPCD@?$AAJ?$AAu?$AAl?$AAy@ 1003ed3c     libucrt:nlsdata.obj
 0002:00003d48       ??_C@_1O@PAHLKOAC@?$AAA?$AAu?$AAg?$AAu?$AAs?$AAt@ 1003ed48     libucrt:nlsdata.obj
 0002:00003d58       ??_C@_1BE@DKAAMBJL@?$AAS?$AAe?$AAp?$AAt?$AAe?$AAm?$AAb?$AAe?$AAr@ 1003ed58     libucrt:nlsdata.obj
 0002:00003d6c       ??_C@_1BA@EPANDLNG@?$AAO?$AAc?$AAt?$AAo?$AAb?$AAe?$AAr@ 1003ed6c     libucrt:nlsdata.obj
 0002:00003d7c       ??_C@_1BC@BGLIFPF@?$AAN?$AAo?$AAv?$AAe?$AAm?$AAb?$AAe?$AAr@ 1003ed7c     libucrt:nlsdata.obj
 0002:00003d90       ??_C@_1BC@FEMKIFH@?$AAD?$AAe?$AAc?$AAe?$AAm?$AAb?$AAe?$AAr@ 1003ed90     libucrt:nlsdata.obj
 0002:00003da4       ??_C@_15ODEHAHHF@?$AAA?$AAM@ 1003eda4     libucrt:nlsdata.obj
 0002:00003dac       ??_C@_15CLMNNGEL@?$AAP?$AAM@ 1003edac     libucrt:nlsdata.obj
 0002:00003db4       ??_C@_1BC@IEBCMHCM@?$AAM?$AAM?$AA?1?$AAd?$AAd?$AA?1?$AAy?$AAy@ 1003edb4     libucrt:nlsdata.obj
 0002:00003dc8       ??_C@_1CI@KNAKOEBC@?$AAd?$AAd?$AAd?$AAd?$AA?0?$AA?5?$AAM?$AAM?$AAM?$AAM?$AA?5?$AAd?$AAd?$AA?0?$AA?5@ 1003edc8     libucrt:nlsdata.obj
 0002:00003df0       ??_C@_1BC@GDGBMEMK@?$AAH?$AAH?$AA?3?$AAm?$AAm?$AA?3?$AAs?$AAs@ 1003edf0     libucrt:nlsdata.obj
 0002:00003e04       ??_C@_1M@BMHNFIME@?$AAe?$AAn?$AA?9?$AAU?$AAS@ 1003ee04     libucrt:nlsdata.obj
 0002:00003e50       ??_C@_03OEIAHPBN@INF@      1003ee50     libucrt:cvt.obj
 0002:00003e54       ??_C@_03OJHLLCGB@inf@      1003ee54     libucrt:cvt.obj
 0002:00003e58       ??_C@_03LKNCIKJB@NAN@      1003ee58     libucrt:cvt.obj
 0002:00003e5c       ??_C@_03LHCJEHON@nan@      1003ee5c     libucrt:cvt.obj
 0002:00003e60       ??_C@_09OFJJIMPC@NAN?$CISNAN?$CJ@ 1003ee60     libucrt:cvt.obj
 0002:00003e6c       ??_C@_09IPFBKMDL@nan?$CIsnan?$CJ@ 1003ee6c     libucrt:cvt.obj
 0002:00003e78       ??_C@_08IKHNHAJ@NAN?$CIIND?$CJ@ 1003ee78     libucrt:cvt.obj
 0002:00003e84       ??_C@_08OFCDMILK@nan?$CIind?$CJ@ 1003ee84     libucrt:cvt.obj
 0002:00003e90       ??_C@_05KLBDPFGC@e?$CL000@ 1003ee90     libucrt:cvt.obj
 0002:00003e98       ___newctype                1003ee98     libucrt:ctype.obj
 0002:00004198       ___newclmap                1003f198     libucrt:ctype.obj
 0002:00004318       ___newcumap                1003f318     libucrt:ctype.obj
 0002:00004d30       ??_C@_15EMKDOKLE@?$AAa?$AAr@ 1003fd30     libucrt:lcidtoname_downlevel.obj
 0002:00004d38       ??_C@_15KNPADPLH@?$AAb?$AAg@ 1003fd38     libucrt:lcidtoname_downlevel.obj
 0002:00004d40       ??_C@_15EDMHLDMO@?$AAc?$AAa@ 1003fd40     libucrt:lcidtoname_downlevel.obj
 0002:00004d48       ??_C@_1O@BPEAJADD@?$AAz?$AAh?$AA?9?$AAC?$AAH?$AAS@ 1003fd48     libucrt:lcidtoname_downlevel.obj
 0002:00004d58       ??_C@_15LJNHCMNK@?$AAc?$AAs@ 1003fd58     libucrt:lcidtoname_downlevel.obj
 0002:00004d60       ??_C@_15FOMCIDHG@?$AAd?$AAa@ 1003fd60     libucrt:lcidtoname_downlevel.obj
 0002:00004d68       ??_C@_15NBKABECB@?$AAd?$AAe@ 1003fd68     libucrt:lcidtoname_downlevel.obj
 0002:00004d70       ??_C@_15GHPEIIAO@?$AAe?$AAl@ 1003fd70     libucrt:lcidtoname_downlevel.obj
 0002:00004d78       ??_C@_15MNPNEAIF@?$AAe?$AAn@ 1003fd78     libucrt:lcidtoname_downlevel.obj
 0002:00004d80       ??_C@_15GPIOMPMH@?$AAe?$AAs@ 1003fd80     libucrt:lcidtoname_downlevel.obj
 0002:00004d88       ??_C@_15NGLOAKJC@?$AAf?$AAi@ 1003fd88     libucrt:lcidtoname_downlevel.obj
 0002:00004d90       ??_C@_15FBKGNKAM@?$AAf?$AAr@ 1003fd90     libucrt:lcidtoname_downlevel.obj
 0002:00004d98       ??_C@_15KGGCNEFK@?$AAh?$AAe@ 1003fd98     libucrt:lcidtoname_downlevel.obj
 0002:00004da0       ??_C@_15PGHLIDMF@?$AAh?$AAu@ 1003fda0     libucrt:lcidtoname_downlevel.obj
 0002:00004da8       ??_C@_15BIEMAPLM@?$AAi?$AAs@ 1003fda8     libucrt:lcidtoname_downlevel.obj
 0002:00004db0       ??_C@_15IFJLDHAF@?$AAi?$AAt@ 1003fdb0     libucrt:lcidtoname_downlevel.obj
 0002:00004db8       ??_C@_15GEMIOCAG@?$AAj?$AAa@ 1003fdb8     libucrt:lcidtoname_downlevel.obj
 0002:00004dc0       ??_C@_15EPELEGJA@?$AAk?$AAo@ 1003fdc0     libucrt:lcidtoname_downlevel.obj
 0002:00004dc8       ??_C@_15NDDHIMN@?$AAn?$AAl@ 1003fdc8     libucrt:lcidtoname_downlevel.obj
 0002:00004dd0       ??_C@_15BPIGNHCD@?$AAn?$AAo@ 1003fdd0     libucrt:lcidtoname_downlevel.obj
 0002:00004dd8       ??_C@_15DEOPBLCG@?$AAp?$AAl@ 1003fdd8     libucrt:lcidtoname_downlevel.obj
 0002:00004de0       ??_C@_15KBECGEFG@?$AAp?$AAt@ 1003fde0     libucrt:lcidtoname_downlevel.obj
 0002:00004de8       ??_C@_15GLJCBFMD@?$AAr?$AAo@ 1003fde8     libucrt:lcidtoname_downlevel.obj
 0002:00004df0       ??_C@_15FEDGKCDI@?$AAr?$AAu@ 1003fdf0     libucrt:lcidtoname_downlevel.obj
 0002:00004df8       ??_C@_15GLKMLLHM@?$AAh?$AAr@ 1003fdf8     libucrt:lcidtoname_downlevel.obj
 0002:00004e00       ??_C@_15CPKMFBDB@?$AAs?$AAk@ 1003fe00     libucrt:lcidtoname_downlevel.obj
 0002:00004e08       ??_C@_15BAAIOGMK@?$AAs?$AAq@ 1003fe08     libucrt:lcidtoname_downlevel.obj
 0002:00004e10       ??_C@_15INNPNOHD@?$AAs?$AAv@ 1003fe10     libucrt:lcidtoname_downlevel.obj
 0002:00004e18       ??_C@_15CABMMOGH@?$AAt?$AAh@ 1003fe18     libucrt:lcidtoname_downlevel.obj
 0002:00004e20       ??_C@_15BPLIHJJM@?$AAt?$AAr@ 1003fe20     libucrt:lcidtoname_downlevel.obj
 0002:00004e28       ??_C@_15NEOEKKDJ@?$AAu?$AAr@ 1003fe28     libucrt:lcidtoname_downlevel.obj
 0002:00004e30       ??_C@_15NFICGAJK@?$AAi?$AAd@ 1003fe30     libucrt:lcidtoname_downlevel.obj
 0002:00004e38       ??_C@_15PJPFLCCM@?$AAu?$AAk@ 1003fe38     libucrt:lcidtoname_downlevel.obj
 0002:00004e40       ??_C@_15HPJPHDM@?$AAb?$AAe@ 1003fe40     libucrt:lcidtoname_downlevel.obj
 0002:00004e48       ??_C@_15LCHLGJII@?$AAs?$AAl@ 1003fe48     libucrt:lcidtoname_downlevel.obj
 0002:00004e50       ??_C@_15PCFJPHHO@?$AAe?$AAt@ 1003fe50     libucrt:lcidtoname_downlevel.obj
 0002:00004e58       ??_C@_15HPFPGODN@?$AAl?$AAv@ 1003fe58     libucrt:lcidtoname_downlevel.obj
 0002:00004e60       ??_C@_15NFFGKGLG@?$AAl?$AAt@ 1003fe60     libucrt:lcidtoname_downlevel.obj
 0002:00004e68       ??_C@_15BDAKCCHN@?$AAf?$AAa@ 1003fe68     libucrt:lcidtoname_downlevel.obj
 0002:00004e70       ??_C@_15NFGIAIAJ@?$AAv?$AAi@ 1003fe70     libucrt:lcidtoname_downlevel.obj
 0002:00004e78       ??_C@_15LMKNDMHN@?$AAh?$AAy@ 1003fe78     libucrt:lcidtoname_downlevel.obj
 0002:00004e80       ??_C@_15IJBHMCFL@?$AAa?$AAz@ 1003fe80     libucrt:lcidtoname_downlevel.obj
 0002:00004e88       ??_C@_15EKOFJABL@?$AAe?$AAu@ 1003fe88     libucrt:lcidtoname_downlevel.obj
 0002:00004e90       ??_C@_15BGHADCNK@?$AAm?$AAk@ 1003fe90     libucrt:lcidtoname_downlevel.obj
 0002:00004e98       ??_C@_15JDNICKHM@?$AAa?$AAf@ 1003fe98     libucrt:lcidtoname_downlevel.obj
 0002:00004ea0       ??_C@_15KPJEDBKD@?$AAk?$AAa@ 1003fea0     libucrt:lcidtoname_downlevel.obj
 0002:00004ea8       ??_C@_15PDNFFFEO@?$AAf?$AAo@ 1003fea8     libucrt:lcidtoname_downlevel.obj
 0002:00004eb0       ??_C@_15OMLEGLOC@?$AAh?$AAi@ 1003feb0     libucrt:lcidtoname_downlevel.obj
 0002:00004eb8       ??_C@_15IDNNENKK@?$AAm?$AAs@ 1003feb8     libucrt:lcidtoname_downlevel.obj
 0002:00004ec0       ??_C@_15MACJNBMH@?$AAk?$AAk@ 1003fec0     libucrt:lcidtoname_downlevel.obj
 0002:00004ec8       ??_C@_15DKDJEOND@?$AAk?$AAy@ 1003fec8     libucrt:lcidtoname_downlevel.obj
 0002:00004ed0       ??_C@_15DFGDLJBG@?$AAs?$AAw@ 1003fed0     libucrt:lcidtoname_downlevel.obj
 0002:00004ed8       ??_C@_15BBFAICNG@?$AAu?$AAz@ 1003fed8     libucrt:lcidtoname_downlevel.obj
 0002:00004ee0       ??_C@_15DKNDCGEA@?$AAt?$AAt@ 1003fee0     libucrt:lcidtoname_downlevel.obj
 0002:00004ee8       ??_C@_15MGIFMDPL@?$AAp?$AAa@ 1003fee8     libucrt:lcidtoname_downlevel.obj
 0002:00004ef0       ??_C@_15HCNDBBA@?$AAg?$AAu@ 1003fef0     libucrt:lcidtoname_downlevel.obj
 0002:00004ef8       ??_C@_15FNBEIBON@?$AAt?$AAa@ 1003fef8     libucrt:lcidtoname_downlevel.obj
 0002:00004f00       ??_C@_15NCHGBGLK@?$AAt?$AAe@ 1003ff00     libucrt:lcidtoname_downlevel.obj
 0002:00004f08       ??_C@_15PHPHCBPF@?$AAk?$AAn@ 1003ff08     libucrt:lcidtoname_downlevel.obj
 0002:00004f10       ??_C@_15DLGBCKMP@?$AAm?$AAr@ 1003ff10     libucrt:lcidtoname_downlevel.obj
 0002:00004f18       ??_C@_15EABBLBFF@?$AAs?$AAa@ 1003ff18     libucrt:lcidtoname_downlevel.obj
 0002:00004f20       ??_C@_15CBKOMCOI@?$AAm?$AAn@ 1003ff20     libucrt:lcidtoname_downlevel.obj
 0002:00004f28       ??_C@_15CKDMCJAF@?$AAg?$AAl@ 1003ff28     libucrt:lcidtoname_downlevel.obj
 0002:00004f30       ??_C@_17CNJFBPG@?$AAk?$AAo?$AAk@ 1003ff30     libucrt:lcidtoname_downlevel.obj
 0002:00004f38       ??_C@_17FFBJICPL@?$AAs?$AAy?$AAr@ 1003ff38     libucrt:lcidtoname_downlevel.obj
 0002:00004f40       ??_C@_17KPNDCPAF@?$AAd?$AAi?$AAv@ 1003ff40     libucrt:lcidtoname_downlevel.obj
 0002:00004f48       ??_C@_11LOCGONAA@@         1003ff48     libucrt:lcidtoname_downlevel.obj
 0002:00004f4c       ??_C@_1M@OKAHONE@?$AAa?$AAr?$AA?9?$AAS?$AAA@ 1003ff4c     libucrt:lcidtoname_downlevel.obj
 0002:00004f58       ??_C@_1M@FFFIGIGK@?$AAb?$AAg?$AA?9?$AAB?$AAG@ 1003ff58     libucrt:lcidtoname_downlevel.obj
 0002:00004f64       ??_C@_1M@BJNKEDC@?$AAc?$AAa?$AA?9?$AAE?$AAS@ 1003ff64     libucrt:lcidtoname_downlevel.obj
 0002:00004f70       ??_C@_1M@IJJHFJHA@?$AAc?$AAs?$AA?9?$AAC?$AAZ@ 1003ff70     libucrt:lcidtoname_downlevel.obj
 0002:00004f7c       ??_C@_1M@CLPEOBGI@?$AAd?$AAa?$AA?9?$AAD?$AAK@ 1003ff7c     libucrt:lcidtoname_downlevel.obj
 0002:00004f88       ??_C@_1M@MCMADGCB@?$AAd?$AAe?$AA?9?$AAD?$AAE@ 1003ff88     libucrt:lcidtoname_downlevel.obj
 0002:00004f94       ??_C@_1M@OOCKEMAM@?$AAe?$AAl?$AA?9?$AAG?$AAR@ 1003ff94     libucrt:lcidtoname_downlevel.obj
 0002:00004fa0       ??_C@_1M@DDNJFGID@?$AAf?$AAi?$AA?9?$AAF?$AAI@ 1003ffa0     libucrt:lcidtoname_downlevel.obj
 0002:00004fac       ??_C@_1M@GLIPPMAC@?$AAf?$AAr?$AA?9?$AAF?$AAR@ 1003ffac     libucrt:lcidtoname_downlevel.obj
 0002:00004fb8       ??_C@_1M@GFMCHPE@?$AAh?$AAe?$AA?9?$AAI?$AAL@ 1003ffb8     libucrt:lcidtoname_downlevel.obj
 0002:00004fc4       ??_C@_1M@MHLPGNKM@?$AAh?$AAu?$AA?9?$AAH?$AAU@ 1003ffc4     libucrt:lcidtoname_downlevel.obj
 0002:00004fd0       ??_C@_1M@LPDDNNPN@?$AAi?$AAs?$AA?9?$AAI?$AAS@ 1003ffd0     libucrt:lcidtoname_downlevel.obj
 0002:00004fdc       ??_C@_1M@MADIPODN@?$AAi?$AAt?$AA?9?$AAI?$AAT@ 1003ffdc     libucrt:lcidtoname_downlevel.obj
 0002:00004fe8       ??_C@_1M@IHBJJGG@?$AAn?$AAl?$AA?9?$AAN?$AAL@ 1003ffe8     libucrt:lcidtoname_downlevel.obj
 0002:00004ff4       ??_C@_1M@EANAGDL@?$AAn?$AAb?$AA?9?$AAN?$AAO@ 1003fff4     libucrt:lcidtoname_downlevel.obj
 0002:00005000       ??_C@_1M@NEIEMEGP@?$AAp?$AAl?$AA?9?$AAP?$AAL@ 10040000     libucrt:lcidtoname_downlevel.obj
 0002:0000500c       ??_C@_1M@BOCFIGEP@?$AAp?$AAt?$AA?9?$AAB?$AAR@ 1004000c     libucrt:lcidtoname_downlevel.obj
 0002:00005018       ??_C@_1M@IMPFOPBG@?$AAr?$AAo?$AA?9?$AAR?$AAO@ 10040018     libucrt:lcidtoname_downlevel.obj
 0002:00005024       ??_C@_1M@IDNNEJMM@?$AAr?$AAu?$AA?9?$AAR?$AAU@ 10040024     libucrt:lcidtoname_downlevel.obj
 0002:00005030       ??_C@_1M@LILEEOGM@?$AAh?$AAr?$AA?9?$AAH?$AAR@ 10040030     libucrt:lcidtoname_downlevel.obj
 0002:0000503c       ??_C@_1M@FKIFEHPB@?$AAs?$AAk?$AA?9?$AAS?$AAK@ 1004003c     libucrt:lcidtoname_downlevel.obj
 0002:00005048       ??_C@_1M@LJMAMNPJ@?$AAs?$AAq?$AA?9?$AAA?$AAL@ 10040048     libucrt:lcidtoname_downlevel.obj
 0002:00005054       ??_C@_1M@GIAKDKJK@?$AAs?$AAv?$AA?9?$AAS?$AAE@ 10040054     libucrt:lcidtoname_downlevel.obj
 0002:00005060       ??_C@_1M@MKJKIKCL@?$AAt?$AAh?$AA?9?$AAT?$AAH@ 10040060     libucrt:lcidtoname_downlevel.obj
 0002:0000506c       ??_C@_1M@MFLCCMPB@?$AAt?$AAr?$AA?9?$AAT?$AAR@ 1004006c     libucrt:lcidtoname_downlevel.obj
 0002:00005078       ??_C@_1M@OIJHDKJN@?$AAu?$AAr?$AA?9?$AAP?$AAK@ 10040078     libucrt:lcidtoname_downlevel.obj
 0002:00005084       ??_C@_1M@LHIPCIEK@?$AAi?$AAd?$AA?9?$AAI?$AAD@ 10040084     libucrt:lcidtoname_downlevel.obj
 0002:00005090       ??_C@_1M@MFMOBGI@?$AAu?$AAk?$AA?9?$AAU?$AAA@ 10040090     libucrt:lcidtoname_downlevel.obj
 0002:0000509c       ??_C@_1M@OBGLJIPL@?$AAb?$AAe?$AA?9?$AAB?$AAY@ 1004009c     libucrt:lcidtoname_downlevel.obj
 0002:000050a8       ??_C@_1M@BCFAJEAD@?$AAs?$AAl?$AA?9?$AAS?$AAI@ 100400a8     libucrt:lcidtoname_downlevel.obj
 0002:000050b4       ??_C@_1M@FKFFEDDN@?$AAe?$AAt?$AA?9?$AAE?$AAE@ 100400b4     libucrt:lcidtoname_downlevel.obj
 0002:000050c0       ??_C@_1M@KGKKAACI@?$AAl?$AAv?$AA?9?$AAL?$AAV@ 100400c0     libucrt:lcidtoname_downlevel.obj
 0002:000050cc       ??_C@_1M@IFGBIJO@?$AAl?$AAt?$AA?9?$AAL?$AAT@ 100400cc     libucrt:lcidtoname_downlevel.obj
 0002:000050d8       ??_C@_1M@FGEAHEDM@?$AAf?$AAa?$AA?9?$AAI?$AAR@ 100400d8     libucrt:lcidtoname_downlevel.obj
 0002:000050e4       ??_C@_1M@KBMAIBFN@?$AAv?$AAi?$AA?9?$AAV?$AAN@ 100400e4     libucrt:lcidtoname_downlevel.obj
 0002:000050f0       ??_C@_1M@GPCBKDJK@?$AAh?$AAy?$AA?9?$AAA?$AAM@ 100400f0     libucrt:lcidtoname_downlevel.obj
 0002:000050fc       ??_C@_1BG@BECMDDJB@?$AAa?$AAz?$AA?9?$AAA?$AAZ?$AA?9?$AAL?$AAa?$AAt?$AAn@ 100400fc     libucrt:lcidtoname_downlevel.obj
 0002:00005114       ??_C@_1M@MAOFCAEA@?$AAe?$AAu?$AA?9?$AAE?$AAS@ 10040114     libucrt:lcidtoname_downlevel.obj
 0002:00005120       ??_C@_1M@IGHABKPI@?$AAm?$AAk?$AA?9?$AAM?$AAK@ 10040120     libucrt:lcidtoname_downlevel.obj
 0002:0000512c       ??_C@_1M@IAIGNEJG@?$AAt?$AAn?$AA?9?$AAZ?$AAA@ 1004012c     libucrt:lcidtoname_downlevel.obj
 0002:00005138       ??_C@_1M@IIJCOJFA@?$AAx?$AAh?$AA?9?$AAZ?$AAA@ 10040138     libucrt:lcidtoname_downlevel.obj
 0002:00005144       ??_C@_1M@LGPJHNJH@?$AAz?$AAu?$AA?9?$AAZ?$AAA@ 10040144     libucrt:lcidtoname_downlevel.obj
 0002:00005150       ??_C@_1M@HOKAOIO@?$AAa?$AAf?$AA?9?$AAZ?$AAA@ 10040150     libucrt:lcidtoname_downlevel.obj
 0002:0000515c       ??_C@_1M@DPCLHLIE@?$AAk?$AAa?$AA?9?$AAG?$AAE@ 1004015c     libucrt:lcidtoname_downlevel.obj
 0002:00005168       ??_C@_1M@BLKMHJBI@?$AAf?$AAo?$AA?9?$AAF?$AAO@ 10040168     libucrt:lcidtoname_downlevel.obj
 0002:00005174       ??_C@_1M@LGGJAPPB@?$AAh?$AAi?$AA?9?$AAI?$AAN@ 10040174     libucrt:lcidtoname_downlevel.obj
 0002:00005180       ??_C@_1M@FIKPIHFE@?$AAm?$AAt?$AA?9?$AAM?$AAT@ 10040180     libucrt:lcidtoname_downlevel.obj
 0002:0000518c       ??_C@_1M@HEGGPBFA@?$AAs?$AAe?$AA?9?$AAN?$AAO@ 1004018c     libucrt:lcidtoname_downlevel.obj
 0002:00005198       ??_C@_1M@EIBJEEPA@?$AAm?$AAs?$AA?9?$AAM?$AAY@ 10040198     libucrt:lcidtoname_downlevel.obj
 0002:000051a4       ??_C@_1M@FHLBGMPP@?$AAk?$AAk?$AA?9?$AAK?$AAZ@ 100401a4     libucrt:lcidtoname_downlevel.obj
 0002:000051b0       ??_C@_1M@NGJJLCGI@?$AAk?$AAy?$AA?9?$AAK?$AAG@ 100401b0     libucrt:lcidtoname_downlevel.obj
 0002:000051bc       ??_C@_1M@GIENNBFC@?$AAs?$AAw?$AA?9?$AAK?$AAE@ 100401bc     libucrt:lcidtoname_downlevel.obj
 0002:000051c8       ??_C@_1BG@NDGMJIMJ@?$AAu?$AAz?$AA?9?$AAU?$AAZ?$AA?9?$AAL?$AAa?$AAt?$AAn@ 100401c8     libucrt:lcidtoname_downlevel.obj
 0002:000051e0       ??_C@_1M@IDCCIHBC@?$AAt?$AAt?$AA?9?$AAR?$AAU@ 100401e0     libucrt:lcidtoname_downlevel.obj
 0002:000051ec       ??_C@_1M@LOICPMOJ@?$AAb?$AAn?$AA?9?$AAI?$AAN@ 100401ec     libucrt:lcidtoname_downlevel.obj
 0002:000051f8       ??_C@_1M@KPKKNEAH@?$AAp?$AAa?$AA?9?$AAI?$AAN@ 100401f8     libucrt:lcidtoname_downlevel.obj
 0002:00005204       ??_C@_1M@PJGPPBOG@?$AAg?$AAu?$AA?9?$AAI?$AAN@ 10040204     libucrt:lcidtoname_downlevel.obj
 0002:00005210       ??_C@_1M@KMKMOPHI@?$AAt?$AAa?$AA?9?$AAI?$AAN@ 10040210     libucrt:lcidtoname_downlevel.obj
 0002:0000521c       ??_C@_1M@KFEHEPAC@?$AAt?$AAe?$AA?9?$AAI?$AAN@ 1004021c     libucrt:lcidtoname_downlevel.obj
 0002:00005228       ??_C@_1M@CDCLMGHI@?$AAk?$AAn?$AA?9?$AAI?$AAN@ 10040228     libucrt:lcidtoname_downlevel.obj
 0002:00005234       ??_C@_1M@MIODLDKF@?$AAm?$AAl?$AA?9?$AAI?$AAN@ 10040234     libucrt:lcidtoname_downlevel.obj
 0002:00005240       ??_C@_1M@PBIEACPO@?$AAm?$AAr?$AA?9?$AAI?$AAN@ 10040240     libucrt:lcidtoname_downlevel.obj
 0002:0000524c       ??_C@_1M@NIDEAGPH@?$AAs?$AAa?$AA?9?$AAI?$AAN@ 1004024c     libucrt:lcidtoname_downlevel.obj
 0002:00005258       ??_C@_1M@FHIHCBIO@?$AAm?$AAn?$AA?9?$AAM?$AAN@ 10040258     libucrt:lcidtoname_downlevel.obj
 0002:00005264       ??_C@_1M@JAIJPENP@?$AAc?$AAy?$AA?9?$AAG?$AAB@ 10040264     libucrt:lcidtoname_downlevel.obj
 0002:00005270       ??_C@_1M@PHGFBEPN@?$AAg?$AAl?$AA?9?$AAE?$AAS@ 10040270     libucrt:lcidtoname_downlevel.obj
 0002:0000527c       ??_C@_1O@KPIPDNCP@?$AAk?$AAo?$AAk?$AA?9?$AAI?$AAN@ 1004027c     libucrt:lcidtoname_downlevel.obj
 0002:0000528c       ??_C@_1O@KNHJLDJA@?$AAs?$AAy?$AAr?$AA?9?$AAS?$AAY@ 1004028c     libucrt:lcidtoname_downlevel.obj
 0002:0000529c       ??_C@_1O@MKEKBLAH@?$AAd?$AAi?$AAv?$AA?9?$AAM?$AAV@ 1004029c     libucrt:lcidtoname_downlevel.obj
 0002:000052ac       ??_C@_1O@OHDCKDDF@?$AAq?$AAu?$AAz?$AA?9?$AAB?$AAO@ 100402ac     libucrt:lcidtoname_downlevel.obj
 0002:000052bc       ??_C@_1M@LEPJNLFD@?$AAn?$AAs?$AA?9?$AAZ?$AAA@ 100402bc     libucrt:lcidtoname_downlevel.obj
 0002:000052c8       ??_C@_1M@OMLEIIJB@?$AAm?$AAi?$AA?9?$AAN?$AAZ@ 100402c8     libucrt:lcidtoname_downlevel.obj
 0002:000052d4       ??_C@_1M@PMPEAILG@?$AAa?$AAr?$AA?9?$AAI?$AAQ@ 100402d4     libucrt:lcidtoname_downlevel.obj
 0002:000052e0       ??_C@_1M@CNKPNOEE@?$AAd?$AAe?$AA?9?$AAC?$AAH@ 100402e0     libucrt:lcidtoname_downlevel.obj
 0002:000052ec       ??_C@_1M@LKMGMLKO@?$AAe?$AAn?$AA?9?$AAG?$AAB@ 100402ec     libucrt:lcidtoname_downlevel.obj
 0002:000052f8       ??_C@_1M@PGKJFFGL@?$AAe?$AAs?$AA?9?$AAM?$AAX@ 100402f8     libucrt:lcidtoname_downlevel.obj
 0002:00005304       ??_C@_1M@DNNANBDC@?$AAf?$AAr?$AA?9?$AAB?$AAE@ 10040304     libucrt:lcidtoname_downlevel.obj
 0002:00005310       ??_C@_1M@HLGMDFHM@?$AAi?$AAt?$AA?9?$AAC?$AAH@ 10040310     libucrt:lcidtoname_downlevel.obj
 0002:0000531c       ??_C@_1M@CLLBGJH@?$AAn?$AAl?$AA?9?$AAB?$AAE@ 1004031c     libucrt:lcidtoname_downlevel.obj
 0002:00005328       ??_C@_1M@BODBOGLF@?$AAn?$AAn?$AA?9?$AAN?$AAO@ 10040328     libucrt:lcidtoname_downlevel.obj
 0002:00005334       ??_C@_1M@HFFAHKAD@?$AAp?$AAt?$AA?9?$AAP?$AAT@ 10040334     libucrt:lcidtoname_downlevel.obj
 0002:00005340       ??_C@_1BG@LNOAKHIE@?$AAs?$AAr?$AA?9?$AAS?$AAP?$AA?9?$AAL?$AAa?$AAt?$AAn@ 10040340     libucrt:lcidtoname_downlevel.obj
 0002:00005358       ??_C@_1M@HBMHBGAK@?$AAs?$AAv?$AA?9?$AAF?$AAI@ 10040358     libucrt:lcidtoname_downlevel.obj
 0002:00005364       ??_C@_1BG@DGCJGJBE@?$AAa?$AAz?$AA?9?$AAA?$AAZ?$AA?9?$AAC?$AAy?$AAr?$AAl@ 10040364     libucrt:lcidtoname_downlevel.obj
 0002:0000537c       ??_C@_1M@KEJDAAHB@?$AAs?$AAe?$AA?9?$AAS?$AAE@ 1004037c     libucrt:lcidtoname_downlevel.obj
 0002:00005388       ??_C@_1M@HEIBJJAD@?$AAm?$AAs?$AA?9?$AAB?$AAN@ 10040388     libucrt:lcidtoname_downlevel.obj
 0002:00005394       ??_C@_1BG@PBGJMCEM@?$AAu?$AAz?$AA?9?$AAU?$AAZ?$AA?9?$AAC?$AAy?$AAr?$AAl@ 10040394     libucrt:lcidtoname_downlevel.obj
 0002:000053ac       ??_C@_1O@LAOBCMDF@?$AAq?$AAu?$AAz?$AA?9?$AAE?$AAC@ 100403ac     libucrt:lcidtoname_downlevel.obj
 0002:000053bc       ??_C@_1M@POEEMAIO@?$AAa?$AAr?$AA?9?$AAE?$AAG@ 100403bc     libucrt:lcidtoname_downlevel.obj
 0002:000053c8       ??_C@_1M@EFAKDEDL@?$AAz?$AAh?$AA?9?$AAH?$AAK@ 100403c8     libucrt:lcidtoname_downlevel.obj
 0002:000053d4       ??_C@_1M@HKKIJHGI@?$AAd?$AAe?$AA?9?$AAA?$AAT@ 100403d4     libucrt:lcidtoname_downlevel.obj
 0002:000053e0       ??_C@_1M@KBFBEHJF@?$AAe?$AAn?$AA?9?$AAA?$AAU@ 100403e0     libucrt:lcidtoname_downlevel.obj
 0002:000053ec       ??_C@_1M@MNPLFAAH@?$AAe?$AAs?$AA?9?$AAE?$AAS@ 100403ec     libucrt:lcidtoname_downlevel.obj
 0002:000053f8       ??_C@_1M@HJOOJFMA@?$AAf?$AAr?$AA?9?$AAC?$AAA@ 100403f8     libucrt:lcidtoname_downlevel.obj
 0002:00005404       ??_C@_1BG@JPOFPNAB@?$AAs?$AAr?$AA?9?$AAS?$AAP?$AA?9?$AAC?$AAy?$AAr?$AAl@ 10040404     libucrt:lcidtoname_downlevel.obj
 0002:0000541c       ??_C@_1M@LNFOCMOB@?$AAs?$AAe?$AA?9?$AAF?$AAI@ 1004041c     libucrt:lcidtoname_downlevel.obj
 0002:00005428       ??_C@_1O@MGJBOAMB@?$AAq?$AAu?$AAz?$AA?9?$AAP?$AAE@ 10040428     libucrt:lcidtoname_downlevel.obj
 0002:00005438       ??_C@_1M@GJINLBOK@?$AAa?$AAr?$AA?9?$AAL?$AAY@ 10040438     libucrt:lcidtoname_downlevel.obj
 0002:00005444       ??_C@_1M@GGMNHJNL@?$AAz?$AAh?$AA?9?$AAS?$AAG@ 10040444     libucrt:lcidtoname_downlevel.obj
 0002:00005450       ??_C@_1M@HOIKODND@?$AAd?$AAe?$AA?9?$AAL?$AAU@ 10040450     libucrt:lcidtoname_downlevel.obj
 0002:0000545c       ??_C@_1M@DDOCCGFG@?$AAe?$AAn?$AA?9?$AAC?$AAA@ 1004045c     libucrt:lcidtoname_downlevel.obj
 0002:00005468       ??_C@_1M@BNOEMJLF@?$AAe?$AAs?$AA?9?$AAG?$AAT@ 10040468     libucrt:lcidtoname_downlevel.obj
 0002:00005474       ??_C@_1M@EOGNKEK@?$AAf?$AAr?$AA?9?$AAC?$AAH@ 10040474     libucrt:lcidtoname_downlevel.obj
 0002:00005480       ??_C@_1M@FLIDJFHL@?$AAh?$AAr?$AA?9?$AAB?$AAA@ 10040480     libucrt:lcidtoname_downlevel.obj
 0002:0000548c       ??_C@_1O@FMCELNAJ@?$AAs?$AAm?$AAj?$AA?9?$AAN?$AAO@ 1004048c     libucrt:lcidtoname_downlevel.obj
 0002:0000549c       ??_C@_1M@JHGLJMGJ@?$AAa?$AAr?$AA?9?$AAD?$AAZ@ 1004049c     libucrt:lcidtoname_downlevel.obj
 0002:000054a8       ??_C@_1M@JKKFDCNP@?$AAz?$AAh?$AA?9?$AAM?$AAO@ 100404a8     libucrt:lcidtoname_downlevel.obj
 0002:000054b4       ??_C@_1M@GEEFALPE@?$AAd?$AAe?$AA?9?$AAL?$AAI@ 100404b4     libucrt:lcidtoname_downlevel.obj
 0002:000054c0       ??_C@_1M@IGEOFBG@?$AAe?$AAn?$AA?9?$AAN?$AAZ@ 100404c0     libucrt:lcidtoname_downlevel.obj
 0002:000054cc       ??_C@_1M@KDBONEHP@?$AAe?$AAs?$AA?9?$AAC?$AAR@ 100404cc     libucrt:lcidtoname_downlevel.obj
 0002:000054d8       ??_C@_1M@FHMDOHNN@?$AAf?$AAr?$AA?9?$AAL?$AAU@ 100404d8     libucrt:lcidtoname_downlevel.obj
 0002:000054e4       ??_C@_1BG@NFKKMAFG@?$AAb?$AAs?$AA?9?$AAB?$AAA?$AA?9?$AAL?$AAa?$AAt?$AAn@ 100404e4     libucrt:lcidtoname_downlevel.obj
 0002:000054fc       ??_C@_1O@IMNBEMCI@?$AAs?$AAm?$AAj?$AA?9?$AAS?$AAE@ 100404fc     libucrt:lcidtoname_downlevel.obj
 0002:0000550c       ??_C@_1M@DHHMBNDP@?$AAa?$AAr?$AA?9?$AAM?$AAA@ 1004050c     libucrt:lcidtoname_downlevel.obj
 0002:00005518       ??_C@_1M@BNBLJCGH@?$AAe?$AAn?$AA?9?$AAI?$AAE@ 10040518     libucrt:lcidtoname_downlevel.obj
 0002:00005524       ??_C@_1M@GEPAFMDL@?$AAe?$AAs?$AA?9?$AAP?$AAA@ 10040524     libucrt:lcidtoname_downlevel.obj
 0002:00005530       ??_C@_1M@OJONDMDL@?$AAf?$AAr?$AA?9?$AAM?$AAC@ 10040530     libucrt:lcidtoname_downlevel.obj
 0002:0000553c       ??_C@_1BG@OBCNFJB@?$AAs?$AAr?$AA?9?$AAB?$AAA?$AA?9?$AAL?$AAa?$AAt?$AAn@ 1004053c     libucrt:lcidtoname_downlevel.obj
 0002:00005554       ??_C@_1O@KEMEEGPO@?$AAs?$AAm?$AAa?$AA?9?$AAN?$AAO@ 10040554     libucrt:lcidtoname_downlevel.obj
 0002:00005564       ??_C@_1M@ELMGFODK@?$AAa?$AAr?$AA?9?$AAT?$AAN@ 10040564     libucrt:lcidtoname_downlevel.obj
 0002:00005570       ??_C@_1M@BHDLHFAF@?$AAe?$AAn?$AA?9?$AAZ?$AAA@ 10040570     libucrt:lcidtoname_downlevel.obj
 0002:0000557c       ??_C@_1M@BMGIGLIF@?$AAe?$AAs?$AA?9?$AAD?$AAO@ 1004057c     libucrt:lcidtoname_downlevel.obj
 0002:00005588       ??_C@_1BG@CMBHIPBE@?$AAs?$AAr?$AA?9?$AAB?$AAA?$AA?9?$AAC?$AAy?$AAr?$AAl@ 10040588     libucrt:lcidtoname_downlevel.obj
 0002:000055a0       ??_C@_1O@HEDBLHNP@?$AAs?$AAm?$AAa?$AA?9?$AAS?$AAE@ 100405a0     libucrt:lcidtoname_downlevel.obj
 0002:000055b0       ??_C@_1M@DAGCADIM@?$AAa?$AAr?$AA?9?$AAO?$AAM@ 100405b0     libucrt:lcidtoname_downlevel.obj
 0002:000055bc       ??_C@_1M@FODLMICG@?$AAe?$AAn?$AA?9?$AAJ?$AAM@ 100405bc     libucrt:lcidtoname_downlevel.obj
 0002:000055c8       ??_C@_1M@DNMLCIHB@?$AAe?$AAs?$AA?9?$AAV?$AAE@ 100405c8     libucrt:lcidtoname_downlevel.obj
 0002:000055d4       ??_C@_1O@EOKHMKJK@?$AAs?$AAm?$AAs?$AA?9?$AAF?$AAI@ 100405d4     libucrt:lcidtoname_downlevel.obj
 0002:000055e4       ??_C@_1M@CAFJMKOF@?$AAa?$AAr?$AA?9?$AAY?$AAE@ 100405e4     libucrt:lcidtoname_downlevel.obj
 0002:000055f0       ??_C@_1M@CBFHIJLI@?$AAe?$AAn?$AA?9?$AAC?$AAB@ 100405f0     libucrt:lcidtoname_downlevel.obj
 0002:000055fc       ??_C@_1M@BGNFLDN@?$AAe?$AAs?$AA?9?$AAC?$AAO@ 100405fc     libucrt:lcidtoname_downlevel.obj
 0002:00005608       ??_C@_1O@JMPHMAMC@?$AAs?$AAm?$AAn?$AA?9?$AAF?$AAI@ 10040608     libucrt:lcidtoname_downlevel.obj
 0002:00005618       ??_C@_1M@JLANABKE@?$AAa?$AAr?$AA?9?$AAS?$AAY@ 10040618     libucrt:lcidtoname_downlevel.obj
 0002:00005624       ??_C@_1M@HPKGCFGN@?$AAe?$AAn?$AA?9?$AAB?$AAZ@ 10040624     libucrt:lcidtoname_downlevel.obj
 0002:00005630       ??_C@_1M@OLJCMLGM@?$AAe?$AAs?$AA?9?$AAP?$AAE@ 10040630     libucrt:lcidtoname_downlevel.obj
 0002:0000563c       ??_C@_1M@MKKGFKLE@?$AAa?$AAr?$AA?9?$AAJ?$AAO@ 1004063c     libucrt:lcidtoname_downlevel.obj
 0002:00005648       ??_C@_1M@EKPGLDNI@?$AAe?$AAn?$AA?9?$AAT?$AAT@ 10040648     libucrt:lcidtoname_downlevel.obj
 0002:00005654       ??_C@_1M@OONGHFHE@?$AAe?$AAs?$AA?9?$AAA?$AAR@ 10040654     libucrt:lcidtoname_downlevel.obj
 0002:00005660       ??_C@_1M@OOJFGBHE@?$AAa?$AAr?$AA?9?$AAL?$AAB@ 10040660     libucrt:lcidtoname_downlevel.obj
 0002:0000566c       ??_C@_1M@GCEJHNEG@?$AAe?$AAn?$AA?9?$AAZ?$AAW@ 1004066c     libucrt:lcidtoname_downlevel.obj
 0002:00005678       ??_C@_1M@JNOCAHJI@?$AAe?$AAs?$AA?9?$AAE?$AAC@ 10040678     libucrt:lcidtoname_downlevel.obj
 0002:00005684       ??_C@_1M@JEFHPGGB@?$AAa?$AAr?$AA?9?$AAK?$AAW@ 10040684     libucrt:lcidtoname_downlevel.obj
 0002:00005690       ??_C@_1M@MLKIBJOJ@?$AAe?$AAn?$AA?9?$AAP?$AAH@ 10040690     libucrt:lcidtoname_downlevel.obj
 0002:0000569c       ??_C@_1M@BDNIPEND@?$AAe?$AAs?$AA?9?$AAC?$AAL@ 1004069c     libucrt:lcidtoname_downlevel.obj
 0002:000056a8       ??_C@_1M@MPNMEKBD@?$AAa?$AAr?$AA?9?$AAA?$AAE@ 100406a8     libucrt:lcidtoname_downlevel.obj
 0002:000056b4       ??_C@_1M@KBJALCPI@?$AAe?$AAs?$AA?9?$AAU?$AAY@ 100406b4     libucrt:lcidtoname_downlevel.obj
 0002:000056c0       ??_C@_1M@LLCCOAGA@?$AAa?$AAr?$AA?9?$AAB?$AAH@ 100406c0     libucrt:lcidtoname_downlevel.obj
 0002:000056cc       ??_C@_1M@PBFNCDEL@?$AAe?$AAs?$AA?9?$AAP?$AAY@ 100406cc     libucrt:lcidtoname_downlevel.obj
 0002:000056d8       ??_C@_1M@EDGINPNP@?$AAa?$AAr?$AA?9?$AAQ?$AAA@ 100406d8     libucrt:lcidtoname_downlevel.obj
 0002:000056e4       ??_C@_1M@MKDBIIJI@?$AAe?$AAs?$AA?9?$AAB?$AAO@ 100406e4     libucrt:lcidtoname_downlevel.obj
 0002:000056f0       ??_C@_1M@CPKKEBLD@?$AAe?$AAs?$AA?9?$AAS?$AAV@ 100406f0     libucrt:lcidtoname_downlevel.obj
 0002:000056fc       ??_C@_1M@NDBGMMJL@?$AAe?$AAs?$AA?9?$AAH?$AAN@ 100406fc     libucrt:lcidtoname_downlevel.obj
 0002:00005708       ??_C@_1M@JIJIBHDP@?$AAe?$AAs?$AA?9?$AAN?$AAI@ 10040708     libucrt:lcidtoname_downlevel.obj
 0002:00005714       ??_C@_1M@CGFMKEEK@?$AAe?$AAs?$AA?9?$AAP?$AAR@ 10040714     libucrt:lcidtoname_downlevel.obj
 0002:00005720       ??_C@_1O@ICJHKIIK@?$AAz?$AAh?$AA?9?$AAC?$AAH?$AAT@ 10040720     libucrt:lcidtoname_downlevel.obj
 0002:00005730       ??_C@_15CLNEJCE@?$AAs?$AAr@ 10040730     libucrt:lcidtoname_downlevel.obj
 0002:00005e58       ??_C@_1M@KAHEKEIG@?$AAa?$AAf?$AA?9?$AAz?$AAa@ 10040e58     libucrt:lcidtoname_downlevel.obj
 0002:00005e64       ??_C@_1M@GIECOABL@?$AAa?$AAr?$AA?9?$AAa?$AAe@ 10040e64     libucrt:lcidtoname_downlevel.obj
 0002:00005e70       ??_C@_1M@BMLMEKGI@?$AAa?$AAr?$AA?9?$AAb?$AAh@ 10040e70     libucrt:lcidtoname_downlevel.obj
 0002:00005e7c       ??_C@_1M@DAPFDGGB@?$AAa?$AAr?$AA?9?$AAd?$AAz@ 10040e7c     libucrt:lcidtoname_downlevel.obj
 0002:00005e88       ??_C@_1M@FJNKGKIG@?$AAa?$AAr?$AA?9?$AAe?$AAg@ 10040e88     libucrt:lcidtoname_downlevel.obj
 0002:00005e94       ??_C@_1M@FLGKKCLO@?$AAa?$AAr?$AA?9?$AAi?$AAq@ 10040e94     libucrt:lcidtoname_downlevel.obj
 0002:00005ea0       ??_C@_1M@GNDIPALM@?$AAa?$AAr?$AA?9?$AAj?$AAo@ 10040ea0     libucrt:lcidtoname_downlevel.obj
 0002:00005eac       ??_C@_1M@DDMJFMGJ@?$AAa?$AAr?$AA?9?$AAk?$AAw@ 10040eac     libucrt:lcidtoname_downlevel.obj
 0002:00005eb8       ??_C@_1M@EJALMLHM@?$AAa?$AAr?$AA?9?$AAl?$AAb@ 10040eb8     libucrt:lcidtoname_downlevel.obj
 0002:00005ec4       ??_C@_1M@MOBDBLOC@?$AAa?$AAr?$AA?9?$AAl?$AAy@ 10040ec4     libucrt:lcidtoname_downlevel.obj
 0002:00005ed0       ??_C@_1M@JAOCLHDH@?$AAa?$AAr?$AA?9?$AAm?$AAa@ 10040ed0     libucrt:lcidtoname_downlevel.obj
 0002:00005edc       ??_C@_1M@JHPMKJIE@?$AAa?$AAr?$AA?9?$AAo?$AAm@ 10040edc     libucrt:lcidtoname_downlevel.obj
 0002:00005ee8       ??_C@_1M@OEPGHFNH@?$AAa?$AAr?$AA?9?$AAq?$AAa@ 10040ee8     libucrt:lcidtoname_downlevel.obj
 0002:00005ef4       ??_C@_1M@KJDONENM@?$AAa?$AAr?$AA?9?$AAs?$AAa@ 10040ef4     libucrt:lcidtoname_downlevel.obj
 0002:00005f00       ??_C@_1M@DMJDKLKM@?$AAa?$AAr?$AA?9?$AAs?$AAy@ 10040f00     libucrt:lcidtoname_downlevel.obj
 0002:00005f0c       ??_C@_1M@OMFIPEDC@?$AAa?$AAr?$AA?9?$AAt?$AAn@ 10040f0c     libucrt:lcidtoname_downlevel.obj
 0002:00005f18       ??_C@_1M@IHMHGAON@?$AAa?$AAr?$AA?9?$AAy?$AAe@ 10040f18     libucrt:lcidtoname_downlevel.obj
 0002:00005f24       ??_C@_1BG@KDCPGJGB@?$AAa?$AAz?$AA?9?$AAa?$AAz?$AA?9?$AAc?$AAy?$AAr?$AAl@ 10040f24     libucrt:lcidtoname_downlevel.obj
 0002:00005f3c       ??_C@_1BG@IBCKDDOE@?$AAa?$AAz?$AA?9?$AAa?$AAz?$AA?9?$AAl?$AAa?$AAt?$AAn@ 10040f3c     libucrt:lcidtoname_downlevel.obj
 0002:00005f54       ??_C@_1M@EGPFDCPD@?$AAb?$AAe?$AA?9?$AAb?$AAy@ 10040f54     libucrt:lcidtoname_downlevel.obj
 0002:00005f60       ??_C@_1M@PCMGMCGC@?$AAb?$AAg?$AA?9?$AAb?$AAg@ 10040f60     libucrt:lcidtoname_downlevel.obj
 0002:00005f6c       ??_C@_1M@BJBMFGOB@?$AAb?$AAn?$AA?9?$AAi?$AAn@ 10040f6c     libucrt:lcidtoname_downlevel.obj
 0002:00005f78       ??_C@_1BG@EAKMMACD@?$AAb?$AAs?$AA?9?$AAb?$AAa?$AA?9?$AAl?$AAa?$AAt?$AAn@ 10040f78     libucrt:lcidtoname_downlevel.obj
 0002:00005f90       ??_C@_1M@KGADAODK@?$AAc?$AAa?$AA?9?$AAe?$AAs@ 10040f90     libucrt:lcidtoname_downlevel.obj
 0002:00005f9c       ??_C@_1M@COAJPDHI@?$AAc?$AAs?$AA?9?$AAc?$AAz@ 10040f9c     libucrt:lcidtoname_downlevel.obj
 0002:00005fa8       ??_C@_1M@DHBHFONH@?$AAc?$AAy?$AA?9?$AAg?$AAb@ 10040fa8     libucrt:lcidtoname_downlevel.obj
 0002:00005fb4       ??_C@_1M@IMGKELGA@?$AAd?$AAa?$AA?9?$AAd?$AAk@ 10040fb4     libucrt:lcidtoname_downlevel.obj
 0002:00005fc0       ??_C@_1M@NNDGDNGA@?$AAd?$AAe?$AA?9?$AAa?$AAt@ 10040fc0     libucrt:lcidtoname_downlevel.obj
 0002:00005fcc       ??_C@_1M@IKDBHEEM@?$AAd?$AAe?$AA?9?$AAc?$AAh@ 10040fcc     libucrt:lcidtoname_downlevel.obj
 0002:00005fd8       ??_C@_1M@GFFOJMCJ@?$AAd?$AAe?$AA?9?$AAd?$AAe@ 10040fd8     libucrt:lcidtoname_downlevel.obj
 0002:00005fe4       ??_C@_1M@MDNLKBPM@?$AAd?$AAe?$AA?9?$AAl?$AAi@ 10040fe4     libucrt:lcidtoname_downlevel.obj
 0002:00005ff0       ??_C@_1M@NJBEEJNL@?$AAd?$AAe?$AA?9?$AAl?$AAu@ 10040ff0     libucrt:lcidtoname_downlevel.obj
 0002:00005ffc       ??_C@_1O@GNNELBAP@?$AAd?$AAi?$AAv?$AA?9?$AAm?$AAv@ 10040ffc     libucrt:lcidtoname_downlevel.obj
 0002:0000600c       ??_C@_1M@EJLEOGAE@?$AAe?$AAl?$AA?9?$AAg?$AAr@ 1004100c     libucrt:lcidtoname_downlevel.obj
 0002:00006018       ??_C@_1M@GMPONJN@?$AAe?$AAn?$AA?9?$AAa?$AAu@ 10041018     libucrt:lcidtoname_downlevel.obj
 0002:00006024       ??_C@_1M@NIDIIPGF@?$AAe?$AAn?$AA?9?$AAb?$AAz@ 10041024     libucrt:lcidtoname_downlevel.obj
 0002:00006030       ??_C@_1M@JEHMIMFO@?$AAe?$AAn?$AA?9?$AAc?$AAa@ 10041030     libucrt:lcidtoname_downlevel.obj
 0002:0000603c       ??_C@_1M@IGMJCDLA@?$AAe?$AAn?$AA?9?$AAc?$AAb@ 1004103c     libucrt:lcidtoname_downlevel.obj
 0002:00006048       ??_C@_1M@BNFIGBKG@?$AAe?$AAn?$AA?9?$AAg?$AAb@ 10041048     libucrt:lcidtoname_downlevel.obj
 0002:00006054       ??_C@_1M@LKIFDIGP@?$AAe?$AAn?$AA?9?$AAi?$AAe@ 10041054     libucrt:lcidtoname_downlevel.obj
 0002:00006060       ??_C@_1M@PJKFGCCO@?$AAe?$AAn?$AA?9?$AAj?$AAm@ 10041060     libucrt:lcidtoname_downlevel.obj
 0002:0000606c       ??_C@_1M@KPPKEPBO@?$AAe?$AAn?$AA?9?$AAn?$AAz@ 1004106c     libucrt:lcidtoname_downlevel.obj
 0002:00006078       ??_C@_1M@GMDGLDOB@?$AAe?$AAn?$AA?9?$AAp?$AAh@ 10041078     libucrt:lcidtoname_downlevel.obj
 0002:00006084       ??_C@_1M@ONGIBJNA@?$AAe?$AAn?$AA?9?$AAt?$AAt@ 10041084     libucrt:lcidtoname_downlevel.obj
 0002:00006090       ??_C@_1M@LLODPCMM@?$AAe?$AAn?$AA?9?$AAu?$AAs@ 10041090     libucrt:lcidtoname_downlevel.obj
 0002:0000609c       ??_C@_1M@LAKFNPAN@?$AAe?$AAn?$AA?9?$AAz?$AAa@ 1004109c     libucrt:lcidtoname_downlevel.obj
 0002:000060a8       ??_C@_1M@MFNHNHEO@?$AAe?$AAn?$AA?9?$AAz?$AAw@ 100410a8     libucrt:lcidtoname_downlevel.obj
 0002:000060b4       ??_C@_1M@EJEINPHM@?$AAe?$AAs?$AA?9?$AAa?$AAr@ 100410b4     libucrt:lcidtoname_downlevel.obj
 0002:000060c0       ??_C@_1M@GNKPCCJA@?$AAe?$AAs?$AA?9?$AAb?$AAo@ 100410c0     libucrt:lcidtoname_downlevel.obj
 0002:000060cc       ??_C@_1M@LEEGFONL@?$AAe?$AAs?$AA?9?$AAc?$AAl@ 100410cc     libucrt:lcidtoname_downlevel.obj
 0002:000060d8       ??_C@_1M@KGPDPBDF@?$AAe?$AAs?$AA?9?$AAc?$AAo@ 100410d8     libucrt:lcidtoname_downlevel.obj
 0002:000060e4       ??_C@_1M@EIAHOHH@?$AAe?$AAs?$AA?9?$AAc?$AAr@ 100410e4     libucrt:lcidtoname_downlevel.obj
 0002:000060f0       ??_C@_1M@LLPGMBIN@?$AAe?$AAs?$AA?9?$AAd?$AAo@ 100410f0     libucrt:lcidtoname_downlevel.obj
 0002:000060fc       ??_C@_1M@DKHMKNJA@?$AAe?$AAs?$AA?9?$AAe?$AAc@ 100410fc     libucrt:lcidtoname_downlevel.obj
 0002:00006108       ??_C@_1M@GKGFPKAP@?$AAe?$AAs?$AA?9?$AAe?$AAs@ 10041108     libucrt:lcidtoname_downlevel.obj
 0002:00006114       ??_C@_1M@LKHKGDLN@?$AAe?$AAs?$AA?9?$AAg?$AAt@ 10041114     libucrt:lcidtoname_downlevel.obj
 0002:00006120       ??_C@_1M@HEIIGGJD@?$AAe?$AAs?$AA?9?$AAh?$AAn@ 10041120     libucrt:lcidtoname_downlevel.obj
 0002:0000612c       ??_C@_1M@FBDHPPGD@?$AAe?$AAs?$AA?9?$AAm?$AAx@ 1004112c     libucrt:lcidtoname_downlevel.obj
 0002:00006138       ??_C@_1M@DPAGLNDH@?$AAe?$AAs?$AA?9?$AAn?$AAi@ 10041138     libucrt:lcidtoname_downlevel.obj
 0002:00006144       ??_C@_1M@MDGOPGDD@?$AAe?$AAs?$AA?9?$AAp?$AAa@ 10041144     libucrt:lcidtoname_downlevel.obj
 0002:00006150       ??_C@_1M@EMAMGBGE@?$AAe?$AAs?$AA?9?$AAp?$AAe@ 10041150     libucrt:lcidtoname_downlevel.obj
 0002:0000615c       ??_C@_1M@IBMCAOEC@?$AAe?$AAs?$AA?9?$AAp?$AAr@ 1004115c     libucrt:lcidtoname_downlevel.obj
 0002:00006168       ??_C@_1M@FGMDIJED@?$AAe?$AAs?$AA?9?$AAp?$AAy@ 10041168     libucrt:lcidtoname_downlevel.obj
 0002:00006174       ??_C@_1M@IIDEOLLL@?$AAe?$AAs?$AA?9?$AAs?$AAv@ 10041174     libucrt:lcidtoname_downlevel.obj
 0002:00006180       ??_C@_1M@GAOBIPA@?$AAe?$AAs?$AA?9?$AAu?$AAy@ 10041180     libucrt:lcidtoname_downlevel.obj
 0002:0000618c       ??_C@_1M@JKFFICHJ@?$AAe?$AAs?$AA?9?$AAv?$AAe@ 1004118c     libucrt:lcidtoname_downlevel.obj
 0002:00006198       ??_C@_1M@PNMLOJDF@?$AAe?$AAt?$AA?9?$AAe?$AAe@ 10041198     libucrt:lcidtoname_downlevel.obj
 0002:000061a4       ??_C@_1M@GHHLIKEI@?$AAe?$AAu?$AA?9?$AAe?$AAs@ 100411a4     libucrt:lcidtoname_downlevel.obj
 0002:000061b0       ??_C@_1M@PBNONODE@?$AAf?$AAa?$AA?9?$AAi?$AAr@ 100411b0     libucrt:lcidtoname_downlevel.obj
 0002:000061bc       ??_C@_1M@JEEHPMIL@?$AAf?$AAi?$AA?9?$AAf?$AAi@ 100411bc     libucrt:lcidtoname_downlevel.obj
 0002:000061c8       ??_C@_1M@LMDCNDBA@?$AAf?$AAo?$AA?9?$AAf?$AAo@ 100411c8     libucrt:lcidtoname_downlevel.obj
 0002:000061d4       ??_C@_1M@JKEOHLDK@?$AAf?$AAr?$AA?9?$AAb?$AAe@ 100411d4     libucrt:lcidtoname_downlevel.obj
 0002:000061e0       ??_C@_1M@NOHADPMI@?$AAf?$AAr?$AA?9?$AAc?$AAa@ 100411e0     libucrt:lcidtoname_downlevel.obj
 0002:000061ec       ??_C@_1M@KDHIHAEC@?$AAf?$AAr?$AA?9?$AAc?$AAh@ 100411ec     libucrt:lcidtoname_downlevel.obj
 0002:000061f8       ??_C@_1M@MMBBFGAK@?$AAf?$AAr?$AA?9?$AAf?$AAr@ 100411f8     libucrt:lcidtoname_downlevel.obj
 0002:00006204       ??_C@_1M@PAFNENNF@?$AAf?$AAr?$AA?9?$AAl?$AAu@ 10041204     libucrt:lcidtoname_downlevel.obj
 0002:00006210       ??_C@_1M@EOHDJGDD@?$AAf?$AAr?$AA?9?$AAm?$AAc@ 10041210     libucrt:lcidtoname_downlevel.obj
 0002:0000621c       ??_C@_1M@FAPLLOPF@?$AAg?$AAl?$AA?9?$AAe?$AAs@ 1004121c     libucrt:lcidtoname_downlevel.obj
 0002:00006228       ??_C@_1M@FOPBFLOO@?$AAg?$AAu?$AA?9?$AAi?$AAn@ 10041228     libucrt:lcidtoname_downlevel.obj
 0002:00006234       ??_C@_1M@KBMCINPM@?$AAh?$AAe?$AA?9?$AAi?$AAl@ 10041234     libucrt:lcidtoname_downlevel.obj
 0002:00006240       ??_C@_1M@BBPHKFPJ@?$AAh?$AAi?$AA?9?$AAi?$AAn@ 10041240     libucrt:lcidtoname_downlevel.obj
 0002:0000624c       ??_C@_1M@PMBNDPHD@?$AAh?$AAr?$AA?9?$AAb?$AAa@ 1004124c     libucrt:lcidtoname_downlevel.obj
 0002:00006258       ??_C@_1M@BPCKOEGE@?$AAh?$AAr?$AA?9?$AAh?$AAr@ 10041258     libucrt:lcidtoname_downlevel.obj
 0002:00006264       ??_C@_1M@GACBMHKE@?$AAh?$AAu?$AA?9?$AAh?$AAu@ 10041264     libucrt:lcidtoname_downlevel.obj
 0002:00006270       ??_C@_1M@MILPAJJC@?$AAh?$AAy?$AA?9?$AAa?$AAm@ 10041270     libucrt:lcidtoname_downlevel.obj
 0002:0000627c       ??_C@_1M@BABBICEC@?$AAi?$AAd?$AA?9?$AAi?$AAd@ 1004127c     libucrt:lcidtoname_downlevel.obj
 0002:00006288       ??_C@_1M@BIKNHHPF@?$AAi?$AAs?$AA?9?$AAi?$AAs@ 10041288     libucrt:lcidtoname_downlevel.obj
 0002:00006294       ??_C@_1M@NMPCJPHE@?$AAi?$AAt?$AA?9?$AAc?$AAh@ 10041294     libucrt:lcidtoname_downlevel.obj
 0002:000062a0       ??_C@_1M@GHKGFEDF@?$AAi?$AAt?$AA?9?$AAi?$AAt@ 100412a0     libucrt:lcidtoname_downlevel.obj
 0002:000062ac       ??_C@_1M@NIEJCJJA@?$AAj?$AAa?$AA?9?$AAj?$AAp@ 100412ac     libucrt:lcidtoname_downlevel.obj
 0002:000062b8       ??_C@_1M@JILFNBIM@?$AAk?$AAa?$AA?9?$AAg?$AAe@ 100412b8     libucrt:lcidtoname_downlevel.obj
 0002:000062c4       ??_C@_1M@PACPMGPH@?$AAk?$AAk?$AA?9?$AAk?$AAz@ 100412c4     libucrt:lcidtoname_downlevel.obj
 0002:000062d0       ??_C@_1M@IELFGMHA@?$AAk?$AAn?$AA?9?$AAi?$AAn@ 100412d0     libucrt:lcidtoname_downlevel.obj
 0002:000062dc       ??_C@_1O@IBBJHCH@?$AAk?$AAo?$AAk?$AA?9?$AAi?$AAn@ 100412dc     libucrt:lcidtoname_downlevel.obj
 0002:000062ec       ??_C@_1M@DMHAEOGC@?$AAk?$AAo?$AA?9?$AAk?$AAr@ 100412ec     libucrt:lcidtoname_downlevel.obj
 0002:000062f8       ??_C@_1M@HBAHBIGA@?$AAk?$AAy?$AA?9?$AAk?$AAg@ 100412f8     libucrt:lcidtoname_downlevel.obj
 0002:00006304       ??_C@_1M@KPMILCJG@?$AAl?$AAt?$AA?9?$AAl?$AAt@ 10041304     libucrt:lcidtoname_downlevel.obj
 0002:00006310       ??_C@_1M@BDEKKCA@?$AAl?$AAv?$AA?9?$AAl?$AAv@ 10041310     libucrt:lcidtoname_downlevel.obj
 0002:0000631c       ??_C@_1M@ELCKCCJJ@?$AAm?$AAi?$AA?9?$AAn?$AAz@ 1004131c     libucrt:lcidtoname_downlevel.obj
 0002:00006328       ??_C@_1M@CBOOLAPA@?$AAm?$AAk?$AA?9?$AAm?$AAk@ 10041328     libucrt:lcidtoname_downlevel.obj
 0002:00006334       ??_C@_1M@GPHNBJKN@?$AAm?$AAl?$AA?9?$AAi?$AAn@ 10041334     libucrt:lcidtoname_downlevel.obj
 0002:00006340       ??_C@_1M@PABJILIG@?$AAm?$AAn?$AA?9?$AAm?$AAn@ 10041340     libucrt:lcidtoname_downlevel.obj
 0002:0000634c       ??_C@_1M@FGBKKIPG@?$AAm?$AAr?$AA?9?$AAi?$AAn@ 1004134c     libucrt:lcidtoname_downlevel.obj
 0002:00006358       ??_C@_1M@NDBPDDAL@?$AAm?$AAs?$AA?9?$AAb?$AAn@ 10041358     libucrt:lcidtoname_downlevel.obj
 0002:00006364       ??_C@_1M@OPIHOOPI@?$AAm?$AAs?$AA?9?$AAm?$AAy@ 10041364     libucrt:lcidtoname_downlevel.obj
 0002:00006370       ??_C@_1M@PPDBCNFM@?$AAm?$AAt?$AA?9?$AAm?$AAt@ 10041370     libucrt:lcidtoname_downlevel.obj
 0002:0000637c       ??_C@_1M@KDJDKMDD@?$AAn?$AAb?$AA?9?$AAn?$AAo@ 1004137c     libucrt:lcidtoname_downlevel.obj
 0002:00006388       ??_C@_1M@KFCFLMJP@?$AAn?$AAl?$AA?9?$AAb?$AAe@ 10041388     libucrt:lcidtoname_downlevel.obj
 0002:00006394       ??_C@_1M@KPOPDDGO@?$AAn?$AAl?$AA?9?$AAn?$AAl@ 10041394     libucrt:lcidtoname_downlevel.obj
 0002:000063a0       ??_C@_1M@LJKPEMLN@?$AAn?$AAn?$AA?9?$AAn?$AAo@ 100413a0     libucrt:lcidtoname_downlevel.obj
 0002:000063ac       ??_C@_1M@BDGHHBFL@?$AAn?$AAs?$AA?9?$AAz?$AAa@ 100413ac     libucrt:lcidtoname_downlevel.obj
 0002:000063b8       ??_C@_1M@IDEHOAP@?$AAp?$AAa?$AA?9?$AAi?$AAn@ 100413b8     libucrt:lcidtoname_downlevel.obj
 0002:000063c4       ??_C@_1M@HDBKGOGH@?$AAp?$AAl?$AA?9?$AAp?$AAl@ 100413c4     libucrt:lcidtoname_downlevel.obj
 0002:000063d0       ??_C@_1M@LJLLCMEH@?$AAp?$AAt?$AA?9?$AAb?$AAr@ 100413d0     libucrt:lcidtoname_downlevel.obj
 0002:000063dc       ??_C@_1M@NCMONAAL@?$AAp?$AAt?$AA?9?$AAp?$AAt@ 100413dc     libucrt:lcidtoname_downlevel.obj
 0002:000063e8       ??_C@_1O@EAKMAJDN@?$AAq?$AAu?$AAz?$AA?9?$AAb?$AAo@ 100413e8     libucrt:lcidtoname_downlevel.obj
 0002:000063f8       ??_C@_1O@BHHPIGDN@?$AAq?$AAu?$AAz?$AA?9?$AAe?$AAc@ 100413f8     libucrt:lcidtoname_downlevel.obj
 0002:00006408       ??_C@_1O@GBAPEKMJ@?$AAq?$AAu?$AAz?$AA?9?$AAp?$AAe@ 10041408     libucrt:lcidtoname_downlevel.obj
 0002:00006418       ??_C@_1M@CLGLEFBO@?$AAr?$AAo?$AA?9?$AAr?$AAo@ 10041418     libucrt:lcidtoname_downlevel.obj
 0002:00006424       ??_C@_1M@CEEDODME@?$AAr?$AAu?$AA?9?$AAr?$AAu@ 10041424     libucrt:lcidtoname_downlevel.obj
 0002:00006430       ??_C@_1M@HPKKKMPP@?$AAs?$AAa?$AA?9?$AAi?$AAn@ 10041430     libucrt:lcidtoname_downlevel.obj
 0002:0000643c       ??_C@_1M@BKMAIGOJ@?$AAs?$AAe?$AA?9?$AAf?$AAi@ 1004143c     libucrt:lcidtoname_downlevel.obj
 0002:00006448       ??_C@_1M@NDPIFLFI@?$AAs?$AAe?$AA?9?$AAn?$AAo@ 10041448     libucrt:lcidtoname_downlevel.obj
 0002:00006454       ??_C@_1M@DANKKHJ@?$AAs?$AAe?$AA?9?$AAs?$AAe@ 10041454     libucrt:lcidtoname_downlevel.obj
 0002:00006460       ??_C@_1M@PNBLONPJ@?$AAs?$AAk?$AA?9?$AAs?$AAk@ 10041460     libucrt:lcidtoname_downlevel.obj
 0002:0000646c       ??_C@_1M@LFMODOAL@?$AAs?$AAl?$AA?9?$AAs?$AAi@ 1004146c     libucrt:lcidtoname_downlevel.obj
 0002:00006478       ??_C@_1O@DFKOMPG@?$AAs?$AAm?$AAa?$AA?9?$AAn?$AAo@ 10041478     libucrt:lcidtoname_downlevel.obj
 0002:00006488       ??_C@_1O@NDKPBNNH@?$AAs?$AAm?$AAa?$AA?9?$AAs?$AAe@ 10041488     libucrt:lcidtoname_downlevel.obj
 0002:00006498       ??_C@_1O@PLLKBHAB@?$AAs?$AAm?$AAj?$AA?9?$AAn?$AAo@ 10041498     libucrt:lcidtoname_downlevel.obj
 0002:000064a8       ??_C@_1O@CLEPOGCA@?$AAs?$AAm?$AAj?$AA?9?$AAs?$AAe@ 100414a8     libucrt:lcidtoname_downlevel.obj
 0002:000064b8       ??_C@_1O@DLGJGKMK@?$AAs?$AAm?$AAn?$AA?9?$AAf?$AAi@ 100414b8     libucrt:lcidtoname_downlevel.obj
 0002:000064c8       ??_C@_1O@OJDJGAJC@?$AAs?$AAm?$AAs?$AA?9?$AAf?$AAi@ 100414c8     libucrt:lcidtoname_downlevel.obj
 0002:000064d8       ??_C@_1M@BOFOGHPB@?$AAs?$AAq?$AA?9?$AAa?$AAl@ 100414d8     libucrt:lcidtoname_downlevel.obj
 0002:000064e4       ??_C@_1BG@LJBBIPGB@?$AAs?$AAr?$AA?9?$AAb?$AAa?$AA?9?$AAc?$AAy?$AAr?$AAl@ 100414e4     libucrt:lcidtoname_downlevel.obj
 0002:000064fc       ??_C@_1BG@JLBENFOE@?$AAs?$AAr?$AA?9?$AAb?$AAa?$AA?9?$AAl?$AAa?$AAt?$AAn@ 100414fc     libucrt:lcidtoname_downlevel.obj
 0002:00006514       ??_C@_1BG@KODPNHE@?$AAs?$AAr?$AA?9?$AAs?$AAp?$AA?9?$AAc?$AAy?$AAr?$AAl@ 10041514     libucrt:lcidtoname_downlevel.obj
 0002:0000652c       ??_C@_1BG@CIOGKHPB@?$AAs?$AAr?$AA?9?$AAs?$AAp?$AA?9?$AAl?$AAa?$AAt?$AAn@ 1004152c     libucrt:lcidtoname_downlevel.obj
 0002:00006544       ??_C@_1M@NGFJLMAC@?$AAs?$AAv?$AA?9?$AAf?$AAi@ 10041544     libucrt:lcidtoname_downlevel.obj
 0002:00006550       ??_C@_1M@MPJEJAJC@?$AAs?$AAv?$AA?9?$AAs?$AAe@ 10041550     libucrt:lcidtoname_downlevel.obj
 0002:0000655c       ??_C@_1M@MPNDHLFK@?$AAs?$AAw?$AA?9?$AAk?$AAe@ 1004155c     libucrt:lcidtoname_downlevel.obj
 0002:00006568       ??_C@_1O@KOHBJJI@?$AAs?$AAy?$AAr?$AA?9?$AAs?$AAy@ 10041568     libucrt:lcidtoname_downlevel.obj
 0002:00006578       ??_C@_1M@LDCEFHA@?$AAt?$AAa?$AA?9?$AAi?$AAn@ 10041578     libucrt:lcidtoname_downlevel.obj
 0002:00006584       ??_C@_1M@CNJOFAK@?$AAt?$AAe?$AA?9?$AAi?$AAn@ 10041584     libucrt:lcidtoname_downlevel.obj
 0002:00006590       ??_C@_1M@GNAECACD@?$AAt?$AAh?$AA?9?$AAt?$AAh@ 10041590     libucrt:lcidtoname_downlevel.obj
 0002:0000659c       ??_C@_1M@CHBIHOJO@?$AAt?$AAn?$AA?9?$AAz?$AAa@ 1004159c     libucrt:lcidtoname_downlevel.obj
 0002:000065a8       ??_C@_1M@GCCMIGPJ@?$AAt?$AAr?$AA?9?$AAt?$AAr@ 100415a8     libucrt:lcidtoname_downlevel.obj
 0002:000065b4       ??_C@_1M@CELMCNBK@?$AAt?$AAt?$AA?9?$AAr?$AAu@ 100415b4     libucrt:lcidtoname_downlevel.obj
 0002:000065c0       ??_C@_1M@KLMCELGA@?$AAu?$AAk?$AA?9?$AAu?$AAa@ 100415c0     libucrt:lcidtoname_downlevel.obj
 0002:000065cc       ??_C@_1M@EPAJJAJF@?$AAu?$AAr?$AA?9?$AAp?$AAk@ 100415cc     libucrt:lcidtoname_downlevel.obj
 0002:000065d8       ??_C@_1BG@GEGPMCDJ@?$AAu?$AAz?$AA?9?$AAu?$AAz?$AA?9?$AAc?$AAy?$AAr?$AAl@ 100415d8     libucrt:lcidtoname_downlevel.obj
 0002:000065f0       ??_C@_1BG@EGGKJILM@?$AAu?$AAz?$AA?9?$AAu?$AAz?$AA?9?$AAl?$AAa?$AAt?$AAn@ 100415f0     libucrt:lcidtoname_downlevel.obj
 0002:00006608       ??_C@_1M@GFOCLFF@?$AAv?$AAi?$AA?9?$AAv?$AAn@ 10041608     libucrt:lcidtoname_downlevel.obj
 0002:00006614       ??_C@_1M@CPAMEDFI@?$AAx?$AAh?$AA?9?$AAz?$AAa@ 10041614     libucrt:lcidtoname_downlevel.obj
 0002:00006620       ??_C@_1O@EBKIFIGN@?$AAz?$AAh?$AA?9?$AAc?$AAh?$AAs@ 10041620     libucrt:lcidtoname_downlevel.obj
 0002:00006630       ??_C@_1O@NMHPGANE@?$AAz?$AAh?$AA?9?$AAc?$AAh?$AAt@ 10041630     libucrt:lcidtoname_downlevel.obj
 0002:00006640       ??_C@_1M@LPINJOMC@?$AAz?$AAh?$AA?9?$AAc?$AAn@ 10041640     libucrt:lcidtoname_downlevel.obj
 0002:0000664c       ??_C@_1M@OCJEJODD@?$AAz?$AAh?$AA?9?$AAh?$AAk@ 1004164c     libucrt:lcidtoname_downlevel.obj
 0002:00006658       ??_C@_1M@DNDLJINH@?$AAz?$AAh?$AA?9?$AAm?$AAo@ 10041658     libucrt:lcidtoname_downlevel.obj
 0002:00006664       ??_C@_1M@MBFDNDND@?$AAz?$AAh?$AA?9?$AAs?$AAg@ 10041664     libucrt:lcidtoname_downlevel.obj
 0002:00006670       ??_C@_1M@IMEPLEPE@?$AAz?$AAh?$AA?9?$AAt?$AAw@ 10041670     libucrt:lcidtoname_downlevel.obj
 0002:0000667c       ??_C@_1M@BBGHNHJP@?$AAz?$AAu?$AA?9?$AAz?$AAa@ 1004167c     libucrt:lcidtoname_downlevel.obj
 0002:00006688       ?large_power_data@?1??multiply_by_power_of_ten@__crt_strtox@@YA_NAAUbig_integer@2@I@Z@4QBIB 10041688     libucrt:cfout.obj
 0002:00006f90       ?large_power_indices@?1??multiply_by_power_of_ten@__crt_strtox@@YA_NAAUbig_integer@2@I@Z@4QBUunpack_index@?1??12@YA_N0I@Z@B 10041f90     libucrt:cfout.obj
 0002:00007028       ?small_powers_of_ten@?1??multiply_by_power_of_ten@__crt_strtox@@YA_NAAUbig_integer@2@I@Z@4QBIB 10042028     libucrt:cfout.obj
 0002:0000704c       ??_C@_01GBGANLPD@0@        1004204c     libucrt:cfout.obj
 0002:00007050       ??_C@_05DNEBIAHO@1?$CDINF@ 10042050     libucrt:cfout.obj
 0002:00007058       ??_C@_06IMKFLFPG@1?$CDQNAN@ 10042058     libucrt:cfout.obj
 0002:00007060       ??_C@_06PGGFOGJG@1?$CDSNAN@ 10042060     libucrt:cfout.obj
 0002:00007068       ??_C@_05PHHOCPM@1?$CDIND@  10042068     libucrt:cfout.obj
 0002:00007070       __indefinite               10042070     libucrt:87disp.obj
 0002:0000707a       __piby2                    1004207a     libucrt:87disp.obj
 0002:00007084       __piby4                    10042084     libucrt:87disp.obj
 0002:000070b8       __DEFAULT_CW_in_mem        100420b8     libucrt:common.obj
 0002:000070ba       __pi_by_2_to_61            100420ba     libucrt:common.obj
 0002:00007100       ___acrt_cos_sin_ctable     10042100     libucrt:cos_sin_ctable.obj
 0002:00007958       ??_C@_1BA@BALFACEM@?$AAC?$AAO?$AAN?$AAO?$AAU?$AAT?$AA$@ 10042958     libucrt:initcon.obj
 0002:00007a70       __infinity                 10042a70     libucrt:87tran.obj
 0002:00007a7a       __minfinity                10042a7a     libucrt:87tran.obj
 0002:00007a84       __logemax                  10042a84     libucrt:87tran.obj
 0002:00007aaa       __OP_EXPjmptab             10042aaa     libucrt:87tran.obj
 0002:00007ad0       ___acrt_log10_table_t      10042ad0     libucrt:log10_tables.obj
 0002:00007ee0       ___acrt_log10_table_cb     10042ee0     libucrt:log10_tables.obj
 0002:00008380       ??_R4type_info@@6B@        10043380     LIBCMT:std_type_info_static.obj
 0002:00008394       ??_R3type_info@@8          10043394     LIBCMT:std_type_info_static.obj
 0002:000083a4       ??_R2type_info@@8          100433a4     LIBCMT:std_type_info_static.obj
 0002:000083ac       ??_R1A@?0A@EA@type_info@@8 100433ac     LIBCMT:std_type_info_static.obj
 0002:000083c8       ??_R3DNameNode@@8          100433c8     libvcruntime:undname.obj
 0002:000083d8       ??_R2DNameNode@@8          100433d8     libvcruntime:undname.obj
 0002:000083e0       ??_R1A@?0A@EA@DNameNode@@8 100433e0     libvcruntime:undname.obj
 0002:000083fc       ??_R4charNode@@6B@         100433fc     libvcruntime:undname.obj
 0002:00008410       ??_R3charNode@@8           10043410     libvcruntime:undname.obj
 0002:00008420       ??_R2charNode@@8           10043420     libvcruntime:undname.obj
 0002:0000842c       ??_R1A@?0A@EA@charNode@@8  1004342c     libvcruntime:undname.obj
 0002:00008448       ??_R4pcharNode@@6B@        10043448     libvcruntime:undname.obj
 0002:0000845c       ??_R3pcharNode@@8          1004345c     libvcruntime:undname.obj
 0002:0000846c       ??_R2pcharNode@@8          1004346c     libvcruntime:undname.obj
 0002:00008478       ??_R1A@?0A@EA@pcharNode@@8 10043478     libvcruntime:undname.obj
 0002:00008494       ??_R4pDNameNode@@6B@       10043494     libvcruntime:undname.obj
 0002:000084a8       ??_R3pDNameNode@@8         100434a8     libvcruntime:undname.obj
 0002:000084b8       ??_R2pDNameNode@@8         100434b8     libvcruntime:undname.obj
 0002:000084c4       ??_R1A@?0A@EA@pDNameNode@@8 100434c4     libvcruntime:undname.obj
 0002:000084e0       ??_R4DNameStatusNode@@6B@  100434e0     libvcruntime:undname.obj
 0002:000084f4       ??_R3DNameStatusNode@@8    100434f4     libvcruntime:undname.obj
 0002:00008504       ??_R2DNameStatusNode@@8    10043504     libvcruntime:undname.obj
 0002:00008510       ??_R1A@?0A@EA@DNameStatusNode@@8 10043510     libvcruntime:undname.obj
 0002:0000852c       ??_R4pairNode@@6B@         1004352c     libvcruntime:undname.obj
 0002:00008540       ??_R3pairNode@@8           10043540     libvcruntime:undname.obj
 0002:00008550       ??_R2pairNode@@8           10043550     libvcruntime:undname.obj
 0002:0000855c       ??_R1A@?0A@EA@pairNode@@8  1004355c     libvcruntime:undname.obj
 0002:00008578       ??_R4exception@std@@6B@    10043578     libvcruntime:frame.obj
 0002:0000858c       ??_R3exception@std@@8      1004358c     libvcruntime:frame.obj
 0002:0000859c       ??_R2exception@std@@8      1004359c     libvcruntime:frame.obj
 0002:000085a4       ??_R1A@?0A@EA@exception@std@@8 100435a4     libvcruntime:frame.obj
 0002:000085c0       ??_R4bad_exception@std@@6B@ 100435c0     libvcruntime:frame.obj
 0002:000085d4       ??_R3bad_exception@std@@8  100435d4     libvcruntime:frame.obj
 0002:000085e4       ??_R2bad_exception@std@@8  100435e4     libvcruntime:frame.obj
 0002:000085f0       ??_R1A@?0A@EA@bad_exception@std@@8 100435f0     libvcruntime:frame.obj
 0002:0000860c       ___safe_se_handler_table   1004360c     <linker-defined>
 0002:00008638       ___volatile_metadata       10043638     <linker-defined>
 0002:00008b38       ___rtc_iaa                 10043b38     LIBCMT:initsect.obj
 0002:00008b3c       ___rtc_izz                 10043b3c     LIBCMT:initsect.obj
 0002:00008b40       ___rtc_taa                 10043b40     LIBCMT:initsect.obj
 0002:00008b44       ___rtc_tzz                 10043b44     LIBCMT:initsect.obj
 0002:00008d1c       __TI2?AVbad_exception@std@@ 10043d1c     libvcruntime:frame.obj
 0002:00008d2c       __CTA2?AVbad_exception@std@@ 10043d2c     libvcruntime:frame.obj
 0002:00008d38       __CT??_R0?AVbad_exception@std@@@8??0bad_exception@std@@QAE@ABV01@@Z12 10043d38     libvcruntime:frame.obj
 0002:00008d54       __CT??_R0?AVexception@std@@@8??0exception@std@@QAE@ABV01@@Z12 10043d54     libvcruntime:frame.obj
 0002:0000915c       __DELAY_IMPORT_DESCRIPTOR_physxcommon_32_dll 1004415c     PhysXCommon_32:PhysXCommon_32.dll
 0002:0000917c       __DELAY_IMPORT_DESCRIPTOR_physxfoundation_32_dll 1004417c     PhysXFoundation_32:PhysXFoundation_32.dll
 0002:0000919c       __NULL_DELAY_IMPORT_DESCRIPTOR 1004419c     PhysXCommon_32:PhysXCommon_32.dll
 0002:0000924c       \177PhysXCommon_32_NULL_THUNK_DATA_DLN 1004424c     PhysXCommon_32:PhysXCommon_32.dll
 0002:0000927c       \177PhysXFoundation_32_NULL_THUNK_DATA_DLN 1004427c     PhysXFoundation_32:PhysXFoundation_32.dll
 0002:00009b88       \177PhysXCommon_32_NULL_THUNK_DATA_DLB 10044b88     PhysXCommon_32:PhysXCommon_32.dll
 0002:00009c1c       \177PhysXFoundation_32_NULL_THUNK_DATA_DLB 10044c1c     PhysXFoundation_32:PhysXFoundation_32.dll
 0002:0000b888       __IMPORT_DESCRIPTOR_KERNEL32 10046888     kernel32:KERNEL32.dll
 0002:0000b89c       __NULL_IMPORT_DESCRIPTOR   1004689c     kernel32:KERNEL32.dll
 0003:00000008       ___pfnDliNotifyHook2       10047008     WindowsCookingDelayLoadHook.obj
 0003:0000000c       __fltused                  1004700c     LIBCMT:fltused.obj
 0003:00000010       ___isa_enabled             10047010     LIBCMT:cpu_disp.obj
 0003:00000020       ___scrt_native_dllmain_reason 10047020     LIBCMT:utility.obj
 0003:00000030       ___security_cookie_complement 10047030     LIBCMT:gs_cookie.obj
 0003:00000034       ___security_cookie         10047034     LIBCMT:gs_cookie.obj
 0003:00000060       __NLG_Destination          10047060     libvcruntime:exsup.obj
 0003:00000070       ___abort_behavior          10047070     libucrt:abort.obj
 0003:00000090       ___acrt_initial_multibyte_data 10047090     libucrt:mbctype.obj
 0003:000005b0       ___acrt_initial_locale_data 100475b0     libucrt:nlsdata.obj
 0003:00000668       ___acrt_initial_locale_pointers 10047668     libucrt:nlsdata.obj
 0003:00000670       ___acrt_wide_c_locale_string 10047670     libucrt:nlsdata.obj
 0003:00000678       __iob                      10047678     libucrt:_file.obj
 0003:00000720       ___globallocalestatus      10047720     libucrt:glstatus.obj
 0003:00000728       ___acrt_lconv_c            10047728     libucrt:localeconv.obj
 0003:00000778       ___acrt_lconv_static_decimal 10047778     libucrt:localeconv.obj
 0003:0000077c       ___acrt_lconv_static_W_decimal 1004777c     libucrt:localeconv.obj
 0003:00000780       __lookuptrailbytes         10047780     libucrt:read.obj
 0003:00000890       ??_R0?AVAdjEdge@@@8        10047890     Adjacencies.obj
 0003:000008a8       ??_R0I@8                   100478a8     Adjacencies.obj
 0003:000008b4       ??_R0?AVAdjTriangle@physx@@@8 100478b4     Adjacencies.obj
 0003:000008d4       ??_R0?AVCooking@physx@@@8  100478d4     Cooking.obj
 0003:000008f0       ??_R0?AVHeightField@Gu@physx@@@8 100478f0     Cooking.obj
 0003:00000914       ??_R0?AVQuickHullConvexHullLib@physx@@@8 10047914     Cooking.obj
 0003:00000940       ??_R0?AUPxDebugLine@physx@@@8 10047940     Cooking.obj
 0003:00000960       ??_R0M@8                   10047960     CookingUtils.obj
 0003:0000096c       ??_R0?AUEdgeData@Gu@physx@@@8 1004796c     EdgeList.obj
 0003:0000098c       ??_R0?AUEdgeTriangleData@Gu@physx@@@8 1004798c     EdgeList.obj
 0003:000009b4       ??_R0?AVQuantizerImpl@@@8  100479b4     Quantizer.obj
 0003:000009d0       ??_R0?AVPxVec3@physx@@@8   100479d0     Quantizer.obj
 0003:000009ec       ??_R0?AUSlab@NodeAllocator@Gu@physx@@@8 100479ec     BVHStructureBuilder.obj
 0003:00000a18       ??_R0?AUInterval@physx@@@8 10047a18     RTreeCooking.obj
 0003:00000a38       ??_R0?AURTreeNodeQ@Gu@physx@@@8 10047a38     RTreeCooking.obj
 0003:00000a5c       ??_R0?AURTreeNodeNQ@physx@@@8 10047a5c     RTreeCooking.obj
 0003:00000a7c       ??_R0?AUPxBounds3V@physx@@@8 10047a7c     RTreeCooking.obj
 0003:00000a9c       ??_R0?AVEdgeListBuilder@Gu@physx@@@8 10047a9c     TriangleMeshBuilder.obj
 0003:00000ac4       ??_R0?AVBV32Tree@Gu@physx@@@8 10047ac4     TriangleMeshBuilder.obj
 0003:00000ae4       ??_R0E@8                   10047ae4     TriangleMeshBuilder.obj
 0003:00000af0       ??_R0G@8                   10047af0     TriangleMeshBuilder.obj
 0003:00000afc       ??_R0?AUEdgeTriLookup@physx@@@8 10047afc     TriangleMeshBuilder.obj
 0003:00000b20       ??_R0?AUEdgeDescData@Gu@physx@@@8 10047b20     ConvexHullBuilder.obj
 0003:00000b44       ??_R0_N@8                  10047b44     ConvexHullBuilder.obj
 0003:00000b50       ??_R0?AVConvexHull@physx@@@8 10047b50     ConvexHullUtils.obj
 0003:00000b70       ??_R0?AVPxPlane@physx@@@8  10047b70     ConvexHullUtils.obj
 0003:00000b8c       ??_R0?AVHalfEdge@ConvexHull@physx@@@8 10047b8c     ConvexHullUtils.obj
 0003:00000bb4       ??_R0?AVBigConvexData@physx@@@8 10047bb4     ConvexMeshBuilder.obj
 0003:00000bd8       ??_R0?AUHullTriangleData@physx@@@8 10047bd8     ConvexPolygonsBuilder.obj
 0003:00000c00       ??_R0?AVPair@@@8           10047c00     ConvexPolygonsBuilder.obj
 0003:00000c14       ??_R0?AVQuickHull@local@@@8 10047c14     QuickHullConvexHullLib.obj
 0003:00000c34       ??_R0?AUExpandPoint@local@@@8 10047c34     QuickHullConvexHullLib.obj
 0003:00000c54       ??_R0PAUQuickHullVertex@local@@@8 10047c54     QuickHullConvexHullLib.obj
 0003:00000c78       ??_R0PAUQuickHullFace@local@@@8 10047c78     QuickHullConvexHullLib.obj
 0003:00000c9c       ??_R0PAUQuickHullHalfEdge@local@@@8 10047c9c     QuickHullConvexHullLib.obj
 0003:00000cc4       ??_R0?AVbad_exception@std@@@8 10047cc4     libvcruntime:frame.obj
 0003:00000ce4       ??_R0?AVexception@std@@@8  10047ce4     libvcruntime:frame.obj
 0003:00000d00       ??_R0?AVtype_info@@@8      10047d00     LIBCMT:std_type_info_static.obj
 0003:00000d18       ??_R0?AVDNameNode@@@8      10047d18     libvcruntime:undname.obj
 0003:00000d30       ??_R0?AVcharNode@@@8       10047d30     libvcruntime:undname.obj
 0003:00000d48       ??_R0?AVpcharNode@@@8      10047d48     libvcruntime:undname.obj
 0003:00000d60       ??_R0?AVpDNameNode@@@8     10047d60     libvcruntime:undname.obj
 0003:00000d7c       ??_R0?AVDNameStatusNode@@@8 10047d7c     libvcruntime:undname.obj
 0003:00000d9c       ??_R0?AVpairNode@@@8       10047d9c     libvcruntime:undname.obj
 0003:00000db4       __imp_??0RadixSortBuffered@Cm@physx@@QAE@XZ 10047db4     PhysXCommon_32:PhysXCommon_32.dll
 0003:00000db8       __imp_??1BigConvexData@physx@@QAE@XZ 10047db8     PhysXCommon_32:PhysXCommon_32.dll
 0003:00000dbc       __imp_??1RadixSortBuffered@Cm@physx@@UAE@XZ 10047dbc     PhysXCommon_32:PhysXCommon_32.dll
 0003:00000dc0       __imp_?Sort@RadixSortBuffered@Cm@physx@@QAEAAV123@PBIIW4RadixHint@23@@Z 10047dc0     PhysXCommon_32:PhysXCommon_32.dll
 0003:00000dc4       __imp_??0HeightField@Gu@physx@@QAE@PAVGuMeshFactory@2@@Z 10047dc4     PhysXCommon_32:PhysXCommon_32.dll
 0003:00000dc8       __imp_?loadFromDesc@HeightField@Gu@physx@@QAE_NABVPxHeightFieldDesc@3@@Z 10047dc8     PhysXCommon_32:PhysXCommon_32.dll
 0003:00000dcc       __imp_?computeCellCoordinates@HeightField@Gu@physx@@QBEIMMAAM0@Z 10047dcc     PhysXCommon_32:PhysXCommon_32.dll
 0003:00000dd0       __imp_?releaseMemory@HeightField@Gu@physx@@QAEXXZ 10047dd0     PhysXCommon_32:PhysXCommon_32.dll
 0003:00000dd4       __imp_??1HeightField@Gu@physx@@UAE@XZ 10047dd4     PhysXCommon_32:PhysXCommon_32.dll
 0003:00000dd8       __imp_??0NodeAllocator@Gu@physx@@QAE@XZ 10047dd8     PhysXCommon_32:PhysXCommon_32.dll
 0003:00000ddc       __imp_??1NodeAllocator@Gu@physx@@QAE@XZ 10047ddc     PhysXCommon_32:PhysXCommon_32.dll
 0003:00000de0       __imp_?release@NodeAllocator@Gu@physx@@QAEXXZ 10047de0     PhysXCommon_32:PhysXCommon_32.dll
 0003:00000de4       __imp_?buildAABBTree@Gu@physx@@YA_NAAVAABBTreeBuildParams@12@AAVNodeAllocator@12@AAUBuildStats@12@AAPAI@Z 10047de4     PhysXCommon_32:PhysXCommon_32.dll
 0003:00000de8       __imp_?writeDword@physx@@YAXI_NAAVPxOutputStream@1@@Z 10047de8     PhysXCommon_32:PhysXCommon_32.dll
 0003:00000dec       __imp_?writeFloatBuffer@physx@@YAXPBMI_NAAVPxOutputStream@1@@Z 10047dec     PhysXCommon_32:PhysXCommon_32.dll
 0003:00000df0       __imp_?writeHeader@physx@@YA_NCCCCI_NAAVPxOutputStream@1@@Z 10047df0     PhysXCommon_32:PhysXCommon_32.dll
 0003:00000df4       __imp_?writeWord@physx@@YAXG_NAAVPxOutputStream@1@@Z 10047df4     PhysXCommon_32:PhysXCommon_32.dll
 0003:00000df8       __imp_?writeFloat@physx@@YAXM_NAAVPxOutputStream@1@@Z 10047df8     PhysXCommon_32:PhysXCommon_32.dll
 0003:00000dfc       __imp_?computeBoundsAroundVertices@Gu@physx@@YAXAAVPxBounds3@2@IPIBVPxVec3@2@@Z 10047dfc     PhysXCommon_32:PhysXCommon_32.dll
 0003:00000e00       __imp_??0SourceMesh@Gu@physx@@QAE@XZ 10047e00     PhysXCommon_32:PhysXCommon_32.dll
 0003:00000e04       __imp_??1SourceMesh@Gu@physx@@QAE@XZ 10047e04     PhysXCommon_32:PhysXCommon_32.dll
 0003:00000e08       __imp_??0BV4Tree@Gu@physx@@QAE@XZ 10047e08     PhysXCommon_32:PhysXCommon_32.dll
 0003:00000e0c       __imp_??1BV4Tree@Gu@physx@@QAE@XZ 10047e0c     PhysXCommon_32:PhysXCommon_32.dll
 0003:00000e10       __imp_??0BV32Tree@Gu@physx@@QAE@XZ 10047e10     PhysXCommon_32:PhysXCommon_32.dll
 0003:00000e14       __imp_??1BV32Tree@Gu@physx@@QAE@XZ 10047e14     PhysXCommon_32:PhysXCommon_32.dll
 0003:00000e18       __imp_?writeWordBuffer@physx@@YAXPBGI_NAAVPxOutputStream@1@@Z 10047e18     PhysXCommon_32:PhysXCommon_32.dll
 0003:00000e1c       __imp_?computeMaxIndex@physx@@YAIPBII@Z 10047e1c     PhysXCommon_32:PhysXCommon_32.dll
 0003:00000e20       __imp_?storeIndices@physx@@YAXIIPBIAAVPxOutputStream@1@_N@Z 10047e20     PhysXCommon_32:PhysXCommon_32.dll
 0003:00000e24       __imp_?BuildBV4Ex@Gu@physx@@YA_NAAVBV4Tree@12@AAVSourceMesh@12@MI@Z 10047e24     PhysXCommon_32:PhysXCommon_32.dll
 0003:00000e28       __imp_?BuildBV32Ex@Gu@physx@@YA_NAAVBV32Tree@12@AAVSourceMesh@12@MI@Z 10047e28     PhysXCommon_32:PhysXCommon_32.dll
 0003:00000e2c       __imp_?computeMaxIndex@physx@@YAGPBGI@Z 10047e2c     PhysXCommon_32:PhysXCommon_32.dll
 0003:00000e30       __imp_?WriteHeader@Gu@physx@@YA_NEEEEI_NAAVPxOutputStream@2@@Z 10047e30     PhysXCommon_32:PhysXCommon_32.dll
 0003:00000e34       __imp_?StoreIndices@Gu@physx@@YAXGIPBGAAVPxOutputStream@2@_N@Z 10047e34     PhysXCommon_32:PhysXCommon_32.dll
 0003:00000e38       __imp_?CreateOffsets@BigConvexData@physx@@IAEXXZ 10047e38     PhysXCommon_32:PhysXCommon_32.dll
 0003:00000e3c       __imp_?computeOBBPoints@Gu@physx@@YAXPIAVPxVec3@2@ABV32@1111@Z 10047e3c     PhysXCommon_32:PhysXCommon_32.dll
 0003:00000e40       __imp_??0BigConvexData@physx@@QAE@XZ 10047e40     PhysXCommon_32:PhysXCommon_32.dll
 0003:00000e44       \177PhysXCommon_32_NULL_THUNK_DATA_DLA 10047e44     PhysXCommon_32:PhysXCommon_32.dll
 0003:00000e48       __imp__PxGetFoundation     10047e48     PhysXFoundation_32:PhysXFoundation_32.dll
 0003:00000e4c       __imp_?deallocate@TempAllocator@shdfnd@physx@@QAEXPAX@Z 10047e4c     PhysXFoundation_32:PhysXFoundation_32.dll
 0003:00000e50       __imp_?getAllocator@shdfnd@physx@@YAAAVPxAllocatorCallback@2@XZ 10047e50     PhysXFoundation_32:PhysXFoundation_32.dll
 0003:00000e54       __imp_?getInstance@Foundation@shdfnd@physx@@SAAAV123@XZ 10047e54     PhysXFoundation_32:PhysXFoundation_32.dll
 0003:00000e58       __imp_?error@Foundation@shdfnd@physx@@QAAXW4Enum@PxErrorCode@3@PBDH1ZZ 10047e58     PhysXFoundation_32:PhysXFoundation_32.dll
 0003:00000e5c       __imp_?incRefCount@Foundation@shdfnd@physx@@SAXXZ 10047e5c     PhysXFoundation_32:PhysXFoundation_32.dll
 0003:00000e60       __imp_?decRefCount@Foundation@shdfnd@physx@@SAXXZ 10047e60     PhysXFoundation_32:PhysXFoundation_32.dll
 0003:00000e64       __imp_??0FPUGuard@shdfnd@physx@@QAE@XZ 10047e64     PhysXFoundation_32:PhysXFoundation_32.dll
 0003:00000e68       __imp_??1FPUGuard@shdfnd@physx@@QAE@XZ 10047e68     PhysXFoundation_32:PhysXFoundation_32.dll
 0003:00000e6c       __imp_?allocate@TempAllocator@shdfnd@physx@@QAEPAXIPBDH@Z 10047e6c     PhysXFoundation_32:PhysXFoundation_32.dll
 0003:00000e70       __imp_?PxDiagonalize@physx@@YA?AVPxVec3@1@ABVPxMat33@1@AAVPxQuat@1@@Z 10047e70     PhysXFoundation_32:PhysXFoundation_32.dll
 0003:00000e74       \177PhysXFoundation_32_NULL_THUNK_DATA_DLA 10047e74     PhysXFoundation_32:PhysXFoundation_32.dll
 0003:00001244       __hmod__PhysXCommon_32_dll 10048244     PhysXCommon_32:PhysXCommon_32.dll
 0003:00001248       __hmod__PhysXFoundation_32_dll 10048248     PhysXFoundation_32:PhysXFoundation_32.dll
 0003:0000124c       ?DloadKernel32@@3PAUHINSTANCE__@@A 1004824c     Delayimp:delayhlp.obj
 0003:00001250       ?DloadAcquireSRWLockExclusive@@3P6GXPAK@ZA 10048250     Delayimp:delayhlp.obj
 0003:00001254       ?DloadReleaseSRWLockExclusive@@3P6GXPAK@ZA 10048254     Delayimp:delayhlp.obj
 0003:00001258       ?DloadSrwLock@@3KA         10048258     Delayimp:delayhlp.obj
 0003:0000125c       ?DloadSectionLockCount@@3KA 1004825c     Delayimp:delayhlp.obj
 0003:00001260       ?DloadSectionOldProtection@@3KA 10048260     Delayimp:delayhlp.obj
 0003:00001264       ?DloadSectionCommitPermanent@@3KA 10048264     Delayimp:delayhlp.obj
 0003:00001268       ?__type_info_root_node@@3U__type_info_node@@A 10048268     LIBCMT:tncleanup.obj
 0003:00001274       ___castguard_check_failure_os_handled_fptr 10048274     LIBCMT:guard_support.obj
 0003:00001278       ___isa_available           10048278     LIBCMT:cpu_disp.obj
 0003:0000127c       ___favor                   1004827c     LIBCMT:cpu_disp.obj
 0003:00001280       ?_OptionsStorage@?1??__local_stdio_printf_options@@9@4_KA 10048280     LIBCMT:default_local_stdio_options.obj
 0003:00001288       ?_OptionsStorage@?1??__local_stdio_scanf_options@@9@4_KA 10048288     LIBCMT:default_local_stdio_options.obj
 0003:00001290       ___scrt_current_native_startup_state 10048290     LIBCMT:utility.obj
 0003:00001294       ___scrt_native_startup_lock 10048294     LIBCMT:utility.obj
 0003:000012b4       ___scrt_debugger_hook_flag 100482b4     LIBCMT:utility_desktop.obj
 0003:000015d4       ?__WinRTOutOfMemoryExceptionCallback@@3P6GPAXXZA 100485d4     libvcruntime:ehhelpers.obj
 0003:000015d8       ___pPurecall               100485d8     libvcruntime:purevirt_data.obj
 0003:000015dc       ?pArgList@UnDecorator@@0PAVReplicator@@A 100485dc     libvcruntime:undname.obj
 0003:000015e0       ?pZNameList@UnDecorator@@0PAVReplicator@@A 100485e0     libvcruntime:undname.obj
 0003:000015e4       ?pTemplateArgList@UnDecorator@@0PAVReplicator@@A 100485e4     libvcruntime:undname.obj
 0003:000015e8       ?gName@UnDecorator@@0PBDB  100485e8     libvcruntime:undname.obj
 0003:000015ec       ?name@UnDecorator@@0PBDB   100485ec     libvcruntime:undname.obj
 0003:000015f0       ?disableFlags@UnDecorator@@0KA 100485f0     libvcruntime:undname.obj
 0003:000015f4       ?fExplicitTemplateParams@UnDecorator@@0_NA 100485f4     libvcruntime:undname.obj
 0003:000015f5       ?fGetTemplateArgumentList@UnDecorator@@0_NA 100485f5     libvcruntime:undname.obj
 0003:000015f8       ?m_pGetParameter@UnDecorator@@0P6APADJ@ZA 100485f8     libvcruntime:undname.obj
 0003:000015fc       ?m_CHPENameOffset@UnDecorator@@0KA 100485fc     libvcruntime:undname.obj
 0003:00001600       ?m_recursionLevel@UnDecorator@@0KA 10048600     libvcruntime:undname.obj
 0003:00001790       __environ_table            10048790     libucrt:environment_initialization.obj
 0003:00001794       __wenviron_table           10048794     libucrt:environment_initialization.obj
 0003:00001798       ___dcrt_initial_wide_environment 10048798     libucrt:environment_initialization.obj
 0003:0000179c       ___dcrt_initial_narrow_environment 1004879c     libucrt:environment_initialization.obj
 0003:000017a0       ___acrt_atexit_table       100487a0     libucrt:onexit.obj
 0003:000017ac       ___acrt_at_quick_exit_table 100487ac     libucrt:onexit.obj
 0003:00001918       __mbctype                  10048918     libucrt:mbctype.obj
 0003:0000191c       __mbcasemap                1004891c     libucrt:mbctype.obj
 0003:00001920       ___acrt_current_multibyte_data 10048920     libucrt:mbctype.obj
 0003:0000192c       __pgmptr                   1004892c     libucrt:argv_data.obj
 0003:00001930       ___argc                    10048930     libucrt:argv_data.obj
 0003:00001934       ___argv                    10048934     libucrt:argv_data.obj
 0003:00001938       ___wargv                   10048938     libucrt:argv_data.obj
 0003:0000193c       __acmdln                   1004893c     libucrt:argv_data.obj
 0003:00001940       __wcmdln                   10048940     libucrt:argv_data.obj
 0003:00001a2c       ___acrt_heap               10048a2c     libucrt:heap_handle.obj
 0003:00001a30       ___pioinfo                 10048a30     libucrt:ioinit.obj
 0003:00001c30       __nhandle                  10048c30     libucrt:ioinit.obj
 0003:00001c48       ___acrt_current_locale_data 10048c48     libucrt:nlsdata.obj
 0003:00001c4c       __nstream                  10048c4c     libucrt:_file.obj
 0003:00001c50       ___piob                    10048c50     libucrt:_file.obj
 0003:00001c54       ___acrt_stdout_buffer      10048c54     libucrt:_sftbuf.obj
 0003:00001c58       ___acrt_stderr_buffer      10048c58     libucrt:_sftbuf.obj
 0003:00001c68       ___acrt_locale_changed_data 10048c68     libucrt:wsetlocale.obj
 0003:00001c70       ___acrt_lconv_static_null  10048c70     libucrt:localeconv.obj
 0003:00001c74       ___acrt_lconv_static_W_null 10048c74     libucrt:localeconv.obj
 0003:00001c78       ___fastflag                10048c78     libucrt:fp_flags.obj
 0003:00001c8c       ___scrt_ucrt_dll_is_in_use 10048c8c     <common>
 0003:00001c90       ___dyn_tls_init_callback   10048c90     <common>
 0003:00001c94       __pmatherr                 10048c94     <common>
 0003:00001c98       ___use_sse2_mathfcns       10048c98     <common>
 0004:00000500       ___common_ssin_reduction_data 10049500     LIBCMT:svml_s_sin_data.obj
 0004:00001100       ___common_ssin_data        1004a100     LIBCMT:svml_s_sin_data.obj

 entry point at        0001:0002088a

 Static symbols

 0000:fffb0000       .debug$S                   10000000     PhysXCooking_32.exp
 0000:fffb0000       .debug$S                   10000000     kernel32:KERNEL32.dll
 0000:fffb0000       .debug$S                   10000000     kernel32:KERNEL32.dll
 0000:fffb0000       .debug$S                   10000000     kernel32:KERNEL32.dll
 0000:fffb0000       .debug$S                   10000000     kernel32:KERNEL32.dll
 0000:fffb0000       .debug$S                   10000000     kernel32:KERNEL32.dll
 0000:fffb0000       .debug$S                   10000000     kernel32:KERNEL32.dll
 0000:fffb0000       .debug$S                   10000000     kernel32:KERNEL32.dll
 0000:fffb0000       .debug$S                   10000000     kernel32:KERNEL32.dll
 0000:fffb0000       .debug$S                   10000000     kernel32:KERNEL32.dll
 0000:fffb0000       .debug$S                   10000000     kernel32:KERNEL32.dll
 0000:fffb0000       .debug$S                   10000000     kernel32:KERNEL32.dll
 0000:fffb0000       .debug$S                   10000000     kernel32:KERNEL32.dll
 0000:fffb0000       .debug$S                   10000000     kernel32:KERNEL32.dll
 0000:fffb0000       .debug$S                   10000000     kernel32:KERNEL32.dll
 0000:fffb0000       .debug$S                   10000000     kernel32:KERNEL32.dll
 0000:fffb0000       .debug$S                   10000000     kernel32:KERNEL32.dll
 0000:fffb0000       .debug$S                   10000000     kernel32:KERNEL32.dll
 0000:fffb0000       .debug$S                   10000000     kernel32:KERNEL32.dll
 0000:fffb0000       .debug$S                   10000000     kernel32:KERNEL32.dll
 0000:fffb0000       .debug$S                   10000000     kernel32:KERNEL32.dll
 0000:fffb0000       .debug$S                   10000000     kernel32:KERNEL32.dll
 0000:fffb0000       .debug$S                   10000000     kernel32:KERNEL32.dll
 0000:fffb0000       .debug$S                   10000000     kernel32:KERNEL32.dll
 0000:fffb0000       .debug$S                   10000000     kernel32:KERNEL32.dll
 0000:fffb0000       .debug$S                   10000000     kernel32:KERNEL32.dll
 0000:fffb0000       .debug$S                   10000000     kernel32:KERNEL32.dll
 0000:fffb0000       .debug$S                   10000000     kernel32:KERNEL32.dll
 0000:fffb0000       .debug$S                   10000000     kernel32:KERNEL32.dll
 0000:fffb0000       .debug$S                   10000000     kernel32:KERNEL32.dll
 0000:fffb0000       .debug$S                   10000000     kernel32:KERNEL32.dll
 0000:fffb0000       .debug$S                   10000000     kernel32:KERNEL32.dll
 0000:fffb0000       .debug$S                   10000000     kernel32:KERNEL32.dll
 0000:fffb0000       .debug$S                   10000000     kernel32:KERNEL32.dll
 0000:fffb0000       .debug$S                   10000000     kernel32:KERNEL32.dll
 0000:fffb0000       .debug$S                   10000000     kernel32:KERNEL32.dll
 0000:fffb0000       .debug$S                   10000000     kernel32:KERNEL32.dll
 0000:fffb0000       .debug$S                   10000000     kernel32:KERNEL32.dll
 0000:fffb0000       .debug$S                   10000000     kernel32:KERNEL32.dll
 0000:fffb0000       .debug$S                   10000000     kernel32:KERNEL32.dll
 0000:fffb0000       .debug$S                   10000000     kernel32:KERNEL32.dll
 0000:fffb0000       .debug$S                   10000000     kernel32:KERNEL32.dll
 0000:fffb0000       .debug$S                   10000000     kernel32:KERNEL32.dll
 0000:fffb0000       .debug$S                   10000000     kernel32:KERNEL32.dll
 0000:fffb0000       .debug$S                   10000000     kernel32:KERNEL32.dll
 0000:fffb0000       .debug$S                   10000000     kernel32:KERNEL32.dll
 0000:fffb0000       .debug$S                   10000000     kernel32:KERNEL32.dll
 0000:fffb0000       .debug$S                   10000000     kernel32:KERNEL32.dll
 0000:fffb0000       .debug$S                   10000000     kernel32:KERNEL32.dll
 0000:fffb0000       .debug$S                   10000000     kernel32:KERNEL32.dll
 0000:fffb0000       .debug$S                   10000000     kernel32:KERNEL32.dll
 0000:fffb0000       .debug$S                   10000000     kernel32:KERNEL32.dll
 0000:fffb0000       .debug$S                   10000000     kernel32:KERNEL32.dll
 0000:fffb0000       .debug$S                   10000000     kernel32:KERNEL32.dll
 0000:fffb0000       .debug$S                   10000000     kernel32:KERNEL32.dll
 0000:fffb0000       .debug$S                   10000000     kernel32:KERNEL32.dll
 0000:fffb0000       .debug$S                   10000000     kernel32:KERNEL32.dll
 0000:fffb0000       .debug$S                   10000000     kernel32:KERNEL32.dll
 0000:fffb0000       .debug$S                   10000000     kernel32:KERNEL32.dll
 0000:fffb0000       .debug$S                   10000000     kernel32:KERNEL32.dll
 0000:fffb0000       .debug$S                   10000000     kernel32:KERNEL32.dll
 0000:fffb0000       .debug$S                   10000000     kernel32:KERNEL32.dll
 0000:fffb0000       .debug$S                   10000000     kernel32:KERNEL32.dll
 0000:fffb0000       .debug$S                   10000000     kernel32:KERNEL32.dll
 0000:fffb0000       .debug$S                   10000000     kernel32:KERNEL32.dll
 0000:fffb0000       .debug$S                   10000000     kernel32:KERNEL32.dll
 0000:fffb0000       .debug$S                   10000000     kernel32:KERNEL32.dll
 0000:fffb0000       .debug$S                   10000000     kernel32:KERNEL32.dll
 0000:fffb0000       .debug$S                   10000000     kernel32:KERNEL32.dll
 0000:fffb0000       .debug$S                   10000000     kernel32:KERNEL32.dll
 0000:fffb0000       .debug$S                   10000000     kernel32:KERNEL32.dll
 0000:fffb0000       .debug$S                   10000000     kernel32:KERNEL32.dll
 0000:fffb0000       .debug$S                   10000000     kernel32:KERNEL32.dll
 0000:fffb0000       .debug$S                   10000000     kernel32:KERNEL32.dll
 0000:fffb0000       .debug$S                   10000000     kernel32:KERNEL32.dll
 0000:fffb0000       .debug$S                   10000000     kernel32:KERNEL32.dll
 0000:fffb0000       .debug$S                   10000000     kernel32:KERNEL32.dll
 0000:fffb0000       .debug$S                   10000000     kernel32:KERNEL32.dll
 0000:fffb0000       .debug$S                   10000000     kernel32:KERNEL32.dll
 0000:fffb0000       .debug$S                   10000000     kernel32:KERNEL32.dll
 0000:fffb0000       .debug$S                   10000000     kernel32:KERNEL32.dll
 0000:fffb0000       .debug$S                   10000000     kernel32:KERNEL32.dll
 0000:fffb0000       .debug$S                   10000000     kernel32:KERNEL32.dll
 0000:fffb0000       .debug$S                   10000000     kernel32:KERNEL32.dll
 0000:fffb0000       .debug$S                   10000000     kernel32:KERNEL32.dll
 0000:fffb0000       .debug$S                   10000000     kernel32:KERNEL32.dll
 0000:fffb0000       .debug$S                   10000000     kernel32:KERNEL32.dll
 0000:fffb0000       .debug$S                   10000000     PhysXCommon_32:PhysXCommon_32.dll
 0000:fffb0000       .debug$S                   10000000     PhysXCommon_32:PhysXCommon_32.dll
 0000:fffb0000       .debug$S                   10000000     PhysXCommon_32:PhysXCommon_32.dll
 0000:fffb0000       .debug$S                   10000000     PhysXCommon_32:PhysXCommon_32.dll
 0000:fffb0000       .debug$S                   10000000     PhysXCommon_32:PhysXCommon_32.dll
 0000:fffb0000       .debug$S                   10000000     PhysXCommon_32:PhysXCommon_32.dll
 0000:fffb0000       .debug$S                   10000000     PhysXCommon_32:PhysXCommon_32.dll
 0000:fffb0000       .debug$S                   10000000     PhysXCommon_32:PhysXCommon_32.dll
 0000:fffb0000       .debug$S                   10000000     PhysXCommon_32:PhysXCommon_32.dll
 0000:fffb0000       .debug$S                   10000000     PhysXCommon_32:PhysXCommon_32.dll
 0000:fffb0000       .debug$S                   10000000     PhysXCommon_32:PhysXCommon_32.dll
 0000:fffb0000       .debug$S                   10000000     PhysXCommon_32:PhysXCommon_32.dll
 0000:fffb0000       .debug$S                   10000000     PhysXCommon_32:PhysXCommon_32.dll
 0000:fffb0000       .debug$S                   10000000     PhysXCommon_32:PhysXCommon_32.dll
 0000:fffb0000       .debug$S                   10000000     PhysXCommon_32:PhysXCommon_32.dll
 0000:fffb0000       .debug$S                   10000000     PhysXCommon_32:PhysXCommon_32.dll
 0000:fffb0000       .debug$S                   10000000     PhysXCommon_32:PhysXCommon_32.dll
 0000:fffb0000       .debug$S                   10000000     PhysXCommon_32:PhysXCommon_32.dll
 0000:fffb0000       .debug$S                   10000000     PhysXCommon_32:PhysXCommon_32.dll
 0000:fffb0000       .debug$S                   10000000     PhysXCommon_32:PhysXCommon_32.dll
 0000:fffb0000       .debug$S                   10000000     PhysXCommon_32:PhysXCommon_32.dll
 0000:fffb0000       .debug$S                   10000000     PhysXCommon_32:PhysXCommon_32.dll
 0000:fffb0000       .debug$S                   10000000     PhysXCommon_32:PhysXCommon_32.dll
 0000:fffb0000       .debug$S                   10000000     PhysXCommon_32:PhysXCommon_32.dll
 0000:fffb0000       .debug$S                   10000000     PhysXCommon_32:PhysXCommon_32.dll
 0000:fffb0000       .debug$S                   10000000     PhysXCommon_32:PhysXCommon_32.dll
 0000:fffb0000       .debug$S                   10000000     PhysXCommon_32:PhysXCommon_32.dll
 0000:fffb0000       .debug$S                   10000000     PhysXCommon_32:PhysXCommon_32.dll
 0000:fffb0000       .debug$S                   10000000     PhysXCommon_32:PhysXCommon_32.dll
 0000:fffb0000       .debug$S                   10000000     PhysXCommon_32:PhysXCommon_32.dll
 0000:fffb0000       .debug$S                   10000000     PhysXCommon_32:PhysXCommon_32.dll
 0000:fffb0000       .debug$S                   10000000     PhysXCommon_32:PhysXCommon_32.dll
 0000:fffb0000       .debug$S                   10000000     PhysXCommon_32:PhysXCommon_32.dll
 0000:fffb0000       .debug$S                   10000000     PhysXCommon_32:PhysXCommon_32.dll
 0000:fffb0000       .debug$S                   10000000     PhysXCommon_32:PhysXCommon_32.dll
 0000:fffb0000       .debug$S                   10000000     PhysXCommon_32:PhysXCommon_32.dll
 0000:fffb0000       .debug$S                   10000000     PhysXCommon_32:PhysXCommon_32.dll
 0000:fffb0000       .debug$S                   10000000     PhysXCommon_32:PhysXCommon_32.dll
 0000:fffb0000       .debug$S                   10000000     PhysXFoundation_32:PhysXFoundation_32.dll
 0000:fffb0000       .debug$S                   10000000     PhysXFoundation_32:PhysXFoundation_32.dll
 0000:fffb0000       .debug$S                   10000000     PhysXFoundation_32:PhysXFoundation_32.dll
 0000:fffb0000       .debug$S                   10000000     PhysXFoundation_32:PhysXFoundation_32.dll
 0000:fffb0000       .debug$S                   10000000     PhysXFoundation_32:PhysXFoundation_32.dll
 0000:fffb0000       .debug$S                   10000000     PhysXFoundation_32:PhysXFoundation_32.dll
 0000:fffb0000       .debug$S                   10000000     PhysXFoundation_32:PhysXFoundation_32.dll
 0000:fffb0000       .debug$S                   10000000     PhysXFoundation_32:PhysXFoundation_32.dll
 0000:fffb0000       .debug$S                   10000000     PhysXFoundation_32:PhysXFoundation_32.dll
 0000:fffb0000       .debug$S                   10000000     PhysXFoundation_32:PhysXFoundation_32.dll
 0000:fffb0000       .debug$S                   10000000     PhysXFoundation_32:PhysXFoundation_32.dll
 0001:00000000       ??__EmaxFError@_VecMathTests@aos@shdfnd@physx@@YAXXZ 10001000 f   Cooking.obj
 0001:00000020       ??__EmaxV3Error@_VecMathTests@aos@shdfnd@physx@@YAXXZ 10001020 f   Cooking.obj
 0001:00000030       ??__EmaxV4Error@_VecMathTests@aos@shdfnd@physx@@YAXXZ 10001030 f   Cooking.obj
 0001:00000050       ??__EminFError@_VecMathTests@aos@shdfnd@physx@@YAXXZ 10001050 f   Cooking.obj
 0001:00000070       ??__EminV3Error@_VecMathTests@aos@shdfnd@physx@@YAXXZ 10001070 f   Cooking.obj
 0001:00000080       ??__EminV4Error@_VecMathTests@aos@shdfnd@physx@@YAXXZ 10001080 f   Cooking.obj
 0001:000000a0       ??__EmaxFError@_VecMathTests@aos@shdfnd@physx@@YAXXZ 100010a0 f   BVHStructureBuilder.obj
 0001:000000c0       ??__EmaxV3Error@_VecMathTests@aos@shdfnd@physx@@YAXXZ 100010c0 f   BVHStructureBuilder.obj
 0001:000000d0       ??__EmaxV4Error@_VecMathTests@aos@shdfnd@physx@@YAXXZ 100010d0 f   BVHStructureBuilder.obj
 0001:000000f0       ??__EminFError@_VecMathTests@aos@shdfnd@physx@@YAXXZ 100010f0 f   BVHStructureBuilder.obj
 0001:00000110       ??__EminV3Error@_VecMathTests@aos@shdfnd@physx@@YAXXZ 10001110 f   BVHStructureBuilder.obj
 0001:00000120       ??__EminV4Error@_VecMathTests@aos@shdfnd@physx@@YAXXZ 10001120 f   BVHStructureBuilder.obj
 0001:00000140       ??__EmaxFError@_VecMathTests@aos@shdfnd@physx@@YAXXZ 10001140 f   RTreeCooking.obj
 0001:00000160       ??__EmaxV3Error@_VecMathTests@aos@shdfnd@physx@@YAXXZ 10001160 f   RTreeCooking.obj
 0001:00000170       ??__EmaxV4Error@_VecMathTests@aos@shdfnd@physx@@YAXXZ 10001170 f   RTreeCooking.obj
 0001:00000190       ??__EminFError@_VecMathTests@aos@shdfnd@physx@@YAXXZ 10001190 f   RTreeCooking.obj
 0001:000001b0       ??__EminV3Error@_VecMathTests@aos@shdfnd@physx@@YAXXZ 100011b0 f   RTreeCooking.obj
 0001:000001c0       ??__EminV4Error@_VecMathTests@aos@shdfnd@physx@@YAXXZ 100011c0 f   RTreeCooking.obj
 0001:000001e0       ??__EmaxFError@_VecMathTests@aos@shdfnd@physx@@YAXXZ 100011e0 f   MeshBuilder.obj
 0001:00000200       ??__EmaxV3Error@_VecMathTests@aos@shdfnd@physx@@YAXXZ 10001200 f   MeshBuilder.obj
 0001:00000210       ??__EmaxV4Error@_VecMathTests@aos@shdfnd@physx@@YAXXZ 10001210 f   MeshBuilder.obj
 0001:00000230       ??__EminFError@_VecMathTests@aos@shdfnd@physx@@YAXXZ 10001230 f   MeshBuilder.obj
 0001:00000250       ??__EminV3Error@_VecMathTests@aos@shdfnd@physx@@YAXXZ 10001250 f   MeshBuilder.obj
 0001:00000260       ??__EminV4Error@_VecMathTests@aos@shdfnd@physx@@YAXXZ 10001260 f   MeshBuilder.obj
 0001:00000280       ??__EmaxFError@_VecMathTests@aos@shdfnd@physx@@YAXXZ 10001280 f   TriangleMeshBuilder.obj
 0001:000002a0       ??__EmaxV3Error@_VecMathTests@aos@shdfnd@physx@@YAXXZ 100012a0 f   TriangleMeshBuilder.obj
 0001:000002b0       ??__EmaxV4Error@_VecMathTests@aos@shdfnd@physx@@YAXXZ 100012b0 f   TriangleMeshBuilder.obj
 0001:000002d0       ??__EminFError@_VecMathTests@aos@shdfnd@physx@@YAXXZ 100012d0 f   TriangleMeshBuilder.obj
 0001:000002f0       ??__EminV3Error@_VecMathTests@aos@shdfnd@physx@@YAXXZ 100012f0 f   TriangleMeshBuilder.obj
 0001:00000300       ??__EminV4Error@_VecMathTests@aos@shdfnd@physx@@YAXXZ 10001300 f   TriangleMeshBuilder.obj
 0001:00000320       ??__EmaxFError@_VecMathTests@aos@shdfnd@physx@@YAXXZ 10001320 f   BigConvexDataBuilder.obj
 0001:00000340       ??__EmaxV3Error@_VecMathTests@aos@shdfnd@physx@@YAXXZ 10001340 f   BigConvexDataBuilder.obj
 0001:00000350       ??__EmaxV4Error@_VecMathTests@aos@shdfnd@physx@@YAXXZ 10001350 f   BigConvexDataBuilder.obj
 0001:00000370       ??__EminFError@_VecMathTests@aos@shdfnd@physx@@YAXXZ 10001370 f   BigConvexDataBuilder.obj
 0001:00000390       ??__EminV3Error@_VecMathTests@aos@shdfnd@physx@@YAXXZ 10001390 f   BigConvexDataBuilder.obj
 0001:000003a0       ??__EminV4Error@_VecMathTests@aos@shdfnd@physx@@YAXXZ 100013a0 f   BigConvexDataBuilder.obj
 0001:000003c0       ??__EmaxFError@_VecMathTests@aos@shdfnd@physx@@YAXXZ 100013c0 f   ConvexHullBuilder.obj
 0001:000003e0       ??__EmaxV3Error@_VecMathTests@aos@shdfnd@physx@@YAXXZ 100013e0 f   ConvexHullBuilder.obj
 0001:000003f0       ??__EmaxV4Error@_VecMathTests@aos@shdfnd@physx@@YAXXZ 100013f0 f   ConvexHullBuilder.obj
 0001:00000410       ??__EminFError@_VecMathTests@aos@shdfnd@physx@@YAXXZ 10001410 f   ConvexHullBuilder.obj
 0001:00000430       ??__EminV3Error@_VecMathTests@aos@shdfnd@physx@@YAXXZ 10001430 f   ConvexHullBuilder.obj
 0001:00000440       ??__EminV4Error@_VecMathTests@aos@shdfnd@physx@@YAXXZ 10001440 f   ConvexHullBuilder.obj
 0001:00000460       ??__EmaxFError@_VecMathTests@aos@shdfnd@physx@@YAXXZ 10001460 f   ConvexHullUtils.obj
 0001:00000480       ??__EmaxV3Error@_VecMathTests@aos@shdfnd@physx@@YAXXZ 10001480 f   ConvexHullUtils.obj
 0001:00000490       ??__EmaxV4Error@_VecMathTests@aos@shdfnd@physx@@YAXXZ 10001490 f   ConvexHullUtils.obj
 0001:000004b0       ??__EminFError@_VecMathTests@aos@shdfnd@physx@@YAXXZ 100014b0 f   ConvexHullUtils.obj
 0001:000004d0       ??__EminV3Error@_VecMathTests@aos@shdfnd@physx@@YAXXZ 100014d0 f   ConvexHullUtils.obj
 0001:000004e0       ??__EminV4Error@_VecMathTests@aos@shdfnd@physx@@YAXXZ 100014e0 f   ConvexHullUtils.obj
 0001:00000500       ??__EmaxFError@_VecMathTests@aos@shdfnd@physx@@YAXXZ 10001500 f   ConvexMeshBuilder.obj
 0001:00000520       ??__EmaxV3Error@_VecMathTests@aos@shdfnd@physx@@YAXXZ 10001520 f   ConvexMeshBuilder.obj
 0001:00000530       ??__EmaxV4Error@_VecMathTests@aos@shdfnd@physx@@YAXXZ 10001530 f   ConvexMeshBuilder.obj
 0001:00000550       ??__EminFError@_VecMathTests@aos@shdfnd@physx@@YAXXZ 10001550 f   ConvexMeshBuilder.obj
 0001:00000570       ??__EminV3Error@_VecMathTests@aos@shdfnd@physx@@YAXXZ 10001570 f   ConvexMeshBuilder.obj
 0001:00000580       ??__EminV4Error@_VecMathTests@aos@shdfnd@physx@@YAXXZ 10001580 f   ConvexMeshBuilder.obj
 0001:000005a0       ??__EmaxFError@_VecMathTests@aos@shdfnd@physx@@YAXXZ 100015a0 f   VolumeIntegration.obj
 0001:000005c0       ??__EmaxV3Error@_VecMathTests@aos@shdfnd@physx@@YAXXZ 100015c0 f   VolumeIntegration.obj
 0001:000005d0       ??__EmaxV4Error@_VecMathTests@aos@shdfnd@physx@@YAXXZ 100015d0 f   VolumeIntegration.obj
 0001:000005f0       ??__EminFError@_VecMathTests@aos@shdfnd@physx@@YAXXZ 100015f0 f   VolumeIntegration.obj
 0001:00000610       ??__EminV3Error@_VecMathTests@aos@shdfnd@physx@@YAXXZ 10001610 f   VolumeIntegration.obj
 0001:00000620       ??__EminV4Error@_VecMathTests@aos@shdfnd@physx@@YAXXZ 10001620 f   VolumeIntegration.obj
 0001:000007c0       ?CreateDatabase@@YA_NPAVAdjTriangle@physx@@IPBVAdjEdge@@ABUADJACENCIESCREATE@2@@Z 100017c0 f   Adjacencies.obj
 0001:00000d60       ?UpdateLink@@YA_NIIIIPAVAdjTriangle@physx@@ABUADJACENCIESCREATE@2@@Z 10001d60 f   Adjacencies.obj
 0001:00007840       ?buildFromBounds@physx@@YAXAAURTree@Gu@1@PBUPxBounds3V@1@IAAV?$Array@IV?$ReflectionAllocator@I@shdfnd@physx@@@shdfnd@1@PAURemapCallback@RTreeCooker@1@AAT__m128@@4MW4Enum@PxMeshCookingHint@1@@Z 10008840 f   RTreeCooking.obj
 0001:0000aa70       ?buildAdjacencies@physx@@YAXPAUuint4@1@PAVPxVec3@1@PBV31@PBUuint3@1@I@Z 1000ba70 f   TriangleMeshBuilder.obj
 0001:0000bc10       ?findAdjacent@physx@@YAIPBVPxVec3@1@0PBUuint3@1@IIIABVPxPlane@1@PAUEdgeTriLookup@1@I@Z 1000cc10 f   TriangleMeshBuilder.obj
 0001:0000fbb0       ?checkPointsAABBValidity@local@@YA_NIPBVPxVec3@physx@@IMMAAV23@1AAIPAV23@_N@Z 10010bb0 f   ConvexHullLib.obj
 0001:00014840       ?ComputeInternalExtent@@YAXAAUConvexHullData@Gu@physx@@PBUHullPolygonData@23@@Z 10015840 f   ConvexMeshBuilder.obj
 0001:00015bc0       ?CheckFloodFillFace@Local@?7??extractHullPolygons@@YA_NAAIAAV?$Array@IV?$ReflectionAllocator@I@shdfnd@physx@@@shdfnd@physx@@ABVConvexPolygonsBuilder@5@PAV345@1@Z@SA_NIPBVAdjTriangle@5@PBI@Z 10016bc0 f   ConvexPolygonsBuilder.obj
 0001:00016130       ?FloodFill@Local@?7??extractHullPolygons@@YA_NAAIAAV?$Array@IV?$ReflectionAllocator@I@shdfnd@physx@@@shdfnd@physx@@ABVConvexPolygonsBuilder@5@PAV345@1@Z@SAX1PBVAdjTriangle@5@IPA_N@Z 10017130 f   ConvexPolygonsBuilder.obj
 0001:000161f0       ?TestDuplicateTriangles@@YA_NAAIPAU?$TriangleT@I@Gu@physx@@_N@Z 100171f0 f   ConvexPolygonsBuilder.obj
 0001:00016360       ?checkRedundantVertices@@YAXAAIAAV?$Array@IV?$ReflectionAllocator@I@shdfnd@physx@@@shdfnd@physx@@ABVConvexPolygonsBuilder@3@11@Z 10017360 f   ConvexPolygonsBuilder.obj
 0001:00018710       ?extractHullPolygons@@YA_NAAIAAV?$Array@IV?$ReflectionAllocator@I@shdfnd@physx@@@shdfnd@physx@@ABVConvexPolygonsBuilder@3@PAV123@1@Z 10019710 f   ConvexPolygonsBuilder.obj
 0001:00018fc0       ?findLineStrip@@YA_NAAV?$Array@IV?$ReflectionAllocator@I@shdfnd@physx@@@shdfnd@physx@@ABV?$Array@VPair@@V?$ReflectionAllocator@VPair@@@shdfnd@physx@@@23@@Z 10019fc0 f   ConvexPolygonsBuilder.obj
 0001:0001be60       $LN183                     1001ce60     QuickHullConvexHullLib.obj
 0001:0001cd7c       $LN330                     1001dd7c     QuickHullConvexHullLib.obj
 0001:0001e7c0       ?computeVolumeIntegrals@VolumeIntegratorEberly@?A0x312bc652@physx@@QAE_NAAUPxIntegrals@3@ABVPxVec3@3@@Z 1001f7c0 f   VolumeIntegration.obj
 0001:0001f4b0       ?computeVolumeIntegralsSIMD@VolumeIntegratorEberly@?A0x312bc652@physx@@QAE_NAAUPxIntegrals@3@ABVPxVec3@3@@Z 100204b0 f   VolumeIntegration.obj
 0001:0001fb78       $LN24                      10020b78     WindowsCookingDelayLoadHook.obj
 0001:00020420       $$000000                   10021420     LIBCMT:alloca16.obj
 0001:00020436       alloca_8                   10021436     LIBCMT:alloca16.obj
 0001:0002044c       ?<lambda_invoker_cdecl>@_Closure_wrapper_8fa8a6b4_2@@CAXQAX@Z 1002144c f   libvcruntime:std_type_info.obj
 0001:00020460       $$000000                   10021460     LIBCMT:chkstk.obj
 0001:00020474       cs10                       10021474     LIBCMT:chkstk.obj
 0001:00020482       cs20                       10021482     LIBCMT:chkstk.obj
 0001:00020490       $$000000                   10021490     LIBCMT:ftol3.obj
 0001:000204a0       _ftoui3_default            100214a0     LIBCMT:ftol3.obj
 0001:000204af       _ftoui3_cvt                100214af     LIBCMT:ftol3.obj
 0001:000204b4       _ftoui3_notsafe            100214b4     LIBCMT:ftol3.obj
 0001:000204c3       _ftoui3_neg                100214c3     LIBCMT:ftol3.obj
 0001:000204ca       _ftoui3_NaN                100214ca     LIBCMT:ftol3.obj
 0001:000204e0       $$000000                   100214e0     LIBCMT:svml_ssinf4_dispatch.obj
 0001:00020500       $$000000                   10021500     LIBCMT:svml_ssinf4_dispatch.obj
 0001:00020531       smallvalue                 10021531     LIBCMT:svml_ssinf4_dispatch.obj
 0001:0002054a       ?dllmain_crt_dispatch@@YGHQAUHINSTANCE__@@KQAX@Z 1002154a f   LIBCMT:dll_dllmain.obj
 0001:0002059d       ?dllmain_crt_process_attach@@YAHQAUHINSTANCE__@@QAX@Z 1002159d f   LIBCMT:dll_dllmain.obj
 0001:000206a4       ?dllmain_crt_process_detach@@YAH_N@Z 100216a4 f   LIBCMT:dll_dllmain.obj
 0001:00020754       ?dllmain_dispatch@@YAHQAUHINSTANCE__@@KQAX@Z 10021754 f   LIBCMT:dll_dllmain.obj
 0001:0002085f       ?dllmain_raw@@YGHQAUHINSTANCE__@@KQAX@Z 1002185f f   LIBCMT:dll_dllmain.obj
 0001:00020a80       $$000000                   10021a80     LIBCMT:svml_ssinf4_sse2.obj
 0001:00020b28       _2TAG_PACKET_1_0_1         10021b28     LIBCMT:svml_ssinf4_sse2.obj
 0001:00020b4c       _2TAG_PACKET_0_0_1         10021b4c     LIBCMT:svml_ssinf4_sse2.obj
 0001:00020c36       _2TAG_PACKET_2_0_1         10021c36     LIBCMT:svml_ssinf4_sse2.obj
 0001:00020c40       $$000000                   10021c40     LIBCMT:svml_ssinf4_sse4.obj
 0001:00020d04       _B1_2                      10021d04     LIBCMT:svml_ssinf4_sse4.obj
 0001:00020d06       _B1_3                      10021d06     LIBCMT:svml_ssinf4_sse4.obj
 0001:00020d0e       _B1_4                      10021d0e     LIBCMT:svml_ssinf4_sse4.obj
 0001:00020d1d       _B1_5                      10021d1d     LIBCMT:svml_ssinf4_sse4.obj
 0001:00020d2c       _B1_8                      10021d2c     LIBCMT:svml_ssinf4_sse4.obj
 0001:00020d2e       _B1_9                      10021d2e     LIBCMT:svml_ssinf4_sse4.obj
 0001:00020d37       _B1_10                     10021d37     LIBCMT:svml_ssinf4_sse4.obj
 0001:00020d41       _B1_11                     10021d41     LIBCMT:svml_ssinf4_sse4.obj
 0001:00020d4b       _B1_12                     10021d4b     LIBCMT:svml_ssinf4_sse4.obj
 0001:00020d59       _B1_16                     10021d59     LIBCMT:svml_ssinf4_sse4.obj
 0001:00020d61       _B1_13                     10021d61     LIBCMT:svml_ssinf4_sse4.obj
 0001:000212d5       ___get_entropy             100222d5 f   LIBCMT:gs_support.obj
 0001:0002139c       ?find_pe_section@@YAPAU_IMAGE_SECTION_HEADER@@QAEI@Z 1002239c f   LIBCMT:utility.obj
 0001:00021800       $$000000                   10022800     LIBCMT:sehprolg4.obj
 0001:00021850       $$000000                   10022850     LIBCMT:svml_dtrig.obj
 0001:0002186f       _B1_2                      1002286f     LIBCMT:svml_dtrig.obj
 0001:00021876       _B1_20                     10022876     LIBCMT:svml_dtrig.obj
 0001:0002187a       _B1_3                      1002287a     LIBCMT:svml_dtrig.obj
 0001:00021891       _B1_4                      10022891     LIBCMT:svml_dtrig.obj
 0001:000218a2       _B1_5                      100228a2     LIBCMT:svml_dtrig.obj
 0001:000218a6       _B1_6                      100228a6     LIBCMT:svml_dtrig.obj
 0001:000218c2       _B1_7                      100228c2     LIBCMT:svml_dtrig.obj
 0001:0002192e       _B1_8                      1002292e     LIBCMT:svml_dtrig.obj
 0001:00021993       _B1_9                      10022993     LIBCMT:svml_dtrig.obj
 0001:000219d0       _B1_10                     100229d0     LIBCMT:svml_dtrig.obj
 0001:000219da       _B1_11                     100229da     LIBCMT:svml_dtrig.obj
 0001:00021a53       _B1_21                     10022a53     LIBCMT:svml_dtrig.obj
 0001:00021a58       _B1_12                     10022a58     LIBCMT:svml_dtrig.obj
 0001:00021a84       _B1_22                     10022a84     LIBCMT:svml_dtrig.obj
 0001:00021a87       _B1_13                     10022a87     LIBCMT:svml_dtrig.obj
 0001:00021b1e       _B1_14                     10022b1e     LIBCMT:svml_dtrig.obj
 0001:00021b31       _B1_15                     10022b31     LIBCMT:svml_dtrig.obj
 0001:00021b35       _B1_16                     10022b35     LIBCMT:svml_dtrig.obj
 0001:00021b44       _B1_17                     10022b44     LIBCMT:svml_dtrig.obj
 0001:00021b60       $$000000                   10022b60     LIBCMT:svml_dtrig.obj
 0001:00021b60       ___common_srl              10022b60 f   LIBCMT:svml_dtrig.obj
 0001:00021b84       _2TAG_PACKET_3_0_2         10022b84     LIBCMT:svml_dtrig.obj
 0001:00021b8f       _2TAG_PACKET_2_0_2         10022b8f     LIBCMT:svml_dtrig.obj
 0001:00021ba0       $$000000                   10022ba0     LIBCMT:svml_dtrig.obj
 0001:00021ba0       ___common_sll              10022ba0 f   LIBCMT:svml_dtrig.obj
 0001:00021bc4       _2TAG_PACKET_1_0_1         10022bc4     LIBCMT:svml_dtrig.obj
 0001:00021bce       _2TAG_PACKET_0_0_1         10022bce     LIBCMT:svml_dtrig.obj
 0001:00021be0       $$000000                   10022be0     LIBCMT:svml_s_sin_cout.obj
 0001:00021bec       _B1_2                      10022bec     LIBCMT:svml_s_sin_cout.obj
 0001:00021bf2       _B1_3                      10022bf2     LIBCMT:svml_s_sin_cout.obj
 0001:00021c11       _B1_4                      10022c11     LIBCMT:svml_s_sin_cout.obj
 0001:00021c27       _B1_5                      10022c27     LIBCMT:svml_s_sin_cout.obj
 0001:00021c41       _B1_6                      10022c41     LIBCMT:svml_s_sin_cout.obj
 0001:00021c4f       _B1_7                      10022c4f     LIBCMT:svml_s_sin_cout.obj
 0001:00021c53       _B1_8                      10022c53     LIBCMT:svml_s_sin_cout.obj
 0001:00021dbb       ?<lambda_invoker_cdecl>@_Closure_wrapper_8fa8a6b4_1@@CAPAXI@Z 10022dbb f   libvcruntime:std_type_info.obj
 0001:00021ef0       $$000000                   10022ef0     libvcruntime:memset.obj
 0001:00021f35       XMMMov                     10022f35     libvcruntime:memset.obj
 0001:00021f70       LargeRangeBytes            10022f70     libvcruntime:memset.obj
 0001:00021fad       XmmMovSmall                10022fad     libvcruntime:memset.obj
 0001:00021fc0       XmmSmallLoop               10022fc0     libvcruntime:memset.obj
 0001:00021fc5       MidRangeBytes              10022fc5     libvcruntime:memset.obj
 0001:00021fe1       XMMTrailingBytes           10022fe1     libvcruntime:memset.obj
 0001:00021ff5       SmallMov                   10022ff5     libvcruntime:memset.obj
 0001:00021ffd       ByteLoop                   10022ffd     libvcruntime:memset.obj
 0001:0002200b       DwordTest                  1002300b     libvcruntime:memset.obj
 0001:0002201b       QwordTest                  1002301b     libvcruntime:memset.obj
 0001:00022030       QwordLoop                  10023030     libvcruntime:memset.obj
 0001:00022043       toend                      10023043     libvcruntime:memset.obj
 0001:00022050       $$000000                   10023050     libvcruntime:memcpy.obj
 0001:00022050       $$000000                   10023050     libvcruntime:memmove.obj
 0001:00022070       CopyUp                     10023070     libvcruntime:memcpy.obj
 0001:00022070       CopyUp                     10023070     libvcruntime:memmove.obj
 0001:00022094       CopyUpLargeMov             10023094     libvcruntime:memcpy.obj
 0001:00022094       CopyUpLargeMov             10023094     libvcruntime:memmove.obj
 0001:000220a7       CopyUpSSE2Check            100230a7     libvcruntime:memcpy.obj
 0001:000220a7       CopyUpSSE2Check            100230a7     libvcruntime:memmove.obj
 0001:000220c0       AtomChk                    100230c0     libvcruntime:memcpy.obj
 0001:000220c0       AtomChk                    100230c0     libvcruntime:memmove.obj
 0001:000220e6       PalignHead4                100230e6     libvcruntime:memcpy.obj
 0001:000220e6       PalignHead4                100230e6     libvcruntime:memmove.obj
 0001:000220f9       PalignHead8                100230f9     libvcruntime:memcpy.obj
 0001:000220f9       PalignHead8                100230f9     libvcruntime:memmove.obj
 0001:00022110       PalignLoop                 10023110     libvcruntime:memcpy.obj
 0001:00022110       PalignLoop                 10023110     libvcruntime:memmove.obj
 0001:00022122       MovPalign12                10023122     libvcruntime:memcpy.obj
 0001:00022122       MovPalign12                10023122     libvcruntime:memmove.obj
 0001:0002212c       PalignLoop12               1002312c     libvcruntime:memcpy.obj
 0001:0002212c       PalignLoop12               1002312c     libvcruntime:memmove.obj
 0001:0002217d       MovPalign8                 1002317d     libvcruntime:memcpy.obj
 0001:0002217d       MovPalign8                 1002317d     libvcruntime:memmove.obj
 0001:00022188       PalignLoop8                10023188     libvcruntime:memcpy.obj
 0001:00022188       PalignLoop8                10023188     libvcruntime:memmove.obj
 0001:000221d6       MovPalign4                 100231d6     libvcruntime:memcpy.obj
 0001:000221d6       MovPalign4                 100231d6     libvcruntime:memmove.obj
 0001:000221e0       PalignLoop4                100231e0     libvcruntime:memcpy.obj
 0001:000221e0       PalignLoop4                100231e0     libvcruntime:memmove.obj
 0001:0002222c       PalignTail                 1002322c     libvcruntime:memcpy.obj
 0001:0002222c       PalignTail                 1002322c     libvcruntime:memmove.obj
 0001:00022244       PalignTail4                10023244     libvcruntime:memcpy.obj
 0001:00022244       PalignTail4                10023244     libvcruntime:memmove.obj
 0001:00022257       PalignTail8                10023257     libvcruntime:memcpy.obj
 0001:00022257       PalignTail8                10023257     libvcruntime:memmove.obj
 0001:0002226e       PalignTailLE3              1002326e     libvcruntime:memcpy.obj
 0001:0002226e       PalignTailLE3              1002326e     libvcruntime:memmove.obj
 0001:00022277       Dword_align                10023277     libvcruntime:memcpy.obj
 0001:00022277       Dword_align                10023277     libvcruntime:memmove.obj
 0001:0002227f       Dword_up_align_loop        1002327f     libvcruntime:memcpy.obj
 0001:0002227f       Dword_up_align_loop        1002327f     libvcruntime:memmove.obj
 0001:00022292       Dword_align_Ok             10023292     libvcruntime:memcpy.obj
 0001:00022292       Dword_align_Ok             10023292     libvcruntime:memmove.obj
 0001:000222ac       ByteCopyUp                 100232ac     libvcruntime:memcpy.obj
 0001:000222ac       ByteCopyUp                 100232ac     libvcruntime:memmove.obj
 0001:000222b4       TrailingUpVec              100232b4     libvcruntime:memcpy.obj
 0001:000222b4       TrailingUpVec              100232b4     libvcruntime:memmove.obj
 0001:000222c4       TrailingUp0                100232c4     libvcruntime:memcpy.obj
 0001:000222c4       TrailingUp0                100232c4     libvcruntime:memmove.obj
 0001:000222cc       TrailingUp1                100232cc     libvcruntime:memcpy.obj
 0001:000222cc       TrailingUp1                100232cc     libvcruntime:memmove.obj
 0001:000222d8       TrailingUp2                100232d8     libvcruntime:memcpy.obj
 0001:000222d8       TrailingUp2                100232d8     libvcruntime:memmove.obj
 0001:000222ec       TrailingUp3                100232ec     libvcruntime:memcpy.obj
 0001:000222ec       TrailingUp3                100232ec     libvcruntime:memmove.obj
 0001:00022304       CopyDown                   10023304     libvcruntime:memcpy.obj
 0001:00022304       CopyDown                   10023304     libvcruntime:memmove.obj
 0001:00022329       CopyDownNotAligned         10023329     libvcruntime:memcpy.obj
 0001:00022329       CopyDownNotAligned         10023329     libvcruntime:memmove.obj
 0001:00022330       CopyDownAlignLoop          10023330     libvcruntime:memcpy.obj
 0001:00022330       CopyDownAlignLoop          10023330     libvcruntime:memmove.obj
 0001:0002233d       CopyDownAligned            1002333d     libvcruntime:memcpy.obj
 0001:0002233d       CopyDownAligned            1002333d     libvcruntime:memmove.obj
 0001:00022360       TrailingDownVec            10023360     libvcruntime:memcpy.obj
 0001:00022360       TrailingDownVec            10023360     libvcruntime:memmove.obj
 0001:00022370       TrailingDown0              10023370     libvcruntime:memcpy.obj
 0001:00022370       TrailingDown0              10023370     libvcruntime:memmove.obj
 0001:00022378       TrailingDown1              10023378     libvcruntime:memcpy.obj
 0001:00022378       TrailingDown1              10023378     libvcruntime:memmove.obj
 0001:00022388       TrailingDown2              10023388     libvcruntime:memcpy.obj
 0001:00022388       TrailingDown2              10023388     libvcruntime:memmove.obj
 0001:0002239c       TrailingDown3              1002339c     libvcruntime:memcpy.obj
 0001:0002239c       TrailingDown3              1002339c     libvcruntime:memmove.obj
 0001:000223b5       XmmMovLargeAlignTest       100233b5     libvcruntime:memcpy.obj
 0001:000223b5       XmmMovLargeAlignTest       100233b5     libvcruntime:memmove.obj
 0001:000223bd       XmmMovAlignLoop            100233bd     libvcruntime:memcpy.obj
 0001:000223bd       XmmMovAlignLoop            100233bd     libvcruntime:memmove.obj
 0001:000223cc       XmmMovLargeLoop            100233cc     libvcruntime:memcpy.obj
 0001:000223cc       XmmMovLargeLoop            100233cc     libvcruntime:memmove.obj
 0001:0002243c       XmmMovSmallTest            1002343c     libvcruntime:memcpy.obj
 0001:0002243c       XmmMovSmallTest            1002343c     libvcruntime:memmove.obj
 0001:00022441       XmmMovSmallLoop            10023441     libvcruntime:memcpy.obj
 0001:00022441       XmmMovSmallLoop            10023441     libvcruntime:memmove.obj
 0001:00022464       CopyDownSmall              10023464     libvcruntime:memcpy.obj
 0001:00022464       CopyDownSmall              10023464     libvcruntime:memmove.obj
 0001:0002246c       CopyDownDwordLoop          1002346c     libvcruntime:memcpy.obj
 0001:0002246c       CopyDownDwordLoop          1002346c     libvcruntime:memmove.obj
 0001:00022481       CopyDownByteTest           10023481     libvcruntime:memcpy.obj
 0001:00022481       CopyDownByteTest           10023481     libvcruntime:memmove.obj
 0001:00022485       CopyDownByteLoop           10023485     libvcruntime:memcpy.obj
 0001:00022485       CopyDownByteLoop           10023485     libvcruntime:memmove.obj
 0001:00022494       CopyDownReturn             10023494     libvcruntime:memcpy.obj
 0001:00022494       CopyDownReturn             10023494     libvcruntime:memmove.obj
 0001:000224a0       XmmCopy                    100234a0     libvcruntime:memcpy.obj
 0001:000224a0       XmmCopy                    100234a0     libvcruntime:memmove.obj
 0001:000224ad       XmmCopyAligned             100234ad     libvcruntime:memcpy.obj
 0001:000224ad       XmmCopyAligned             100234ad     libvcruntime:memmove.obj
 0001:000224c0       XmmCopyLargeLoop           100234c0     libvcruntime:memcpy.obj
 0001:000224c0       XmmCopyLargeLoop           100234c0     libvcruntime:memmove.obj
 0001:0002251d       XmmCopySmallTest           1002351d     libvcruntime:memcpy.obj
 0001:0002251d       XmmCopySmallTest           1002351d     libvcruntime:memmove.obj
 0001:00022530       XmmCopySmallLoop           10023530     libvcruntime:memcpy.obj
 0001:00022530       XmmCopySmallLoop           10023530     libvcruntime:memmove.obj
 0001:0002254b       CopyUpDwordMov             1002354b     libvcruntime:memcpy.obj
 0001:0002254b       CopyUpDwordMov             1002354b     libvcruntime:memmove.obj
 0001:00022550       CopyUpDwordTest            10023550     libvcruntime:memcpy.obj
 0001:00022550       CopyUpDwordTest            10023550     libvcruntime:memmove.obj
 0001:00022557       CopyUpDwordLoop            10023557     libvcruntime:memcpy.obj
 0001:00022557       CopyUpDwordLoop            10023557     libvcruntime:memmove.obj
 0001:00022566       CopyUpByteTest             10023566     libvcruntime:memcpy.obj
 0001:00022566       CopyUpByteTest             10023566     libvcruntime:memmove.obj
 0001:0002256d       CopyUpByteLoop             1002356d     libvcruntime:memcpy.obj
 0001:0002256d       CopyUpByteLoop             1002356d     libvcruntime:memmove.obj
 0001:00022580       CopyUpReturn               10023580     libvcruntime:memcpy.obj
 0001:00022580       CopyUpReturn               10023580     libvcruntime:memmove.obj
 0001:00022590       XmmCopyUnaligned           10023590     libvcruntime:memcpy.obj
 0001:00022590       XmmCopyUnaligned           10023590     libvcruntime:memmove.obj
 0001:000225a3       XmmAlignByte               100235a3     libvcruntime:memcpy.obj
 0001:000225a3       XmmAlignByte               100235a3     libvcruntime:memmove.obj
 0001:000225ac       XmmAlignDwordTest          100235ac     libvcruntime:memcpy.obj
 0001:000225ac       XmmAlignDwordTest          100235ac     libvcruntime:memmove.obj
 0001:000225b1       XmmAlignDwordLoop          100235b1     libvcruntime:memcpy.obj
 0001:000225b1       XmmAlignDwordLoop          100235b1     libvcruntime:memmove.obj
 0001:000225be       XmmAlignAdjustCnt          100235be     libvcruntime:memcpy.obj
 0001:000225be       XmmAlignAdjustCnt          100235be     libvcruntime:memmove.obj
 0001:000225d0       $$000000                   100235d0     libvcruntime:strstr.obj
 0001:00022613       strstr_sse_safeloop        10023613     libvcruntime:strstr.obj
 0001:0002263a       strstr_sse_search          1002363a     libvcruntime:strstr.obj
 0001:0002263a       strstr_sse_unsafe          1002363a     libvcruntime:strstr.obj
 0001:0002263e       strstr_sse_srchloop        1002363e     libvcruntime:strstr.obj
 0001:00022674       strstr_sse_srchchar        10023674     libvcruntime:strstr.obj
 0001:0002268b       strstr_sse_cmploop         1002368b     libvcruntime:strstr.obj
 0001:000226c6       strstr_sse_cmpchars        100236c6     libvcruntime:strstr.obj
 0001:000226cd       strstr_sse_cmpunsafe       100236cd     libvcruntime:strstr.obj
 0001:000226e4       strstr_sse_match           100236e4     libvcruntime:strstr.obj
 0001:000226e9       strstr_sse_not_found       100236e9     libvcruntime:strstr.obj
 0001:000226eb       strstr_sse_exit            100236eb     libvcruntime:strstr.obj
 0001:000226ef       strstr_sttni               100236ef     libvcruntime:strstr.obj
 0001:0002270b       strstr_sttni_setchars      1002370b     libvcruntime:strstr.obj
 0001:00022710       strstr_sttni_setloopchar   10023710     libvcruntime:strstr.obj
 0001:00022716       strstr_sttni_setloopnochar 10023716     libvcruntime:strstr.obj
 0001:0002272a       strstr_sttni_srchnext      1002372a     libvcruntime:strstr.obj
 0001:0002272d       strstr_sttni_srch          1002372d     libvcruntime:strstr.obj
 0001:00022731       strstr_sttni_srchloop      10023731     libvcruntime:strstr.obj
 0001:00022750       strstr_sttni_srchxmm       10023750     libvcruntime:strstr.obj
 0001:00022763       strstr_sttni_srchcheck     10023763     libvcruntime:strstr.obj
 0001:00022767       strstr_sttni_cmploop       10023767     libvcruntime:strstr.obj
 0001:0002279f       strstr_sttni_cmpchar       1002379f     libvcruntime:strstr.obj
 0001:000227ba       strstr_no_sse              100237ba     libvcruntime:strstr.obj
 0001:000227cd       findnext                   100237cd     libvcruntime:strstr.obj
 0001:000227e0       loop_start                 100237e0     libvcruntime:strstr.obj
 0001:000227e5       in_loop                    100237e5     libvcruntime:strstr.obj
 0001:000227ed       not_found                  100237ed     libvcruntime:strstr.obj
 0001:000227f3       first_char_found           100237f3     libvcruntime:strstr.obj
 0001:000227fc       two_first_chars_equal      100237fc     libvcruntime:strstr.obj
 0001:000227ff       compare_loop               100237ff     libvcruntime:strstr.obj
 0001:00022822       strchr_call                10023822     libvcruntime:strstr.obj
 0001:0002282e       match                      1002382e     libvcruntime:strstr.obj
 0001:00022835       empty_str2                 10023835     libvcruntime:strstr.obj
 0001:00022840       _ValidateLocalCookies      10023840 f   libvcruntime:chandler4.obj
 0001:00022ae0       ?_FilterSetCurrentException@@YAKPAU_EXCEPTION_POINTERS@@E@Z 10023ae0 f   libvcruntime:ehhelpers.obj
 0001:0002303e       ??1TrackRecursion@?1??getDecoratedName@UnDecorator@@CA?AVDName@@XZ@QAE@XZ 1002403e f   libvcruntime:undname.obj
 0001:00024c3a       $LN190                     10025c3a     libvcruntime:undname.obj
 0001:00024c5e       $LN189                     10025c5e     libvcruntime:undname.obj
 0001:00024c72       $LN191                     10025c72     libvcruntime:undname.obj
 0001:00025b7f       $LN49                      10026b7f     libvcruntime:undname.obj
 0001:00026bc4       $LN292                     10027bc4     libvcruntime:undname.obj
 0001:00026bd0       $LN291                     10027bd0     libvcruntime:undname.obj
 0001:00026be8       $LN294                     10027be8     libvcruntime:undname.obj
 0001:00026c04       $LN293                     10027c04     libvcruntime:undname.obj
 0001:00026c1c       $LN296                     10027c1c     libvcruntime:undname.obj
 0001:00026c2c       $LN295                     10027c2c     libvcruntime:undname.obj
 0001:00028184       $LN120                     10029184     libvcruntime:undname.obj
 0001:000281a0       $LN119                     100291a0     libvcruntime:undname.obj
 0001:00028644       $LN136                     10029644     libvcruntime:undname.obj
 0001:00028f6e       ?und_memcpy@@YAXPADPBDI@Z  10029f6e f   libvcruntime:undname.obj
 0001:00028f8f       ?und_strncmp@@YAIPBD0I@Z   10029f8f f   libvcruntime:undname.obj
 0001:000290d0       $$000000                   1002a0d0     libvcruntime:strchr.obj
 0001:00029103       strchr_sse_loop            1002a103     libvcruntime:strchr.obj
 0001:00029127       strchr_sse_break           1002a127     libvcruntime:strchr.obj
 0001:00029138       strchr_no_sse2             1002a138     libvcruntime:strchr.obj
 0001:00029150       str_misaligned             1002a150     libvcruntime:strchr.obj
 0001:00029165       main_loop_start            1002a165     libvcruntime:strchr.obj
 0001:00029170       main_loop                  1002a170     libvcruntime:strchr.obj
 0001:000291ac       retnull                    1002a1ac     libvcruntime:strchr.obj
 0001:000291ae       retnull_bx                 1002a1ae     libvcruntime:strchr.obj
 0001:000291b2       found_bx                   1002a1b2     libvcruntime:strchr.obj
 0001:000291b7       chr_is_found               1002a1b7     libvcruntime:strchr.obj
 0001:000291df       byte_3                     1002a1df     libvcruntime:strchr.obj
 0001:000291e6       byte_2                     1002a1e6     libvcruntime:strchr.obj
 0001:000291ed       byte_1                     1002a1ed     libvcruntime:strchr.obj
 0001:000291f4       byte_0                     1002a1f4     libvcruntime:strchr.obj
 0001:00029200       $$000000                   1002a200     libvcruntime:exsup4.obj
 0001:00029232       _lu_top                    1002a232     libvcruntime:exsup4.obj
 0001:00029291       _lu_done                   1002a291     libvcruntime:exsup4.obj
 0001:000292a0       $$000000                   1002a2a0     libvcruntime:exsup4.obj
 0001:000292a0       __unwind_handler4          1002a2a0 f   libvcruntime:exsup4.obj
 0001:000292f0       $$000000                   1002a2f0     libvcruntime:exsup4.obj
 0001:00029310       $$000000                   1002a310     libvcruntime:exsup4.obj
 0001:00029330       $$000000                   1002a330     libvcruntime:exsup4.obj
 0001:00029345       ReturnPoint                1002a345     libvcruntime:exsup4.obj
 0001:00029350       $$000000                   1002a350     libvcruntime:exsup4.obj
 0001:00029930       $$000000                   1002a930     libvcruntime:exsup.obj
 0001:00029940       $$000000                   1002a940     libvcruntime:exsup.obj
 0001:0002994b       __NLG_Go                   1002a94b     libvcruntime:exsup.obj
 0001:00029960       $$000000                   1002a960     libvcruntime:exsup.obj
 0001:00029963       ?try_get_first_available_module@@YAPAUHINSTANCE__@@QBW4module_id@?A0x26f6bd02@@0@Z 1002a963 f   libvcruntime:winapi_downlevel.obj
 0001:000299fd       ?try_get_function@@YAPAXW4function_id@?A0x26f6bd02@@QBDQBW4module_id@2@2@Z 1002a9fd f   libvcruntime:winapi_downlevel.obj
 0001:00029b7c       ??$BuildCatchObjectHelperInternal@V__FrameHandler3@@@@YAHPAUEHExceptionRecord@@PAXPBU_s_HandlerType@@PBU_s_CatchableType@@@Z 1002ab7c f   libvcruntime:frame.obj
 0001:00029cba       ??$BuildCatchObjectInternal@V__FrameHandler3@@@@YAXPAUEHExceptionRecord@@PAXPBU_s_HandlerType@@PBU_s_CatchableType@@@Z 1002acba f   libvcruntime:frame.obj
 0001:00029d53       ??$CatchIt@V__FrameHandler3@@@@YAXPAUEHExceptionRecord@@PAUEHRegistrationNode@@PAU_CONTEXT@@PAXPBU_s_FuncInfo@@PBU_s_HandlerType@@PBU_s_CatchableType@@PBU_s_TryBlockMapEntry@@H1EE@Z 1002ad53 f   libvcruntime:frame.obj
 0001:00029dd3       ??$FindHandler@V__FrameHandler3@@@@YAXPAUEHExceptionRecord@@PAUEHRegistrationNode@@PAU_CONTEXT@@PAXPBU_s_FuncInfo@@EH1@Z 1002add3 f   libvcruntime:frame.obj
 0001:0002a17d       ??$FindHandlerForForeignException@V__FrameHandler3@@@@YAXPAUEHExceptionRecord@@PAUEHRegistrationNode@@PAU_CONTEXT@@PAXPBU_s_FuncInfo@@HH1@Z 1002b17d f   libvcruntime:frame.obj
 0001:0002a4ff       ?CallCatchBlock@@YAPAXPAUEHExceptionRecord@@PAUEHRegistrationNode@@PAU_CONTEXT@@PBU_s_FuncInfo@@PAXHK@Z 1002b4ff f   libvcruntime:frame.obj
 0001:0002a6c3       ?CallUnexpected@@YAXPBU_s_ESTypeList@@@Z 1002b6c3 f   libvcruntime:frame.obj
 0001:0002a6e3       __catch$?CallUnexpected@@YAXPBU_s_ESTypeList@@@Z$0 1002b6e3 f   libvcruntime:frame.obj
 0001:0002a702       ?ExFilterRethrow@@YAHPAU_EXCEPTION_POINTERS@@@Z 1002b702 f   libvcruntime:frame.obj
 0001:0002a84c       ?IsInExceptionSpec@@YAEPAUEHExceptionRecord@@PBU_s_ESTypeList@@@Z 1002b84c f   libvcruntime:frame.obj
 0001:0002a930       $$000000                   1002b930     libvcruntime:lowhelpr.obj
 0001:0002a96f       _NLG_Continue              1002b96f     libvcruntime:lowhelpr.obj
 0001:0002b4a5       ??$?RV<lambda_03b1d95aef87969028cfba75ccab2455>@@AAV<lambda_6e4b09c48022b2350581041d5f6b0c4c>@@V<lambda_22bdf7517842c4b3e53723af5aa32b9e>@@@?$__crt_seh_guarded_call@X@@QAEX$$QAV<lambda_03b1d95aef87969028cfba75ccab2455>@@AAV<lambda_6e4b09c48022b2350581041d5f6b0c4c>@@$$QAV<lambda_22bdf7517842c4b3e53723af5aa32b9e>@@@Z 1002c4a5 f   libucrt:exit.obj
 0001:0002b50d       ??R<lambda_6e4b09c48022b2350581041d5f6b0c4c>@@QBE@XZ 1002c50d f   libucrt:exit.obj
 0001:0002b5f5       ?common_exit@@YAXHW4_crt_exit_cleanup_mode@@W4_crt_exit_return_mode@@@Z 1002c5f5 f   libucrt:exit.obj
 0001:0002b68c       ?exit_or_terminate_process@@YAXI@Z 1002c68c f   libucrt:exit.obj
 0001:0002b6bd       ?is_managed_app@@YA_NXZ    1002c6bd f   libucrt:exit.obj
 0001:0002b6ff       ?should_call_terminate_process@@YA_NXZ 1002c6ff f   libucrt:exit.obj
 0001:0002b718       ?try_cor_exit_process@@YAXI@Z 1002c718 f   libucrt:exit.obj
 0001:0002b7d5       ??$common_configure_argv@D@@YAHW4_crt_argv_mode@@@Z 1002c7d5 f   libucrt:argv_parsing.obj
 0001:0002b912       ??$parse_command_line@D@@YAXPADPAPAD0PAI2@Z 1002c912 f   libucrt:argv_parsing.obj
 0001:0002bae0       ??$common_initialize_environment_nolock@D@@YAHXZ 1002cae0 f   libucrt:environment_initialization.obj
 0001:0002bb3a       ??$create_environment@D@@YAQAPADQAD@Z 1002cb3a f   libucrt:environment_initialization.obj
 0001:0002bc1c       ??$free_environment@D@@YAXQAPAD@Z 1002cc1c f   libucrt:environment_initialization.obj
 0001:0002bc1c       ??$free_environment@_W@@YAXQAPA_W@Z 1002cc1c f   libucrt:environment_initialization.obj
 0001:0002bc4b       ??$uninitialize_environment_internal@D@@YAXAAPAPAD@Z 1002cc4b f   libucrt:environment_initialization.obj
 0001:0002bc66       ??$uninitialize_environment_internal@_W@@YAXAAPAPA_W@Z 1002cc66 f   libucrt:environment_initialization.obj
 0001:0002bcd7       ??$?RV<lambda_69a2805e680e0e292e8ba93315fe43a8>@@AAV<lambda_f03950bc5685219e0bcd2087efbe011e>@@V<lambda_03fcd07e894ec930e3f35da366ca99d6>@@@?$__crt_seh_guarded_call@H@@QAEH$$QAV<lambda_69a2805e680e0e292e8ba93315fe43a8>@@AAV<lambda_f03950bc5685219e0bcd2087efbe011e>@@$$QAV<lambda_03fcd07e894ec930e3f35da366ca99d6>@@@Z 1002ccd7 f   libucrt:onexit.obj
 0001:0002bd32       ??R<lambda_f03950bc5685219e0bcd2087efbe011e>@@QBE@XZ 1002cd32 f   libucrt:onexit.obj
 0001:0002be73       _initialize_global_variables 1002ce73 f   libucrt:initialization.obj
 0001:0002be80       _initialize_c              1002ce80 f   libucrt:initialization.obj
 0001:0002be9a       _initialize_environment    1002ce9a f   libucrt:initialization.obj
 0001:0002be9a       _initialize_global_state_isolation 1002ce9a f   libucrt:initialization.obj
 0001:0002be9a       _report_memory_leaks       1002ce9a f   libucrt:initialization.obj
 0001:0002be9a       _uninitialize_c            1002ce9a f   libucrt:initialization.obj
 0001:0002be9a       _uninitialize_global_state_isolation 1002ce9a f   libucrt:initialization.obj
 0001:0002be9d       _uninitialize_environment  1002ce9d f   libucrt:initialization.obj
 0001:0002bea5       _initialize_pointers       1002cea5 f   libucrt:initialization.obj
 0001:0002bed3       _uninitialize_vcruntime    1002ced3 f   libucrt:initialization.obj
 0001:0002bedc       _uninitialize_allocated_memory 1002cedc f   libucrt:initialization.obj
 0001:0002bef3       _uninitialize_allocated_io_buffers 1002cef3 f   libucrt:initialization.obj
 0001:0002bf62       ??R<lambda_af42a3ee9806e9a7305d451646e05244>@@QBE@AAPAU__crt_multibyte_data@@@Z 1002cf62 f   libucrt:initialization.obj
 0001:0002c0dc       ??$common_vsprintf@Vformat_validation_base@__crt_stdio_output@@D@@YAH_KQADIQBDAAV__crt_cached_ptd_host@@1@Z 1002d0dc f   libucrt:output.obj
 0001:0002c250       ??$common_vsprintf_s@D@@YAH_KQADIQBDAAV__crt_cached_ptd_host@@1@Z 1002d250 f   libucrt:output.obj
 0001:0002d408       $LN140                     1002e408     libucrt:output.obj
 0001:0002d914       $LN18                      1002e914     libucrt:output.obj
 0001:0002d928       $LN17                      1002e928     libucrt:output.obj
 0001:0002e160       $$000000                   1002f160     libucrt:strncmp.obj
 0001:0002e220       $$000000                   1002f220     libucrt:cos.obj
 0001:0002e270       $$000000                   1002f270     libucrt:sin.obj
 0001:0002e692       ??$?RV<lambda_15ade71b0218206bbe3333a0c9b79046>@@AAV<lambda_da44e0f8b0f19ba52fefafb335991732>@@V<lambda_207f2d024fc103971653565357d6cd41>@@@?$__crt_seh_guarded_call@X@@QAEX$$QAV<lambda_15ade71b0218206bbe3333a0c9b79046>@@AAV<lambda_da44e0f8b0f19ba52fefafb335991732>@@$$QAV<lambda_207f2d024fc103971653565357d6cd41>@@@Z 1002f692 f   libucrt:per_thread_data.obj
 0001:0002e6e4       ??$?RV<lambda_38edbb1296d33220d7e4dd0ed76b244a>@@AAV<lambda_5ce1d447e08cb34b2473517608e21441>@@V<lambda_fb385d3da700c9147fc39e65dd577a8c>@@@?$__crt_seh_guarded_call@X@@QAEX$$QAV<lambda_38edbb1296d33220d7e4dd0ed76b244a>@@AAV<lambda_5ce1d447e08cb34b2473517608e21441>@@$$QAV<lambda_fb385d3da700c9147fc39e65dd577a8c>@@@Z 1002f6e4 f   libucrt:per_thread_data.obj
 0001:0002e74f       ??$?RV<lambda_6affb1475c98b40b75cdec977db92e3c>@@AAV<lambda_b8d4b9c228a6ecc3f80208dbb4b4a104>@@V<lambda_608742c3c92a14382c1684fc64f96c88>@@@?$__crt_seh_guarded_call@X@@QAEX$$QAV<lambda_6affb1475c98b40b75cdec977db92e3c>@@AAV<lambda_b8d4b9c228a6ecc3f80208dbb4b4a104>@@$$QAV<lambda_608742c3c92a14382c1684fc64f96c88>@@@Z 1002f74f f   libucrt:per_thread_data.obj
 0001:0002e7a4       ??$?RV<lambda_a7e850c220f1c8d1e6efeecdedd162c6>@@AAV<lambda_46720907175c18b6c9d2717bc0d2d362>@@V<lambda_9048902d66e8d99359bc9897bbb930a8>@@@?$__crt_seh_guarded_call@X@@QAEX$$QAV<lambda_a7e850c220f1c8d1e6efeecdedd162c6>@@AAV<lambda_46720907175c18b6c9d2717bc0d2d362>@@$$QAV<lambda_9048902d66e8d99359bc9897bbb930a8>@@@Z 1002f7a4 f   libucrt:per_thread_data.obj
 0001:0002e7fe       ?construct_ptd@@YAXQAU__acrt_ptd@@QAPAU__crt_locale_data@@@Z 1002f7fe f   libucrt:per_thread_data.obj
 0001:0002e897       ?destroy_fls@@YGXPAX@Z     1002f897 f   libucrt:per_thread_data.obj
 0001:0002e8b8       ?destroy_ptd@@YAXQAU__acrt_ptd@@@Z 1002f8b8 f   libucrt:per_thread_data.obj
 0001:0002e985       ?replace_current_thread_locale_nolock@@YAXQAU__acrt_ptd@@QAU__crt_locale_data@@@Z 1002f985 f   libucrt:per_thread_data.obj
 0001:0002f099       ?<lambda_invoker_cdecl>@<lambda_838c7f62c73c983481e27c09e84b0b5d>@@CAHPBX0@Z 10030099 f   libucrt:argv_wildcards.obj
 0001:0002f246       ??$common_expand_argv_wildcards@D@@YAHQAPADQAPAPAD@Z 10030246 f   libucrt:argv_wildcards.obj
 0001:0002f3c3       ??$copy_and_add_argument_to_buffer@D@@YAHQBD0IAAV?$argument_list@D@?A0x5f5c8891@@@Z 100303c3 f   libucrt:argv_wildcards.obj
 0001:0002f474       ??$expand_argument_wildcards@D@@YAHQAD0AAV?$argument_list@D@?A0x5f5c8891@@@Z 10030474 f   libucrt:argv_wildcards.obj
 0001:0002f77b       ??1?$argument_list@D@?A0x5f5c8891@@QAE@XZ 1003077b f   libucrt:argv_wildcards.obj
 0001:0002f8b7       ?expand_if_necessary@?$argument_list@D@?A0x5f5c8891@@AAEHXZ 100308b7 f   libucrt:argv_wildcards.obj
 0001:0002fae7       ??$?RV<lambda_ceb1ee4838e85a9d631eb091e2fbe199>@@AAV<lambda_ae742caa10f662c28703da3d2ea5e57e>@@V<lambda_cd08b5d6af4937fe54fc07d0c9bf6b37>@@@?$__crt_seh_guarded_call@X@@QAEX$$QAV<lambda_ceb1ee4838e85a9d631eb091e2fbe199>@@AAV<lambda_ae742caa10f662c28703da3d2ea5e57e>@@$$QAV<lambda_cd08b5d6af4937fe54fc07d0c9bf6b37>@@@Z 10030ae7 f   libucrt:mbctype.obj
 0001:0002fb34       ??R<lambda_ae742caa10f662c28703da3d2ea5e57e>@@QBE@XZ 10030b34 f   libucrt:mbctype.obj
 0001:0002fbb7       ?CPtoLocaleName@@YAPB_WH@Z 10030bb7 f   libucrt:mbctype.obj
 0001:0002fbf5       ?getSystemCP@@YAHH@Z       10030bf5 f   libucrt:mbctype.obj
 0001:0002fc66       ?setSBCS@@YAXPAU__crt_multibyte_data@@@Z 10030c66 f   libucrt:mbctype.obj
 0001:0002fcc9       ?setSBUpLow@@YAXPAU__crt_multibyte_data@@@Z 10030cc9 f   libucrt:mbctype.obj
 0001:0002fe6e       ?setmbcp_internal@@YAHH_NQAU__acrt_ptd@@QAPAU__crt_multibyte_data@@@Z 10030e6e f   libucrt:mbctype.obj
 0001:0002ffc3       ?update_thread_multibyte_data_internal@@YAPAU__crt_multibyte_data@@QAU__acrt_ptd@@QAPAU1@@Z 10030fc3 f   libucrt:mbctype.obj
 0001:000302c3       _memcpy_s                  100312c3 f   libucrt:cfout.obj
 0001:000302c3       _memcpy_s                  100312c3 f   libucrt:mbctype.obj
 0001:00030344       ?x_ismbbtype_l@@YAHPAU__crt_locale_pointers@@IHH@Z 10031344 f   libucrt:ismbbyte.obj
 0001:000303c5       ?filter_mbtowcs_flags@@YAKIK@Z 100313c5 f   libucrt:multibytetowidechar.obj
 0001:00030487       ?filter_wcstomb_flags@@YAKIK@Z 10031487 f   libucrt:widechartomultibyte.obj
 0001:00030583       ?find_end_of_double_null_terminated_sequence@@YAPB_WQB_W@Z 10031583 f   libucrt:get_environment_from_os.obj
 0001:000306c7       ?try_get_AreFileApisANSI@@YAP6GHXZXZ 100316c7 f   libucrt:winapi_thunks.obj
 0001:000306e1       ?try_get_LCMapStringEx@@YAP6GHPB_WK0HPA_WHPAU_nlsversioninfo@@PAXJ@ZXZ 100316e1 f   libucrt:winapi_thunks.obj
 0001:000306fb       ?try_get_LocaleNameToLCID@@YAP6GKPB_WK@ZXZ 100316fb f   libucrt:winapi_thunks.obj
 0001:00030715       ?try_get_first_available_module@@YAPAUHINSTANCE__@@QBW4module_id@?A0x391cf84c@@0@Z 10031715 f   libucrt:winapi_thunks.obj
 0001:000307e0       ?try_get_function@@YAPAXW4function_id@?A0x391cf84c@@QBDQBW4module_id@2@2@Z 100317e0 f   libucrt:winapi_thunks.obj
 0001:00030b01       ?initialize_inherited_file_handles_nolock@@YAXXZ 10031b01 f   libucrt:ioinit.obj
 0001:00030bb7       ?initialize_stdio_handles_nolock@@YAXXZ 10031bb7 f   libucrt:ioinit.obj
 0001:00030e1e       ??$?RV<lambda_cbab9ec6f41b0180b23cc171c22676b0>@@AAV<lambda_44731a7d0e6d81c3e6aa82d741081786>@@V<lambda_4b292cb8dd18144e164572427af410ab>@@@?$__crt_seh_guarded_call@P6AXH@Z@@QAEP6AXH@Z$$QAV<lambda_cbab9ec6f41b0180b23cc171c22676b0>@@AAV<lambda_44731a7d0e6d81c3e6aa82d741081786>@@$$QAV<lambda_4b292cb8dd18144e164572427af410ab>@@@Z 10031e1e f   libucrt:signal.obj
 0001:00030e86       ?get_global_action_nolock@@YAPAP6AXH@ZH@Z 10031e86 f   libucrt:signal.obj
 0001:00030ec8       ?siglookup@@YAPAU__crt_signal_action_t@@HQAU1@@Z 10031ec8 f   libucrt:signal.obj
 0001:00031127       ??$?RV<lambda_2866be3712abc81a800a822484c830d8>@@AAV<lambda_39ca0ed439415581b5b15c265174cece>@@V<lambda_2b24c74d71094a6cd0cb82e44167d71b>@@@?$__crt_seh_guarded_call@X@@QAEX$$QAV<lambda_2866be3712abc81a800a822484c830d8>@@AAV<lambda_39ca0ed439415581b5b15c265174cece>@@$$QAV<lambda_2b24c74d71094a6cd0cb82e44167d71b>@@@Z 10032127 f   libucrt:fflush.obj
 0001:000311b3       ??$?RV<lambda_2cc53f568c5a2bb6f192f930a45d44ea>@@AAV<lambda_ab61a845afdef5b7c387490eaf3616ee>@@V<lambda_c2ffc0b7726aa6be21d5f0026187e748>@@@?$__crt_seh_guarded_call@X@@QAEX$$QAV<lambda_2cc53f568c5a2bb6f192f930a45d44ea>@@AAV<lambda_ab61a845afdef5b7c387490eaf3616ee>@@$$QAV<lambda_c2ffc0b7726aa6be21d5f0026187e748>@@@Z 100321b3 f   libucrt:fflush.obj
 0001:0003125f       ?common_flush_all@@YAH_N@Z 1003225f f   libucrt:fflush.obj
 0001:000312ac       ?common_flush_all_should_try_to_flush_stream@@YA_NV__crt_stdio_stream@@QAH@Z 100322ac f   libucrt:fflush.obj
 0001:000312dd       ?is_stream_flushable_or_commitable@@YA_NJ@Z 100322dd f   libucrt:fflush.obj
 0001:00031951       ?fe_to_nearest@@YA_NQBN_KF@Z 10032951 f   libucrt:cvt.obj
 0001:000319f4       ?fp_format_a@@YAHQBNPADIQADIH_NIW4__acrt_rounding_mode@@AAV__crt_cached_ptd_host@@@Z 100329f4 f   libucrt:cvt.obj
 0001:00031d21       ?fp_format_e@@YAHQBNQADI1IH_NIW4__acrt_rounding_mode@@AAV__crt_cached_ptd_host@@@Z 10032d21 f   libucrt:cvt.obj
 0001:00031dc5       ?fp_format_e_internal@@YAHQADIH_NIQAU_strflt@@1AAV__crt_cached_ptd_host@@@Z 10032dc5 f   libucrt:cvt.obj
 0001:00031f18       ?fp_format_f@@YAHQBNQADI1IHW4__acrt_rounding_mode@@AAV__crt_cached_ptd_host@@@Z 10032f18 f   libucrt:cvt.obj
 0001:00031fae       ?fp_format_f_internal@@YAHQADIHQAU_strflt@@_NAAV__crt_cached_ptd_host@@@Z 10032fae f   libucrt:cvt.obj
 0001:0003209c       ?fp_format_g@@YAHQBNQADI1IH_NIW4__acrt_rounding_mode@@AAV__crt_cached_ptd_host@@@Z 1003309c f   libucrt:cvt.obj
 0001:0003216b       ?fp_format_nan_or_infinity@@YAHW4__acrt_fp_class@@_NPADI1@Z 1003316b f   libucrt:cvt.obj
 0001:00032200       ?shift_bytes@@YAXQADI0H@Z  10033200 f   libucrt:cvt.obj
 0001:00032234       ?should_round_up@@YA_NQBN_KFW4__acrt_rounding_mode@@@Z 10033234 f   libucrt:cvt.obj
 0001:00032721       ??$?RV<lambda_e5124f882df8998aaf41531e079ba474>@@AAV<lambda_3e16ef9562a7dcce91392c22ab16ea36>@@V<lambda_e25ca0880e6ef98be67edffd8c599615>@@@?$__crt_seh_guarded_call@X@@QAEX$$QAV<lambda_e5124f882df8998aaf41531e079ba474>@@AAV<lambda_3e16ef9562a7dcce91392c22ab16ea36>@@$$QAV<lambda_e25ca0880e6ef98be67edffd8c599615>@@@Z 10033721 f   libucrt:wsetlocale.obj
 0001:000328c0       $$000000                   100338c0     libucrt:cos_impl.obj
 0001:000329b0       $$000000                   100339b0     libucrt:cos_pentium4.obj
 0001:00032b60       $$000000                   10033b60     libucrt:sin_impl.obj
 0001:00032c50       $$000000                   10033c50     libucrt:sin_pentium4.obj
 0001:00032e18       ?to_abstract_control@@YA?AW4__acrt_fenv_abstract_control@@W4__acrt_fenv_machine_sse_control@@@Z 10033e18 f   libucrt:_fenvutils.obj
 0001:00032ec8       ?to_abstract_control@@YA?AW4__acrt_fenv_abstract_control@@W4__acrt_fenv_machine_x87_control@@@Z 10033ec8 f   libucrt:_fenvutils.obj
 0001:00032f75       ?to_machine_sse_control@@YA?AW4__acrt_fenv_machine_sse_control@@W4__acrt_fenv_abstract_control@@@Z 10033f75 f   libucrt:_fenvutils.obj
 0001:0003302b       ?to_machine_x87_control@@YA?AW4__acrt_fenv_machine_x87_control@@W4__acrt_fenv_abstract_control@@@Z 1003402b f   libucrt:_fenvutils.obj
 0001:00033c3e       ??$common_tcsncpy_s@D@@YAHQADIQBDI@Z 10034c3e f   libucrt:strncpy_s.obj
 0001:00033d00       $$000000                   10034d00     libucrt:strpbrk.obj
 0001:00033f05       ?__acrt_LCMapStringA_stat@@YAHPAU__crt_locale_pointers@@PB_WKPBDHPADHHH@Z 10034f05 f   libucrt:lcmapstringa.obj
 0001:0003413d       ?initialize_multibyte@@YAHXZ 1003513d f   libucrt:multibyte_initializer.obj
 0001:000341e8       ?GetTableIndexFromLocaleName@@YAHPB_W@Z 100351e8 f   libucrt:lcidtoname_downlevel.obj
 0001:000344f3       ??$?RV<lambda_9e9de3de5fa147e2223d7db92bc10aa6>@@AAV<lambda_38ce7e780aa69e748d6df282ebc68efe>@@V<lambda_8ca6da459f0f6780f1cff60fdc3d00e5>@@@?$__crt_seh_guarded_call@H@@QAEH$$QAV<lambda_9e9de3de5fa147e2223d7db92bc10aa6>@@AAV<lambda_38ce7e780aa69e748d6df282ebc68efe>@@$$QAV<lambda_8ca6da459f0f6780f1cff60fdc3d00e5>@@@Z 100354f3 f   libucrt:commit.obj
 0001:00034612       ?write_double_translated_ansi_nolock@@YA?AUwrite_result@?A0x17268360@@HQBDIAAV__crt_cached_ptd_host@@@Z 10035612 f   libucrt:write.obj
 0001:000349d9       ?write_double_translated_unicode_nolock@@YA?AUwrite_result@?A0x17268360@@QBDI@Z 100359d9 f   libucrt:write.obj
 0001:00034a41       ?write_requires_double_translation_nolock@@YA_NHAAV__crt_cached_ptd_host@@@Z 10035a41 f   libucrt:write.obj
 0001:00034abe       ?write_text_ansi_nolock@@YA?AUwrite_result@?A0x17268360@@HQBDI@Z 10035abe f   libucrt:write.obj
 0001:00034b99       ?write_text_utf16le_nolock@@YA?AUwrite_result@?A0x17268360@@HQBDI@Z 10035b99 f   libucrt:write.obj
 0001:00034c82       ?write_text_utf8_nolock@@YA?AUwrite_result@?A0x17268360@@HQBDI@Z 10035c82 f   libucrt:write.obj
 0001:00035222       ?check_trailing@@YA_NPBDW4__acrt_has_trailing_digits@@@Z 10036222 f   libucrt:_fptostr.obj
 0001:00035245       ?should_round_up@@YA_NQBD0HW4__acrt_has_trailing_digits@@W4__acrt_rounding_mode@@@Z 10036245 f   libucrt:_fptostr.obj
 0001:00036f13       ??R<lambda_e96123212306c92459f955e8e4eac55d>@@QBEIPBD@Z 10037f13 f   libucrt:mbrtowc.obj
 0001:000371f1       ?free_crt_array_internal@@YAXQAPBXI@Z 100381f1 f   libucrt:inittime.obj
 0001:00037300       $$000000                   10038300     libucrt:87disp.obj
 0001:00037560       $$000000                   10038560     libucrt:common.obj
 0001:000376f0       $$000000                   100386f0     libucrt:genexcep.obj
 0001:000377b4       ??$common_lseek_nolock@_J@@YA_JH_JHAAV__crt_cached_ptd_host@@@Z 100387b4 f   libucrt:lseek.obj
 0001:00037887       ?_fclose_internal@@YAHQAU_iobuf@@AAV__crt_cached_ptd_host@@@Z 10038887 f   libucrt:fclose.obj
 0001:0003791e       ?_fclose_nolock_internal@@YAHQAU_iobuf@@AAV__crt_cached_ptd_host@@@Z 1003891e f   libucrt:fclose.obj
 0001:00037b00       $$000000                   10038b00     libucrt:log10_impl.obj
 0001:00037c10       $$000000                   10038c10     libucrt:ceil_pentium4.obj
 0001:00038030       $$000000                   10039030     libucrt:_strnicm.obj
 0001:00038091       ?__dcrt_lowio_initialize_console_output@@YAXXZ 10039091 f   libucrt:initcon.obj
 0001:0003813b       ??$?RV<lambda_d422a76eb4c3bf3ad751449ab71a6ea4>@@AAV<lambda_c9ba49e555ba839a7b07aa3fbecb7617>@@V<lambda_9476263c8ee91a25d21c55370bdb50de>@@@?$__crt_seh_guarded_call@H@@QAEH$$QAV<lambda_d422a76eb4c3bf3ad751449ab71a6ea4>@@AAV<lambda_c9ba49e555ba839a7b07aa3fbecb7617>@@$$QAV<lambda_9476263c8ee91a25d21c55370bdb50de>@@@Z 1003913b f   libucrt:close.obj
 0001:0003834a       ___hw_cw_sse2              1003934a f   libucrt:ieee87.obj
 0001:000387d0       __hw_cw                    100397d0 f   libucrt:ieee87.obj
 0001:00038870       $$000000                   10039870     libucrt:log10_pentium4.obj
 0001:00038b00       $$000000                   10039b00     libucrt:87tran.obj
 0001:00039320       $$000000                   1003a320     LIBCMT:ulldvrm.obj
 0001:00039351       L1                         1003a351     LIBCMT:ulldvrm.obj
 0001:0003935f       L3                         1003a35f     LIBCMT:ulldvrm.obj
 0001:0003938d       L4                         1003a38d     LIBCMT:ulldvrm.obj
 0001:00039396       L5                         1003a396     LIBCMT:ulldvrm.obj
 0001:00039398       L2                         1003a398     LIBCMT:ulldvrm.obj
 0001:000393c0       $$000000                   1003a3c0     LIBCMT:ulldiv.obj
 0001:000393e2       L1                         1003a3e2     LIBCMT:ulldiv.obj
 0001:000393f0       L3                         1003a3f0     LIBCMT:ulldiv.obj
 0001:0003941e       L4                         1003a41e     LIBCMT:ulldiv.obj
 0001:0003941f       L5                         1003a41f     LIBCMT:ulldiv.obj
 0001:00039423       L2                         1003a423     LIBCMT:ulldiv.obj
 0001:00039430       $$000000                   1003a430     LIBCMT:ullrem.obj
 0001:00039451       L1                         1003a451     LIBCMT:ullrem.obj
 0001:0003945f       L3                         1003a45f     LIBCMT:ullrem.obj
 0001:0003948a       L4                         1003a48a     LIBCMT:ullrem.obj
 0001:00039492       L5                         1003a492     LIBCMT:ullrem.obj
 0001:000394a1       L2                         1003a4a1     LIBCMT:ullrem.obj
 0001:000394b0       $$000000                   1003a4b0     LIBCMT:llmul.obj
 0001:000394c9       hard                       1003a4c9     LIBCMT:llmul.obj
 0001:000394f0       $$000000                   1003a4f0     LIBCMT:lldiv.obj
 0001:00039511       L1                         1003a511     LIBCMT:lldiv.obj
 0001:0003952d       L2                         1003a52d     LIBCMT:lldiv.obj
 0001:00039549       L3                         1003a549     LIBCMT:lldiv.obj
 0001:00039557       L5                         1003a557     LIBCMT:lldiv.obj
 0001:00039585       L6                         1003a585     LIBCMT:lldiv.obj
 0001:00039586       L7                         1003a586     LIBCMT:lldiv.obj
 0001:0003958a       L4                         1003a58a     LIBCMT:lldiv.obj
 0001:00039594       L8                         1003a594     LIBCMT:lldiv.obj
 0001:000395a0       $$000000                   1003a5a0     LIBCMT:llrem.obj
 0001:000395c0       L1                         1003a5c0     LIBCMT:llrem.obj
 0001:000395db       L2                         1003a5db     LIBCMT:llrem.obj
 0001:000395fa       L3                         1003a5fa     LIBCMT:llrem.obj
 0001:00039608       L5                         1003a608     LIBCMT:llrem.obj
 0001:00039633       L6                         1003a633     LIBCMT:llrem.obj
 0001:0003963b       L7                         1003a63b     LIBCMT:llrem.obj
 0001:00039646       L4                         1003a646     LIBCMT:llrem.obj
 0001:0003964d       L8                         1003a64d     LIBCMT:llrem.obj
 0001:00039660       $$000000                   1003a660     LIBCMT:llshl.obj
 0001:00039670       MORE32                     1003a670     LIBCMT:llshl.obj
 0001:0003967a       RETZERO                    1003a67a     LIBCMT:llshl.obj
 0001:00039680       $$000000                   1003a680     LIBCMT:ullshr.obj
 0001:00039690       MORE32                     1003a690     LIBCMT:ullshr.obj
 0001:0003969a       RETZERO                    1003a69a     LIBCMT:ullshr.obj
 0001:000396a0       $$000000                   1003a6a0     LIBCMT:ftol2.obj
 0001:000396b0       $$000000                   1003a6b0     LIBCMT:ftol2.obj
 0001:000396c1       L3B                        1003a6c1     LIBCMT:ftol2.obj
 0001:00039704       L3F                        1003a704     LIBCMT:ftol2.obj
 0001:0003970c       L40                        1003a70c     LIBCMT:ftol2.obj
 0001:0003971f       L41                        1003a71f     LIBCMT:ftol2.obj
 0001:00039730       $$000000                   1003a730     libvcruntime:strrchr.obj
 0001:0003976d       strrchr_sse_loop           1003a76d     libvcruntime:strrchr.obj
 0001:0003979d       strrchr_sse_break          1003a79d     libvcruntime:strrchr.obj
 0001:000397bd       strrchr_sttni              1003a7bd     libvcruntime:strrchr.obj
 0001:000397cf       strrchr_sttni_chars        1003a7cf     libvcruntime:strrchr.obj
 0001:000397e4       strrchr_sttni_aligned      1003a7e4     libvcruntime:strrchr.obj
 0001:000397e8       strrchr_sttni_xmm          1003a7e8     libvcruntime:strrchr.obj
 0001:000397fb       exit                       1003a7fb     libvcruntime:strrchr.obj
 0001:000397fe       strrchr_zero               1003a7fe     libvcruntime:strrchr.obj
 0001:00039823       strchr_zero_loop           1003a823     libvcruntime:strrchr.obj
 0001:00039837       strchr_zero_result         1003a837     libvcruntime:strrchr.obj
 0001:0003983e       strrchr_no_sse             1003a83e     libvcruntime:strrchr.obj
 0001:00039861       returndi                   1003a861     libvcruntime:strrchr.obj
 0001:00039863       toend                      1003a863     libvcruntime:strrchr.obj
 0001:000398df       __unwindfunclet$?getDecoratedName@UnDecorator@@CA?AVDName@@XZ$0 1003a8df f   libvcruntime:undname.obj
 0001:000398ec       __ehhandler$?getDecoratedName@UnDecorator@@CA?AVDName@@XZ 1003a8ec f   libvcruntime:undname.obj
 0001:00039909       __ehhandler$?CallUnexpected@@YAXPBU_s_ESTypeList@@@Z 1003a909 f   libvcruntime:frame.obj
 0001:00039926       __ehhandler$?common_exit@@YAXHW4_crt_exit_cleanup_mode@@W4_crt_exit_return_mode@@@Z 1003a926 f   libucrt:exit.obj
 0001:00039943       __ehhandler$?try_cor_exit_process@@YAXI@Z 1003a943 f   libucrt:exit.obj
 0001:00039960       __ehhandler$___dcrt_uninitialize_environments_nolock 1003a960 f   libucrt:environment_initialization.obj
 0001:0003997d       __ehhandler$__execute_onexit_table 1003a97d f   libucrt:onexit.obj
 0001:0003999a       __ehhandler$?write_double_translated_ansi_nolock@@YA?AUwrite_result@?A0x17268360@@HQBDIAAV__crt_cached_ptd_host@@@Z 1003a99a f   libucrt:write.obj
 0002:00000128       ?minFError$initializer$@_VecMathTests@aos@shdfnd@physx@@3P6AXXZA 1003b128     Cooking.obj
 0002:0000012c       ?maxFError$initializer$@_VecMathTests@aos@shdfnd@physx@@3P6AXXZA 1003b12c     Cooking.obj
 0002:00000130       ?minV3Error$initializer$@_VecMathTests@aos@shdfnd@physx@@3P6AXXZA 1003b130     Cooking.obj
 0002:00000134       ?maxV3Error$initializer$@_VecMathTests@aos@shdfnd@physx@@3P6AXXZA 1003b134     Cooking.obj
 0002:00000138       ?minV4Error$initializer$@_VecMathTests@aos@shdfnd@physx@@3P6AXXZA 1003b138     Cooking.obj
 0002:0000013c       ?maxV4Error$initializer$@_VecMathTests@aos@shdfnd@physx@@3P6AXXZA 1003b13c     Cooking.obj
 0002:00000140       ?minFError$initializer$@_VecMathTests@aos@shdfnd@physx@@3P6AXXZA 1003b140     BVHStructureBuilder.obj
 0002:00000144       ?maxFError$initializer$@_VecMathTests@aos@shdfnd@physx@@3P6AXXZA 1003b144     BVHStructureBuilder.obj
 0002:00000148       ?minV3Error$initializer$@_VecMathTests@aos@shdfnd@physx@@3P6AXXZA 1003b148     BVHStructureBuilder.obj
 0002:0000014c       ?maxV3Error$initializer$@_VecMathTests@aos@shdfnd@physx@@3P6AXXZA 1003b14c     BVHStructureBuilder.obj
 0002:00000150       ?minV4Error$initializer$@_VecMathTests@aos@shdfnd@physx@@3P6AXXZA 1003b150     BVHStructureBuilder.obj
 0002:00000154       ?maxV4Error$initializer$@_VecMathTests@aos@shdfnd@physx@@3P6AXXZA 1003b154     BVHStructureBuilder.obj
 0002:00000158       ?minFError$initializer$@_VecMathTests@aos@shdfnd@physx@@3P6AXXZA 1003b158     RTreeCooking.obj
 0002:0000015c       ?maxFError$initializer$@_VecMathTests@aos@shdfnd@physx@@3P6AXXZA 1003b15c     RTreeCooking.obj
 0002:00000160       ?minV3Error$initializer$@_VecMathTests@aos@shdfnd@physx@@3P6AXXZA 1003b160     RTreeCooking.obj
 0002:00000164       ?maxV3Error$initializer$@_VecMathTests@aos@shdfnd@physx@@3P6AXXZA 1003b164     RTreeCooking.obj
 0002:00000168       ?minV4Error$initializer$@_VecMathTests@aos@shdfnd@physx@@3P6AXXZA 1003b168     RTreeCooking.obj
 0002:0000016c       ?maxV4Error$initializer$@_VecMathTests@aos@shdfnd@physx@@3P6AXXZA 1003b16c     RTreeCooking.obj
 0002:00000170       ?minFError$initializer$@_VecMathTests@aos@shdfnd@physx@@3P6AXXZA 1003b170     MeshBuilder.obj
 0002:00000174       ?maxFError$initializer$@_VecMathTests@aos@shdfnd@physx@@3P6AXXZA 1003b174     MeshBuilder.obj
 0002:00000178       ?minV3Error$initializer$@_VecMathTests@aos@shdfnd@physx@@3P6AXXZA 1003b178     MeshBuilder.obj
 0002:0000017c       ?maxV3Error$initializer$@_VecMathTests@aos@shdfnd@physx@@3P6AXXZA 1003b17c     MeshBuilder.obj
 0002:00000180       ?minV4Error$initializer$@_VecMathTests@aos@shdfnd@physx@@3P6AXXZA 1003b180     MeshBuilder.obj
 0002:00000184       ?maxV4Error$initializer$@_VecMathTests@aos@shdfnd@physx@@3P6AXXZA 1003b184     MeshBuilder.obj
 0002:00000188       ?minFError$initializer$@_VecMathTests@aos@shdfnd@physx@@3P6AXXZA 1003b188     TriangleMeshBuilder.obj
 0002:0000018c       ?maxFError$initializer$@_VecMathTests@aos@shdfnd@physx@@3P6AXXZA 1003b18c     TriangleMeshBuilder.obj
 0002:00000190       ?minV3Error$initializer$@_VecMathTests@aos@shdfnd@physx@@3P6AXXZA 1003b190     TriangleMeshBuilder.obj
 0002:00000194       ?maxV3Error$initializer$@_VecMathTests@aos@shdfnd@physx@@3P6AXXZA 1003b194     TriangleMeshBuilder.obj
 0002:00000198       ?minV4Error$initializer$@_VecMathTests@aos@shdfnd@physx@@3P6AXXZA 1003b198     TriangleMeshBuilder.obj
 0002:0000019c       ?maxV4Error$initializer$@_VecMathTests@aos@shdfnd@physx@@3P6AXXZA 1003b19c     TriangleMeshBuilder.obj
 0002:000001a0       ?minFError$initializer$@_VecMathTests@aos@shdfnd@physx@@3P6AXXZA 1003b1a0     BigConvexDataBuilder.obj
 0002:000001a4       ?maxFError$initializer$@_VecMathTests@aos@shdfnd@physx@@3P6AXXZA 1003b1a4     BigConvexDataBuilder.obj
 0002:000001a8       ?minV3Error$initializer$@_VecMathTests@aos@shdfnd@physx@@3P6AXXZA 1003b1a8     BigConvexDataBuilder.obj
 0002:000001ac       ?maxV3Error$initializer$@_VecMathTests@aos@shdfnd@physx@@3P6AXXZA 1003b1ac     BigConvexDataBuilder.obj
 0002:000001b0       ?minV4Error$initializer$@_VecMathTests@aos@shdfnd@physx@@3P6AXXZA 1003b1b0     BigConvexDataBuilder.obj
 0002:000001b4       ?maxV4Error$initializer$@_VecMathTests@aos@shdfnd@physx@@3P6AXXZA 1003b1b4     BigConvexDataBuilder.obj
 0002:000001b8       ?minFError$initializer$@_VecMathTests@aos@shdfnd@physx@@3P6AXXZA 1003b1b8     ConvexHullBuilder.obj
 0002:000001bc       ?maxFError$initializer$@_VecMathTests@aos@shdfnd@physx@@3P6AXXZA 1003b1bc     ConvexHullBuilder.obj
 0002:000001c0       ?minV3Error$initializer$@_VecMathTests@aos@shdfnd@physx@@3P6AXXZA 1003b1c0     ConvexHullBuilder.obj
 0002:000001c4       ?maxV3Error$initializer$@_VecMathTests@aos@shdfnd@physx@@3P6AXXZA 1003b1c4     ConvexHullBuilder.obj
 0002:000001c8       ?minV4Error$initializer$@_VecMathTests@aos@shdfnd@physx@@3P6AXXZA 1003b1c8     ConvexHullBuilder.obj
 0002:000001cc       ?maxV4Error$initializer$@_VecMathTests@aos@shdfnd@physx@@3P6AXXZA 1003b1cc     ConvexHullBuilder.obj
 0002:000001d0       ?minFError$initializer$@_VecMathTests@aos@shdfnd@physx@@3P6AXXZA 1003b1d0     ConvexHullUtils.obj
 0002:000001d4       ?maxFError$initializer$@_VecMathTests@aos@shdfnd@physx@@3P6AXXZA 1003b1d4     ConvexHullUtils.obj
 0002:000001d8       ?minV3Error$initializer$@_VecMathTests@aos@shdfnd@physx@@3P6AXXZA 1003b1d8     ConvexHullUtils.obj
 0002:000001dc       ?maxV3Error$initializer$@_VecMathTests@aos@shdfnd@physx@@3P6AXXZA 1003b1dc     ConvexHullUtils.obj
 0002:000001e0       ?minV4Error$initializer$@_VecMathTests@aos@shdfnd@physx@@3P6AXXZA 1003b1e0     ConvexHullUtils.obj
 0002:000001e4       ?maxV4Error$initializer$@_VecMathTests@aos@shdfnd@physx@@3P6AXXZA 1003b1e4     ConvexHullUtils.obj
 0002:000001e8       ?minFError$initializer$@_VecMathTests@aos@shdfnd@physx@@3P6AXXZA 1003b1e8     ConvexMeshBuilder.obj
 0002:000001ec       ?maxFError$initializer$@_VecMathTests@aos@shdfnd@physx@@3P6AXXZA 1003b1ec     ConvexMeshBuilder.obj
 0002:000001f0       ?minV3Error$initializer$@_VecMathTests@aos@shdfnd@physx@@3P6AXXZA 1003b1f0     ConvexMeshBuilder.obj
 0002:000001f4       ?maxV3Error$initializer$@_VecMathTests@aos@shdfnd@physx@@3P6AXXZA 1003b1f4     ConvexMeshBuilder.obj
 0002:000001f8       ?minV4Error$initializer$@_VecMathTests@aos@shdfnd@physx@@3P6AXXZA 1003b1f8     ConvexMeshBuilder.obj
 0002:000001fc       ?maxV4Error$initializer$@_VecMathTests@aos@shdfnd@physx@@3P6AXXZA 1003b1fc     ConvexMeshBuilder.obj
 0002:00000200       ?minFError$initializer$@_VecMathTests@aos@shdfnd@physx@@3P6AXXZA 1003b200     VolumeIntegration.obj
 0002:00000204       ?maxFError$initializer$@_VecMathTests@aos@shdfnd@physx@@3P6AXXZA 1003b204     VolumeIntegration.obj
 0002:00000208       ?minV3Error$initializer$@_VecMathTests@aos@shdfnd@physx@@3P6AXXZA 1003b208     VolumeIntegration.obj
 0002:0000020c       ?maxV3Error$initializer$@_VecMathTests@aos@shdfnd@physx@@3P6AXXZA 1003b20c     VolumeIntegration.obj
 0002:00000210       ?minV4Error$initializer$@_VecMathTests@aos@shdfnd@physx@@3P6AXXZA 1003b210     VolumeIntegration.obj
 0002:00000214       ?maxV4Error$initializer$@_VecMathTests@aos@shdfnd@physx@@3P6AXXZA 1003b214     VolumeIntegration.obj
 0002:00000350       ?minus1w@?A0xd46b647b@aos@shdfnd@physx@@3QBMB 1003b350     Cooking.obj
 0002:00000360       ?gMaskXYZ@internalWindowsSimd@aos@shdfnd@physx@@3QBIB 1003b360     Cooking.obj
 0002:000009d0       ?minus1w@?A0xe5c30a62@aos@shdfnd@physx@@3QBMB 1003b9d0     BVHStructureBuilder.obj
 0002:000009e0       ?gMaskXYZ@internalWindowsSimd@aos@shdfnd@physx@@3QBIB 1003b9e0     BVHStructureBuilder.obj
 0002:00000a50       ?minus1w@?A0x6c36ca24@aos@shdfnd@physx@@3QBMB 1003ba50     RTreeCooking.obj
 0002:00000a60       ?gMaskXYZ@internalWindowsSimd@aos@shdfnd@physx@@3QBIB 1003ba60     RTreeCooking.obj
 0002:00000aa0       ?stopAtTrisPerPage@physx@@3QBIB 1003baa0     RTreeCooking.obj
 0002:00000adc       ?stopAtTrisPerLeaf@physx@@3QBIB 1003badc     RTreeCooking.obj
 0002:00000c40       ?minus1w@?A0x610c922f@aos@shdfnd@physx@@3QBMB 1003bc40     MeshBuilder.obj
 0002:00000c50       ?gMaskXYZ@internalWindowsSimd@aos@shdfnd@physx@@3QBIB 1003bc50     MeshBuilder.obj
 0002:00000c70       ?minus1w@?A0x54325baa@aos@shdfnd@physx@@3QBMB 1003bc70     TriangleMeshBuilder.obj
 0002:00000c80       ?gMaskXYZ@internalWindowsSimd@aos@shdfnd@physx@@3QBIB 1003bc80     TriangleMeshBuilder.obj
 0002:00000fb0       ?minus1w@?A0x5d073077@aos@shdfnd@physx@@3QBMB 1003bfb0     BigConvexDataBuilder.obj
 0002:00000fc0       ?gMaskXYZ@internalWindowsSimd@aos@shdfnd@physx@@3QBIB 1003bfc0     BigConvexDataBuilder.obj
 0002:00001040       ?minus1w@?A0xb0c5d576@aos@shdfnd@physx@@3QBMB 1003c040     ConvexHullBuilder.obj
 0002:00001050       ?gMaskXYZ@internalWindowsSimd@aos@shdfnd@physx@@3QBIB 1003c050     ConvexHullBuilder.obj
 0002:000014a0       ?minus1w@?A0xcbede56a@aos@shdfnd@physx@@3QBMB 1003c4a0     ConvexHullUtils.obj
 0002:000014b0       ?gMaskXYZ@internalWindowsSimd@aos@shdfnd@physx@@3QBIB 1003c4b0     ConvexHullUtils.obj
 0002:00001530       ?minus1w@?A0x7e617523@aos@shdfnd@physx@@3QBMB 1003c530     ConvexMeshBuilder.obj
 0002:00001540       ?gMaskXYZ@internalWindowsSimd@aos@shdfnd@physx@@3QBIB 1003c540     ConvexMeshBuilder.obj
 0002:00001a70       ?minus1w@?A0x312bc652@aos@shdfnd@physx@@3QBMB 1003ca70     VolumeIntegration.obj
 0002:00001a80       ?gMaskXYZ@internalWindowsSimd@aos@shdfnd@physx@@3QBIB 1003ca80     VolumeIntegration.obj
 0002:00001bb0       _NaN                       1003cbb0     LIBCMT:ftol3.obj
 0002:00001bb4       _onept5                    1003cbb4     LIBCMT:ftol3.obj
 0002:00001bb8       _DP2to32                   1003cbb8     LIBCMT:ftol3.obj
 0002:00001bb8       _Int32ToUInt32             1003cbb8     LIBCMT:ftol3.obj
 0002:00001bd0       L_abs_mask                 1003cbd0     LIBCMT:svml_ssinf4_dispatch.obj
 0002:00001be0       L_real_one                 1003cbe0     LIBCMT:svml_ssinf4_dispatch.obj
 0002:00001bf0       L_one_half                 1003cbf0     LIBCMT:svml_ssinf4_dispatch.obj
 0002:00001c00       L_two_to_neg_13            1003cc00     LIBCMT:svml_ssinf4_dispatch.obj
 0002:00001c10       L_pi_over_two              1003cc10     LIBCMT:svml_ssinf4_dispatch.obj
 0002:00001c20       L_pi_over_two2             1003cc20     LIBCMT:svml_ssinf4_dispatch.obj
 0002:00001cf4       _GS_ExceptionPointers      1003ccf4     LIBCMT:gs_report.obj
 0002:00001d00       ?tokenTable@@3QBUStringLiteral@@B 1003cd00     libvcruntime:undname.obj
 0002:00001d80       ?nameTable@@3QBUStringLiteral@@B 1003cd80     libvcruntime:undname.obj
 0002:00002018       ?rttiTable@@3QBUStringLiteral@@B 1003d018     libvcruntime:undname.obj
 0002:00002040       ?IndirectionName@@3QBUStringLiteral@@B 1003d040     libvcruntime:undname.obj
 0002:00002070       ?PrefixName@@3QBUStringLiteral@@B 1003d070     libvcruntime:undname.obj
 0002:00002b30       ?result@?1??IsValidIdentChar@@YA_ND@Z@4U<unnamed-type-result>@?1??InitValidIdentChar@@YA@XZ@B 1003db30     libvcruntime:undname.obj
 0002:00002c68       ?module_names@?A0x26f6bd02@@3QBQB_WB 1003dc68     libvcruntime:winapi_downlevel.obj
 0002:00002d10       ?candidate_modules@?1??try_get_FlsAlloc@@YAP6GKP6GXPAX@Z@ZXZ@4QBW4module_id@?A0x26f6bd02@@B 1003dd10     libvcruntime:winapi_downlevel.obj
 0002:00002d24       ?candidate_modules@?1??try_get_FlsFree@@YAP6GHK@ZXZ@4QBW4module_id@?A0x26f6bd02@@B 1003dd24     libvcruntime:winapi_downlevel.obj
 0002:00002d34       ?candidate_modules@?1??try_get_FlsGetValue@@YAP6GPAXK@ZXZ@4QBW4module_id@?A0x26f6bd02@@B 1003dd34     libvcruntime:winapi_downlevel.obj
 0002:00002d48       ?candidate_modules@?1??try_get_FlsSetValue@@YAP6GHKPAX@ZXZ@4QBW4module_id@?A0x26f6bd02@@B 1003dd48     libvcruntime:winapi_downlevel.obj
 0002:00002d5c       ?candidate_modules@?1??try_get_InitializeCriticalSectionEx@@YAP6GHPAU_RTL_CRITICAL_SECTION@@KK@ZXZ@4QBW4module_id@?A0x26f6bd02@@B 1003dd5c     libvcruntime:winapi_downlevel.obj
 0002:00002dc0       ?_names@?1??_get_fname@@9@4QBU<unnamed-type-_names>@?1??1@YAPADI@Z@B 1003ddc0     libucrt:fpexcept.obj
 0002:00003038       ___acrt_initializers       1003e038     libucrt:initialization.obj
 0002:000031e8       _over                      1003e1e8     libucrt:fpctrl.obj
 0002:000031f4       _under                     1003e1f4     libucrt:fpctrl.obj
 0002:00003200       ?errtable@@3QBUerrentry@?A0x31fdb9ec@@B 1003e200     libucrt:errno.obj
 0002:00003368       ?_mb_locale_names@@3QBQB_WB 1003e368     libucrt:mbctype.obj
 0002:000033a8       ?module_names@?A0x391cf84c@@3QBQB_WB 1003e3a8     libucrt:winapi_thunks.obj
 0002:000038b4       ?candidate_modules@?1??try_get_AreFileApisANSI@@YAP6GHXZXZ@4QBW4module_id@?A0x391cf84c@@B 1003e8b4     libucrt:winapi_thunks.obj
 0002:000038c8       ?candidate_modules@?1??try_get_InitializeCriticalSectionEx@@YAP6GHPAU_RTL_CRITICAL_SECTION@@KK@ZXZ@4QBW4module_id@?A0x391cf84c@@B 1003e8c8     libucrt:winapi_thunks.obj
 0002:000038d0       ?candidate_modules@?1??try_get_LCMapStringEx@@YAP6GHPB_WK0HPA_WHPAU_nlsversioninfo@@PAXJ@ZXZ@4QBW4module_id@?A0x391cf84c@@B 1003e8d0     libucrt:winapi_thunks.obj
 0002:000038e8       ?candidate_modules@?1??try_get_LocaleNameToLCID@@YAP6GKPB_WK@ZXZ@4QBW4module_id@?A0x391cf84c@@B 1003e8e8     libucrt:winapi_thunks.obj
 0002:00003904       ?candidate_modules@?1??try_get_AppPolicyGetProcessTerminationMethod@@YAP6GJPAXPAW4AppPolicyProcessTerminationMethod@@@ZXZ@4QBW4module_id@?A0x391cf84c@@B 1003e904     libucrt:winapi_thunks.obj
 0002:00003930       ?candidate_modules@?1??try_get_FlsAlloc@@YAP6GKP6GXPAX@Z@ZXZ@4QBW4module_id@?A0x391cf84c@@B 1003e930     libucrt:winapi_thunks.obj
 0002:00003938       ?candidate_modules@?1??try_get_FlsFree@@YAP6GHK@ZXZ@4QBW4module_id@?A0x391cf84c@@B 1003e938     libucrt:winapi_thunks.obj
 0002:00003940       ?candidate_modules@?1??try_get_FlsGetValue@@YAP6GPAXK@ZXZ@4QBW4module_id@?A0x391cf84c@@B 1003e940     libucrt:winapi_thunks.obj
 0002:00003948       ?candidate_modules@?1??try_get_FlsSetValue@@YAP6GHKPAX@ZXZ@4QBW4module_id@?A0x391cf84c@@B 1003e948     libucrt:winapi_thunks.obj
 0002:00003e10       ?strings@?1??fp_format_nan_or_infinity@@YAHW4__acrt_fp_class@@_NPADI1@Z@4QAY03QBDA 1003ee10     libucrt:cvt.obj
 0002:000044a0       _NAME_                     1003f4a0     libucrt:cos_impl.obj
 0002:000044b0       SC_1                       1003f4b0     libucrt:cos_pentium4.obj
 0002:000044c0       SC_2                       1003f4c0     libucrt:cos_pentium4.obj
 0002:000044d0       SC_3                       1003f4d0     libucrt:cos_pentium4.obj
 0002:000044e0       SC_4                       1003f4e0     libucrt:cos_pentium4.obj
 0002:000044f0       PI32INV                    1003f4f0     libucrt:cos_pentium4.obj
 0002:000044f8       SHIFTER                    1003f4f8     libucrt:cos_pentium4.obj
 0002:00004500       P_2                        1003f500     libucrt:cos_pentium4.obj
 0002:00004510       P_1                        1003f510     libucrt:cos_pentium4.obj
 0002:00004518       P_3                        1003f518     libucrt:cos_pentium4.obj
 0002:00004520       TWO_POW_55                 1003f520     libucrt:cos_pentium4.obj
 0002:00004528       TWO_POW_M55                1003f528     libucrt:cos_pentium4.obj
 0002:00004530       ALL_ONES                   1003f530     libucrt:cos_pentium4.obj
 0002:00004538       NEG_ZERO                   1003f538     libucrt:cos_pentium4.obj
 0002:00004540       ONE                        1003f540     libucrt:cos_pentium4.obj
 0002:00004550       SIGN_MASK                  1003f550     libucrt:cos_pentium4.obj
 0002:00004560       _NAME_                     1003f560     libucrt:sin_impl.obj
 0002:00004570       SC_1                       1003f570     libucrt:sin_pentium4.obj
 0002:00004580       SC_2                       1003f580     libucrt:sin_pentium4.obj
 0002:00004590       SC_3                       1003f590     libucrt:sin_pentium4.obj
 0002:000045a0       SC_4                       1003f5a0     libucrt:sin_pentium4.obj
 0002:000045b0       PI32INV                    1003f5b0     libucrt:sin_pentium4.obj
 0002:000045b8       SHIFTER                    1003f5b8     libucrt:sin_pentium4.obj
 0002:000045c0       P_2                        1003f5c0     libucrt:sin_pentium4.obj
 0002:000045d0       P_1                        1003f5d0     libucrt:sin_pentium4.obj
 0002:000045d8       P_3                        1003f5d8     libucrt:sin_pentium4.obj
 0002:000045e0       TWO_POW_55                 1003f5e0     libucrt:sin_pentium4.obj
 0002:000045e8       TWO_POW_M55                1003f5e8     libucrt:sin_pentium4.obj
 0002:000045f0       ALL_ONES                   1003f5f0     libucrt:sin_pentium4.obj
 0002:000045f8       NEG_ZERO                   1003f5f8     libucrt:sin_pentium4.obj
 0002:00004600       ONE                        1003f600     libucrt:sin_pentium4.obj
 0002:00004610       ?LcidToLocaleNameTable@?A0x881e4c05@@3QBULcidToLocaleName@1@B 1003f610     libucrt:lcidtoname_downlevel.obj
 0002:00005738       ?LocaleNameToIndexTable@?A0x881e4c05@@3QBULocaleNameIndex@1@B 10040738     libucrt:lcidtoname_downlevel.obj
 0002:0000708e       One                        1004208e     libucrt:87disp.obj
 0002:00007096       Three                      10042096     libucrt:87disp.obj
 0002:0000709e       XAMtoTagTab                1004209e     libucrt:87disp.obj
 0002:000070b0       One                        100420b0     libucrt:common.obj
 0002:000070c4       DblMax                     100420c4     libucrt:common.obj
 0002:000070cc       DblMin                     100420cc     libucrt:common.obj
 0002:000070d4       IeeeAdjO                   100420d4     libucrt:common.obj
 0002:000070dc       IeeeAdjU                   100420dc     libucrt:common.obj
 0002:000070e4       _infinity                  100420e4     libucrt:common.obj
 0002:000070ec       _zero                      100420ec     libucrt:common.obj
 0002:00007900       LOG_name                   10042900     libucrt:log10_impl.obj
 0002:00007910       _One                       10042910     libucrt:ceil_pentium4.obj
 0002:00007920       _Bns                       10042920     libucrt:ceil_pentium4.obj
 0002:00007930       _Zero                      10042930     libucrt:ceil_pentium4.obj
 0002:00007940       _S                         10042940     libucrt:ceil_pentium4.obj
 0002:00007950       _NegZero                   10042950     libucrt:ceil_pentium4.obj
 0002:00007970       emask                      10042970     libucrt:log10_pentium4.obj
 0002:00007980       CC                         10042980     libucrt:log10_pentium4.obj
 0002:00007990       Magic                      10042990     libucrt:log10_pentium4.obj
 0002:000079a0       hi_mask                    100429a0     libucrt:log10_pentium4.obj
 0002:000079b0       LOG10_2                    100429b0     libucrt:log10_pentium4.obj
 0002:000079c0       place_L                    100429c0     libucrt:log10_pentium4.obj
 0002:000079e0       One                        100429e0     libucrt:log10_pentium4.obj
 0002:000079f0       Zero                       100429f0     libucrt:log10_pentium4.obj
 0002:00007a00       Two52                      10042a00     libucrt:log10_pentium4.obj
 0002:00007a10       Infs                       10042a10     libucrt:log10_pentium4.obj
 0002:00007a20       NaN                        10042a20     libucrt:log10_pentium4.obj
 0002:00007a30       coeff                      10042a30     libucrt:log10_pentium4.obj
 0002:00007a8e       _log2max                   10042a8e     libucrt:87tran.obj
 0002:00007a98       _smallarg                  10042a98     libucrt:87tran.obj
 0002:00007aa2       _half                      10042aa2     libucrt:87tran.obj
 0002:000082f0       two32                      100432f0     LIBCMT:ftol2.obj
 0002:000082f4       two63                      100432f4     LIBCMT:ftol2.obj
 0002:000082f8       _NaN                       100432f8     LIBCMT:ftol2.obj
 0002:00008b48       __sehtable$?dllmain_crt_process_attach@@YAHQAUHINSTANCE__@@QAX@Z 10043b48     LIBCMT:dll_dllmain.obj
 0002:00008b68       __sehtable$?dllmain_crt_process_detach@@YAH_N@Z 10043b68     LIBCMT:dll_dllmain.obj
 0002:00008b90       __sehtable$?dllmain_dispatch@@YAHQAUHINSTANCE__@@KQAX@Z 10043b90     LIBCMT:dll_dllmain.obj
 0002:00008bb0       __sehtable$___scrt_is_nonwritable_in_current_image 10043bb0     LIBCMT:utility.obj
 0002:00008bd0       __sehtable$___DestructExceptionObject 10043bd0     libvcruntime:ehhelpers.obj
 0002:00008bf0       __sehtable$___unDNameEx    10043bf0     libvcruntime:undname.obj
 0002:00008c0c       __unwindtable$?getDecoratedName@UnDecorator@@CA?AVDName@@XZ 10043c0c     libvcruntime:undname.obj
 0002:00008c14       __ehfuncinfo$?getDecoratedName@UnDecorator@@CA?AVDName@@XZ 10043c14     libvcruntime:undname.obj
 0002:00008c38       __sehtable$?FrameUnwindToState@__FrameHandler3@@SAXPAUEHRegistrationNode@@PAXPBU_s_FuncInfo@@H@Z 10043c38     libvcruntime:frame.obj
 0002:00008c60       __sehtable$?CallCatchBlock@@YAPAXPAUEHExceptionRecord@@PAUEHRegistrationNode@@PAU_CONTEXT@@PBU_s_FuncInfo@@PAXHK@Z 10043c60     libvcruntime:frame.obj
 0002:00008c88       __catchsym$?CallUnexpected@@YAXPBU_s_ESTypeList@@@Z$2 10043c88     libvcruntime:frame.obj
 0002:00008c98       __unwindtable$?CallUnexpected@@YAXPBU_s_ESTypeList@@@Z 10043c98     libvcruntime:frame.obj
 0002:00008ca8       __tryblocktable$?CallUnexpected@@YAXPBU_s_ESTypeList@@@Z 10043ca8     libvcruntime:frame.obj
 0002:00008cbc       __ehfuncinfo$?CallUnexpected@@YAXPBU_s_ESTypeList@@@Z 10043cbc     libvcruntime:frame.obj
 0002:00008ce0       __sehtable$??$BuildCatchObjectHelperInternal@V__FrameHandler3@@@@YAHPAUEHExceptionRecord@@PAXPBU_s_HandlerType@@PBU_s_CatchableType@@@Z 10043ce0     libvcruntime:frame.obj
 0002:00008d00       __sehtable$??$BuildCatchObjectInternal@V__FrameHandler3@@@@YAXPAUEHExceptionRecord@@PAXPBU_s_HandlerType@@PBU_s_CatchableType@@@Z 10043d00     libvcruntime:frame.obj
 0002:00008d70       __ehfuncinfo$?write_double_translated_ansi_nolock@@YA?AUwrite_result@?A0x17268360@@HQBDIAAV__crt_cached_ptd_host@@@Z 10043d70     libucrt:write.obj
 0002:00008d70       __ehfuncinfo$?try_cor_exit_process@@YAXI@Z 10043d70     libucrt:exit.obj
 0002:00008d94       __unwindtable$?common_exit@@YAXHW4_crt_exit_cleanup_mode@@W4_crt_exit_return_mode@@@Z 10043d94     libucrt:exit.obj
 0002:00008d9c       __ehfuncinfo$?common_exit@@YAXHW4_crt_exit_cleanup_mode@@W4_crt_exit_return_mode@@@Z 10043d9c     libucrt:exit.obj
 0002:00008dc0       __sehtable$??R<lambda_6e4b09c48022b2350581041d5f6b0c4c>@@QBE@XZ 10043dc0     libucrt:exit.obj
 0002:00008de0       __sehtable$??$?RV<lambda_03b1d95aef87969028cfba75ccab2455>@@AAV<lambda_6e4b09c48022b2350581041d5f6b0c4c>@@V<lambda_22bdf7517842c4b3e53723af5aa32b9e>@@@?$__crt_seh_guarded_call@X@@QAEX$$QAV<lambda_03b1d95aef87969028cfba75ccab2455>@@AAV<lambda_6e4b09c48022b2350581041d5f6b0c4c>@@$$QAV<lambda_22bdf7517842c4b3e53723af5aa32b9e>@@@Z 10043de0     libucrt:exit.obj
 0002:00008dfc       __unwindtable$___dcrt_uninitialize_environments_nolock 10043dfc     libucrt:environment_initialization.obj
 0002:00008e0c       __ehfuncinfo$___dcrt_uninitialize_environments_nolock 10043e0c     libucrt:environment_initialization.obj
 0002:00008e30       __unwindtable$__execute_onexit_table 10043e30     libucrt:onexit.obj
 0002:00008e38       __ehfuncinfo$__execute_onexit_table 10043e38     libucrt:onexit.obj
 0002:00008e60       __sehtable$??$?RV<lambda_69a2805e680e0e292e8ba93315fe43a8>@@AAV<lambda_f03950bc5685219e0bcd2087efbe011e>@@V<lambda_03fcd07e894ec930e3f35da366ca99d6>@@@?$__crt_seh_guarded_call@H@@QAEH$$QAV<lambda_69a2805e680e0e292e8ba93315fe43a8>@@AAV<lambda_f03950bc5685219e0bcd2087efbe011e>@@$$QAV<lambda_03fcd07e894ec930e3f35da366ca99d6>@@@Z 10043e60     libucrt:onexit.obj
 0002:00008e80       __sehtable$_terminate      10043e80     libucrt:terminate.obj
 0002:00008ea0       __sehtable$___set_fpsr_sse2 10043ea0     libucrt:fpctrl.obj
 0002:00008ec0       __sehtable$??$?RV<lambda_15ade71b0218206bbe3333a0c9b79046>@@AAV<lambda_da44e0f8b0f19ba52fefafb335991732>@@V<lambda_207f2d024fc103971653565357d6cd41>@@@?$__crt_seh_guarded_call@X@@QAEX$$QAV<lambda_15ade71b0218206bbe3333a0c9b79046>@@AAV<lambda_da44e0f8b0f19ba52fefafb335991732>@@$$QAV<lambda_207f2d024fc103971653565357d6cd41>@@@Z 10043ec0     libucrt:per_thread_data.obj
 0002:00008ee0       __sehtable$??$?RV<lambda_a7e850c220f1c8d1e6efeecdedd162c6>@@AAV<lambda_46720907175c18b6c9d2717bc0d2d362>@@V<lambda_9048902d66e8d99359bc9897bbb930a8>@@@?$__crt_seh_guarded_call@X@@QAEX$$QAV<lambda_a7e850c220f1c8d1e6efeecdedd162c6>@@AAV<lambda_46720907175c18b6c9d2717bc0d2d362>@@$$QAV<lambda_9048902d66e8d99359bc9897bbb930a8>@@@Z 10043ee0     libucrt:per_thread_data.obj
 0002:00008f00       __sehtable$??$?RV<lambda_38edbb1296d33220d7e4dd0ed76b244a>@@AAV<lambda_5ce1d447e08cb34b2473517608e21441>@@V<lambda_fb385d3da700c9147fc39e65dd577a8c>@@@?$__crt_seh_guarded_call@X@@QAEX$$QAV<lambda_38edbb1296d33220d7e4dd0ed76b244a>@@AAV<lambda_5ce1d447e08cb34b2473517608e21441>@@$$QAV<lambda_fb385d3da700c9147fc39e65dd577a8c>@@@Z 10043f00     libucrt:per_thread_data.obj
 0002:00008f20       __sehtable$??$?RV<lambda_6affb1475c98b40b75cdec977db92e3c>@@AAV<lambda_b8d4b9c228a6ecc3f80208dbb4b4a104>@@V<lambda_608742c3c92a14382c1684fc64f96c88>@@@?$__crt_seh_guarded_call@X@@QAEX$$QAV<lambda_6affb1475c98b40b75cdec977db92e3c>@@AAV<lambda_b8d4b9c228a6ecc3f80208dbb4b4a104>@@$$QAV<lambda_608742c3c92a14382c1684fc64f96c88>@@@Z 10043f20     libucrt:per_thread_data.obj
 0002:00008f40       __sehtable$?update_thread_multibyte_data_internal@@YAPAU__crt_multibyte_data@@QAU__acrt_ptd@@QAPAU1@@Z 10043f40     libucrt:mbctype.obj
 0002:00008f60       __sehtable$??$?RV<lambda_ceb1ee4838e85a9d631eb091e2fbe199>@@AAV<lambda_ae742caa10f662c28703da3d2ea5e57e>@@V<lambda_cd08b5d6af4937fe54fc07d0c9bf6b37>@@@?$__crt_seh_guarded_call@X@@QAEX$$QAV<lambda_ceb1ee4838e85a9d631eb091e2fbe199>@@AAV<lambda_ae742caa10f662c28703da3d2ea5e57e>@@$$QAV<lambda_cd08b5d6af4937fe54fc07d0c9bf6b37>@@@Z 10043f60     libucrt:mbctype.obj
 0002:00008f80       __sehtable$___acrt_initialize_lowio 10043f80     libucrt:ioinit.obj
 0002:00008fa0       __sehtable$__query_new_handler 10043fa0     libucrt:new_handler.obj
 0002:00008fc0       __sehtable$_raise          10043fc0     libucrt:signal.obj
 0002:00008fe0       __sehtable$??$?RV<lambda_cbab9ec6f41b0180b23cc171c22676b0>@@AAV<lambda_44731a7d0e6d81c3e6aa82d741081786>@@V<lambda_4b292cb8dd18144e164572427af410ab>@@@?$__crt_seh_guarded_call@P6AXH@Z@@QAEP6AXH@Z$$QAV<lambda_cbab9ec6f41b0180b23cc171c22676b0>@@AAV<lambda_44731a7d0e6d81c3e6aa82d741081786>@@$$QAV<lambda_4b292cb8dd18144e164572427af410ab>@@@Z 10043fe0     libucrt:signal.obj
 0002:00009000       __sehtable$??$?RV<lambda_2866be3712abc81a800a822484c830d8>@@AAV<lambda_39ca0ed439415581b5b15c265174cece>@@V<lambda_2b24c74d71094a6cd0cb82e44167d71b>@@@?$__crt_seh_guarded_call@X@@QAEX$$QAV<lambda_2866be3712abc81a800a822484c830d8>@@AAV<lambda_39ca0ed439415581b5b15c265174cece>@@$$QAV<lambda_2b24c74d71094a6cd0cb82e44167d71b>@@@Z 10044000     libucrt:fflush.obj
 0002:00009020       __sehtable$??$?RV<lambda_2cc53f568c5a2bb6f192f930a45d44ea>@@AAV<lambda_ab61a845afdef5b7c387490eaf3616ee>@@V<lambda_c2ffc0b7726aa6be21d5f0026187e748>@@@?$__crt_seh_guarded_call@X@@QAEX$$QAV<lambda_2cc53f568c5a2bb6f192f930a45d44ea>@@AAV<lambda_ab61a845afdef5b7c387490eaf3616ee>@@$$QAV<lambda_c2ffc0b7726aa6be21d5f0026187e748>@@@Z 10044020     libucrt:fflush.obj
 0002:00009040       __sehtable$??$?RV<lambda_e5124f882df8998aaf41531e079ba474>@@AAV<lambda_3e16ef9562a7dcce91392c22ab16ea36>@@V<lambda_e25ca0880e6ef98be67edffd8c599615>@@@?$__crt_seh_guarded_call@X@@QAEX$$QAV<lambda_e5124f882df8998aaf41531e079ba474>@@AAV<lambda_3e16ef9562a7dcce91392c22ab16ea36>@@$$QAV<lambda_e25ca0880e6ef98be67edffd8c599615>@@@Z 10044040     libucrt:wsetlocale.obj
 0002:00009060       __sehtable$___acrt_update_thread_locale_data 10044060     libucrt:locale_refcounting.obj
 0002:00009080       __sehtable$___acrt_lowio_ensure_fh_exists 10044080     libucrt:osfinfo.obj
 0002:000090a0       __sehtable$??$?RV<lambda_9e9de3de5fa147e2223d7db92bc10aa6>@@AAV<lambda_38ce7e780aa69e748d6df282ebc68efe>@@V<lambda_8ca6da459f0f6780f1cff60fdc3d00e5>@@@?$__crt_seh_guarded_call@H@@QAEH$$QAV<lambda_9e9de3de5fa147e2223d7db92bc10aa6>@@AAV<lambda_38ce7e780aa69e748d6df282ebc68efe>@@$$QAV<lambda_8ca6da459f0f6780f1cff60fdc3d00e5>@@@Z 100440a0     libucrt:commit.obj
 0002:000090c0       __sehtable$__write_internal 100440c0     libucrt:write.obj
 0002:000090e0       __sehtable$__fcloseall     100440e0     libucrt:closeall.obj
 0002:00009100       __sehtable$?_fclose_internal@@YAHQAU_iobuf@@AAV__crt_cached_ptd_host@@@Z 10044100     libucrt:fclose.obj
 0002:00009120       __sehtable$??$?RV<lambda_d422a76eb4c3bf3ad751449ab71a6ea4>@@AAV<lambda_c9ba49e555ba839a7b07aa3fbecb7617>@@V<lambda_9476263c8ee91a25d21c55370bdb50de>@@@?$__crt_seh_guarded_call@H@@QAEH$$QAV<lambda_d422a76eb4c3bf3ad751449ab71a6ea4>@@AAV<lambda_c9ba49e555ba839a7b07aa3fbecb7617>@@$$QAV<lambda_9476263c8ee91a25d21c55370bdb50de>@@@Z 10044120     libucrt:close.obj
 0002:00009140       __sehtable$__IsNonwritableInCurrentImage 10044140     LIBCMT:pesect.obj
 0002:00009c50       .edata                     10044c50     PhysXCooking_32.exp
 0002:00009c78       rgpv                       10044c78     PhysXCooking_32.exp
 0002:00009e60       rgszName                   10044e60     PhysXCooking_32.exp
 0002:0000a048       rgwOrd                     10045048     PhysXCooking_32.exp
 0002:0000a13c       szName                     1004513c     PhysXCooking_32.exp
 0002:0000a150       $N00001                    10045150     PhysXCooking_32.exp
 0002:0000a17d       $N00002                    1004517d     PhysXCooking_32.exp
 0002:0000a1a3       $N00003                    100451a3     PhysXCooking_32.exp
 0002:0000a1dc       $N00004                    100451dc     PhysXCooking_32.exp
 0002:0000a201       $N00005                    10045201     PhysXCooking_32.exp
 0002:0000a22c       $N00006                    1004522c     PhysXCooking_32.exp
 0002:0000a24b       $N00007                    1004524b     PhysXCooking_32.exp
 0002:0000a27d       $N00008                    1004527d     PhysXCooking_32.exp
 0002:0000a295       $N00009                    10045295     PhysXCooking_32.exp
 0002:0000a2b4       $N00010                    100452b4     PhysXCooking_32.exp
 0002:0000a2db       $N00011                    100452db     PhysXCooking_32.exp
 0002:0000a300       $N00012                    10045300     PhysXCooking_32.exp
 0002:0000a32d       $N00013                    1004532d     PhysXCooking_32.exp
 0002:0000a358       $N00014                    10045358     PhysXCooking_32.exp
 0002:0000a388       $N00015                    10045388     PhysXCooking_32.exp
 0002:0000a3ac       $N00016                    100453ac     PhysXCooking_32.exp
 0002:0000a3d5       $N00017                    100453d5     PhysXCooking_32.exp
 0002:0000a3f9       $N00018                    100453f9     PhysXCooking_32.exp
 0002:0000a417       $N00019                    10045417     PhysXCooking_32.exp
 0002:0000a44b       $N00020                    1004544b     PhysXCooking_32.exp
 0002:0000a473       $N00021                    10045473     PhysXCooking_32.exp
 0002:0000a499       $N00022                    10045499     PhysXCooking_32.exp
 0002:0000a4c1       $N00023                    100454c1     PhysXCooking_32.exp
 0002:0000a4d9       $N00024                    100454d9     PhysXCooking_32.exp
 0002:0000a4fd       $N00025                    100454fd     PhysXCooking_32.exp
 0002:0000a51b       $N00026                    1004551b     PhysXCooking_32.exp
 0002:0000a539       $N00027                    10045539     PhysXCooking_32.exp
 0002:0000a558       $N00028                    10045558     PhysXCooking_32.exp
 0002:0000a58b       $N00029                    1004558b     PhysXCooking_32.exp
 0002:0000a5c0       $N00030                    100455c0     PhysXCooking_32.exp
 0002:0000a5f1       $N00031                    100455f1     PhysXCooking_32.exp
 0002:0000a620       $N00032                    10045620     PhysXCooking_32.exp
 0002:0000a64a       $N00033                    1004564a     PhysXCooking_32.exp
 0002:0000a66f       $N00034                    1004566f     PhysXCooking_32.exp
 0002:0000a69d       $N00035                    1004569d     PhysXCooking_32.exp
 0002:0000a6c9       $N00036                    100456c9     PhysXCooking_32.exp
 0002:0000a6f6       $N00037                    100456f6     PhysXCooking_32.exp
 0002:0000a721       $N00038                    10045721     PhysXCooking_32.exp
 0002:0000a74f       $N00039                    1004574f     PhysXCooking_32.exp
 0002:0000a782       $N00040                    10045782     PhysXCooking_32.exp
 0002:0000a7b3       $N00041                    100457b3     PhysXCooking_32.exp
 0002:0000a7e2       $N00042                    100457e2     PhysXCooking_32.exp
 0002:0000a811       $N00043                    10045811     PhysXCooking_32.exp
 0002:0000a83a       $N00044                    1004583a     PhysXCooking_32.exp
 0002:0000a856       $N00045                    10045856     PhysXCooking_32.exp
 0002:0000a87f       $N00046                    1004587f     PhysXCooking_32.exp
 0002:0000a8a2       $N00047                    100458a2     PhysXCooking_32.exp
 0002:0000a8d2       $N00048                    100458d2     PhysXCooking_32.exp
 0002:0000a8f8       $N00049                    100458f8     PhysXCooking_32.exp
 0002:0000a925       $N00050                    10045925     PhysXCooking_32.exp
 0002:0000a94f       $N00051                    1004594f     PhysXCooking_32.exp
 0002:0000a97b       $N00052                    1004597b     PhysXCooking_32.exp
 0002:0000a9a3       $N00053                    100459a3     PhysXCooking_32.exp
 0002:0000a9d0       $N00054                    100459d0     PhysXCooking_32.exp
 0002:0000a9f8       $N00055                    100459f8     PhysXCooking_32.exp
 0002:0000aa1f       $N00056                    10045a1f     PhysXCooking_32.exp
 0002:0000aa4b       $N00057                    10045a4b     PhysXCooking_32.exp
 0002:0000aa72       $N00058                    10045a72     PhysXCooking_32.exp
 0002:0000aaab       $N00059                    10045aab     PhysXCooking_32.exp
 0002:0000aad4       $N00060                    10045ad4     PhysXCooking_32.exp
 0002:0000ab07       $N00061                    10045b07     PhysXCooking_32.exp
 0002:0000ab3b       $N00062                    10045b3b     PhysXCooking_32.exp
 0002:0000ab75       $N00063                    10045b75     PhysXCooking_32.exp
 0002:0000abbb       $N00064                    10045bbb     PhysXCooking_32.exp
 0002:0000ac09       $N00065                    10045c09     PhysXCooking_32.exp
 0002:0000ac3b       $N00066                    10045c3b     PhysXCooking_32.exp
 0002:0000ac6e       $N00067                    10045c6e     PhysXCooking_32.exp
 0002:0000aca3       $N00068                    10045ca3     PhysXCooking_32.exp
 0002:0000acc9       $N00069                    10045cc9     PhysXCooking_32.exp
 0002:0000ad0f       $N00070                    10045d0f     PhysXCooking_32.exp
 0002:0000ad54       $N00071                    10045d54     PhysXCooking_32.exp
 0002:0000adab       $N00072                    10045dab     PhysXCooking_32.exp
 0002:0000adf1       $N00073                    10045df1     PhysXCooking_32.exp
 0002:0000ae1b       $N00074                    10045e1b     PhysXCooking_32.exp
 0002:0000ae49       $N00075                    10045e49     PhysXCooking_32.exp
 0002:0000ae97       $N00076                    10045e97     PhysXCooking_32.exp
 0002:0000af41       $N00077                    10045f41     PhysXCooking_32.exp
 0002:0000af9d       $N00078                    10045f9d     PhysXCooking_32.exp
 0002:0000afc8       $N00079                    10045fc8     PhysXCooking_32.exp
 0002:0000aff3       $N00080                    10045ff3     PhysXCooking_32.exp
 0002:0000b027       $N00081                    10046027     PhysXCooking_32.exp
 0002:0000b04f       $N00082                    1004604f     PhysXCooking_32.exp
 0002:0000b08a       $N00083                    1004608a     PhysXCooking_32.exp
 0002:0000b0b5       $N00084                    100460b5     PhysXCooking_32.exp
 0002:0000b0e6       $N00085                    100460e6     PhysXCooking_32.exp
 0002:0000b131       $N00086                    10046131     PhysXCooking_32.exp
 0002:0000b162       $N00087                    10046162     PhysXCooking_32.exp
 0002:0000b199       $N00088                    10046199     PhysXCooking_32.exp
 0002:0000b1d0       $N00089                    100461d0     PhysXCooking_32.exp
 0002:0000b20b       $N00090                    1004620b     PhysXCooking_32.exp
 0002:0000b24d       $N00091                    1004624d     PhysXCooking_32.exp
 0002:0000b27b       $N00092                    1004627b     PhysXCooking_32.exp
 0002:0000b2f2       $N00093                    100462f2     PhysXCooking_32.exp
 0002:0000b34d       $N00094                    1004634d     PhysXCooking_32.exp
 0002:0000b378       $N00095                    10046378     PhysXCooking_32.exp
 0002:0000b3ab       $N00096                    100463ab     PhysXCooking_32.exp
 0002:0000b3e3       $N00097                    100463e3     PhysXCooking_32.exp
 0002:0000b41f       $N00098                    1004641f     PhysXCooking_32.exp
 0002:0000b453       $N00099                    10046453     PhysXCooking_32.exp
 0002:0000b47f       $N00100                    1004647f     PhysXCooking_32.exp
 0002:0000b4ab       $N00101                    100464ab     PhysXCooking_32.exp
 0002:0000b4d4       $N00102                    100464d4     PhysXCooking_32.exp
 0002:0000b4fe       $N00103                    100464fe     PhysXCooking_32.exp
 0002:0000b52a       $N00104                    1004652a     PhysXCooking_32.exp
 0002:0000b549       $N00105                    10046549     PhysXCooking_32.exp
 0002:0000b583       $N00106                    10046583     PhysXCooking_32.exp
 0002:0000b5b3       $N00107                    100465b3     PhysXCooking_32.exp
 0002:0000b5e4       $N00108                    100465e4     PhysXCooking_32.exp
 0002:0000b624       $N00109                    10046624     PhysXCooking_32.exp
 0002:0000b650       $N00110                    10046650     PhysXCooking_32.exp
 0002:0000b673       $N00111                    10046673     PhysXCooking_32.exp
 0002:0000b6a1       $N00112                    100466a1     PhysXCooking_32.exp
 0002:0000b6d2       $N00113                    100466d2     PhysXCooking_32.exp
 0002:0000b6f7       $N00114                    100466f7     PhysXCooking_32.exp
 0002:0000b723       $N00115                    10046723     PhysXCooking_32.exp
 0002:0000b74a       $N00116                    1004674a     PhysXCooking_32.exp
 0002:0000b769       $N00117                    10046769     PhysXCooking_32.exp
 0002:0000b7ad       $N00118                    100467ad     PhysXCooking_32.exp
 0002:0000b7e9       $N00119                    100467e9     PhysXCooking_32.exp
 0002:0000b825       $N00120                    10046825     PhysXCooking_32.exp
 0002:0000b856       $N00121                    10046856     PhysXCooking_32.exp
 0002:0000b866       $N00122                    10046866     PhysXCooking_32.exp
 0002:0000b9e0       .idata$6                   100469e0     kernel32:KERNEL32.dll
 0003:00000000       ?MAXDOT_MINANG@local@@3MB  10047000     ConvexHullUtils.obj
 0003:00000004       ?MAXDOT_MINANG@local@@3MB  10047004     QuickHullConvexHullLib.obj
 0003:00000040       ?prefix@?1??getDimension@UnDecorator@@CA?AVDName@@_N@Z@4UStringLiteral@@A 10047040     libvcruntime:undname.obj
 0003:00000050       ?__vcrt_flsindex@@3KA      10047050     libvcruntime:per_thread_data.obj
 0003:00000080       ?__DAZ_ENABLED@?1??__set_fpsr_sse2@@9@9 10047080     libucrt:fpctrl.obj
 0003:00000084       ?errno_no_memory@@3HA      10047084     libucrt:errno.obj
 0003:00000088       ?doserrno_no_memory@@3KA   10047088     libucrt:errno.obj
 0003:0000008c       ?__acrt_flsindex@@3KA      1004708c     libucrt:per_thread_data.obj
 0003:000002b0       __mbctypes                 100472b0     libucrt:mbctype.obj
 0003:000003b8       __mbcasemaps               100473b8     libucrt:mbctype.obj
 0003:000004b8       ?__rgctypeflag@@3PADA      100474b8     libucrt:mbctype.obj
 0003:000004c0       ?__rgcode_page_info@@3PAUcode_page_info@@A 100474c0     libucrt:mbctype.obj
 0003:00000880       ?__dcrt_lowio_console_output_handle@@3PAXA 10047880     libucrt:initcon.obj
 0003:00000e80       ?maxV3Error@_VecMathTests@aos@shdfnd@physx@@3T__m128@@B 10047e80     Cooking.obj
 0003:00000e90       ?minFError@_VecMathTests@aos@shdfnd@physx@@3T__m128@@B 10047e90     Cooking.obj
 0003:00000ea0       ?maxV4Error@_VecMathTests@aos@shdfnd@physx@@3T__m128@@B 10047ea0     Cooking.obj
 0003:00000eb0       ?minV4Error@_VecMathTests@aos@shdfnd@physx@@3T__m128@@B 10047eb0     Cooking.obj
 0003:00000ec0       ?minV3Error@_VecMathTests@aos@shdfnd@physx@@3T__m128@@B 10047ec0     Cooking.obj
 0003:00000ed0       ?maxFError@_VecMathTests@aos@shdfnd@physx@@3T__m128@@B 10047ed0     Cooking.obj
 0003:00000ee0       ?maxV3Error@_VecMathTests@aos@shdfnd@physx@@3T__m128@@B 10047ee0     BVHStructureBuilder.obj
 0003:00000ef0       ?minFError@_VecMathTests@aos@shdfnd@physx@@3T__m128@@B 10047ef0     BVHStructureBuilder.obj
 0003:00000f00       ?maxV4Error@_VecMathTests@aos@shdfnd@physx@@3T__m128@@B 10047f00     BVHStructureBuilder.obj
 0003:00000f10       ?minV4Error@_VecMathTests@aos@shdfnd@physx@@3T__m128@@B 10047f10     BVHStructureBuilder.obj
 0003:00000f20       ?minV3Error@_VecMathTests@aos@shdfnd@physx@@3T__m128@@B 10047f20     BVHStructureBuilder.obj
 0003:00000f30       ?maxFError@_VecMathTests@aos@shdfnd@physx@@3T__m128@@B 10047f30     BVHStructureBuilder.obj
 0003:00000f40       ?maxV3Error@_VecMathTests@aos@shdfnd@physx@@3T__m128@@B 10047f40     RTreeCooking.obj
 0003:00000f50       ?minFError@_VecMathTests@aos@shdfnd@physx@@3T__m128@@B 10047f50     RTreeCooking.obj
 0003:00000f60       ?maxV4Error@_VecMathTests@aos@shdfnd@physx@@3T__m128@@B 10047f60     RTreeCooking.obj
 0003:00000f70       ?minV4Error@_VecMathTests@aos@shdfnd@physx@@3T__m128@@B 10047f70     RTreeCooking.obj
 0003:00000f80       ?minV3Error@_VecMathTests@aos@shdfnd@physx@@3T__m128@@B 10047f80     RTreeCooking.obj
 0003:00000f90       ?maxFError@_VecMathTests@aos@shdfnd@physx@@3T__m128@@B 10047f90     RTreeCooking.obj
 0003:00000fa0       ?maxV3Error@_VecMathTests@aos@shdfnd@physx@@3T__m128@@B 10047fa0     MeshBuilder.obj
 0003:00000fb0       ?minFError@_VecMathTests@aos@shdfnd@physx@@3T__m128@@B 10047fb0     MeshBuilder.obj
 0003:00000fc0       ?maxV4Error@_VecMathTests@aos@shdfnd@physx@@3T__m128@@B 10047fc0     MeshBuilder.obj
 0003:00000fd0       ?minV4Error@_VecMathTests@aos@shdfnd@physx@@3T__m128@@B 10047fd0     MeshBuilder.obj
 0003:00000fe0       ?minV3Error@_VecMathTests@aos@shdfnd@physx@@3T__m128@@B 10047fe0     MeshBuilder.obj
 0003:00000ff0       ?maxFError@_VecMathTests@aos@shdfnd@physx@@3T__m128@@B 10047ff0     MeshBuilder.obj
 0003:00001000       ?maxV3Error@_VecMathTests@aos@shdfnd@physx@@3T__m128@@B 10048000     TriangleMeshBuilder.obj
 0003:00001010       ?minFError@_VecMathTests@aos@shdfnd@physx@@3T__m128@@B 10048010     TriangleMeshBuilder.obj
 0003:00001020       ?maxV4Error@_VecMathTests@aos@shdfnd@physx@@3T__m128@@B 10048020     TriangleMeshBuilder.obj
 0003:00001030       ?minV4Error@_VecMathTests@aos@shdfnd@physx@@3T__m128@@B 10048030     TriangleMeshBuilder.obj
 0003:00001040       ?minV3Error@_VecMathTests@aos@shdfnd@physx@@3T__m128@@B 10048040     TriangleMeshBuilder.obj
 0003:00001050       ?maxFError@_VecMathTests@aos@shdfnd@physx@@3T__m128@@B 10048050     TriangleMeshBuilder.obj
 0003:00001060       ?maxV3Error@_VecMathTests@aos@shdfnd@physx@@3T__m128@@B 10048060     BigConvexDataBuilder.obj
 0003:00001070       ?minFError@_VecMathTests@aos@shdfnd@physx@@3T__m128@@B 10048070     BigConvexDataBuilder.obj
 0003:00001080       ?maxV4Error@_VecMathTests@aos@shdfnd@physx@@3T__m128@@B 10048080     BigConvexDataBuilder.obj
 0003:00001090       ?minV4Error@_VecMathTests@aos@shdfnd@physx@@3T__m128@@B 10048090     BigConvexDataBuilder.obj
 0003:000010a0       ?minV3Error@_VecMathTests@aos@shdfnd@physx@@3T__m128@@B 100480a0     BigConvexDataBuilder.obj
 0003:000010b0       ?maxFError@_VecMathTests@aos@shdfnd@physx@@3T__m128@@B 100480b0     BigConvexDataBuilder.obj
 0003:000010c0       ?maxV3Error@_VecMathTests@aos@shdfnd@physx@@3T__m128@@B 100480c0     ConvexHullBuilder.obj
 0003:000010d0       ?minFError@_VecMathTests@aos@shdfnd@physx@@3T__m128@@B 100480d0     ConvexHullBuilder.obj
 0003:000010e0       ?maxV4Error@_VecMathTests@aos@shdfnd@physx@@3T__m128@@B 100480e0     ConvexHullBuilder.obj
 0003:000010f0       ?minV4Error@_VecMathTests@aos@shdfnd@physx@@3T__m128@@B 100480f0     ConvexHullBuilder.obj
 0003:00001100       ?minV3Error@_VecMathTests@aos@shdfnd@physx@@3T__m128@@B 10048100     ConvexHullBuilder.obj
 0003:00001110       ?maxFError@_VecMathTests@aos@shdfnd@physx@@3T__m128@@B 10048110     ConvexHullBuilder.obj
 0003:00001120       ?maxV3Error@_VecMathTests@aos@shdfnd@physx@@3T__m128@@B 10048120     ConvexHullUtils.obj
 0003:00001130       ?minFError@_VecMathTests@aos@shdfnd@physx@@3T__m128@@B 10048130     ConvexHullUtils.obj
 0003:00001140       ?maxV4Error@_VecMathTests@aos@shdfnd@physx@@3T__m128@@B 10048140     ConvexHullUtils.obj
 0003:00001150       ?minV4Error@_VecMathTests@aos@shdfnd@physx@@3T__m128@@B 10048150     ConvexHullUtils.obj
 0003:00001160       ?minV3Error@_VecMathTests@aos@shdfnd@physx@@3T__m128@@B 10048160     ConvexHullUtils.obj
 0003:00001170       ?maxFError@_VecMathTests@aos@shdfnd@physx@@3T__m128@@B 10048170     ConvexHullUtils.obj
 0003:00001180       ?maxV3Error@_VecMathTests@aos@shdfnd@physx@@3T__m128@@B 10048180     ConvexMeshBuilder.obj
 0003:00001190       ?minFError@_VecMathTests@aos@shdfnd@physx@@3T__m128@@B 10048190     ConvexMeshBuilder.obj
 0003:000011a0       ?maxV4Error@_VecMathTests@aos@shdfnd@physx@@3T__m128@@B 100481a0     ConvexMeshBuilder.obj
 0003:000011b0       ?minV4Error@_VecMathTests@aos@shdfnd@physx@@3T__m128@@B 100481b0     ConvexMeshBuilder.obj
 0003:000011c0       ?minV3Error@_VecMathTests@aos@shdfnd@physx@@3T__m128@@B 100481c0     ConvexMeshBuilder.obj
 0003:000011d0       ?maxFError@_VecMathTests@aos@shdfnd@physx@@3T__m128@@B 100481d0     ConvexMeshBuilder.obj
 0003:000011e0       ?maxV3Error@_VecMathTests@aos@shdfnd@physx@@3T__m128@@B 100481e0     VolumeIntegration.obj
 0003:000011f0       ?minFError@_VecMathTests@aos@shdfnd@physx@@3T__m128@@B 100481f0     VolumeIntegration.obj
 0003:00001200       ?maxV4Error@_VecMathTests@aos@shdfnd@physx@@3T__m128@@B 10048200     VolumeIntegration.obj
 0003:00001210       ?minV4Error@_VecMathTests@aos@shdfnd@physx@@3T__m128@@B 10048210     VolumeIntegration.obj
 0003:00001220       ?minV3Error@_VecMathTests@aos@shdfnd@physx@@3T__m128@@B 10048220     VolumeIntegration.obj
 0003:00001230       ?maxFError@_VecMathTests@aos@shdfnd@physx@@3T__m128@@B 10048230     VolumeIntegration.obj
 0003:00001240       ?gCookingDelayLoadHook@@3PBVPxDelayLoadHook@physx@@B 10048240     WindowsCookingDelayLoadHook.obj
 0003:00001270       ?__proc_attached@@3HA      10048270     LIBCMT:dll_dllmain.obj
 0003:00001298       ?is_initialized_as_dll@@3_NA 10048298     LIBCMT:utility.obj
 0003:00001299       ?module_local_atexit_table_initialized@@3_NA 10048299     LIBCMT:utility.obj
 0003:0000129c       ?module_local_atexit_table@@3U_onexit_table_t@@A 1004829c     LIBCMT:utility.obj
 0003:000012a8       ?module_local_at_quick_exit_table@@3U_onexit_table_t@@A 100482a8     LIBCMT:utility.obj
 0003:000012b8       _GS_ExceptionRecord        100482b8     LIBCMT:gs_report.obj
 0003:00001308       _GS_ContextRecord          10048308     LIBCMT:gs_report.obj
 0003:00001604       ?heap@@3V_HeapManager@@A   10048604     libvcruntime:undname.obj
 0003:00001618       ?__vcrt_startup_thread_ptd@@3U__vcrt_ptd@@A 10048618     libvcruntime:per_thread_data.obj
 0003:00001640       ___vcrt_lock_table         10048640     libvcruntime:locks.obj
 0003:00001658       ___vcrt_locks_initialized  10048658     libvcruntime:locks.obj
 0003:0000165c       ?module_handles@@3PAPAUHINSTANCE__@@A 1004865c     libvcruntime:winapi_downlevel.obj
 0003:00001668       ?function_pointers@@3PAPAXA 10048668     libvcruntime:winapi_downlevel.obj
 0003:0000167c       ?c_termination_complete@@3JA 1004867c     libucrt:exit.obj
 0003:00001680       ?thread_local_exit_callback_func@@3P6GXPAXK0@ZA 10048680     libucrt:exit.obj
 0003:00001684       ?c_exit_complete@?1???R<lambda_6e4b09c48022b2350581041d5f6b0c4c>@@QBE@XZ@4_NA 10048684     libucrt:exit.obj
 0003:00001688       ?program_name@?1???$common_configure_argv@D@@YAHW4_crt_argv_mode@@@Z@4PADA 10048688     libucrt:argv_parsing.obj
 0003:000017b8       ?user_matherr@@3V?$dual_state_global@P6AHPAU_exception@@@Z@__crt_state_management@@A 100487b8     libucrt:matherr.obj
 0003:000017c0       ?__acrt_lock_table@@3PAU_RTL_CRITICAL_SECTION@@A 100487c0     libucrt:locks.obj
 0003:00001910       ?__acrt_locks_initialized@@3IA 10048910     libucrt:locks.obj
 0003:00001914       ?__acrt_invalid_parameter_handler@@3V?$dual_state_global@P6AXPB_W00II@Z@__crt_state_management@@A 10048914     libucrt:invalid_parameter.obj
 0003:00001924       ?fSystemSet@@3HA           10048924     libucrt:mbctype.obj
 0003:00001928       ?initialized@?1??__acrt_initialize_multibyte@@9@4_NA 10048928     libucrt:mbctype.obj
 0003:00001948       ?module_handles@@3PAPAUHINSTANCE__@@A 10048948     libucrt:winapi_thunks.obj
 0003:000019a0       ?encoded_function_pointers@@3PAPAXA 100489a0     libucrt:winapi_thunks.obj
 0003:00001c34       ?__acrt_new_handler@@3V?$dual_state_global@P6AHI@Z@__crt_state_management@@A 10048c34     libucrt:new_handler.obj
 0003:00001c38       ?ctrlc_action@@3V?$dual_state_global@P6AXH@Z@__crt_state_management@@A 10048c38     libucrt:signal.obj
 0003:00001c3c       ?ctrlbreak_action@@3V?$dual_state_global@P6AXH@Z@__crt_state_management@@A 10048c3c     libucrt:signal.obj
 0003:00001c40       ?abort_action@@3V?$dual_state_global@P6AXH@Z@__crt_state_management@@A 10048c40     libucrt:signal.obj
 0003:00001c44       ?term_action@@3V?$dual_state_global@P6AXH@Z@__crt_state_management@@A 10048c44     libucrt:signal.obj
 0003:00001c5c       ?internal_state@?1??_mbtowc_internal@@9@4U_Mbstatet@@A 10048c5c     libucrt:mbtowc.obj
 0003:00001c64       ?enable_percent_n@@3IA     10048c64     libucrt:printf_count_output.obj
 0003:00001c6c       ?__acrt_global_new_mode@@3V?$dual_state_global@J@__crt_state_management@@A 10048c6c     libucrt:new_mode.obj
 0003:00001c7c       ?__acrt_app_type@@3W4_crt_app_type@@A 10048c7c     libucrt:report_runtime_error.obj
 0003:00001c80       ?internal_pst@?1??__mbrtoc32_utf8@__crt_mbstring@@YAIPA_UPBDIPAU_Mbstatet@@AAV__crt_cached_ptd_host@@@Z@4U3@A 10048c80     libucrt:mbrtoc32.obj
 0003:00001c88       __pmatherr_set             10048c88     libucrt:libm_error.obj
 0004:00000000       _static_const_table        10049000     LIBCMT:svml_ssinf4_sse2.obj
 0004:00000100       __e02PI                    10049100     LIBCMT:svml_dtrig.obj
 0004:000002a0       __e04PI                    100492a0     LIBCMT:svml_dtrig.obj
 0004:00000430       _2il0floatpacket_0         10049430     LIBCMT:svml_dtrig.obj
 0004:00000440       _2il0floatpacket_1         10049440     LIBCMT:svml_dtrig.obj
 0004:00000448       __d02PI                    10049448     LIBCMT:svml_dtrig.obj
 0004:00000458       __DP4                      10049458     LIBCMT:svml_dtrig.obj
 0004:00000478       __dPI02                    10049478     LIBCMT:svml_dtrig.obj
 0004:00000488       __d04PI                    10049488     LIBCMT:svml_dtrig.obj
 0004:00000498       __QP4                      10049498     LIBCMT:svml_dtrig.obj
 0004:000004b8       __dPI04                    100494b8     LIBCMT:svml_dtrig.obj
 0004:00002600       __vmlsSinHATab             1004b600     LIBCMT:svml_s_sin_cout.obj
 0005:000000a0       $R000000                   1004c0a0     PhysXCooking.res
 0005:000003d0       $R000330                   1004c3d0     PhysXCooking.res
